Archive member included because of file (symbol)

c:/ndsdev/devkitPro/libnds/lib\libdswifi9.a(sgIP_DNS.o)
                              wifi.o (inet_addr)
c:/ndsdev/devkitPro/libnds/lib\libdswifi9.a(sgIP_Hub.o)
                              c:/ndsdev/devkitPro/libnds/lib\libdswifi9.a(sgIP_DNS.o) (sgIP_Hub_GetDefaultInterface)
c:/ndsdev/devkitPro/libnds/lib\libdswifi9.a(sgIP_memblock.o)
                              c:/ndsdev/devkitPro/libnds/lib\libdswifi9.a(sgIP_Hub.o) (sgIP_memblock_free)
c:/ndsdev/devkitPro/libnds/lib\libdswifi9.a(sgIP_sockets.o)
                              wifi.o (socket)
c:/ndsdev/devkitPro/libnds/lib\libdswifi9.a(wifi_arm9.o)
                              c:/ndsdev/devkitPro/libnds/lib\libdswifi9.a(sgIP_DNS.o) (sgIP_IntrWaitEvent)
c:/ndsdev/devkitPro/libnds/lib\libdswifi9.a(spinlock.o)
                              c:/ndsdev/devkitPro/libnds/lib\libdswifi9.a(wifi_arm9.o) (SLasm_Acquire)
c:/ndsdev/devkitPro/libnds/lib\libdswifi9.a(sgIP.o)
                              c:/ndsdev/devkitPro/libnds/lib\libdswifi9.a(wifi_arm9.o) (sgIP_Init)
c:/ndsdev/devkitPro/libnds/lib\libdswifi9.a(sgIP_ARP.o)
                              c:/ndsdev/devkitPro/libnds/lib\libdswifi9.a(sgIP.o) (sgIP_ARP_Init)
c:/ndsdev/devkitPro/libnds/lib\libdswifi9.a(sgIP_DHCP.o)
                              c:/ndsdev/devkitPro/libnds/lib\libdswifi9.a(sgIP.o) (sgIP_DHCP_Init)
c:/ndsdev/devkitPro/libnds/lib\libdswifi9.a(sgIP_IP.o)
                              c:/ndsdev/devkitPro/libnds/lib\libdswifi9.a(sgIP.o) (sgIP_IP_ReceivePacket)
c:/ndsdev/devkitPro/libnds/lib\libdswifi9.a(sgIP_TCP.o)
                              c:/ndsdev/devkitPro/libnds/lib\libdswifi9.a(sgIP.o) (sgIP_TCP_Init)
c:/ndsdev/devkitPro/libnds/lib\libdswifi9.a(sgIP_UDP.o)
                              c:/ndsdev/devkitPro/libnds/lib\libdswifi9.a(sgIP.o) (sgIP_UDP_Init)
c:/ndsdev/devkitPro/libnds/lib\libdswifi9.a(sgIP_ICMP.o)
                              c:/ndsdev/devkitPro/libnds/lib\libdswifi9.a(sgIP_IP.o) (sgIP_ICMP_ReceivePacket)
c:/ndsdev/devkitPro/libnds/lib\libfat.a(libfat.o)
                              main.o (fatInitDefault)
c:/ndsdev/devkitPro/libnds/lib\libfat.a(partition.o)
                              c:/ndsdev/devkitPro/libnds/lib\libfat.a(libfat.o) (_FAT_partition_constructor)
c:/ndsdev/devkitPro/libnds/lib\libfat.a(cache.o)
                              c:/ndsdev/devkitPro/libnds/lib\libfat.a(partition.o) (_FAT_cache_constructor)
c:/ndsdev/devkitPro/libnds/lib\libfat.a(directory.o)
                              c:/ndsdev/devkitPro/libnds/lib\libfat.a(libfat.o) (_FAT_directory_getVolumeLabel)
c:/ndsdev/devkitPro/libnds/lib\libfat.a(disc.o)
                              c:/ndsdev/devkitPro/libnds/lib\libfat.a(libfat.o) (_FAT_disc_interfaces)
c:/ndsdev/devkitPro/libnds/lib\libfat.a(fatdir.o)
                              c:/ndsdev/devkitPro/libnds/lib\libfat.a(libfat.o) (_FAT_stat_r)
c:/ndsdev/devkitPro/libnds/lib\libfat.a(fatfile.o)
                              c:/ndsdev/devkitPro/libnds/lib\libfat.a(libfat.o) (_FAT_open_r)
c:/ndsdev/devkitPro/libnds/lib\libfat.a(file_allocation_table.o)
                              c:/ndsdev/devkitPro/libnds/lib\libfat.a(directory.o) (_FAT_fat_nextCluster)
c:/ndsdev/devkitPro/libnds/lib\libfat.a(filetime.o)
                              c:/ndsdev/devkitPro/libnds/lib\libfat.a(fatdir.o) (_FAT_filetime_getTimeFromRTC)
c:/ndsdev/devkitPro/libnds/lib\libfat.a(lock.o)
                              c:/ndsdev/devkitPro/libnds/lib\libfat.a(partition.o) (_FAT_lock_init)
c:/ndsdev/devkitPro/libnds/lib\libnds9.a(console.o)
                              main.o (consoleDemoInit)
c:/ndsdev/devkitPro/libnds/lib\libnds9.a(dldi.o)
                              c:/ndsdev/devkitPro/libnds/lib\libfat.a(disc.o) (dldiGetInternal)
c:/ndsdev/devkitPro/libnds/lib\libnds9.a(dsi_sd.o)
                              c:/ndsdev/devkitPro/libnds/lib\libfat.a(disc.o) (__io_dsisd)
c:/ndsdev/devkitPro/libnds/lib\libnds9.a(initSystem.o)
                              c:/ndsdev/devkitpro/devkitarm/bin/../lib/gcc/arm-eabi/4.6.0/../../../../arm-eabi/lib/thumb/ds_arm9_crt0.o (initSystem)
c:/ndsdev/devkitPro/libnds/lib\libnds9.a(fifosystem.o)
                              c:/ndsdev/devkitPro/libnds/lib\libdswifi9.a(wifi_arm9.o) (fifoSendAddress)
c:/ndsdev/devkitPro/libnds/lib\libnds9.a(interrupts.o)
                              c:/ndsdev/devkitPro/libnds/lib\libdswifi9.a(wifi_arm9.o) (irqSet)
c:/ndsdev/devkitPro/libnds/lib\libnds9.a(libnds_exit.o)
                              c:/ndsdev/devkitpro/devkitarm/bin/../lib/gcc/arm-eabi/4.6.0/../../../../arm-eabi/lib/thumb/ds_arm9_crt0.o (__libnds_exit)
c:/ndsdev/devkitPro/libnds/lib\libnds9.a(dcache.o)
                              c:/ndsdev/devkitPro/libnds/lib\libdswifi9.a(wifi_arm9.o) (DC_FlushAll)
c:/ndsdev/devkitPro/libnds/lib\libnds9.a(dldi_stub.o)
                              c:/ndsdev/devkitPro/libnds/lib\libnds9.a(dldi.o) (_io_dldi_stub)
c:/ndsdev/devkitPro/libnds/lib\libnds9.a(mpu_setup.o)
                              c:/ndsdev/devkitpro/devkitarm/bin/../lib/gcc/arm-eabi/4.6.0/../../../../arm-eabi/lib/thumb/ds_arm9_crt0.o (__libnds_mpu_setup)
c:/ndsdev/devkitPro/libnds/lib\libnds9.a(biosCalls.o)
                              c:/ndsdev/devkitPro/libnds/lib\libnds9.a(fifosystem.o) (swiIntrWait)
c:/ndsdev/devkitPro/libnds/lib\libnds9.a(debugprint.o)
                              c:/ndsdev/devkitPro/libnds/lib\libnds9.a(console.o) (nocashWrite)
c:/ndsdev/devkitPro/libnds/lib\libnds9.a(interruptDispatcher.o)
                              c:/ndsdev/devkitPro/libnds/lib\libnds9.a(interrupts.o) (IntrMain)
c:/ndsdev/devkitPro/libnds/lib\libnds9.a(swiSoftReset.o)
                              c:/ndsdev/devkitPro/libnds/lib\libnds9.a(fifosystem.o) (swiSoftReset)
c:/ndsdev/devkitPro/libnds/lib\libnds9.a(default_font.bin.o)
                              c:/ndsdev/devkitPro/libnds/lib\libnds9.a(console.o) (default_font_bin)
c:/ndsdev/devkitPro/libnds/lib\libnds9.a(background.o)
                              c:/ndsdev/devkitPro/libnds/lib\libnds9.a(console.o) (bgState)
c:/ndsdev/devkitPro/libnds/lib\libnds9.a(system.o)
                              c:/ndsdev/devkitPro/libnds/lib\libnds9.a(initSystem.o) (systemMsgHandler)
c:/ndsdev/devkitPro/libnds/lib\libnds9.a(trig.o)
                              c:/ndsdev/devkitPro/libnds/lib\libnds9.a(background.o) (sinLerp)
c:/ndsdev/devkitPro/libnds/lib\libnds9.a(video.o)
                              c:/ndsdev/devkitPro/libnds/lib\libnds9.a(initSystem.o) (vramDefault)
c:/ndsdev/devkitpro/devkitarm/bin/../lib/gcc/arm-eabi/4.6.0/thumb\libgcc.a(_udivsi3.o)
                              c:/ndsdev/devkitPro/libnds/lib\libdswifi9.a(sgIP_DHCP.o) (__aeabi_uidiv)
c:/ndsdev/devkitpro/devkitarm/bin/../lib/gcc/arm-eabi/4.6.0/thumb\libgcc.a(_divsi3.o)
                              c:/ndsdev/devkitPro/libnds/lib\libdswifi9.a(sgIP_DNS.o) (__aeabi_idiv)
c:/ndsdev/devkitpro/devkitarm/bin/../lib/gcc/arm-eabi/4.6.0/thumb\libgcc.a(_dvmd_tls.o)
                              c:/ndsdev/devkitpro/devkitarm/bin/../lib/gcc/arm-eabi/4.6.0/thumb\libgcc.a(_udivsi3.o) (__aeabi_idiv0)
c:/ndsdev/devkitpro/devkitarm/bin/../lib/gcc/arm-eabi/4.6.0/../../../../arm-eabi/lib/thumb\libg.a(lib_a-atoi.o)
                              wifi.o (atoi)
c:/ndsdev/devkitpro/devkitarm/bin/../lib/gcc/arm-eabi/4.6.0/../../../../arm-eabi/lib/thumb\libg.a(lib_a-bsearch.o)
                              c:/ndsdev/devkitPro/libnds/lib\libnds9.a(trig.o) (bsearch)
c:/ndsdev/devkitpro/devkitarm/bin/../lib/gcc/arm-eabi/4.6.0/../../../../arm-eabi/lib/thumb\libg.a(lib_a-errno.o)
                              wifi.o (__errno)
c:/ndsdev/devkitpro/devkitarm/bin/../lib/gcc/arm-eabi/4.6.0/../../../../arm-eabi/lib/thumb\libg.a(lib_a-fclose.o)
                              download.o (fclose)
c:/ndsdev/devkitpro/devkitarm/bin/../lib/gcc/arm-eabi/4.6.0/../../../../arm-eabi/lib/thumb\libg.a(lib_a-fflush.o)
                              c:/ndsdev/devkitpro/devkitarm/bin/../lib/gcc/arm-eabi/4.6.0/../../../../arm-eabi/lib/thumb\libg.a(lib_a-fclose.o) (_fflush_r)
c:/ndsdev/devkitpro/devkitarm/bin/../lib/gcc/arm-eabi/4.6.0/../../../../arm-eabi/lib/thumb\libg.a(lib_a-fgets.o)
                              wifi.o (fgets)
c:/ndsdev/devkitpro/devkitarm/bin/../lib/gcc/arm-eabi/4.6.0/../../../../arm-eabi/lib/thumb\libg.a(lib_a-findfp.o)
                              c:/ndsdev/devkitpro/devkitarm/bin/../lib/gcc/arm-eabi/4.6.0/../../../../arm-eabi/lib/thumb\libg.a(lib_a-fclose.o) (__sinit)
c:/ndsdev/devkitpro/devkitarm/bin/../lib/gcc/arm-eabi/4.6.0/../../../../arm-eabi/lib/thumb\libg.a(lib_a-fopen.o)
                              download.o (fopen)
c:/ndsdev/devkitpro/devkitarm/bin/../lib/gcc/arm-eabi/4.6.0/../../../../arm-eabi/lib/thumb\libg.a(lib_a-freer.o)
                              c:/ndsdev/devkitpro/devkitarm/bin/../lib/gcc/arm-eabi/4.6.0/../../../../arm-eabi/lib/thumb\libg.a(lib_a-fclose.o) (_free_r)
c:/ndsdev/devkitpro/devkitarm/bin/../lib/gcc/arm-eabi/4.6.0/../../../../arm-eabi/lib/thumb\libg.a(lib_a-fseek.o)
                              c:/ndsdev/devkitpro/devkitarm/bin/../lib/gcc/arm-eabi/4.6.0/../../../../arm-eabi/lib/thumb\libg.a(lib_a-fopen.o) (_fseek_r)
c:/ndsdev/devkitpro/devkitarm/bin/../lib/gcc/arm-eabi/4.6.0/../../../../arm-eabi/lib/thumb\libg.a(lib_a-fwalk.o)
                              c:/ndsdev/devkitpro/devkitarm/bin/../lib/gcc/arm-eabi/4.6.0/../../../../arm-eabi/lib/thumb\libg.a(lib_a-findfp.o) (_fwalk)
c:/ndsdev/devkitpro/devkitarm/bin/../lib/gcc/arm-eabi/4.6.0/../../../../arm-eabi/lib/thumb\libg.a(lib_a-fwrite.o)
                              download.o (fwrite)
c:/ndsdev/devkitpro/devkitarm/bin/../lib/gcc/arm-eabi/4.6.0/../../../../arm-eabi/lib/thumb\libg.a(lib_a-impure.o)
                              c:/ndsdev/devkitpro/devkitarm/bin/../lib/gcc/arm-eabi/4.6.0/../../../../arm-eabi/lib/thumb\libg.a(lib_a-fflush.o) (_global_impure_ptr)
c:/ndsdev/devkitpro/devkitarm/bin/../lib/gcc/arm-eabi/4.6.0/../../../../arm-eabi/lib/thumb\libg.a(lib_a-init.o)
                              c:/ndsdev/devkitpro/devkitarm/bin/../lib/gcc/arm-eabi/4.6.0/../../../../arm-eabi/lib/thumb/ds_arm9_crt0.o (__libc_init_array)
c:/ndsdev/devkitpro/devkitarm/bin/../lib/gcc/arm-eabi/4.6.0/../../../../arm-eabi/lib/thumb\libg.a(lib_a-iprintf.o)
                              download.o (iprintf)
c:/ndsdev/devkitpro/devkitarm/bin/../lib/gcc/arm-eabi/4.6.0/../../../../arm-eabi/lib/thumb\libg.a(lib_a-lcltime_r.o)
                              c:/ndsdev/devkitPro/libnds/lib\libfat.a(filetime.o) (localtime_r)
c:/ndsdev/devkitpro/devkitarm/bin/../lib/gcc/arm-eabi/4.6.0/../../../../arm-eabi/lib/thumb\libg.a(lib_a-locale.o)
                              c:/ndsdev/devkitPro/libnds/lib\libfat.a(directory.o) (__mb_cur_max)
c:/ndsdev/devkitpro/devkitarm/bin/../lib/gcc/arm-eabi/4.6.0/../../../../arm-eabi/lib/thumb\libg.a(lib_a-makebuf.o)
                              c:/ndsdev/devkitpro/devkitarm/bin/../lib/gcc/arm-eabi/4.6.0/../../../../arm-eabi/lib/thumb\libg.a(lib_a-fseek.o) (__smakebuf_r)
c:/ndsdev/devkitpro/devkitarm/bin/../lib/gcc/arm-eabi/4.6.0/../../../../arm-eabi/lib/thumb\libg.a(lib_a-malloc.o)
                              download.o (malloc)
c:/ndsdev/devkitpro/devkitarm/bin/../lib/gcc/arm-eabi/4.6.0/../../../../arm-eabi/lib/thumb\libg.a(lib_a-mallocr.o)
                              c:/ndsdev/devkitpro/devkitarm/bin/../lib/gcc/arm-eabi/4.6.0/../../../../arm-eabi/lib/thumb\libg.a(lib_a-findfp.o) (_malloc_r)
c:/ndsdev/devkitpro/devkitarm/bin/../lib/gcc/arm-eabi/4.6.0/../../../../arm-eabi/lib/thumb\libg.a(lib_a-mbrtowc.o)
                              c:/ndsdev/devkitPro/libnds/lib\libfat.a(directory.o) (mbrtowc)
c:/ndsdev/devkitpro/devkitarm/bin/../lib/gcc/arm-eabi/4.6.0/../../../../arm-eabi/lib/thumb\libg.a(lib_a-mbsrtowcs.o)
                              c:/ndsdev/devkitPro/libnds/lib\libfat.a(directory.o) (mbsrtowcs)
c:/ndsdev/devkitpro/devkitarm/bin/../lib/gcc/arm-eabi/4.6.0/../../../../arm-eabi/lib/thumb\libg.a(lib_a-mbtowc_r.o)
                              c:/ndsdev/devkitpro/devkitarm/bin/../lib/gcc/arm-eabi/4.6.0/../../../../arm-eabi/lib/thumb\libg.a(lib_a-locale.o) (__utf8_mbtowc)
c:/ndsdev/devkitpro/devkitarm/bin/../lib/gcc/arm-eabi/4.6.0/../../../../arm-eabi/lib/thumb\libg.a(lib_a-memchr.o)
                              c:/ndsdev/devkitpro/devkitarm/bin/../lib/gcc/arm-eabi/4.6.0/../../../../arm-eabi/lib/thumb\libg.a(lib_a-fgets.o) (memchr)
c:/ndsdev/devkitpro/devkitarm/bin/../lib/gcc/arm-eabi/4.6.0/../../../../arm-eabi/lib/thumb\libg.a(lib_a-memcmp.o)
                              c:/ndsdev/devkitPro/libnds/lib\libfat.a(partition.o) (memcmp)
c:/ndsdev/devkitpro/devkitarm/bin/../lib/gcc/arm-eabi/4.6.0/../../../../arm-eabi/lib/thumb\libg.a(lib_a-memcpy.o)
                              download.o (memcpy)
c:/ndsdev/devkitpro/devkitarm/bin/../lib/gcc/arm-eabi/4.6.0/../../../../arm-eabi/lib/thumb\libg.a(lib_a-memmove.o)
                              c:/ndsdev/devkitPro/libnds/lib\libfat.a(directory.o) (memmove)
c:/ndsdev/devkitpro/devkitarm/bin/../lib/gcc/arm-eabi/4.6.0/../../../../arm-eabi/lib/thumb\libg.a(lib_a-memset.o)
                              c:/ndsdev/devkitPro/libnds/lib\libdswifi9.a(sgIP_DHCP.o) (memset)
c:/ndsdev/devkitpro/devkitarm/bin/../lib/gcc/arm-eabi/4.6.0/../../../../arm-eabi/lib/thumb\libg.a(lib_a-mktime.o)
                              c:/ndsdev/devkitPro/libnds/lib\libfat.a(filetime.o) (mktime)
c:/ndsdev/devkitpro/devkitarm/bin/../lib/gcc/arm-eabi/4.6.0/../../../../arm-eabi/lib/thumb\libg.a(lib_a-mktm_r.o)
                              c:/ndsdev/devkitpro/devkitarm/bin/../lib/gcc/arm-eabi/4.6.0/../../../../arm-eabi/lib/thumb\libg.a(lib_a-mktime.o) (__tzcalc_limits)
c:/ndsdev/devkitpro/devkitarm/bin/../lib/gcc/arm-eabi/4.6.0/../../../../arm-eabi/lib/thumb\libg.a(lib_a-mlock.o)
                              c:/ndsdev/devkitpro/devkitarm/bin/../lib/gcc/arm-eabi/4.6.0/../../../../arm-eabi/lib/thumb\libg.a(lib_a-freer.o) (__malloc_lock)
c:/ndsdev/devkitpro/devkitarm/bin/../lib/gcc/arm-eabi/4.6.0/../../../../arm-eabi/lib/thumb\libg.a(lib_a-printf.o)
                              main.o (printf)
c:/ndsdev/devkitpro/devkitarm/bin/../lib/gcc/arm-eabi/4.6.0/../../../../arm-eabi/lib/thumb\libg.a(lib_a-refill.o)
                              c:/ndsdev/devkitpro/devkitarm/bin/../lib/gcc/arm-eabi/4.6.0/../../../../arm-eabi/lib/thumb\libg.a(lib_a-fgets.o) (__srefill_r)
c:/ndsdev/devkitpro/devkitarm/bin/../lib/gcc/arm-eabi/4.6.0/../../../../arm-eabi/lib/thumb\libg.a(lib_a-setvbuf.o)
                              c:/ndsdev/devkitPro/libnds/lib\libnds9.a(console.o) (setvbuf)
c:/ndsdev/devkitpro/devkitarm/bin/../lib/gcc/arm-eabi/4.6.0/../../../../arm-eabi/lib/thumb\libg.a(lib_a-siscanf.o)
                              c:/ndsdev/devkitPro/libnds/lib\libnds9.a(console.o) (siscanf)
c:/ndsdev/devkitpro/devkitarm/bin/../lib/gcc/arm-eabi/4.6.0/../../../../arm-eabi/lib/thumb\libg.a(lib_a-sprintf.o)
                              c:/ndsdev/devkitPro/libnds/lib\libfat.a(libfat.o) (sprintf)
c:/ndsdev/devkitpro/devkitarm/bin/../lib/gcc/arm-eabi/4.6.0/../../../../arm-eabi/lib/thumb\libg.a(lib_a-sscanf.o)
                              download.o (sscanf)
c:/ndsdev/devkitpro/devkitarm/bin/../lib/gcc/arm-eabi/4.6.0/../../../../arm-eabi/lib/thumb\libg.a(lib_a-stdio.o)
                              c:/ndsdev/devkitpro/devkitarm/bin/../lib/gcc/arm-eabi/4.6.0/../../../../arm-eabi/lib/thumb\libg.a(lib_a-findfp.o) (__sread)
c:/ndsdev/devkitpro/devkitarm/bin/../lib/gcc/arm-eabi/4.6.0/../../../../arm-eabi/lib/thumb\libg.a(lib_a-strcasecmp.o)
                              c:/ndsdev/devkitpro/devkitarm/bin/../lib/gcc/arm-eabi/4.6.0/../../../../arm-eabi/lib/thumb\libg.a(lib_a-locale.o) (strcasecmp)
c:/ndsdev/devkitpro/devkitarm/bin/../lib/gcc/arm-eabi/4.6.0/../../../../arm-eabi/lib/thumb\libg.a(lib_a-strcat.o)
                              c:/ndsdev/devkitpro/devkitarm/bin/../lib/gcc/arm-eabi/4.6.0/../../../../arm-eabi/lib/thumb\libg.a(lib_a-locale.o) (strcat)
c:/ndsdev/devkitpro/devkitarm/bin/../lib/gcc/arm-eabi/4.6.0/../../../../arm-eabi/lib/thumb\libg.a(lib_a-strchr.o)
                              c:/ndsdev/devkitPro/libnds/lib\libfat.a(directory.o) (strchr)
c:/ndsdev/devkitpro/devkitarm/bin/../lib/gcc/arm-eabi/4.6.0/../../../../arm-eabi/lib/thumb\libg.a(lib_a-strcmp.o)
                              download.o (strcmp)
c:/ndsdev/devkitpro/devkitarm/bin/../lib/gcc/arm-eabi/4.6.0/../../../../arm-eabi/lib/thumb\libg.a(lib_a-strcpy.o)
                              download.o (strcpy)
c:/ndsdev/devkitpro/devkitarm/bin/../lib/gcc/arm-eabi/4.6.0/../../../../arm-eabi/lib/thumb\libg.a(lib_a-strlcpy.o)
                              c:/ndsdev/devkitpro/devkitarm/bin/../lib/gcc/arm-eabi/4.6.0/../../../../arm-eabi/lib/thumb\libg.a(lib_a-locale.o) (strlcpy)
c:/ndsdev/devkitpro/devkitarm/bin/../lib/gcc/arm-eabi/4.6.0/../../../../arm-eabi/lib/thumb\libg.a(lib_a-strlen.o)
                              download.o (strlen)
c:/ndsdev/devkitpro/devkitarm/bin/../lib/gcc/arm-eabi/4.6.0/../../../../arm-eabi/lib/thumb\libg.a(lib_a-strncasecmp.o)
                              c:/ndsdev/devkitPro/libnds/lib\libfat.a(libfat.o) (strncasecmp)
c:/ndsdev/devkitpro/devkitarm/bin/../lib/gcc/arm-eabi/4.6.0/../../../../arm-eabi/lib/thumb\libg.a(lib_a-strncmp.o)
                              download.o (strncmp)
c:/ndsdev/devkitpro/devkitarm/bin/../lib/gcc/arm-eabi/4.6.0/../../../../arm-eabi/lib/thumb\libg.a(lib_a-strncpy.o)
                              c:/ndsdev/devkitPro/libnds/lib\libdswifi9.a(sgIP_DHCP.o) (strncpy)
c:/ndsdev/devkitpro/devkitarm/bin/../lib/gcc/arm-eabi/4.6.0/../../../../arm-eabi/lib/thumb\libg.a(lib_a-strnlen.o)
                              c:/ndsdev/devkitPro/libnds/lib\libfat.a(directory.o) (strnlen)
c:/ndsdev/devkitpro/devkitarm/bin/../lib/gcc/arm-eabi/4.6.0/../../../../arm-eabi/lib/thumb\libg.a(lib_a-strpbrk.o)
                              c:/ndsdev/devkitPro/libnds/lib\libfat.a(directory.o) (strpbrk)
c:/ndsdev/devkitpro/devkitarm/bin/../lib/gcc/arm-eabi/4.6.0/../../../../arm-eabi/lib/thumb\libg.a(lib_a-strrchr.o)
                              c:/ndsdev/devkitPro/libnds/lib\libfat.a(libfat.o) (strrchr)
c:/ndsdev/devkitpro/devkitarm/bin/../lib/gcc/arm-eabi/4.6.0/../../../../arm-eabi/lib/thumb\libg.a(lib_a-strtol.o)
                              c:/ndsdev/devkitpro/devkitarm/bin/../lib/gcc/arm-eabi/4.6.0/../../../../arm-eabi/lib/thumb\libg.a(lib_a-atoi.o) (_strtol_r)
c:/ndsdev/devkitpro/devkitarm/bin/../lib/gcc/arm-eabi/4.6.0/../../../../arm-eabi/lib/thumb\libg.a(lib_a-svfiscanf.o)
                              c:/ndsdev/devkitpro/devkitarm/bin/../lib/gcc/arm-eabi/4.6.0/../../../../arm-eabi/lib/thumb\libg.a(lib_a-siscanf.o) (__ssvfiscanf_r)
c:/ndsdev/devkitpro/devkitarm/bin/../lib/gcc/arm-eabi/4.6.0/../../../../arm-eabi/lib/thumb\libg.a(lib_a-svfprintf.o)
                              c:/ndsdev/devkitpro/devkitarm/bin/../lib/gcc/arm-eabi/4.6.0/../../../../arm-eabi/lib/thumb\libg.a(lib_a-sprintf.o) (_svfprintf_r)
c:/ndsdev/devkitpro/devkitarm/bin/../lib/gcc/arm-eabi/4.6.0/../../../../arm-eabi/lib/thumb\libg.a(lib_a-svfscanf.o)
                              c:/ndsdev/devkitpro/devkitarm/bin/../lib/gcc/arm-eabi/4.6.0/../../../../arm-eabi/lib/thumb\libg.a(lib_a-sscanf.o) (__ssvfscanf_r)
c:/ndsdev/devkitpro/devkitarm/bin/../lib/gcc/arm-eabi/4.6.0/../../../../arm-eabi/lib/thumb\libg.a(lib_a-sysclose.o)
                              c:/ndsdev/devkitPro/libnds/lib\libnds9.a(dldi.o) (close)
c:/ndsdev/devkitpro/devkitarm/bin/../lib/gcc/arm-eabi/4.6.0/../../../../arm-eabi/lib/thumb\libg.a(lib_a-syslseek.o)
                              c:/ndsdev/devkitPro/libnds/lib\libnds9.a(dldi.o) (lseek)
c:/ndsdev/devkitpro/devkitarm/bin/../lib/gcc/arm-eabi/4.6.0/../../../../arm-eabi/lib/thumb\libg.a(lib_a-sysopen.o)
                              c:/ndsdev/devkitPro/libnds/lib\libnds9.a(dldi.o) (open)
c:/ndsdev/devkitpro/devkitarm/bin/../lib/gcc/arm-eabi/4.6.0/../../../../arm-eabi/lib/thumb\libg.a(lib_a-sysread.o)
                              c:/ndsdev/devkitPro/libnds/lib\libnds9.a(dldi.o) (read)
c:/ndsdev/devkitpro/devkitarm/bin/../lib/gcc/arm-eabi/4.6.0/../../../../arm-eabi/lib/thumb\libg.a(lib_a-time.o)
                              c:/ndsdev/devkitPro/libnds/lib\libfat.a(filetime.o) (time)
c:/ndsdev/devkitpro/devkitarm/bin/../lib/gcc/arm-eabi/4.6.0/../../../../arm-eabi/lib/thumb\libg.a(lib_a-towlower.o)
                              c:/ndsdev/devkitPro/libnds/lib\libfat.a(directory.o) (towlower)
c:/ndsdev/devkitpro/devkitarm/bin/../lib/gcc/arm-eabi/4.6.0/../../../../arm-eabi/lib/thumb\libg.a(lib_a-towupper.o)
                              c:/ndsdev/devkitPro/libnds/lib\libfat.a(directory.o) (towupper)
c:/ndsdev/devkitpro/devkitarm/bin/../lib/gcc/arm-eabi/4.6.0/../../../../arm-eabi/lib/thumb\libg.a(lib_a-tzlock.o)
                              c:/ndsdev/devkitpro/devkitarm/bin/../lib/gcc/arm-eabi/4.6.0/../../../../arm-eabi/lib/thumb\libg.a(lib_a-mktm_r.o) (__tz_lock)
c:/ndsdev/devkitpro/devkitarm/bin/../lib/gcc/arm-eabi/4.6.0/../../../../arm-eabi/lib/thumb\libg.a(lib_a-tzvars.o)
                              c:/ndsdev/devkitpro/devkitarm/bin/../lib/gcc/arm-eabi/4.6.0/../../../../arm-eabi/lib/thumb\libg.a(lib_a-mktime.o) (_daylight)
c:/ndsdev/devkitpro/devkitarm/bin/../lib/gcc/arm-eabi/4.6.0/../../../../arm-eabi/lib/thumb\libg.a(lib_a-ungetc.o)
                              c:/ndsdev/devkitpro/devkitarm/bin/../lib/gcc/arm-eabi/4.6.0/../../../../arm-eabi/lib/thumb\libg.a(lib_a-svfiscanf.o) (__submore)
c:/ndsdev/devkitpro/devkitarm/bin/../lib/gcc/arm-eabi/4.6.0/../../../../arm-eabi/lib/thumb\libg.a(lib_a-vfiprintf.o)
                              c:/ndsdev/devkitpro/devkitarm/bin/../lib/gcc/arm-eabi/4.6.0/../../../../arm-eabi/lib/thumb\libg.a(lib_a-iprintf.o) (_vfiprintf_r)
c:/ndsdev/devkitpro/devkitarm/bin/../lib/gcc/arm-eabi/4.6.0/../../../../arm-eabi/lib/thumb\libg.a(lib_a-vfprintf.o)
                              c:/ndsdev/devkitpro/devkitarm/bin/../lib/gcc/arm-eabi/4.6.0/../../../../arm-eabi/lib/thumb\libg.a(lib_a-printf.o) (_vfprintf_r)
c:/ndsdev/devkitpro/devkitarm/bin/../lib/gcc/arm-eabi/4.6.0/../../../../arm-eabi/lib/thumb\libg.a(lib_a-wcrtomb.o)
                              c:/ndsdev/devkitpro/devkitarm/bin/../lib/gcc/arm-eabi/4.6.0/../../../../arm-eabi/lib/thumb\libg.a(lib_a-svfprintf.o) (_wcrtomb_r)
c:/ndsdev/devkitpro/devkitarm/bin/../lib/gcc/arm-eabi/4.6.0/../../../../arm-eabi/lib/thumb\libg.a(lib_a-wcsrtombs.o)
                              c:/ndsdev/devkitpro/devkitarm/bin/../lib/gcc/arm-eabi/4.6.0/../../../../arm-eabi/lib/thumb\libg.a(lib_a-svfprintf.o) (_wcsrtombs_r)
c:/ndsdev/devkitpro/devkitarm/bin/../lib/gcc/arm-eabi/4.6.0/../../../../arm-eabi/lib/thumb\libg.a(lib_a-wctob.o)
                              c:/ndsdev/devkitPro/libnds/lib\libfat.a(directory.o) (wctob)
c:/ndsdev/devkitpro/devkitarm/bin/../lib/gcc/arm-eabi/4.6.0/../../../../arm-eabi/lib/thumb\libg.a(lib_a-wctomb_r.o)
                              c:/ndsdev/devkitpro/devkitarm/bin/../lib/gcc/arm-eabi/4.6.0/../../../../arm-eabi/lib/thumb\libg.a(lib_a-locale.o) (__utf8_wctomb)
c:/ndsdev/devkitpro/devkitarm/bin/../lib/gcc/arm-eabi/4.6.0/../../../../arm-eabi/lib/thumb\libg.a(lib_a-wsetup.o)
                              c:/ndsdev/devkitpro/devkitarm/bin/../lib/gcc/arm-eabi/4.6.0/../../../../arm-eabi/lib/thumb\libg.a(lib_a-vfiprintf.o) (__swsetup_r)
c:/ndsdev/devkitpro/devkitarm/bin/../lib/gcc/arm-eabi/4.6.0/../../../../arm-eabi/lib/thumb\libg.a(lib_a-ctype_.o)
                              c:/ndsdev/devkitpro/devkitarm/bin/../lib/gcc/arm-eabi/4.6.0/../../../../arm-eabi/lib/thumb\libg.a(lib_a-locale.o) (__set_ctype)
c:/ndsdev/devkitpro/devkitarm/bin/../lib/gcc/arm-eabi/4.6.0/../../../../arm-eabi/lib/thumb\libg.a(lib_a-div.o)
                              c:/ndsdev/devkitpro/devkitarm/bin/../lib/gcc/arm-eabi/4.6.0/../../../../arm-eabi/lib/thumb\libg.a(lib_a-mktime.o) (div)
c:/ndsdev/devkitpro/devkitarm/bin/../lib/gcc/arm-eabi/4.6.0/../../../../arm-eabi/lib/thumb\libg.a(lib_a-dtoa.o)
                              c:/ndsdev/devkitpro/devkitarm/bin/../lib/gcc/arm-eabi/4.6.0/../../../../arm-eabi/lib/thumb\libg.a(lib_a-svfprintf.o) (_dtoa_r)
c:/ndsdev/devkitpro/devkitarm/bin/../lib/gcc/arm-eabi/4.6.0/../../../../arm-eabi/lib/thumb\libg.a(lib_a-flags.o)
                              c:/ndsdev/devkitpro/devkitarm/bin/../lib/gcc/arm-eabi/4.6.0/../../../../arm-eabi/lib/thumb\libg.a(lib_a-fopen.o) (__sflags)
c:/ndsdev/devkitpro/devkitarm/bin/../lib/gcc/arm-eabi/4.6.0/../../../../arm-eabi/lib/thumb\libg.a(lib_a-fputwc.o)
                              c:/ndsdev/devkitpro/devkitarm/bin/../lib/gcc/arm-eabi/4.6.0/../../../../arm-eabi/lib/thumb\libg.a(lib_a-vfiprintf.o) (_fputwc_r)
c:/ndsdev/devkitpro/devkitarm/bin/../lib/gcc/arm-eabi/4.6.0/../../../../arm-eabi/lib/thumb\libg.a(lib_a-fvwrite.o)
                              c:/ndsdev/devkitpro/devkitarm/bin/../lib/gcc/arm-eabi/4.6.0/../../../../arm-eabi/lib/thumb\libg.a(lib_a-fwrite.o) (__sfvwrite_r)
c:/ndsdev/devkitpro/devkitarm/bin/../lib/gcc/arm-eabi/4.6.0/../../../../arm-eabi/lib/thumb\libg.a(lib_a-getenv_r.o)
                              c:/ndsdev/devkitpro/devkitarm/bin/../lib/gcc/arm-eabi/4.6.0/../../../../arm-eabi/lib/thumb\libg.a(lib_a-locale.o) (_getenv_r)
c:/ndsdev/devkitpro/devkitarm/bin/../lib/gcc/arm-eabi/4.6.0/../../../../arm-eabi/lib/thumb\libg.a(lib_a-gettzinfo.o)
                              c:/ndsdev/devkitpro/devkitarm/bin/../lib/gcc/arm-eabi/4.6.0/../../../../arm-eabi/lib/thumb\libg.a(lib_a-mktime.o) (__gettzinfo)
c:/ndsdev/devkitpro/devkitarm/bin/../lib/gcc/arm-eabi/4.6.0/../../../../arm-eabi/lib/thumb\libg.a(lib_a-iswspace.o)
                              c:/ndsdev/devkitpro/devkitarm/bin/../lib/gcc/arm-eabi/4.6.0/../../../../arm-eabi/lib/thumb\libg.a(lib_a-svfiscanf.o) (iswspace)
c:/ndsdev/devkitpro/devkitarm/bin/../lib/gcc/arm-eabi/4.6.0/../../../../arm-eabi/lib/thumb\libg.a(lib_a-jp2uc.o)
                              c:/ndsdev/devkitpro/devkitarm/bin/../lib/gcc/arm-eabi/4.6.0/../../../../arm-eabi/lib/thumb\libg.a(lib_a-towlower.o) (_jp2uc)
c:/ndsdev/devkitpro/devkitarm/bin/../lib/gcc/arm-eabi/4.6.0/../../../../arm-eabi/lib/thumb\libg.a(lib_a-mbsnrtowcs.o)
                              c:/ndsdev/devkitpro/devkitarm/bin/../lib/gcc/arm-eabi/4.6.0/../../../../arm-eabi/lib/thumb\libg.a(lib_a-mbsrtowcs.o) (_mbsnrtowcs_r)
c:/ndsdev/devkitpro/devkitarm/bin/../lib/gcc/arm-eabi/4.6.0/../../../../arm-eabi/lib/thumb\libg.a(lib_a-mprec.o)
                              c:/ndsdev/devkitpro/devkitarm/bin/../lib/gcc/arm-eabi/4.6.0/../../../../arm-eabi/lib/thumb\libg.a(lib_a-dtoa.o) (_Balloc)
c:/ndsdev/devkitpro/devkitarm/bin/../lib/gcc/arm-eabi/4.6.0/../../../../arm-eabi/lib/thumb\libg.a(lib_a-reallocr.o)
                              c:/ndsdev/devkitpro/devkitarm/bin/../lib/gcc/arm-eabi/4.6.0/../../../../arm-eabi/lib/thumb\libg.a(lib_a-ungetc.o) (_realloc_r)
c:/ndsdev/devkitpro/devkitarm/bin/../lib/gcc/arm-eabi/4.6.0/../../../../arm-eabi/lib/thumb\libg.a(lib_a-s_fpclassify.o)
                              c:/ndsdev/devkitpro/devkitarm/bin/../lib/gcc/arm-eabi/4.6.0/../../../../arm-eabi/lib/thumb\libg.a(lib_a-svfprintf.o) (__fpclassifyd)
c:/ndsdev/devkitpro/devkitarm/bin/../lib/gcc/arm-eabi/4.6.0/../../../../arm-eabi/lib/thumb\libg.a(lib_a-sccl.o)
                              c:/ndsdev/devkitpro/devkitarm/bin/../lib/gcc/arm-eabi/4.6.0/../../../../arm-eabi/lib/thumb\libg.a(lib_a-svfiscanf.o) (__sccl)
c:/ndsdev/devkitpro/devkitarm/bin/../lib/gcc/arm-eabi/4.6.0/../../../../arm-eabi/lib/thumb\libg.a(lib_a-sf_nan.o)
                              c:/ndsdev/devkitpro/devkitarm/bin/../lib/gcc/arm-eabi/4.6.0/../../../../arm-eabi/lib/thumb\libg.a(lib_a-svfscanf.o) (nanf)
c:/ndsdev/devkitpro/devkitarm/bin/../lib/gcc/arm-eabi/4.6.0/../../../../arm-eabi/lib/thumb\libg.a(lib_a-strtod.o)
                              c:/ndsdev/devkitpro/devkitarm/bin/../lib/gcc/arm-eabi/4.6.0/../../../../arm-eabi/lib/thumb\libg.a(lib_a-svfscanf.o) (_strtod_r)
c:/ndsdev/devkitpro/devkitarm/bin/../lib/gcc/arm-eabi/4.6.0/../../../../arm-eabi/lib/thumb\libg.a(lib_a-strtoll_r.o)
                              c:/ndsdev/devkitpro/devkitarm/bin/../lib/gcc/arm-eabi/4.6.0/../../../../arm-eabi/lib/thumb\libg.a(lib_a-svfiscanf.o) (_strtoll_r)
c:/ndsdev/devkitpro/devkitarm/bin/../lib/gcc/arm-eabi/4.6.0/../../../../arm-eabi/lib/thumb\libg.a(lib_a-strtoul.o)
                              c:/ndsdev/devkitpro/devkitarm/bin/../lib/gcc/arm-eabi/4.6.0/../../../../arm-eabi/lib/thumb\libg.a(lib_a-svfiscanf.o) (_strtoul_r)
c:/ndsdev/devkitpro/devkitarm/bin/../lib/gcc/arm-eabi/4.6.0/../../../../arm-eabi/lib/thumb\libg.a(lib_a-strtoull_r.o)
                              c:/ndsdev/devkitpro/devkitarm/bin/../lib/gcc/arm-eabi/4.6.0/../../../../arm-eabi/lib/thumb\libg.a(lib_a-svfiscanf.o) (_strtoull_r)
c:/ndsdev/devkitpro/devkitarm/bin/../lib/gcc/arm-eabi/4.6.0/../../../../arm-eabi/lib/thumb\libg.a(lib_a-svfiprintf.o)
                              c:/ndsdev/devkitpro/devkitarm/bin/../lib/gcc/arm-eabi/4.6.0/../../../../arm-eabi/lib/thumb\libg.a(lib_a-svfprintf.o) (__ssprint_r)
c:/ndsdev/devkitpro/devkitarm/bin/../lib/gcc/arm-eabi/4.6.0/../../../../arm-eabi/lib/thumb\libg.a(lib_a-wbuf.o)
                              c:/ndsdev/devkitpro/devkitarm/bin/../lib/gcc/arm-eabi/4.6.0/../../../../arm-eabi/lib/thumb\libg.a(lib_a-fputwc.o) (__swbuf_r)
c:/ndsdev/devkitpro/devkitarm/bin/../lib/gcc/arm-eabi/4.6.0/../../../../arm-eabi/lib/thumb\libg.a(lib_a-wcsnrtombs.o)
                              c:/ndsdev/devkitpro/devkitarm/bin/../lib/gcc/arm-eabi/4.6.0/../../../../arm-eabi/lib/thumb\libg.a(lib_a-wcsrtombs.o) (_wcsnrtombs_r)
c:/ndsdev/devkitpro/devkitarm/bin/../lib/gcc/arm-eabi/4.6.0/../../../../arm-eabi/lib/thumb\libg.a(lib_a-callocr.o)
                              c:/ndsdev/devkitpro/devkitarm/bin/../lib/gcc/arm-eabi/4.6.0/../../../../arm-eabi/lib/thumb\libg.a(lib_a-mprec.o) (_calloc_r)
c:/ndsdev/devkitpro/devkitarm/bin/../lib/gcc/arm-eabi/4.6.0/../../../../arm-eabi/lib/thumb\libg.a(lib_a-environ.o)
                              c:/ndsdev/devkitpro/devkitarm/bin/../lib/gcc/arm-eabi/4.6.0/../../../../arm-eabi/lib/thumb\libg.a(lib_a-getenv_r.o) (environ)
c:/ndsdev/devkitpro/devkitarm/bin/../lib/gcc/arm-eabi/4.6.0/../../../../arm-eabi/lib/thumb\libg.a(lib_a-envlock.o)
                              c:/ndsdev/devkitpro/devkitarm/bin/../lib/gcc/arm-eabi/4.6.0/../../../../arm-eabi/lib/thumb\libg.a(lib_a-getenv_r.o) (__env_lock)
c:/ndsdev/devkitpro/devkitarm/bin/../lib/gcc/arm-eabi/4.6.0/../../../../arm-eabi/lib/thumb\libg.a(lib_a-gdtoa-gethex.o)
                              c:/ndsdev/devkitpro/devkitarm/bin/../lib/gcc/arm-eabi/4.6.0/../../../../arm-eabi/lib/thumb\libg.a(lib_a-strtod.o) (__gethex)
c:/ndsdev/devkitpro/devkitarm/bin/../lib/gcc/arm-eabi/4.6.0/../../../../arm-eabi/lib/thumb\libg.a(lib_a-gdtoa-hexnan.o)
                              c:/ndsdev/devkitpro/devkitarm/bin/../lib/gcc/arm-eabi/4.6.0/../../../../arm-eabi/lib/thumb\libg.a(lib_a-strtod.o) (__hexnan)
c:/ndsdev/devkitpro/devkitarm/bin/../lib/gcc/arm-eabi/4.6.0/../../../../arm-eabi/lib/thumb\libsysbase.a(iosupport.o)
                              c:/ndsdev/devkitPro/libnds/lib\libfat.a(libfat.o) (FindDevice)
c:/ndsdev/devkitpro/devkitarm/bin/../lib/gcc/arm-eabi/4.6.0/../../../../arm-eabi/lib/thumb\libsysbase.a(close.o)
                              c:/ndsdev/devkitpro/devkitarm/bin/../lib/gcc/arm-eabi/4.6.0/../../../../arm-eabi/lib/thumb\libg.a(lib_a-stdio.o) (_close_r)
c:/ndsdev/devkitpro/devkitarm/bin/../lib/gcc/arm-eabi/4.6.0/../../../../arm-eabi/lib/thumb\libsysbase.a(fstat.o)
                              c:/ndsdev/devkitpro/devkitarm/bin/../lib/gcc/arm-eabi/4.6.0/../../../../arm-eabi/lib/thumb\libg.a(lib_a-fseek.o) (_fstat_r)
c:/ndsdev/devkitpro/devkitarm/bin/../lib/gcc/arm-eabi/4.6.0/../../../../arm-eabi/lib/thumb\libsysbase.a(isatty.o)
                              c:/ndsdev/devkitpro/devkitarm/bin/../lib/gcc/arm-eabi/4.6.0/../../../../arm-eabi/lib/thumb\libg.a(lib_a-makebuf.o) (_isatty_r)
c:/ndsdev/devkitpro/devkitarm/bin/../lib/gcc/arm-eabi/4.6.0/../../../../arm-eabi/lib/thumb\libsysbase.a(lseek.o)
                              c:/ndsdev/devkitpro/devkitarm/bin/../lib/gcc/arm-eabi/4.6.0/../../../../arm-eabi/lib/thumb\libg.a(lib_a-stdio.o) (_lseek_r)
c:/ndsdev/devkitpro/devkitarm/bin/../lib/gcc/arm-eabi/4.6.0/../../../../arm-eabi/lib/thumb\libsysbase.a(open.o)
                              c:/ndsdev/devkitpro/devkitarm/bin/../lib/gcc/arm-eabi/4.6.0/../../../../arm-eabi/lib/thumb\libg.a(lib_a-fopen.o) (_open_r)
c:/ndsdev/devkitpro/devkitarm/bin/../lib/gcc/arm-eabi/4.6.0/../../../../arm-eabi/lib/thumb\libsysbase.a(read.o)
                              c:/ndsdev/devkitpro/devkitarm/bin/../lib/gcc/arm-eabi/4.6.0/../../../../arm-eabi/lib/thumb\libg.a(lib_a-stdio.o) (_read_r)
c:/ndsdev/devkitpro/devkitarm/bin/../lib/gcc/arm-eabi/4.6.0/../../../../arm-eabi/lib/thumb\libsysbase.a(sbrk.o)
                              c:/ndsdev/devkitpro/devkitarm/bin/../lib/gcc/arm-eabi/4.6.0/../../../../arm-eabi/lib/thumb\libg.a(lib_a-freer.o) (_sbrk_r)
c:/ndsdev/devkitpro/devkitarm/bin/../lib/gcc/arm-eabi/4.6.0/../../../../arm-eabi/lib/thumb\libsysbase.a(times.o)
                              c:/ndsdev/devkitpro/devkitarm/bin/../lib/gcc/arm-eabi/4.6.0/../../../../arm-eabi/lib/thumb\libg.a(lib_a-time.o) (_gettimeofday_r)
c:/ndsdev/devkitpro/devkitarm/bin/../lib/gcc/arm-eabi/4.6.0/../../../../arm-eabi/lib/thumb\libsysbase.a(write.o)
                              c:/ndsdev/devkitpro/devkitarm/bin/../lib/gcc/arm-eabi/4.6.0/../../../../arm-eabi/lib/thumb\libg.a(lib_a-stdio.o) (_write_r)
c:/ndsdev/devkitpro/devkitarm/bin/../lib/gcc/arm-eabi/4.6.0/../../../../arm-eabi/lib/thumb\libsysbase.a(malloc_vars.o)
                              c:/ndsdev/devkitpro/devkitarm/bin/../lib/gcc/arm-eabi/4.6.0/../../../../arm-eabi/lib/thumb/ds_arm9_crt0.o (fake_heap_start)
c:/ndsdev/devkitpro/devkitarm/bin/../lib/gcc/arm-eabi/4.6.0/../../../../arm-eabi/lib/thumb\libsysbase.a(chdir.o)
                              c:/ndsdev/devkitPro/libnds/lib\libfat.a(libfat.o) (chdir)
c:/ndsdev/devkitpro/devkitarm/bin/../lib/gcc/arm-eabi/4.6.0/../../../../arm-eabi/lib/thumb\libsysbase.a(build_argv.o)
                              c:/ndsdev/devkitpro/devkitarm/bin/../lib/gcc/arm-eabi/4.6.0/../../../../arm-eabi/lib/thumb/ds_arm9_crt0.o (build_argv)
c:/ndsdev/devkitpro/devkitarm/bin/../lib/gcc/arm-eabi/4.6.0/../../../../arm-eabi/lib/thumb\libsysbase.a(syscall_support.o)
                              c:/ndsdev/devkitPro/libnds/lib\libnds9.a(initSystem.o) (__syscalls)
c:/ndsdev/devkitpro/devkitarm/bin/../lib/gcc/arm-eabi/4.6.0/../../../../arm-eabi/lib/thumb\libsysbase.a(handle_manager.o)
                              c:/ndsdev/devkitpro/devkitarm/bin/../lib/gcc/arm-eabi/4.6.0/../../../../arm-eabi/lib/thumb\libsysbase.a(close.o) (__release_handle)
c:/ndsdev/devkitpro/devkitarm/bin/../lib/gcc/arm-eabi/4.6.0/thumb\libgcc.a(_arm_addsubdf3.o)
                              c:/ndsdev/devkitpro/devkitarm/bin/../lib/gcc/arm-eabi/4.6.0/../../../../arm-eabi/lib/thumb\libg.a(lib_a-dtoa.o) (__aeabi_dsub)
c:/ndsdev/devkitpro/devkitarm/bin/../lib/gcc/arm-eabi/4.6.0/thumb\libgcc.a(_arm_muldivdf3.o)
                              c:/ndsdev/devkitpro/devkitarm/bin/../lib/gcc/arm-eabi/4.6.0/../../../../arm-eabi/lib/thumb\libg.a(lib_a-dtoa.o) (__aeabi_dmul)
c:/ndsdev/devkitpro/devkitarm/bin/../lib/gcc/arm-eabi/4.6.0/thumb\libgcc.a(_arm_cmpdf2.o)
                              c:/ndsdev/devkitpro/devkitarm/bin/../lib/gcc/arm-eabi/4.6.0/../../../../arm-eabi/lib/thumb\libg.a(lib_a-svfprintf.o) (__aeabi_dcmpeq)
c:/ndsdev/devkitpro/devkitarm/bin/../lib/gcc/arm-eabi/4.6.0/thumb\libgcc.a(_arm_fixdfsi.o)
                              c:/ndsdev/devkitpro/devkitarm/bin/../lib/gcc/arm-eabi/4.6.0/../../../../arm-eabi/lib/thumb\libg.a(lib_a-dtoa.o) (__aeabi_d2iz)
c:/ndsdev/devkitpro/devkitarm/bin/../lib/gcc/arm-eabi/4.6.0/thumb\libgcc.a(_arm_fixunsdfsi.o)
                              c:/ndsdev/devkitpro/devkitarm/bin/../lib/gcc/arm-eabi/4.6.0/../../../../arm-eabi/lib/thumb\libg.a(lib_a-strtod.o) (__aeabi_d2uiz)
c:/ndsdev/devkitpro/devkitarm/bin/../lib/gcc/arm-eabi/4.6.0/thumb\libgcc.a(_arm_truncdfsf2.o)
                              c:/ndsdev/devkitpro/devkitarm/bin/../lib/gcc/arm-eabi/4.6.0/../../../../arm-eabi/lib/thumb\libg.a(lib_a-svfscanf.o) (__aeabi_d2f)
c:/ndsdev/devkitpro/devkitarm/bin/../lib/gcc/arm-eabi/4.6.0/thumb\libgcc.a(_aeabi_uldivmod.o)
                              c:/ndsdev/devkitpro/devkitarm/bin/../lib/gcc/arm-eabi/4.6.0/../../../../arm-eabi/lib/thumb\libg.a(lib_a-svfprintf.o) (__aeabi_uldivmod)
c:/ndsdev/devkitpro/devkitarm/bin/../lib/gcc/arm-eabi/4.6.0/thumb\libgcc.a(_muldi3.o)
                              c:/ndsdev/devkitpro/devkitarm/bin/../lib/gcc/arm-eabi/4.6.0/../../../../arm-eabi/lib/thumb\libg.a(lib_a-strtoll_r.o) (__aeabi_lmul)
c:/ndsdev/devkitpro/devkitarm/bin/../lib/gcc/arm-eabi/4.6.0/thumb\libgcc.a(bpabi.o)
                              c:/ndsdev/devkitpro/devkitarm/bin/../lib/gcc/arm-eabi/4.6.0/thumb\libgcc.a(_aeabi_uldivmod.o) (__gnu_uldivmod_helper)
c:/ndsdev/devkitpro/devkitarm/bin/../lib/gcc/arm-eabi/4.6.0/thumb\libgcc.a(unwind-arm.o)
                              c:/ndsdev/devkitpro/devkitarm/bin/../lib/gcc/arm-eabi/4.6.0/thumb\libgcc.a(bpabi.o) (__aeabi_unwind_cpp_pr0)
c:/ndsdev/devkitpro/devkitarm/bin/../lib/gcc/arm-eabi/4.6.0/thumb\libgcc.a(libunwind.o)
                              c:/ndsdev/devkitpro/devkitarm/bin/../lib/gcc/arm-eabi/4.6.0/thumb\libgcc.a(unwind-arm.o) (restore_core_regs)
c:/ndsdev/devkitpro/devkitarm/bin/../lib/gcc/arm-eabi/4.6.0/thumb\libgcc.a(pr-support.o)
                              c:/ndsdev/devkitpro/devkitarm/bin/../lib/gcc/arm-eabi/4.6.0/thumb\libgcc.a(unwind-arm.o) (__gnu_unwind_execute)
c:/ndsdev/devkitpro/devkitarm/bin/../lib/gcc/arm-eabi/4.6.0/thumb\libgcc.a(_divdi3.o)
                              c:/ndsdev/devkitpro/devkitarm/bin/../lib/gcc/arm-eabi/4.6.0/thumb\libgcc.a(bpabi.o) (__divdi3)
c:/ndsdev/devkitpro/devkitarm/bin/../lib/gcc/arm-eabi/4.6.0/thumb\libgcc.a(_udivdi3.o)
                              c:/ndsdev/devkitpro/devkitarm/bin/../lib/gcc/arm-eabi/4.6.0/thumb\libgcc.a(bpabi.o) (__udivdi3)
c:/ndsdev/devkitpro/devkitarm/bin/../lib/gcc/arm-eabi/4.6.0/thumb\libgcc.a(_clzsi2.o)
                              c:/ndsdev/devkitpro/devkitarm/bin/../lib/gcc/arm-eabi/4.6.0/thumb\libgcc.a(_divdi3.o) (__clzsi2)
c:/ndsdev/devkitpro/devkitarm/bin/../lib/gcc/arm-eabi/4.6.0/../../../../arm-eabi/lib/thumb\libg.a(lib_a-abort.o)
                              c:/ndsdev/devkitpro/devkitarm/bin/../lib/gcc/arm-eabi/4.6.0/thumb\libgcc.a(unwind-arm.o) (abort)
c:/ndsdev/devkitpro/devkitarm/bin/../lib/gcc/arm-eabi/4.6.0/../../../../arm-eabi/lib/thumb\libg.a(lib_a-signal.o)
                              c:/ndsdev/devkitpro/devkitarm/bin/../lib/gcc/arm-eabi/4.6.0/../../../../arm-eabi/lib/thumb\libg.a(lib_a-abort.o) (raise)
c:/ndsdev/devkitpro/devkitarm/bin/../lib/gcc/arm-eabi/4.6.0/../../../../arm-eabi/lib/thumb\libsysbase.a(getpid.o)
                              c:/ndsdev/devkitpro/devkitarm/bin/../lib/gcc/arm-eabi/4.6.0/../../../../arm-eabi/lib/thumb\libg.a(lib_a-signal.o) (_getpid_r)
c:/ndsdev/devkitpro/devkitarm/bin/../lib/gcc/arm-eabi/4.6.0/../../../../arm-eabi/lib/thumb\libsysbase.a(kill.o)
                              c:/ndsdev/devkitpro/devkitarm/bin/../lib/gcc/arm-eabi/4.6.0/../../../../arm-eabi/lib/thumb\libg.a(lib_a-signal.o) (_kill_r)
c:/ndsdev/devkitpro/devkitarm/bin/../lib/gcc/arm-eabi/4.6.0/../../../../arm-eabi/lib/thumb\libsysbase.a(_exit.o)
                              c:/ndsdev/devkitpro/devkitarm/bin/../lib/gcc/arm-eabi/4.6.0/../../../../arm-eabi/lib/thumb\libg.a(lib_a-abort.o) (_exit)

Allocating common symbols
Common symbol       size              file

Wifi_Data_Struct    0x9f44            c:/ndsdev/devkitPro/libnds/lib\libdswifi9.a(wifi_arm9.o)
dnsrecord_return    0x524             c:/ndsdev/devkitPro/libnds/lib\libdswifi9.a(sgIP_DNS.o)
tcprecords          0x4               c:/ndsdev/devkitPro/libnds/lib\libdswifi9.a(sgIP_TCP.o)
ProtocolInterfaces  0x8               c:/ndsdev/devkitPro/libnds/lib\libdswifi9.a(sgIP_Hub.o)
currentCopy         0x5c              c:/ndsdev/devkitPro/libnds/lib\libnds9.a(console.o)
udpport_counter     0x4               c:/ndsdev/devkitPro/libnds/lib\libdswifi9.a(sgIP_UDP.o)
fifo_datamsg_data   0x40              c:/ndsdev/devkitPro/libnds/lib\libnds9.a(fifosystem.o)
count_100ms         0x4               c:/ndsdev/devkitPro/libnds/lib\libdswifi9.a(sgIP.o)
lasttime            0x4               c:/ndsdev/devkitPro/libnds/lib\libdswifi9.a(sgIP_TCP.o)
__dsimode           0x1               c:/ndsdev/devkitPro/libnds/lib\libnds9.a(initSystem.o)
dhcp_rcvd_dns       0xc               c:/ndsdev/devkitPro/libnds/lib\libdswifi9.a(sgIP_DHCP.o)
bgState             0x140             c:/ndsdev/devkitPro/libnds/lib\libnds9.a(background.o)
time_count          0x4               c:/ndsdev/devkitPro/libnds/lib\libdswifi9.a(sgIP_DNS.o)
port_counter        0x4               c:/ndsdev/devkitPro/libnds/lib\libdswifi9.a(sgIP_TCP.o)
dhcp_rcvd_snmask    0x4               c:/ndsdev/devkitPro/libnds/lib\libdswifi9.a(sgIP_DHCP.o)
fifo_buffer         0x800             c:/ndsdev/devkitPro/libnds/lib\libnds9.a(fifosystem.o)
NumHWInterfaces     0x4               c:/ndsdev/devkitPro/libnds/lib\libdswifi9.a(sgIP_Hub.o)
dhcp_state          0x4               c:/ndsdev/devkitPro/libnds/lib\libdswifi9.a(sgIP_DHCP.o)
alias_list          0x14              c:/ndsdev/devkitPro/libnds/lib\libdswifi9.a(sgIP_DNS.o)
dhcp_p              0x4               c:/ndsdev/devkitPro/libnds/lib\libdswifi9.a(sgIP_DHCP.o)
dhcp_optionptr      0x4               c:/ndsdev/devkitPro/libnds/lib\libdswifi9.a(sgIP_DHCP.o)
socketlist          0x100             c:/ndsdev/devkitPro/libnds/lib\libdswifi9.a(sgIP_sockets.o)
bgIsTextLut         0x8               c:/ndsdev/devkitPro/libnds/lib\libnds9.a(background.o)
querydata           0x200             c:/ndsdev/devkitPro/libnds/lib\libdswifi9.a(sgIP_DNS.o)
responsedata        0x200             c:/ndsdev/devkitPro/libnds/lib\libdswifi9.a(sgIP_DNS.o)
dhcp_int            0x4               c:/ndsdev/devkitPro/libnds/lib\libdswifi9.a(sgIP_DHCP.o)
fifo_value32_func   0x40              c:/ndsdev/devkitPro/libnds/lib\libnds9.a(fifosystem.o)
fifo_address_func   0x40              c:/ndsdev/devkitPro/libnds/lib\libnds9.a(fifosystem.o)
ap                  0x58              download.o
dnsrecords          0x5240            c:/ndsdev/devkitPro/libnds/lib\libdswifi9.a(sgIP_DNS.o)
__hexdig            0x100             c:/ndsdev/devkitpro/devkitarm/bin/../lib/gcc/arm-eabi/4.6.0/../../../../arm-eabi/lib/thumb\libg.a(lib_a-gdtoa-gethex.o)
wifi_hw             0x4               c:/ndsdev/devkitPro/libnds/lib\libdswifi9.a(wifi_arm9.o)
dhcp_rcvd_ip        0x4               c:/ndsdev/devkitPro/libnds/lib\libdswifi9.a(sgIP_DHCP.o)
dhcp_hostname       0x40              c:/ndsdev/devkitPro/libnds/lib\libdswifi9.a(sgIP_DHCP.o)
dhcp_serverip       0x4               c:/ndsdev/devkitPro/libnds/lib\libdswifi9.a(sgIP_DHCP.o)
HWInterfaces        0x30              c:/ndsdev/devkitPro/libnds/lib\libdswifi9.a(sgIP_Hub.o)
ipaddr_ip           0x4               c:/ndsdev/devkitPro/libnds/lib\libdswifi9.a(sgIP_DNS.o)
wHeapsize           0x4               c:/ndsdev/devkitPro/libnds/lib\libdswifi9.a(wifi_arm9.o)
fifo_value32_data   0x40              c:/ndsdev/devkitPro/libnds/lib\libnds9.a(fifosystem.o)
fifo_value32_queue  0x40              c:/ndsdev/devkitPro/libnds/lib\libnds9.a(fifosystem.o)
fifo_data_queue     0x40              c:/ndsdev/devkitPro/libnds/lib\libnds9.a(fifosystem.o)
count_1000ms        0x4               c:/ndsdev/devkitPro/libnds/lib\libdswifi9.a(sgIP.o)
dhcp_tid            0x4               c:/ndsdev/devkitPro/libnds/lib\libdswifi9.a(sgIP_DHCP.o)
sgIP_timems         0x4               c:/ndsdev/devkitPro/libnds/lib\libdswifi9.a(sgIP.o)
ArpRecords          0x400             c:/ndsdev/devkitPro/libnds/lib\libdswifi9.a(sgIP_ARP.o)
query_time_start    0x4               c:/ndsdev/devkitPro/libnds/lib\libdswifi9.a(sgIP_DNS.o)
dhcp_requestDNS     0x4               c:/ndsdev/devkitPro/libnds/lib\libdswifi9.a(sgIP_DHCP.o)
dhcp_socket         0x4               c:/ndsdev/devkitPro/libnds/lib\libdswifi9.a(sgIP_DHCP.o)
wHeapFirst          0x4               c:/ndsdev/devkitPro/libnds/lib\libdswifi9.a(wifi_arm9.o)
udprecords          0x4               c:/ndsdev/devkitPro/libnds/lib\libdswifi9.a(sgIP_UDP.o)
wifi_connect_point  0x58              c:/ndsdev/devkitPro/libnds/lib\libdswifi9.a(wifi_arm9.o)
numsynlist          0x4               c:/ndsdev/devkitPro/libnds/lib\libdswifi9.a(sgIP_TCP.o)
CHANNELS            0x48              main.o
addr_list           0x14              c:/ndsdev/devkitPro/libnds/lib\libdswifi9.a(sgIP_DNS.o)
XXX_BUF_            0x200000          download.o
punixTime           0x4               c:/ndsdev/devkitpro/devkitarm/bin/../lib/gcc/arm-eabi/4.6.0/../../../../arm-eabi/lib/thumb\libsysbase.a(times.o)
synlist             0x800             c:/ndsdev/devkitPro/libnds/lib\libdswifi9.a(sgIP_TCP.o)
fifo_address_data   0x40              c:/ndsdev/devkitPro/libnds/lib\libnds9.a(fifosystem.o)
ipaddr_alias        0x100             c:/ndsdev/devkitPro/libnds/lib\libdswifi9.a(sgIP_DNS.o)
dhcp_timestart      0x4               c:/ndsdev/devkitPro/libnds/lib\libdswifi9.a(sgIP_DHCP.o)
dhcp_status         0x4               c:/ndsdev/devkitPro/libnds/lib\libdswifi9.a(sgIP_DHCP.o)
dns_sock            0x4               c:/ndsdev/devkitPro/libnds/lib\libdswifi9.a(sgIP_DNS.o)
wHeapStart          0x4               c:/ndsdev/devkitPro/libnds/lib\libdswifi9.a(wifi_arm9.o)
last_id             0x4               c:/ndsdev/devkitPro/libnds/lib\libdswifi9.a(sgIP_DNS.o)
sgIP_errno          0x4               c:/ndsdev/devkitPro/libnds/lib\libdswifi9.a(sgIP.o)
dnsrecord_hostent   0x14              c:/ndsdev/devkitPro/libnds/lib\libdswifi9.a(sgIP_DNS.o)
dhcp_rcvd_gateway   0x4               c:/ndsdev/devkitPro/libnds/lib\libdswifi9.a(sgIP_DHCP.o)
NumProtocolInterfaces
                    0x4               c:/ndsdev/devkitPro/libnds/lib\libdswifi9.a(sgIP_Hub.o)
fifo_datamsg_func   0x40              c:/ndsdev/devkitPro/libnds/lib\libnds9.a(fifosystem.o)
idnum_count         0x4               c:/ndsdev/devkitPro/libnds/lib\libdswifi9.a(sgIP_IP.o)
dhcp_timelastaction
                    0x4               c:/ndsdev/devkitPro/libnds/lib\libdswifi9.a(sgIP_DHCP.o)
fifo_address_queue  0x40              c:/ndsdev/devkitPro/libnds/lib\libnds9.a(fifosystem.o)

Memory Configuration

Name             Origin             Length             Attributes
rom              0x08000000         0x02000000
ewram            0x02000000         0x003ff000
dtcm             0x0b000000         0x00004000
vectors          0x01000000         0x00000100
itcm             0x01000100         0x00007f00
*default*        0x00000000         0xffffffff

Linker script and memory map

                0x01000000                __vectors_start = ORIGIN (vectors)
                0x01000100                __itcm_start = ORIGIN (itcm)
                0x023ff000                __ewram_end = (ORIGIN (ewram) + 0x3ff000)
                0x023ff000                __eheap_end = (ORIGIN (ewram) + 0x3ff000)
                0x0b000000                __dtcm_start = ORIGIN (dtcm)
                0x0b004000                __dtcm_top = (ORIGIN (dtcm) + 0x4000)
                0x0b003ff8                __irq_flags = (__dtcm_top - 0x8)
                0x0b003ffc                __irq_vector = (__dtcm_top - 0x4)
                0x0b003f00                __sp_svc = (__dtcm_top - 0x100)
                0x0b003e00                __sp_irq = (__sp_svc - 0x100)
                0x0b003d00                __sp_usr = (__sp_irq - 0x100)

.init           0x02000000      0x23c
                0x02000000                __text_start = .
 *(.init)
 .init          0x02000000      0x230 c:/ndsdev/devkitpro/devkitarm/bin/../lib/gcc/arm-eabi/4.6.0/../../../../arm-eabi/lib/thumb/ds_arm9_crt0.o
                0x02000000                _start
 .init          0x02000230        0x4 c:/ndsdev/devkitpro/devkitarm/bin/../lib/gcc/arm-eabi/4.6.0/thumb/crti.o
                0x02000230                _init
 .init          0x02000234        0x8 c:/ndsdev/devkitpro/devkitarm/bin/../lib/gcc/arm-eabi/4.6.0/thumb/crtn.o
                0x0200023c                . = ALIGN (0x4)

.plt
 *(.plt)

.text           0x02000240    0x27f90
 *(EXCLUDE_FILE(*.itcm*) .text)
 .text          0x02000240        0x0 c:/ndsdev/devkitpro/devkitarm/bin/../lib/gcc/arm-eabi/4.6.0/../../../../arm-eabi/lib/thumb/ds_arm9_crt0.o
 .text          0x02000240        0x0 c:/ndsdev/devkitpro/devkitarm/bin/../lib/gcc/arm-eabi/4.6.0/thumb/crti.o
 .text          0x02000240       0x6c c:/ndsdev/devkitpro/devkitarm/bin/../lib/gcc/arm-eabi/4.6.0/thumb/crtbegin.o
 .text          0x020002ac      0x630 download.o
                0x02000388                download
 .text          0x020008dc       0x30 main.o
                0x020008dc                check_abort
                0x020008e0                confirm_error
                0x020008f0                channel_name
 .text          0x0200090c       0x84 serial.o
                0x02000954                serial_init
 .text          0x02000990       0x84 usb.o
                0x020009d8                usb_init
 .text          0x02000a14      0x498 wifi.o
                0x02000bfc                wifi_init
 *fill*         0x02000eac        0x4 ff
 .text          0x02000eb0       0x50 jump.o
                0x02000eb0                _copy_bin_and_jump
 .text          0x02000f00      0xa68 c:/ndsdev/devkitPro/libnds/lib\libdswifi9.a(sgIP_DNS.o)
                0x02000fa4                sgIP_DNS_Init
                0x02000fdc                sgIP_DNS_Timer1000ms
                0x02001028                sgIP_DNS_isipaddress
                0x02001248                sgIP_DNS_FindDNSRecord
                0x02001374                sgIP_DNS_GetUnusedRecord
                0x020013fc                sgIP_DNS_GenerateHostent
                0x020014c0                sgIP_DNS_CopyAliasAt
                0x02001524                sgIP_DNS_gethostbyname
                0x0200191c                inet_addr
                0x02001938                inet_aton
                0x02001958                inet_ntoa
 .text          0x02001968      0x1f0 c:/ndsdev/devkitPro/libnds/lib\libdswifi9.a(sgIP_Hub.o)
                0x02001968                sgIP_Hub_Init
                0x0200197c                sgIP_Hub_AddProtocolInterface
                0x020019bc                sgIP_Hub_AddHardwareInterface
                0x020019f8                sgIP_Hub_RemoveProtocolInterface
                0x02001a18                sgIP_Hub_RemoveHardwareInterface
                0x02001a38                sgIP_Hub_ReceiveHardwarePacket
                0x02001a94                sgIP_Hub_SendProtocolPacket
                0x02001ae0                sgIP_Hub_SendRawPacket
                0x02001b08                sgIP_Hub_IPMaxMessageSize
                0x02001b10                sgIP_Hub_GetCompatibleIP
                0x02001b24                sgIP_Hub_GetDefaultInterface
                0x02001b34                htons
                0x02001b40                htonl
 .text          0x02001b58      0x2ac c:/ndsdev/devkitPro/libnds/lib\libdswifi9.a(sgIP_memblock.o)
                0x02001b58                sgIP_memblock_Init
                0x02001b5c                sgIP_memblock_allocHW
                0x02001b80                sgIP_memblock_alloc
                0x02001b8c                sgIP_memblock_free
                0x02001bb8                sgIP_memblock_exposeheader
                0x02001be0                sgIP_memblock_trimsize
                0x02001c18                sgIP_memblock_IPChecksum
                0x02001d10                sgIP_memblock_CopyToLinear
                0x02001d88                sgIP_memblock_CopyFromLinear
                0x02001e00                sgIP_memblock_CopyBlock
 .text          0x02001e04      0xd94 c:/ndsdev/devkitPro/libnds/lib\libdswifi9.a(sgIP_sockets.o)
                0x02001e04                sgIP_sockets_Init
                0x02001e20                spawn_socket
                0x02001e74                kill_socket
                0x02001eac                socket
                0x02001f3c                forceclosesocket
                0x02001f94                sgIP_sockets_Timer1000ms
                0x02001ffc                bind
                0x0200207c                connect
                0x02002184                send
                0x02002240                recv
                0x020022fc                sendto
                0x02002390                recvfrom
                0x0200248c                listen
                0x020024f8                accept
                0x020025f4                shutdown
                0x02002654                closesocket
                0x020026e0                ioctl
                0x02002790                setsockopt
                0x02002794                getsockopt
                0x02002798                getpeername
                0x0200283c                getsockname
                0x020028e8                gethostbyname
                0x020028f0                select
 .text          0x02002b98     0x12b0 c:/ndsdev/devkitPro/libnds/lib\libdswifi9.a(wifi_arm9.o)
                0x02002b98                Wifi_Interface_Init
                0x02002be0                arm9_synctoarm7
                0x02002bec                sgIP_IntrWaitEvent
                0x02002bf0                wHeapAllocInit
                0x02002c18                wHeapAlloc
                0x02002cd4                wHeapFree
                0x02002cf4                sgIP_malloc
                0x02002cfc                sgIP_free
                0x02002d1c                ethhdr_print
                0x02002d20                erasemem
                0x02002d34                Wifi_CopyMacAddr
                0x02002d44                Wifi_CmpMacAddr
                0x02002d68                Wifi_TxBufferWordsAvailable
                0x02002d8c                Wifi_TxBufferWrite
                0x02002df4                Wifi_TransmitFunction
                0x02003008                Wifi_RxRawReadPacket
                0x02003074                Wifi_RxReadOffset
                0x020030a0                Wifi_RawTxFrame
                0x02003170                Wifi_RawSetPacketHandler
                0x0200317c                Wifi_SetSyncHandler
                0x02003188                Wifi_DisableWifi
                0x020031a0                Wifi_EnableWifi
                0x020031b4                Wifi_SetPromiscuousMode
                0x020031e0                Wifi_ScanMode
                0x020031f8                Wifi_SetChannel
                0x02003220                Wifi_GetNumAP
                0x02003248                Wifi_GetAPData
                0x020032ec                Wifi_FindMatchingAP
                0x02003414                Wifi_AutoConnect
                0x0200343c                Wifi_DisconnectAP
                0x02003460                Wifi_ConnectAP
                0x02003568                Wifi_Init
                0x02003600                Wifi_CheckInit
                0x02003620                Wifi_Update
                0x0200390c                Wifi_Timer
                0x0200391c                Timer_50ms
                0x02003928                Wifi_GetIP
                0x0200393c                Wifi_GetIPInfo
                0x02003974                Wifi_SetIP
                0x02003998                Wifi_AssocStatus
                0x02003cdc                Wifi_SetDHCP
                0x02003ce0                Wifi_GetData
                0x02003d50                Wifi_GetStats
                0x02003d74                Wifi_Sync
                0x02003d90                wifiValue32Handler
                0x02003d9c                Wifi_InitDefault
 .text          0x02003e48       0x5c c:/ndsdev/devkitPro/libnds/lib\libdswifi9.a(spinlock.o)
                0x02003e48                SLasm_Acquire
                0x02003e7c                SLasm_Release
 .text          0x02003ea4       0xa8 c:/ndsdev/devkitPro/libnds/lib\libdswifi9.a(sgIP.o)
                0x02003ea4                sgIP_Init
                0x02003ee0                sgIP_Timer
 .text          0x02003f4c      0x5f8 c:/ndsdev/devkitPro/libnds/lib\libdswifi9.a(sgIP_ARP.o)
                0x02003f4c                sgIP_FindArpSlot
                0x02003f80                sgIP_GetArpSlot
                0x02003fcc                sgIP_is_broadcast_address
                0x02003fdc                sgIP_ARP_Check_isok
                0x02003fe0                sgIP_ARP_Init
                0x02004000                sgIP_ARP_FlushInterface
                0x02004034                sgIP_ARP_ProcessIPFrame
                0x02004038                sgIP_ARP_SendARPResponse
                0x02004118                sgIP_ARP_SendGratARP
                0x020041f8                sgIP_ARP_SendARPRequest
                0x020042dc                sgIP_ARP_SendProtocolFrame
                0x020043e4                sgIP_ARP_ProcessARPFrame
                0x020044d0                sgIP_ARP_Timer100ms
 .text          0x02004544      0xa5c c:/ndsdev/devkitPro/libnds/lib\libdswifi9.a(sgIP_DHCP.o)
                0x02004544                sgIP_DHCP_Init
                0x0200458c                sgIP_DHCP_SetHostName
                0x020045a8                sgIP_DHCP_IsDhcpIp
                0x020045b8                sgIP_DHCP_SendDgram
                0x02004628                sgIP_DHCP_BeginDgram
                0x0200488c                sgIP_DHCP_Terminate
                0x020048c4                sgIP_DHCP_Update
                0x02004df4                sgIP_DHCP_Release
                0x02004e28                sgIP_DHCP_Start
                0x02004ee8                gethostname
                0x02004f28                sethostname
 .text          0x02004fa0      0x140 c:/ndsdev/devkitPro/libnds/lib\libdswifi9.a(sgIP_IP.o)
                0x02004fa0                sgIP_IP_ReceivePacket
                0x02005034                sgIP_IP_MaxContentsSize
                0x02005040                sgIP_IP_RequiredHeaderSize
                0x02005044                sgIP_IP_SendViaIP
                0x020050d0                sgIP_IP_GetLocalBindAddr
 .text          0x020050e0     0x116c c:/ndsdev/devkitPro/libnds/lib\libdswifi9.a(sgIP_TCP.o)
                0x020050e0                sgIP_TCP_Init
                0x02005114                sgIP_TCP_support_seqhash
                0x02005160                sgIP_TCP_GetUnusedOutgoingPort
                0x020051c4                sgIP_TCP_CalcChecksum
                0x02005220                sgIP_TCP_GenHeader
                0x020052d4                sgIP_TCP_FixChecksum
                0x02005338                sgIP_TCP_SendPacket
                0x02005420                sgIP_TCP_SendSynReply
                0x020054c8                sgIP_TCP_Timer
                0x02005728                sgIP_TCP_AllocRecord
                0x02005774                sgIP_TCP_ReceivePacket
                0x02005da0                sgIP_TCP_FreeRecord
                0x02005ea0                sgIP_TCP_Bind
                0x02005ecc                sgIP_TCP_Listen
                0x02005f24                sgIP_TCP_Accept
                0x02005f94                sgIP_TCP_Close
                0x02005fc8                sgIP_TCP_Connect
                0x02006054                sgIP_TCP_Send
                0x02006154                sgIP_TCP_Recv
 .text          0x0200624c      0x468 c:/ndsdev/devkitPro/libnds/lib\libdswifi9.a(sgIP_UDP.o)
                0x0200624c                sgIP_UDP_Init
                0x02006268                sgIP_UDP_GetUnusedOutgoingPort
                0x020062c8                sgIP_UDP_CalcChecksum
                0x02006330                sgIP_UDP_ReceivePacket
                0x020063dc                sgIP_UDP_SendPacket
                0x020064d0                sgIP_UDP_AllocRecord
                0x02006508                sgIP_UDP_FreeRecord
                0x02006560                sgIP_UDP_Bind
                0x0200659c                sgIP_UDP_RecvFrom
                0x020066a0                sgIP_UDP_SendTo
 .text          0x020066b4       0x74 c:/ndsdev/devkitPro/libnds/lib\libdswifi9.a(sgIP_ICMP.o)
                0x020066b4                sgIP_ICMP_Init
                0x020066b8                sgIP_ICMP_ReceivePacket
 .text          0x02006728      0x348 c:/ndsdev/devkitPro/libnds/lib\libfat.a(libfat.o)
                0x02006728                fatMount
                0x020067e0                fatMountSimple
                0x020067f4                fatUnmount
                0x0200682c                fatInit
                0x02006988                fatInitDefault
                0x02006994                fatGetVolumeLabel
 .text          0x02006a70      0x6d4 c:/ndsdev/devkitPro/libnds/lib\libfat.a(partition.o)
                0x02006a8c                FindFirstValidPartition
                0x02006c38                _FAT_partition_getPartitionFromPath
                0x02006c4c                _FAT_partition_createFSinfo
                0x02006d18                _FAT_partition_readFSinfo
                0x02006dd8                _FAT_partition_constructor
                0x02007050                _FAT_partition_writeFSinfo
                0x02007104                _FAT_partition_destructor
 .text          0x02007144      0x4bc c:/ndsdev/devkitPro/libnds/lib\libfat.a(cache.o)
                0x02007244                _FAT_cache_constructor
                0x020072e0                _FAT_cache_readSectors
                0x0200733c                _FAT_cache_readPartialSector
                0x02007384                _FAT_cache_readLittleEndianValue
                0x020073e0                _FAT_cache_writePartialSector
                0x02007430                _FAT_cache_writeLittleEndianValue
                0x02007478                _FAT_cache_eraseWritePartialSector
                0x020074dc                _FAT_cache_writeSectors
                0x02007548                _FAT_cache_flush
                0x020075a0                _FAT_cache_destructor
                0x020075d4                _FAT_cache_invalidate
 .text          0x02007600     0x1414 c:/ndsdev/devkitPro/libnds/lib\libfat.a(directory.o)
                0x02007824                _FAT_directory_entryGetCluster
                0x0200784c                _FAT_directory_getNextEntry
                0x02007b1c                _FAT_directory_getFirstEntry
                0x02007b3c                _FAT_directory_getRootEntry
                0x02007b98                _FAT_directory_getVolumeLabel
                0x02007c4c                _FAT_directory_entryFromPosition
                0x02007d94                _FAT_directory_entryFromPath
                0x02007fa4                _FAT_directory_removeEntry
                0x02008078                _FAT_directory_addEntry
                0x0200891c                _FAT_directory_chdir
                0x02008958                _FAT_directory_entryStat
 .text          0x02008a14        0x8 c:/ndsdev/devkitPro/libnds/lib\libfat.a(disc.o)
 .text          0x02008a1c      0x924 c:/ndsdev/devkitPro/libnds/lib\libfat.a(fatdir.o)
                0x02008a1c                _FAT_stat_r
                0x02008abc                _FAT_link_r
                0x02008ac8                _FAT_unlink_r
                0x02008c40                _FAT_chdir_r
                0x02008cb0                _FAT_rename_r
                0x02008e88                _FAT_mkdir_r
                0x02009100                _FAT_statvfs_r
                0x0200918c                _FAT_diropen_r
                0x02009250                _FAT_dirreset_r
                0x0200929c                _FAT_dirnext_r
                0x02009320                _FAT_dirclose_r
 .text          0x02009340     0x123c c:/ndsdev/devkitPro/libnds/lib\libfat.a(fatfile.o)
                0x020095b8                _FAT_open_r
                0x020098c8                _FAT_syncToDisc
                0x020099a4                _FAT_close_r
                0x02009a10                _FAT_read_r
                0x02009d78                _FAT_write_r
                0x0200a1fc                _FAT_seek_r
                0x0200a34c                _FAT_fstat_r
                0x0200a3e8                _FAT_ftruncate_r
                0x0200a53c                _FAT_fsync_r
 .text          0x0200a57c      0x434 c:/ndsdev/devkitPro/libnds/lib\libfat.a(file_allocation_table.o)
                0x0200a690                _FAT_fat_nextCluster
                0x0200a76c                _FAT_fat_linkFreeCluster
                0x0200a800                _FAT_fat_linkFreeClusterCleared
                0x0200a870                _FAT_fat_clearLinks
                0x0200a8d0                _FAT_fat_trimChain
                0x0200a954                _FAT_fat_lastCluster
                0x0200a988                _FAT_fat_freeClusterCount
 .text          0x0200a9b0       0xc8 c:/ndsdev/devkitPro/libnds/lib\libfat.a(filetime.o)
                0x0200a9b0                _FAT_filetime_getTimeFromRTC
                0x0200a9f8                _FAT_filetime_getDateFromRTC
                0x0200aa40                _FAT_filetime_to_time_t
 .text          0x0200aa78       0x10 c:/ndsdev/devkitPro/libnds/lib\libfat.a(lock.o)
                0x0200aa78                _FAT_lock_init
                0x0200aa7c                _FAT_lock_deinit
                0x0200aa80                _FAT_lock
                0x0200aa84                _FAT_unlock
 .text          0x0200aa88      0xa30 c:/ndsdev/devkitPro/libnds/lib\libnds9.a(console.o)
                0x0200aa88                nocash_write
                0x0200ab48                consoleGetDefault
                0x0200ab54                consoleSelect
                0x0200ab64                consoleDebugInit
                0x0200abb4                consolePrintChar
                0x0200ad64                consoleLoadFont
                0x0200affc                consoleSetFont
                0x0200b01c                consoleInit
                0x0200b180                consoleDemoInit
                0x0200b1c4                con_write
                0x0200b484                consoleClear
                0x0200b494                consoleSetWindow
 .text          0x0200b4b8      0x23c c:/ndsdev/devkitPro/libnds/lib\libnds9.a(dldi.o)
                0x0200b4b8                dldiGetInternal
                0x0200b4f0                dldiIsValid
                0x0200b528                dldiFixDriverAddresses
                0x0200b600                dldiLoadFromFile
                0x0200b6e8                dldiFree
 .text          0x0200b6f4      0x108 c:/ndsdev/devkitPro/libnds/lib\libnds9.a(dsi_sd.o)
                0x0200b6f4                sdio_IsInserted
                0x0200b704                sdio_ClearStatus
                0x0200b714                sdio_Shutdown
                0x0200b724                sdio_WriteSectors
                0x0200b778                sdio_ReadSectors
                0x0200b7cc                sdio_Startup
 .text          0x0200b7fc      0x19c c:/ndsdev/devkitPro/libnds/lib\libnds9.a(initSystem.o)
                0x0200b7fc                initSystem
 .text          0x0200b998      0xc88 c:/ndsdev/devkitPro/libnds/lib\libnds9.a(fifosystem.o)
                0x0200bbf8                fifoSendAddress
                0x0200bc24                fifoSendValue32
                0x0200bc64                fifoSendDatamsg
                0x0200bcd4                fifoGetAddress
                0x0200bd48                fifoSetAddressHandler
                0x0200bdbc                fifoGetValue32
                0x0200be30                fifoSetValue32Handler
                0x0200bea4                fifoGetDatamsg
                0x0200c348                fifoSetDatamsgHandler
                0x0200c3e0                fifoCheckAddress
                0x0200c404                fifoCheckDatamsg
                0x0200c428                fifoCheckValue32
                0x0200c44c                fifoInit
 .text          0x0200c620      0x1b4 c:/ndsdev/devkitPro/libnds/lib\libnds9.a(interrupts.o)
                0x0200c620                irqDummy
                0x0200c624                irqSet
                0x0200c684                irqInit
                0x0200c6d0                irqInitHandler
                0x0200c700                irqEnable
                0x0200c754                irqDisable
                0x0200c7a8                irqClear
 .text          0x0200c7d4       0x40 c:/ndsdev/devkitPro/libnds/lib\libnds9.a(libnds_exit.o)
                0x0200c7d4                systemErrorExit
                0x0200c7d8                __libnds_exit
 .text          0x0200c814       0x70 c:/ndsdev/devkitPro/libnds/lib\libnds9.a(dcache.o)
                0x0200c814                DC_FlushAll
                0x0200c840                DC_FlushRange
                0x0200c85c                DC_InvalidateAll
                0x0200c868                DC_InvalidateRange
 *fill*         0x0200c884       0x3c ff
 .text          0x0200c8c0     0x8000 c:/ndsdev/devkitPro/libnds/lib\libnds9.a(dldi_stub.o)
                0x0200c8c0                _io_dldi_stub
 .text          0x020148c0      0x1b4 c:/ndsdev/devkitPro/libnds/lib\libnds9.a(mpu_setup.o)
                0x020148c0                __libnds_mpu_setup
                0x02014a00                memCached
                0x02014a18                memUncached
 *fill*         0x02014a74        0xc ff
 .text          0x02014a80       0x70 c:/ndsdev/devkitPro/libnds/lib\libnds9.a(biosCalls.o)
                0x02014a80                swiDelay
                0x02014a84                swiIntrWait
                0x02014a88                swiWaitForVBlank
                0x02014a8c                swiSleep
                0x02014a90                swiChangeSoundBias
                0x02014a94                swiDivide
                0x02014a98                swiRemainder
                0x02014a9e                swiDivMod
                0x02014aaa                swiCopy
                0x02014aae                swiFastCopy
                0x02014ab2                swiSqrt
                0x02014ab6                swiCRC16
                0x02014aba                swiIsDebugger
                0x02014abe                swiUnpackBits
                0x02014ac2                swiDecompressLZSSWram
                0x02014ac6                swiDecompressLZSSVramNTR
                0x02014aca                swiDecompressLZSSVramTWL
                0x02014ace                swiDecompressHuffman
                0x02014ad2                swiDecompressRLEWram
                0x02014ad6                swiDecompressRLEVram
                0x02014ada                swiWaitForIRQ
                0x02014ade                swiDecodeDelta8
                0x02014ae2                swiDecodeDelta16
                0x02014ae6                swiSetHaltCR
 .text          0x02014af0       0xa4 c:/ndsdev/devkitPro/libnds/lib\libnds9.a(debugprint.o)
                0x02014af0                nocashWrite
                0x02014af2                nocashMessage
 .text          0x02014b94        0x0 c:/ndsdev/devkitPro/libnds/lib\libnds9.a(interruptDispatcher.o)
 *fill*         0x02014b94        0xc ff
 .text          0x02014ba0       0x30 c:/ndsdev/devkitPro/libnds/lib\libnds9.a(swiSoftReset.o)
                0x02014ba0                swiSoftReset
 .text          0x02014bd0        0x0 c:/ndsdev/devkitPro/libnds/lib\libnds9.a(default_font.bin.o)
 .text          0x02014bd0      0x314 c:/ndsdev/devkitPro/libnds/lib\libnds9.a(background.o)
                0x02014bd0                bgIsText
                0x02014bdc                checkIfText
                0x02014c3c                bgUpdate
                0x02014d4c                bgInit_call
                0x02014e10                bgInitSub_call
 .text          0x02014ee4       0xf0 c:/ndsdev/devkitPro/libnds/lib\libnds9.a(system.o)
                0x02014ee4                systemMsgHandler
                0x02014f28                systemSleep
                0x02014f40                powerValueHandler
                0x02014f50                powerOn
                0x02014f7c                powerOff
                0x02014fa4                ledBlink
                0x02014fb4                getBatteryLevel
 .text          0x02014fd4      0x248 c:/ndsdev/devkitPro/libnds/lib\libnds9.a(trig.o)
                0x02014fd4                asinComp
                0x02014ff8                sinLutLookup
                0x02015034                sinLerp
                0x0201506c                cosLerp
                0x02015080                tanLutLookup
                0x020150b8                tanLerp
                0x02015168                asinLerp
                0x020151e4                acosLerp
                0x020151f8                atanComp
 .text          0x0201521c      0x150 c:/ndsdev/devkitPro/libnds/lib\libnds9.a(video.o)
                0x0201521c                vramSetPrimaryBanks
                0x02015260                vramSetMainBanks
                0x020152a4                vramSetBanks_EFG
                0x020152dc                vramRestorePrimaryBanks
                0x020152e8                vramRestoreMainBanks
                0x020152f4                vramRestoreBanks_EFG
                0x02015300                setBrightness
                0x02015340                vramDefault
 .text          0x0201536c      0x11c c:/ndsdev/devkitpro/devkitarm/bin/../lib/gcc/arm-eabi/4.6.0/thumb\libgcc.a(_udivsi3.o)
                0x0201536c                __aeabi_uidiv
                0x0201536c                __udivsi3
                0x02015468                __aeabi_uidivmod
 .text          0x02015488      0x150 c:/ndsdev/devkitpro/devkitarm/bin/../lib/gcc/arm-eabi/4.6.0/thumb\libgcc.a(_divsi3.o)
                0x02015488                __divsi3
                0x02015488                __aeabi_idiv
                0x020155b8                __aeabi_idivmod
 .text          0x020155d8        0x4 c:/ndsdev/devkitpro/devkitarm/bin/../lib/gcc/arm-eabi/4.6.0/thumb\libgcc.a(_dvmd_tls.o)
                0x020155d8                __aeabi_idiv0
                0x020155d8                __aeabi_ldiv0
 .text          0x020155dc       0x20 c:/ndsdev/devkitpro/devkitarm/bin/../lib/gcc/arm-eabi/4.6.0/../../../../arm-eabi/lib/thumb\libg.a(lib_a-atoi.o)
                0x020155dc                atoi
                0x020155ec                _atoi_r
 .text          0x020155fc       0x64 c:/ndsdev/devkitpro/devkitarm/bin/../lib/gcc/arm-eabi/4.6.0/../../../../arm-eabi/lib/thumb\libg.a(lib_a-bsearch.o)
                0x020155fc                bsearch
 .text          0x02015660        0xc c:/ndsdev/devkitpro/devkitarm/bin/../lib/gcc/arm-eabi/4.6.0/../../../../arm-eabi/lib/thumb\libg.a(lib_a-errno.o)
                0x02015660                __errno
 .text          0x0201566c       0xc0 c:/ndsdev/devkitpro/devkitarm/bin/../lib/gcc/arm-eabi/4.6.0/../../../../arm-eabi/lib/thumb\libg.a(lib_a-fclose.o)
                0x0201566c                _fclose_r
                0x02015710                fclose
 .text          0x0201572c      0x18c c:/ndsdev/devkitpro/devkitarm/bin/../lib/gcc/arm-eabi/4.6.0/../../../../arm-eabi/lib/thumb\libg.a(lib_a-fflush.o)
                0x0201572c                _fflush_r
                0x02015888                fflush
 .text          0x020158b8       0xe8 c:/ndsdev/devkitpro/devkitarm/bin/../lib/gcc/arm-eabi/4.6.0/../../../../arm-eabi/lib/thumb\libg.a(lib_a-fgets.o)
                0x020158b8                _fgets_r
                0x02015980                fgets
 .text          0x020159a0      0x1d8 c:/ndsdev/devkitpro/devkitarm/bin/../lib/gcc/arm-eabi/4.6.0/../../../../arm-eabi/lib/thumb\libg.a(lib_a-findfp.o)
                0x020159a8                _cleanup_r
                0x02015a08                __sfmoreglue
                0x02015a38                _cleanup
                0x02015a4c                __sinit
                0x02015aa0                __sfp
                0x02015b30                __sfp_lock_acquire
                0x02015b34                __sfp_lock_release
                0x02015b38                __sinit_lock_acquire
                0x02015b3c                __sinit_lock_release
                0x02015b40                __fp_lock_all
                0x02015b5c                __fp_unlock_all
 .text          0x02015b78       0xb0 c:/ndsdev/devkitpro/devkitarm/bin/../lib/gcc/arm-eabi/4.6.0/../../../../arm-eabi/lib/thumb\libg.a(lib_a-fopen.o)
                0x02015b78                _fopen_r
                0x02015c0c                fopen
 .text          0x02015c28      0x248 c:/ndsdev/devkitpro/devkitarm/bin/../lib/gcc/arm-eabi/4.6.0/../../../../arm-eabi/lib/thumb\libg.a(lib_a-freer.o)
                0x02015c28                _malloc_trim_r
                0x02015cd4                _free_r
 .text          0x02015e70      0x32c c:/ndsdev/devkitpro/devkitarm/bin/../lib/gcc/arm-eabi/4.6.0/../../../../arm-eabi/lib/thumb\libg.a(lib_a-fseek.o)
                0x02015e70                _fseek_r
                0x02016178                fseek
 .text          0x0201619c       0xc4 c:/ndsdev/devkitpro/devkitarm/bin/../lib/gcc/arm-eabi/4.6.0/../../../../arm-eabi/lib/thumb\libg.a(lib_a-fwalk.o)
                0x0201619c                _fwalk
                0x020161f8                _fwalk_reent
 .text          0x02016260       0x9c c:/ndsdev/devkitpro/devkitarm/bin/../lib/gcc/arm-eabi/4.6.0/../../../../arm-eabi/lib/thumb\libg.a(lib_a-fwrite.o)
                0x02016260                _fwrite_r
                0x020162d4                fwrite
 .text          0x020162fc        0x0 c:/ndsdev/devkitpro/devkitarm/bin/../lib/gcc/arm-eabi/4.6.0/../../../../arm-eabi/lib/thumb\libg.a(lib_a-impure.o)
 .text          0x020162fc       0x50 c:/ndsdev/devkitpro/devkitarm/bin/../lib/gcc/arm-eabi/4.6.0/../../../../arm-eabi/lib/thumb\libg.a(lib_a-init.o)
                0x020162fc                __libc_init_array
 .text          0x0201634c       0x40 c:/ndsdev/devkitpro/devkitarm/bin/../lib/gcc/arm-eabi/4.6.0/../../../../arm-eabi/lib/thumb\libg.a(lib_a-iprintf.o)
                0x0201634c                iprintf
                0x02016370                _iprintf_r
 .text          0x0201638c       0x10 c:/ndsdev/devkitpro/devkitarm/bin/../lib/gcc/arm-eabi/4.6.0/../../../../arm-eabi/lib/thumb\libg.a(lib_a-lcltime_r.o)
                0x0201638c                localtime_r
 .text          0x0201639c      0x94c c:/ndsdev/devkitpro/devkitarm/bin/../lib/gcc/arm-eabi/4.6.0/../../../../arm-eabi/lib/thumb\libg.a(lib_a-locale.o)
                0x02016a58                _setlocale_r
                0x02016c88                __locale_charset
                0x02016c90                __locale_mb_cur_max
                0x02016c9c                __locale_msgcharset
                0x02016ca8                __locale_cjk_lang
                0x02016cb4                _localeconv_r
                0x02016cc0                setlocale
                0x02016cdc                localeconv
 .text          0x02016ce8       0xe4 c:/ndsdev/devkitpro/devkitarm/bin/../lib/gcc/arm-eabi/4.6.0/../../../../arm-eabi/lib/thumb\libg.a(lib_a-makebuf.o)
                0x02016ce8                __smakebuf_r
 .text          0x02016dcc       0x30 c:/ndsdev/devkitpro/devkitarm/bin/../lib/gcc/arm-eabi/4.6.0/../../../../arm-eabi/lib/thumb\libg.a(lib_a-malloc.o)
                0x02016dcc                malloc
                0x02016de4                free
 .text          0x02016dfc      0x514 c:/ndsdev/devkitpro/devkitarm/bin/../lib/gcc/arm-eabi/4.6.0/../../../../arm-eabi/lib/thumb\libg.a(lib_a-mallocr.o)
                0x02016dfc                _malloc_r
 .text          0x02017310       0xfc c:/ndsdev/devkitpro/devkitarm/bin/../lib/gcc/arm-eabi/4.6.0/../../../../arm-eabi/lib/thumb\libg.a(lib_a-mbrtowc.o)
                0x02017310                _mbrtowc_r
                0x02017384                mbrtowc
 .text          0x0201740c       0x40 c:/ndsdev/devkitpro/devkitarm/bin/../lib/gcc/arm-eabi/4.6.0/../../../../arm-eabi/lib/thumb\libg.a(lib_a-mbsrtowcs.o)
                0x0201740c                _mbsrtowcs_r
                0x02017424                mbsrtowcs
 .text          0x0201744c      0x5f8 c:/ndsdev/devkitpro/devkitarm/bin/../lib/gcc/arm-eabi/4.6.0/../../../../arm-eabi/lib/thumb\libg.a(lib_a-mbtowc_r.o)
                0x0201744c                __utf8_mbtowc
                0x02017714                _mbtowc_r
                0x02017750                __ascii_mbtowc
                0x0201777c                __sjis_mbtowc
                0x02017838                __eucjp_mbtowc
                0x02017918                __jis_mbtowc
 .text          0x02017a44       0x9c c:/ndsdev/devkitpro/devkitarm/bin/../lib/gcc/arm-eabi/4.6.0/../../../../arm-eabi/lib/thumb\libg.a(lib_a-memchr.o)
                0x02017a44                memchr
 .text          0x02017ae0       0x64 c:/ndsdev/devkitpro/devkitarm/bin/../lib/gcc/arm-eabi/4.6.0/../../../../arm-eabi/lib/thumb\libg.a(lib_a-memcmp.o)
                0x02017ae0                memcmp
 .text          0x02017b44       0x80 c:/ndsdev/devkitpro/devkitarm/bin/../lib/gcc/arm-eabi/4.6.0/../../../../arm-eabi/lib/thumb\libg.a(lib_a-memcpy.o)
                0x02017b44                memcpy
 .text          0x02017bc4       0xa8 c:/ndsdev/devkitpro/devkitarm/bin/../lib/gcc/arm-eabi/4.6.0/../../../../arm-eabi/lib/thumb\libg.a(lib_a-memmove.o)
                0x02017bc4                memmove
 .text          0x02017c6c       0x98 c:/ndsdev/devkitpro/devkitarm/bin/../lib/gcc/arm-eabi/4.6.0/../../../../arm-eabi/lib/thumb\libg.a(lib_a-memset.o)
                0x02017c6c                memset
 .text          0x02017d04      0x474 c:/ndsdev/devkitpro/devkitarm/bin/../lib/gcc/arm-eabi/4.6.0/../../../../arm-eabi/lib/thumb\libg.a(lib_a-mktime.o)
                0x02017ee4                mktime
 .text          0x02018178      0x488 c:/ndsdev/devkitpro/devkitarm/bin/../lib/gcc/arm-eabi/4.6.0/../../../../arm-eabi/lib/thumb\libg.a(lib_a-mktm_r.o)
                0x02018178                __tzcalc_limits
                0x02018310                _mktm_r
 .text          0x02018600        0x8 c:/ndsdev/devkitpro/devkitarm/bin/../lib/gcc/arm-eabi/4.6.0/../../../../arm-eabi/lib/thumb\libg.a(lib_a-mlock.o)
                0x02018600                __malloc_lock
                0x02018604                __malloc_unlock
 .text          0x02018608       0x40 c:/ndsdev/devkitpro/devkitarm/bin/../lib/gcc/arm-eabi/4.6.0/../../../../arm-eabi/lib/thumb\libg.a(lib_a-printf.o)
                0x02018608                _printf_r
                0x02018624                printf
 .text          0x02018648      0x138 c:/ndsdev/devkitpro/devkitarm/bin/../lib/gcc/arm-eabi/4.6.0/../../../../arm-eabi/lib/thumb\libg.a(lib_a-refill.o)
                0x02018668                __srefill_r
 .text          0x02018780      0x118 c:/ndsdev/devkitpro/devkitarm/bin/../lib/gcc/arm-eabi/4.6.0/../../../../arm-eabi/lib/thumb\libg.a(lib_a-setvbuf.o)
                0x02018780                setvbuf
 .text          0x02018898       0xa0 c:/ndsdev/devkitpro/devkitarm/bin/../lib/gcc/arm-eabi/4.6.0/../../../../arm-eabi/lib/thumb\libg.a(lib_a-siscanf.o)
                0x02018898                siscanf
                0x020188e8                _siscanf_r
 .text          0x02018938       0x84 c:/ndsdev/devkitpro/devkitarm/bin/../lib/gcc/arm-eabi/4.6.0/../../../../arm-eabi/lib/thumb\libg.a(lib_a-sprintf.o)
                0x02018938                _sprintf_r
                0x02018978                sprintf
 .text          0x020189bc       0xa0 c:/ndsdev/devkitpro/devkitarm/bin/../lib/gcc/arm-eabi/4.6.0/../../../../arm-eabi/lib/thumb\libg.a(lib_a-sscanf.o)
                0x020189bc                sscanf
                0x02018a0c                _sscanf_r
 .text          0x02018a5c       0xac c:/ndsdev/devkitpro/devkitarm/bin/../lib/gcc/arm-eabi/4.6.0/../../../../arm-eabi/lib/thumb\libg.a(lib_a-stdio.o)
                0x02018a5c                __sread
                0x02018a88                __seofread
                0x02018a8c                __swrite
                0x02018ac8                __sseek
                0x02018af8                __sclose
 .text          0x02018b08       0x50 c:/ndsdev/devkitpro/devkitarm/bin/../lib/gcc/arm-eabi/4.6.0/../../../../arm-eabi/lib/thumb\libg.a(lib_a-strcasecmp.o)
                0x02018b08                strcasecmp
 .text          0x02018b58       0x54 c:/ndsdev/devkitpro/devkitarm/bin/../lib/gcc/arm-eabi/4.6.0/../../../../arm-eabi/lib/thumb\libg.a(lib_a-strcat.o)
                0x02018b58                strcat
 .text          0x02018bac       0xf0 c:/ndsdev/devkitpro/devkitarm/bin/../lib/gcc/arm-eabi/4.6.0/../../../../arm-eabi/lib/thumb\libg.a(lib_a-strchr.o)
                0x02018bac                strchr
 .text          0x02018c9c       0x14 c:/ndsdev/devkitpro/devkitarm/bin/../lib/gcc/arm-eabi/4.6.0/../../../../arm-eabi/lib/thumb\libg.a(lib_a-strcmp.o)
                0x02018c9c                strcmp
 .text          0x02018cb0       0x10 c:/ndsdev/devkitpro/devkitarm/bin/../lib/gcc/arm-eabi/4.6.0/../../../../arm-eabi/lib/thumb\libg.a(lib_a-strcpy.o)
                0x02018cb0                strcpy
 .text          0x02018cc0       0x4c c:/ndsdev/devkitpro/devkitarm/bin/../lib/gcc/arm-eabi/4.6.0/../../../../arm-eabi/lib/thumb\libg.a(lib_a-strlcpy.o)
                0x02018cc0                strlcpy
 .text          0x02018d0c       0x10 c:/ndsdev/devkitpro/devkitarm/bin/../lib/gcc/arm-eabi/4.6.0/../../../../arm-eabi/lib/thumb\libg.a(lib_a-strlen.o)
                0x02018d0c                strlen
 .text          0x02018d1c       0x60 c:/ndsdev/devkitpro/devkitarm/bin/../lib/gcc/arm-eabi/4.6.0/../../../../arm-eabi/lib/thumb\libg.a(lib_a-strncasecmp.o)
                0x02018d1c                strncasecmp
 .text          0x02018d7c       0xc0 c:/ndsdev/devkitpro/devkitarm/bin/../lib/gcc/arm-eabi/4.6.0/../../../../arm-eabi/lib/thumb\libg.a(lib_a-strncmp.o)
                0x02018d7c                strncmp
 .text          0x02018e3c       0x78 c:/ndsdev/devkitpro/devkitarm/bin/../lib/gcc/arm-eabi/4.6.0/../../../../arm-eabi/lib/thumb\libg.a(lib_a-strncpy.o)
                0x02018e3c                strncpy
 .text          0x02018eb4       0x30 c:/ndsdev/devkitpro/devkitarm/bin/../lib/gcc/arm-eabi/4.6.0/../../../../arm-eabi/lib/thumb\libg.a(lib_a-strnlen.o)
                0x02018eb4                strnlen
 .text          0x02018ee4       0x58 c:/ndsdev/devkitpro/devkitarm/bin/../lib/gcc/arm-eabi/4.6.0/../../../../arm-eabi/lib/thumb\libg.a(lib_a-strpbrk.o)
                0x02018ee4                strpbrk
 .text          0x02018f3c       0x2c c:/ndsdev/devkitpro/devkitarm/bin/../lib/gcc/arm-eabi/4.6.0/../../../../arm-eabi/lib/thumb\libg.a(lib_a-strrchr.o)
                0x02018f3c                strrchr
 .text          0x02018f68      0x184 c:/ndsdev/devkitpro/devkitarm/bin/../lib/gcc/arm-eabi/4.6.0/../../../../arm-eabi/lib/thumb\libg.a(lib_a-strtol.o)
                0x02018f68                _strtol_r
                0x020190cc                strtol
 .text          0x020190ec      0xab0 c:/ndsdev/devkitpro/devkitarm/bin/../lib/gcc/arm-eabi/4.6.0/../../../../arm-eabi/lib/thumb\libg.a(lib_a-svfiscanf.o)
                0x020190ec                _sungetc_r
                0x02019174                __ssrefill_r
                0x020191b8                _sfread_r
                0x02019244                __ssvfiscanf_r
 *fill*         0x02019b9c        0x4 ff
 .text          0x02019ba0     0x16f0 c:/ndsdev/devkitpro/devkitarm/bin/../lib/gcc/arm-eabi/4.6.0/../../../../arm-eabi/lib/thumb\libg.a(lib_a-svfprintf.o)
                0x02019ba0                _svfprintf_r
 .text          0x0201b290      0xdd0 c:/ndsdev/devkitpro/devkitarm/bin/../lib/gcc/arm-eabi/4.6.0/../../../../arm-eabi/lib/thumb\libg.a(lib_a-svfscanf.o)
                0x0201b290                __ssvfscanf_r
 .text          0x0201c060       0x18 c:/ndsdev/devkitpro/devkitarm/bin/../lib/gcc/arm-eabi/4.6.0/../../../../arm-eabi/lib/thumb\libg.a(lib_a-sysclose.o)
                0x0201c060                close
 .text          0x0201c078       0x20 c:/ndsdev/devkitpro/devkitarm/bin/../lib/gcc/arm-eabi/4.6.0/../../../../arm-eabi/lib/thumb\libg.a(lib_a-syslseek.o)
                0x0201c078                lseek
 .text          0x0201c098       0x28 c:/ndsdev/devkitpro/devkitarm/bin/../lib/gcc/arm-eabi/4.6.0/../../../../arm-eabi/lib/thumb\libg.a(lib_a-sysopen.o)
                0x0201c098                open
 .text          0x0201c0c0       0x20 c:/ndsdev/devkitpro/devkitarm/bin/../lib/gcc/arm-eabi/4.6.0/../../../../arm-eabi/lib/thumb\libg.a(lib_a-sysread.o)
                0x0201c0c0                read
 .text          0x0201c0e0       0x30 c:/ndsdev/devkitpro/devkitarm/bin/../lib/gcc/arm-eabi/4.6.0/../../../../arm-eabi/lib/thumb\libg.a(lib_a-time.o)
                0x0201c0e0                time
 .text          0x0201c110      0x728 c:/ndsdev/devkitpro/devkitarm/bin/../lib/gcc/arm-eabi/4.6.0/../../../../arm-eabi/lib/thumb\libg.a(lib_a-towlower.o)
                0x0201c110                towlower
 .text          0x0201c838      0x9ec c:/ndsdev/devkitpro/devkitarm/bin/../lib/gcc/arm-eabi/4.6.0/../../../../arm-eabi/lib/thumb\libg.a(lib_a-towupper.o)
                0x0201c838                towupper
 .text          0x0201d224        0x8 c:/ndsdev/devkitpro/devkitarm/bin/../lib/gcc/arm-eabi/4.6.0/../../../../arm-eabi/lib/thumb\libg.a(lib_a-tzlock.o)
                0x0201d224                __tz_lock
                0x0201d228                __tz_unlock
 .text          0x0201d22c        0x0 c:/ndsdev/devkitpro/devkitarm/bin/../lib/gcc/arm-eabi/4.6.0/../../../../arm-eabi/lib/thumb\libg.a(lib_a-tzvars.o)
 .text          0x0201d22c      0x180 c:/ndsdev/devkitpro/devkitarm/bin/../lib/gcc/arm-eabi/4.6.0/../../../../arm-eabi/lib/thumb\libg.a(lib_a-ungetc.o)
                0x0201d22c                __submore
                0x0201d2b4                _ungetc_r
                0x0201d390                ungetc
 .text          0x0201d3ac      0xea4 c:/ndsdev/devkitpro/devkitarm/bin/../lib/gcc/arm-eabi/4.6.0/../../../../arm-eabi/lib/thumb\libg.a(lib_a-vfiprintf.o)
                0x0201d3ac                __sprint_r
                0x0201d430                _vfiprintf_r
                0x0201e22c                vfiprintf
 .text          0x0201e250     0x18e8 c:/ndsdev/devkitpro/devkitarm/bin/../lib/gcc/arm-eabi/4.6.0/../../../../arm-eabi/lib/thumb\libg.a(lib_a-vfprintf.o)
                0x0201e250                _vfprintf_r
                0x0201fb10                vfprintf
 .text          0x0201fb38       0xdc c:/ndsdev/devkitpro/devkitarm/bin/../lib/gcc/arm-eabi/4.6.0/../../../../arm-eabi/lib/thumb\libg.a(lib_a-wcrtomb.o)
                0x0201fb38                _wcrtomb_r
                0x0201fb9c                wcrtomb
 .text          0x0201fc14       0x40 c:/ndsdev/devkitpro/devkitarm/bin/../lib/gcc/arm-eabi/4.6.0/../../../../arm-eabi/lib/thumb\libg.a(lib_a-wcsrtombs.o)
                0x0201fc14                _wcsrtombs_r
                0x0201fc2c                wcsrtombs
 .text          0x0201fc54       0x54 c:/ndsdev/devkitpro/devkitarm/bin/../lib/gcc/arm-eabi/4.6.0/../../../../arm-eabi/lib/thumb\libg.a(lib_a-wctob.o)
                0x0201fc54                wctob
 .text          0x0201fca8      0x27c c:/ndsdev/devkitpro/devkitarm/bin/../lib/gcc/arm-eabi/4.6.0/../../../../arm-eabi/lib/thumb\libg.a(lib_a-wctomb_r.o)
                0x0201fca8                __utf8_wctomb
                0x0201fd68                _wctomb_r
                0x0201fda0                __ascii_wctomb
                0x0201fdc0                __sjis_wctomb
                0x0201fe2c                __eucjp_wctomb
                0x0201fea8                __jis_wctomb
 .text          0x0201ff24       0xbc c:/ndsdev/devkitpro/devkitarm/bin/../lib/gcc/arm-eabi/4.6.0/../../../../arm-eabi/lib/thumb\libg.a(lib_a-wsetup.o)
                0x0201ff24                __swsetup_r
 .text          0x0201ffe0       0x10 c:/ndsdev/devkitpro/devkitarm/bin/../lib/gcc/arm-eabi/4.6.0/../../../../arm-eabi/lib/thumb\libg.a(lib_a-ctype_.o)
                0x0201ffe0                __set_ctype
 .text          0x0201fff0       0x40 c:/ndsdev/devkitpro/devkitarm/bin/../lib/gcc/arm-eabi/4.6.0/../../../../arm-eabi/lib/thumb\libg.a(lib_a-div.o)
                0x0201fff0                div
 .text          0x02020030     0x1010 c:/ndsdev/devkitpro/devkitarm/bin/../lib/gcc/arm-eabi/4.6.0/../../../../arm-eabi/lib/thumb\libg.a(lib_a-dtoa.o)
                0x0202018c                _dtoa_r
 .text          0x02021040       0x70 c:/ndsdev/devkitpro/devkitarm/bin/../lib/gcc/arm-eabi/4.6.0/../../../../arm-eabi/lib/thumb\libg.a(lib_a-flags.o)
                0x02021040                __sflags
 .text          0x020210b0      0x108 c:/ndsdev/devkitpro/devkitarm/bin/../lib/gcc/arm-eabi/4.6.0/../../../../arm-eabi/lib/thumb\libg.a(lib_a-fputwc.o)
                0x020210b0                _fputwc_r
                0x0202118c                fputwc
 .text          0x020211b8      0x31c c:/ndsdev/devkitpro/devkitarm/bin/../lib/gcc/arm-eabi/4.6.0/../../../../arm-eabi/lib/thumb\libg.a(lib_a-fvwrite.o)
                0x020211b8                __sfvwrite_r
 .text          0x020214d4       0xa8 c:/ndsdev/devkitpro/devkitarm/bin/../lib/gcc/arm-eabi/4.6.0/../../../../arm-eabi/lib/thumb\libg.a(lib_a-getenv_r.o)
                0x020214d4                _findenv_r
                0x0202156c                _getenv_r
 .text          0x0202157c        0x8 c:/ndsdev/devkitpro/devkitarm/bin/../lib/gcc/arm-eabi/4.6.0/../../../../arm-eabi/lib/thumb\libg.a(lib_a-gettzinfo.o)
                0x0202157c                __gettzinfo
 .text          0x02021584       0x84 c:/ndsdev/devkitpro/devkitarm/bin/../lib/gcc/arm-eabi/4.6.0/../../../../arm-eabi/lib/thumb\libg.a(lib_a-iswspace.o)
                0x02021584                iswspace
 .text          0x02021608      0x1f4 c:/ndsdev/devkitpro/devkitarm/bin/../lib/gcc/arm-eabi/4.6.0/../../../../arm-eabi/lib/thumb\libg.a(lib_a-jp2uc.o)
                0x02021798                _jp2uc
 .text          0x020217fc       0xe4 c:/ndsdev/devkitpro/devkitarm/bin/../lib/gcc/arm-eabi/4.6.0/../../../../arm-eabi/lib/thumb\libg.a(lib_a-mbsnrtowcs.o)
                0x020217fc                _mbsnrtowcs_r
                0x020218b4                mbsnrtowcs
 .text          0x020218e0      0x988 c:/ndsdev/devkitpro/devkitarm/bin/../lib/gcc/arm-eabi/4.6.0/../../../../arm-eabi/lib/thumb\libg.a(lib_a-mprec.o)
                0x020218e0                _Balloc
                0x02021934                _Bfree
                0x0202194c                __multadd
                0x020219e0                __s2b
                0x02021a74                __hi0bits
                0x02021aac                __lo0bits
                0x02021b0c                __i2b
                0x02021b24                __multiply
                0x02021c94                __pow5mult
                0x02021d44                __lshift
                0x02021e14                __mcmp
                0x02021e50                __mdiff
                0x02021f3c                __ulp
                0x02021f84                __b2d
                0x02022040                __d2b
                0x02022110                __ratio
                0x0202217c                _mprec_log10
                0x020221bc                __copybits
                0x02022204                __any_on
 .text          0x02022268      0x3c4 c:/ndsdev/devkitpro/devkitarm/bin/../lib/gcc/arm-eabi/4.6.0/../../../../arm-eabi/lib/thumb\libg.a(lib_a-reallocr.o)
                0x02022268                _realloc_r
 .text          0x0202262c       0x90 c:/ndsdev/devkitpro/devkitarm/bin/../lib/gcc/arm-eabi/4.6.0/../../../../arm-eabi/lib/thumb\libg.a(lib_a-s_fpclassify.o)
                0x0202262c                __fpclassifyd
 .text          0x020226bc       0x7c c:/ndsdev/devkitpro/devkitarm/bin/../lib/gcc/arm-eabi/4.6.0/../../../../arm-eabi/lib/thumb\libg.a(lib_a-sccl.o)
                0x020226bc                __sccl
 .text          0x02022738        0x8 c:/ndsdev/devkitpro/devkitarm/bin/../lib/gcc/arm-eabi/4.6.0/../../../../arm-eabi/lib/thumb\libg.a(lib_a-sf_nan.o)
                0x02022738                nanf
 .text          0x02022740      0xe58 c:/ndsdev/devkitpro/devkitarm/bin/../lib/gcc/arm-eabi/4.6.0/../../../../arm-eabi/lib/thumb\libg.a(lib_a-strtod.o)
                0x02022770                _strtod_r
                0x02023544                strtod
                0x02023560                strtof
 .text          0x02023598      0x210 c:/ndsdev/devkitpro/devkitarm/bin/../lib/gcc/arm-eabi/4.6.0/../../../../arm-eabi/lib/thumb\libg.a(lib_a-strtoll_r.o)
                0x02023598                _strtoll_r
 .text          0x020237a8      0x198 c:/ndsdev/devkitpro/devkitarm/bin/../lib/gcc/arm-eabi/4.6.0/../../../../arm-eabi/lib/thumb\libg.a(lib_a-strtoul.o)
                0x020237a8                _strtoul_r
                0x02023920                strtoul
 .text          0x02023940      0x220 c:/ndsdev/devkitpro/devkitarm/bin/../lib/gcc/arm-eabi/4.6.0/../../../../arm-eabi/lib/thumb\libg.a(lib_a-strtoull_r.o)
                0x02023940                _strtoull_r
 .text          0x02023b60      0xd98 c:/ndsdev/devkitpro/devkitarm/bin/../lib/gcc/arm-eabi/4.6.0/../../../../arm-eabi/lib/thumb\libg.a(lib_a-svfiprintf.o)
                0x02023b60                __ssprint_r
                0x02023c90                _svfiprintf_r
 .text          0x020248f8       0xe4 c:/ndsdev/devkitpro/devkitarm/bin/../lib/gcc/arm-eabi/4.6.0/../../../../arm-eabi/lib/thumb\libg.a(lib_a-wbuf.o)
                0x020248f8                __swbuf_r
                0x020249c0                __swbuf
 .text          0x020249dc      0x13c c:/ndsdev/devkitpro/devkitarm/bin/../lib/gcc/arm-eabi/4.6.0/../../../../arm-eabi/lib/thumb\libg.a(lib_a-wcsnrtombs.o)
                0x020249dc                _wcsnrtombs_r
                0x02024ae8                wcsnrtombs
 .text          0x02024b18       0x64 c:/ndsdev/devkitpro/devkitarm/bin/../lib/gcc/arm-eabi/4.6.0/../../../../arm-eabi/lib/thumb\libg.a(lib_a-callocr.o)
                0x02024b18                _calloc_r
 .text          0x02024b7c        0x0 c:/ndsdev/devkitpro/devkitarm/bin/../lib/gcc/arm-eabi/4.6.0/../../../../arm-eabi/lib/thumb\libg.a(lib_a-environ.o)
 .text          0x02024b7c        0x8 c:/ndsdev/devkitpro/devkitarm/bin/../lib/gcc/arm-eabi/4.6.0/../../../../arm-eabi/lib/thumb\libg.a(lib_a-envlock.o)
                0x02024b7c                __env_lock
                0x02024b80                __env_unlock
 .text          0x02024b84      0x674 c:/ndsdev/devkitpro/devkitarm/bin/../lib/gcc/arm-eabi/4.6.0/../../../../arm-eabi/lib/thumb\libg.a(lib_a-gdtoa-gethex.o)
                0x02024c44                __hexdig_init
                0x02024ca0                __gethex
 .text          0x020251f8      0x1e0 c:/ndsdev/devkitpro/devkitarm/bin/../lib/gcc/arm-eabi/4.6.0/../../../../arm-eabi/lib/thumb\libg.a(lib_a-gdtoa-hexnan.o)
                0x020251f8                __hexnan
 .text          0x020253d8      0x144 c:/ndsdev/devkitpro/devkitarm/bin/../lib/gcc/arm-eabi/4.6.0/../../../../arm-eabi/lib/thumb\libsysbase.a(iosupport.o)
                0x020253d8                setDefaultDevice
                0x020253ec                FindDevice
                0x0202545c                RemoveDevice
                0x02025480                AddDevice
                0x020254fc                GetDeviceOpTab
 .text          0x0202551c       0x50 c:/ndsdev/devkitpro/devkitarm/bin/../lib/gcc/arm-eabi/4.6.0/../../../../arm-eabi/lib/thumb\libsysbase.a(close.o)
                0x0202551c                _close_r
 .text          0x0202556c       0x58 c:/ndsdev/devkitpro/devkitarm/bin/../lib/gcc/arm-eabi/4.6.0/../../../../arm-eabi/lib/thumb\libsysbase.a(fstat.o)
                0x0202556c                _fstat_r
 .text          0x020255c4        0x4 c:/ndsdev/devkitpro/devkitarm/bin/../lib/gcc/arm-eabi/4.6.0/../../../../arm-eabi/lib/thumb\libsysbase.a(isatty.o)
                0x020255c4                _isatty_r
 .text          0x020255c8       0x54 c:/ndsdev/devkitpro/devkitarm/bin/../lib/gcc/arm-eabi/4.6.0/../../../../arm-eabi/lib/thumb\libsysbase.a(lseek.o)
                0x020255c8                _lseek_r
 .text          0x0202561c       0xa0 c:/ndsdev/devkitpro/devkitarm/bin/../lib/gcc/arm-eabi/4.6.0/../../../../arm-eabi/lib/thumb\libsysbase.a(open.o)
                0x0202561c                _open_r
 .text          0x020256bc       0x54 c:/ndsdev/devkitpro/devkitarm/bin/../lib/gcc/arm-eabi/4.6.0/../../../../arm-eabi/lib/thumb\libsysbase.a(read.o)
                0x020256bc                _read_r
 .text          0x02025710       0x54 c:/ndsdev/devkitpro/devkitarm/bin/../lib/gcc/arm-eabi/4.6.0/../../../../arm-eabi/lib/thumb\libsysbase.a(sbrk.o)
                0x02025710                _sbrk_r
 .text          0x02025764       0x48 c:/ndsdev/devkitpro/devkitarm/bin/../lib/gcc/arm-eabi/4.6.0/../../../../arm-eabi/lib/thumb\libsysbase.a(times.o)
                0x02025764                _times
                0x02025778                _times_r
                0x02025780                _gettimeofday_r
 .text          0x020257ac       0x54 c:/ndsdev/devkitpro/devkitarm/bin/../lib/gcc/arm-eabi/4.6.0/../../../../arm-eabi/lib/thumb\libsysbase.a(write.o)
                0x020257ac                _write_r
 .text          0x02025800        0x0 c:/ndsdev/devkitpro/devkitarm/bin/../lib/gcc/arm-eabi/4.6.0/../../../../arm-eabi/lib/thumb\libsysbase.a(malloc_vars.o)
 .text          0x02025800      0x248 c:/ndsdev/devkitpro/devkitarm/bin/../lib/gcc/arm-eabi/4.6.0/../../../../arm-eabi/lib/thumb\libsysbase.a(chdir.o)
                0x02025800                _concatenate_path
                0x02025918                chdir
                0x020259f8                getcwd
 .text          0x02025a48       0x58 c:/ndsdev/devkitpro/devkitarm/bin/../lib/gcc/arm-eabi/4.6.0/../../../../arm-eabi/lib/thumb\libsysbase.a(build_argv.o)
                0x02025a48                build_argv
 .text          0x02025aa0        0x0 c:/ndsdev/devkitpro/devkitarm/bin/../lib/gcc/arm-eabi/4.6.0/../../../../arm-eabi/lib/thumb\libsysbase.a(syscall_support.o)
 .text          0x02025aa0       0x80 c:/ndsdev/devkitpro/devkitarm/bin/../lib/gcc/arm-eabi/4.6.0/../../../../arm-eabi/lib/thumb\libsysbase.a(handle_manager.o)
                0x02025aa0                __release_handle
                0x02025acc                __alloc_handle
                0x02025b04                __get_handle
 .text          0x02025b20      0x41c c:/ndsdev/devkitpro/devkitarm/bin/../lib/gcc/arm-eabi/4.6.0/thumb\libgcc.a(_arm_addsubdf3.o)
                0x02025b20                __aeabi_drsub
                0x02025b28                __aeabi_dsub
                0x02025b28                __subdf3
                0x02025b2c                __aeabi_dadd
                0x02025b2c                __adddf3
                0x02025e3c                __floatunsidf
                0x02025e3c                __aeabi_ui2d
                0x02025e60                __floatsidf
                0x02025e60                __aeabi_i2d
                0x02025e88                __aeabi_f2d
                0x02025e88                __extendsfdf2
                0x02025ec8                __floatundidf
                0x02025ec8                __aeabi_ul2d
                0x02025edc                __floatdidf
                0x02025edc                __aeabi_l2d
 .text          0x02025f3c      0x49c c:/ndsdev/devkitpro/devkitarm/bin/../lib/gcc/arm-eabi/4.6.0/thumb\libgcc.a(_arm_muldivdf3.o)
                0x02025f3c                __aeabi_dmul
                0x02025f3c                __muldf3
                0x020261cc                __divdf3
                0x020261cc                __aeabi_ddiv
 .text          0x020263d8      0x144 c:/ndsdev/devkitpro/devkitarm/bin/../lib/gcc/arm-eabi/4.6.0/thumb\libgcc.a(_arm_cmpdf2.o)
                0x020263d8                __gtdf2
                0x020263d8                __gedf2
                0x020263e0                __ltdf2
                0x020263e0                __ledf2
                0x020263e8                __nedf2
                0x020263e8                __eqdf2
                0x020263e8                __cmpdf2
                0x02026470                __aeabi_cdrcmple
                0x0202648c                __aeabi_cdcmpeq
                0x0202648c                __aeabi_cdcmple
                0x020264a4                __aeabi_dcmpeq
                0x020264bc                __aeabi_dcmplt
                0x020264d4                __aeabi_dcmple
                0x020264ec                __aeabi_dcmpge
                0x02026504                __aeabi_dcmpgt
 .text          0x0202651c       0x5c c:/ndsdev/devkitpro/devkitarm/bin/../lib/gcc/arm-eabi/4.6.0/thumb\libgcc.a(_arm_fixdfsi.o)
                0x0202651c                __aeabi_d2iz
                0x0202651c                __fixdfsi
 .text          0x02026578       0x54 c:/ndsdev/devkitpro/devkitarm/bin/../lib/gcc/arm-eabi/4.6.0/thumb\libgcc.a(_arm_fixunsdfsi.o)
                0x02026578                __aeabi_d2uiz
                0x02026578                __fixunsdfsi
 .text          0x020265cc       0xa0 c:/ndsdev/devkitpro/devkitarm/bin/../lib/gcc/arm-eabi/4.6.0/thumb\libgcc.a(_arm_truncdfsf2.o)
                0x020265cc                __truncdfsf2
                0x020265cc                __aeabi_d2f
 .text          0x0202666c       0x3c c:/ndsdev/devkitpro/devkitarm/bin/../lib/gcc/arm-eabi/4.6.0/thumb\libgcc.a(_aeabi_uldivmod.o)
                0x0202666c                __aeabi_uldivmod
 .text          0x020266a8       0x4c c:/ndsdev/devkitpro/devkitarm/bin/../lib/gcc/arm-eabi/4.6.0/thumb\libgcc.a(_muldi3.o)
                0x020266a8                __muldi3
                0x020266a8                __aeabi_lmul
 .text          0x020266f4       0x74 c:/ndsdev/devkitpro/devkitarm/bin/../lib/gcc/arm-eabi/4.6.0/thumb\libgcc.a(bpabi.o)
                0x020266f4                __gnu_ldivmod_helper
                0x02026730                __gnu_uldivmod_helper
 .text          0x02026768      0xa84 c:/ndsdev/devkitpro/devkitarm/bin/../lib/gcc/arm-eabi/4.6.0/thumb\libgcc.a(unwind-arm.o)
                0x02026a44                _Unwind_VRS_Get
                0x02026a90                _Unwind_VRS_Set
                0x02026dd0                __aeabi_unwind_cpp_pr2
                0x02026de0                __aeabi_unwind_cpp_pr1
                0x02026df0                __aeabi_unwind_cpp_pr0
                0x02026e00                _Unwind_VRS_Pop
                0x02027078                _Unwind_GetCFA
                0x0202707c                __gnu_Unwind_RaiseException
                0x020270dc                __gnu_Unwind_ForcedUnwind
                0x020270f4                __gnu_Unwind_Resume
                0x02027134                __gnu_Unwind_Resume_or_Rethrow
                0x02027154                _Unwind_Complete
                0x02027158                _Unwind_DeleteException
                0x02027170                __gnu_Unwind_Backtrace
 .text          0x020271ec      0x1d8 c:/ndsdev/devkitpro/devkitarm/bin/../lib/gcc/arm-eabi/4.6.0/thumb\libgcc.a(libunwind.o)
                0x020271ec                __restore_core_regs
                0x020271ec                restore_core_regs
                0x02027208                __gnu_Unwind_Restore_VFP
                0x02027210                __gnu_Unwind_Save_VFP
                0x02027218                __gnu_Unwind_Restore_VFP_D
                0x02027220                __gnu_Unwind_Save_VFP_D
                0x02027228                __gnu_Unwind_Restore_VFP_D_16_to_31
                0x02027230                __gnu_Unwind_Save_VFP_D_16_to_31
                0x02027238                __gnu_Unwind_Restore_WMMXD
                0x0202727c                __gnu_Unwind_Save_WMMXD
                0x020272c0                __gnu_Unwind_Restore_WMMXC
                0x020272d4                __gnu_Unwind_Save_WMMXC
                0x020272e8                ___Unwind_RaiseException
                0x020272e8                _Unwind_RaiseException
                0x02027314                _Unwind_Resume
                0x02027314                ___Unwind_Resume
                0x02027340                _Unwind_Resume_or_Rethrow
                0x02027340                ___Unwind_Resume_or_Rethrow
                0x0202736c                _Unwind_ForcedUnwind
                0x0202736c                ___Unwind_ForcedUnwind
                0x02027398                ___Unwind_Backtrace
                0x02027398                _Unwind_Backtrace
 .text          0x020273c4      0x3a0 c:/ndsdev/devkitpro/devkitarm/bin/../lib/gcc/arm-eabi/4.6.0/thumb\libgcc.a(pr-support.o)
                0x02027420                __gnu_unwind_execute
                0x02027700                __gnu_unwind_frame
                0x0202772c                _Unwind_GetRegionStart
                0x0202773c                _Unwind_GetLanguageSpecificData
                0x02027754                _Unwind_GetDataRelBase
                0x0202775c                _Unwind_GetTextRelBase
 .text          0x02027764      0x390 c:/ndsdev/devkitpro/devkitarm/bin/../lib/gcc/arm-eabi/4.6.0/thumb\libgcc.a(_divdi3.o)
                0x02027764                __divdi3
 .text          0x02027af4      0x358 c:/ndsdev/devkitpro/devkitarm/bin/../lib/gcc/arm-eabi/4.6.0/thumb\libgcc.a(_udivdi3.o)
                0x02027af4                __udivdi3
 .text          0x02027e4c       0x48 c:/ndsdev/devkitpro/devkitarm/bin/../lib/gcc/arm-eabi/4.6.0/thumb\libgcc.a(_clzsi2.o)
                0x02027e4c                __clzsi2
 .text          0x02027e94       0x10 c:/ndsdev/devkitpro/devkitarm/bin/../lib/gcc/arm-eabi/4.6.0/../../../../arm-eabi/lib/thumb\libg.a(lib_a-abort.o)
                0x02027e94                abort
 .text          0x02027ea4      0x194 c:/ndsdev/devkitpro/devkitarm/bin/../lib/gcc/arm-eabi/4.6.0/../../../../arm-eabi/lib/thumb\libg.a(lib_a-signal.o)
                0x02027ea4                _init_signal_r
                0x02027ee4                _signal_r
                0x02027f24                _raise_r
                0x02027f84                __sigtramp_r
                0x02027fd4                raise
                0x02027fec                signal
                0x02028008                _init_signal
                0x0202801c                __sigtramp
 .text          0x02028038        0xc c:/ndsdev/devkitpro/devkitarm/bin/../lib/gcc/arm-eabi/4.6.0/../../../../arm-eabi/lib/thumb\libsysbase.a(getpid.o)
                0x02028038                _getpid_r
 .text          0x02028044        0xc c:/ndsdev/devkitpro/devkitarm/bin/../lib/gcc/arm-eabi/4.6.0/../../../../arm-eabi/lib/thumb\libsysbase.a(kill.o)
                0x02028044                _kill_r
 .text          0x02028050       0x18 c:/ndsdev/devkitpro/devkitarm/bin/../lib/gcc/arm-eabi/4.6.0/../../../../arm-eabi/lib/thumb\libsysbase.a(_exit.o)
                0x02028050                _exit
 .text          0x02028068        0x0 c:/ndsdev/devkitpro/devkitarm/bin/../lib/gcc/arm-eabi/4.6.0/thumb/crtend.o
 .text          0x02028068        0x0 c:/ndsdev/devkitpro/devkitarm/bin/../lib/gcc/arm-eabi/4.6.0/thumb/crtn.o
 *(.text.*)
 .text.startup  0x02028068      0x154 main.o
                0x02028068                main
 *fill*         0x020281bc        0x4 ff
 .text.startup.stub
                0x020281c0       0x10 linker stubs
 *(.stub)
 *(.gnu.warning)
 *(.gnu.linkonce.t*)
 *(.glue_7)
 .glue_7        0x00000000        0x0 linker stubs
 *(.glue_7t)
 .glue_7t       0x00000000        0x0 linker stubs
                0x020281d0                . = ALIGN (0x4)

.vfp11_veneer   0x020281d0        0x0
 .vfp11_veneer  0x00000000        0x0 linker stubs

.v4_bx          0x020281d0        0x0
 .v4_bx         0x00000000        0x0 linker stubs

.fini           0x020281d0        0xc
 *(.fini)
 .fini          0x020281d0        0x4 c:/ndsdev/devkitpro/devkitarm/bin/../lib/gcc/arm-eabi/4.6.0/thumb/crti.o
                0x020281d0                _fini
 .fini          0x020281d4        0x8 c:/ndsdev/devkitpro/devkitarm/bin/../lib/gcc/arm-eabi/4.6.0/thumb/crtn.o
                0x020281dc                __text_end = .

.rodata         0x020281e0     0x81c0
 *(.rodata)
 .rodata        0x020281e0       0x24 download.o
 .rodata        0x02028204        0xc main.o
 .rodata        0x02028210       0x20 wifi.o
 .rodata        0x02028230       0x30 c:/ndsdev/devkitPro/libnds/lib\libdswifi9.a(wifi_arm9.o)
 .rodata        0x02028260       0x54 c:/ndsdev/devkitPro/libnds/lib\libdswifi9.a(sgIP_TCP.o)
 .rodata        0x020282b4       0x64 c:/ndsdev/devkitPro/libnds/lib\libfat.a(libfat.o)
 .rodata        0x02028318        0xc c:/ndsdev/devkitPro/libnds/lib\libfat.a(partition.o)
 .rodata        0x02028324       0x54 c:/ndsdev/devkitPro/libnds/lib\libfat.a(directory.o)
 .rodata        0x02028378       0x18 c:/ndsdev/devkitPro/libnds/lib\libfat.a(disc.o)
                0x02028378                _FAT_disc_interfaces
 .rodata        0x02028390      0x200 c:/ndsdev/devkitPro/libnds/lib\libnds9.a(console.o)
 .rodata        0x02028590        0xc c:/ndsdev/devkitPro/libnds/lib\libnds9.a(dldi.o)
                0x02028590                DLDI_MAGIC_STRING_BACKWARDS
                0x02028598                DLDI_MAGIC_NUMBER
 .rodata        0x0202859c       0x20 c:/ndsdev/devkitPro/libnds/lib\libnds9.a(dsi_sd.o)
                0x0202859c                __io_dsisd
 .rodata        0x020285bc     0x2004 c:/ndsdev/devkitPro/libnds/lib\libnds9.a(default_font.bin.o)
                0x020285bc                default_font_bin
                0x0202a5bc                default_font_bin_size
                0x0202a5bc                default_font_bin_end
 .rodata        0x0202a5c0      0x308 c:/ndsdev/devkitPro/libnds/lib\libnds9.a(trig.o)
                0x0202a5c0                SIN_LUT
                0x0202a6c4                TAN_LUT
 .rodata        0x0202a8c8        0x4 c:/ndsdev/devkitpro/devkitarm/bin/../lib/gcc/arm-eabi/4.6.0/../../../../arm-eabi/lib/thumb\libg.a(lib_a-impure.o)
                0x0202a8c8                _global_impure_ptr
 .rodata        0x0202a8cc       0xf0 c:/ndsdev/devkitpro/devkitarm/bin/../lib/gcc/arm-eabi/4.6.0/../../../../arm-eabi/lib/thumb\libg.a(lib_a-locale.o)
 .rodata        0x0202a9bc       0xa8 c:/ndsdev/devkitpro/devkitarm/bin/../lib/gcc/arm-eabi/4.6.0/../../../../arm-eabi/lib/thumb\libg.a(lib_a-mbtowc_r.o)
 .rodata        0x0202aa64       0x60 c:/ndsdev/devkitpro/devkitarm/bin/../lib/gcc/arm-eabi/4.6.0/../../../../arm-eabi/lib/thumb\libg.a(lib_a-mktime.o)
 .rodata        0x0202aac4       0x68 c:/ndsdev/devkitpro/devkitarm/bin/../lib/gcc/arm-eabi/4.6.0/../../../../arm-eabi/lib/thumb\libg.a(lib_a-mktm_r.o)
 .rodata        0x0202ab2c      0x340 c:/ndsdev/devkitpro/devkitarm/bin/../lib/gcc/arm-eabi/4.6.0/../../../../arm-eabi/lib/thumb\libg.a(lib_a-svfiscanf.o)
 .rodata        0x0202ae6c      0x184 c:/ndsdev/devkitpro/devkitarm/bin/../lib/gcc/arm-eabi/4.6.0/../../../../arm-eabi/lib/thumb\libg.a(lib_a-svfprintf.o)
 .rodata        0x0202aff0      0x47c c:/ndsdev/devkitpro/devkitarm/bin/../lib/gcc/arm-eabi/4.6.0/../../../../arm-eabi/lib/thumb\libg.a(lib_a-svfscanf.o)
 .rodata        0x0202b46c      0x580 c:/ndsdev/devkitpro/devkitarm/bin/../lib/gcc/arm-eabi/4.6.0/../../../../arm-eabi/lib/thumb\libg.a(lib_a-towlower.o)
 .rodata        0x0202b9ec      0x3e4 c:/ndsdev/devkitpro/devkitarm/bin/../lib/gcc/arm-eabi/4.6.0/../../../../arm-eabi/lib/thumb\libg.a(lib_a-towupper.o)
 .rodata        0x0202bdd0      0x184 c:/ndsdev/devkitpro/devkitarm/bin/../lib/gcc/arm-eabi/4.6.0/../../../../arm-eabi/lib/thumb\libg.a(lib_a-vfiprintf.o)
 .rodata        0x0202bf54      0x184 c:/ndsdev/devkitpro/devkitarm/bin/../lib/gcc/arm-eabi/4.6.0/../../../../arm-eabi/lib/thumb\libg.a(lib_a-vfprintf.o)
 .rodata        0x0202c0d8      0x104 c:/ndsdev/devkitpro/devkitarm/bin/../lib/gcc/arm-eabi/4.6.0/../../../../arm-eabi/lib/thumb\libg.a(lib_a-ctype_.o)
                0x0202c0d8                _ctype_
 .rodata        0x0202c1dc     0x34f0 c:/ndsdev/devkitpro/devkitarm/bin/../lib/gcc/arm-eabi/4.6.0/../../../../arm-eabi/lib/thumb\libg.a(lib_a-jp2uc.o)
 *fill*         0x0202f6cc        0x4 ff
 .rodata        0x0202f6d0      0x128 c:/ndsdev/devkitpro/devkitarm/bin/../lib/gcc/arm-eabi/4.6.0/../../../../arm-eabi/lib/thumb\libg.a(lib_a-mprec.o)
                0x0202f6e0                __mprec_tens
                0x0202f7a8                __mprec_tinytens
                0x0202f7d0                __mprec_bigtens
 .rodata        0x0202f7f8      0x100 c:/ndsdev/devkitpro/devkitarm/bin/../lib/gcc/arm-eabi/4.6.0/../../../../arm-eabi/lib/thumb\libg.a(lib_a-strtod.o)
 .rodata        0x0202f8f8      0x184 c:/ndsdev/devkitpro/devkitarm/bin/../lib/gcc/arm-eabi/4.6.0/../../../../arm-eabi/lib/thumb\libg.a(lib_a-svfiprintf.o)
 .rodata        0x0202fa7c       0x64 c:/ndsdev/devkitpro/devkitarm/bin/../lib/gcc/arm-eabi/4.6.0/../../../../arm-eabi/lib/thumb\libsysbase.a(iosupport.o)
                0x0202fa7c                dotab_stdnull
 .rodata        0x0202fae0        0xc c:/ndsdev/devkitpro/devkitarm/bin/../lib/gcc/arm-eabi/4.6.0/../../../../arm-eabi/lib/thumb\libsysbase.a(chdir.o)
                0x0202fae0                DIRECTORY_PARENT
                0x0202fae4                DIRECTORY_THIS
                0x0202fae8                DIRECTORY_SEPARATOR
 .rodata        0x0202faec       0x14 c:/ndsdev/devkitpro/devkitarm/bin/../lib/gcc/arm-eabi/4.6.0/thumb\libgcc.a(unwind-arm.o)
 *all.rodata*(*)
 *(.roda)
 *(.rodata.*)
 .rodata.str1.4
                0x0202fb00      0x2bb download.o
                                0x2bc (size before relaxing)
 *fill*         0x0202fdbb        0x1 ff
 .rodata.str1.4
                0x0202fdbc      0x177 main.o
                                0x178 (size before relaxing)
 *fill*         0x0202ff33        0x1 ff
 .rodata.str1.4
                0x0202ff34      0x16a wifi.o
                                0x174 (size before relaxing)
 *fill*         0x0203009e        0x2 ff
 .rodata.str1.4
                0x020300a0       0xb6 c:/ndsdev/devkitPro/libnds/lib\libdswifi9.a(wifi_arm9.o)
                                 0xb8 (size before relaxing)
 *fill*         0x02030156        0x2 ff
 .rodata.str1.4
                0x02030158       0x15 c:/ndsdev/devkitPro/libnds/lib\libdswifi9.a(sgIP_DHCP.o)
                                 0x18 (size before relaxing)
 *fill*         0x0203016d        0x3 ff
 .rodata.str1.4
                0x02030170       0x14 c:/ndsdev/devkitPro/libnds/lib\libfat.a(libfat.o)
 .rodata.str1.4
                0x02030184        0x7 c:/ndsdev/devkitPro/libnds/lib\libfat.a(directory.o)
                                  0x8 (size before relaxing)
 *fill*         0x0203018b        0x1 ff
 .rodata.str1.4
                0x0203018c        0x3 c:/ndsdev/devkitPro/libnds/lib\libfat.a(disc.o)
                                  0x8 (size before relaxing)
 *fill*         0x0203018f        0x1 ff
 .rodata.str1.4
                0x02030190        0x5 c:/ndsdev/devkitPro/libnds/lib\libfat.a(fatdir.o)
                                  0x8 (size before relaxing)
 *fill*         0x02030195        0x3 ff
 .rodata.str1.4
                0x02030198       0x49 c:/ndsdev/devkitPro/libnds/lib\libnds9.a(console.o)
                                 0x4c (size before relaxing)
 *fill*         0x020301e1        0x3 ff
 .rodata.str1.4
                0x020301e4        0x2 c:/ndsdev/devkitpro/devkitarm/bin/../lib/gcc/arm-eabi/4.6.0/../../../../arm-eabi/lib/thumb\libg.a(lib_a-impure.o)
                                  0x4 (size before relaxing)
 *fill*         0x020301e6        0x2 ff
 .rodata.str1.4
                0x020301e8      0x124 c:/ndsdev/devkitpro/devkitarm/bin/../lib/gcc/arm-eabi/4.6.0/../../../../arm-eabi/lib/thumb\libg.a(lib_a-locale.o)
                                0x130 (size before relaxing)
 .rodata.str1.4
                0x00000000        0x4 c:/ndsdev/devkitpro/devkitarm/bin/../lib/gcc/arm-eabi/4.6.0/../../../../arm-eabi/lib/thumb\libg.a(lib_a-mbrtowc.o)
 .rodata.str1.4
                0x0203030c       0x42 c:/ndsdev/devkitpro/devkitarm/bin/../lib/gcc/arm-eabi/4.6.0/../../../../arm-eabi/lib/thumb\libg.a(lib_a-svfprintf.o)
                                 0x44 (size before relaxing)
 *fill*         0x0203034e        0x2 ff
 .rodata.str1.4
                0x02030350        0x5 c:/ndsdev/devkitpro/devkitarm/bin/../lib/gcc/arm-eabi/4.6.0/../../../../arm-eabi/lib/thumb\libg.a(lib_a-svfscanf.o)
                                  0x8 (size before relaxing)
 *fill*         0x02030355        0x3 ff
 .rodata.str1.4
                0x02030358        0x4 c:/ndsdev/devkitpro/devkitarm/bin/../lib/gcc/arm-eabi/4.6.0/../../../../arm-eabi/lib/thumb\libg.a(lib_a-tzvars.o)
 .rodata.str1.4
                0x00000000       0x30 c:/ndsdev/devkitpro/devkitarm/bin/../lib/gcc/arm-eabi/4.6.0/../../../../arm-eabi/lib/thumb\libg.a(lib_a-vfiprintf.o)
 .rodata.str1.4
                0x00000000       0x44 c:/ndsdev/devkitpro/devkitarm/bin/../lib/gcc/arm-eabi/4.6.0/../../../../arm-eabi/lib/thumb\libg.a(lib_a-vfprintf.o)
 .rodata.str1.4
                0x0203035c       0x10 c:/ndsdev/devkitpro/devkitarm/bin/../lib/gcc/arm-eabi/4.6.0/../../../../arm-eabi/lib/thumb\libg.a(lib_a-dtoa.o)
                                 0x14 (size before relaxing)
 .rodata.str1.4
                0x00000000       0x14 c:/ndsdev/devkitpro/devkitarm/bin/../lib/gcc/arm-eabi/4.6.0/../../../../arm-eabi/lib/thumb\libg.a(lib_a-jp2uc.o)
 .rodata.str1.4
                0x0203036c        0xf c:/ndsdev/devkitpro/devkitarm/bin/../lib/gcc/arm-eabi/4.6.0/../../../../arm-eabi/lib/thumb\libg.a(lib_a-strtod.o)
                                 0x10 (size before relaxing)
 .rodata.str1.4
                0x00000000       0x30 c:/ndsdev/devkitpro/devkitarm/bin/../lib/gcc/arm-eabi/4.6.0/../../../../arm-eabi/lib/thumb\libg.a(lib_a-svfiprintf.o)
 *fill*         0x0203037b        0x1 ff
 .rodata.str1.4
                0x0203037c       0x1b c:/ndsdev/devkitpro/devkitarm/bin/../lib/gcc/arm-eabi/4.6.0/../../../../arm-eabi/lib/thumb\libg.a(lib_a-gdtoa-gethex.o)
                                 0x1c (size before relaxing)
 *fill*         0x02030397        0x1 ff
 .rodata.str1.4
                0x02030398        0x8 c:/ndsdev/devkitpro/devkitarm/bin/../lib/gcc/arm-eabi/4.6.0/../../../../arm-eabi/lib/thumb\libsysbase.a(iosupport.o)
 *(.gnu.linkonce.r*)
                0x020303a0                . = ALIGN (0x4)

.ARM.extab      0x020303a0       0xb4
 *(.ARM.extab* .gnu.linkonce.armextab.*)
 .ARM.extab     0x020303a0        0x0 c:/ndsdev/devkitpro/devkitarm/bin/../lib/gcc/arm-eabi/4.6.0/thumb\libgcc.a(bpabi.o)
 .ARM.extab     0x020303a0       0x6c c:/ndsdev/devkitpro/devkitarm/bin/../lib/gcc/arm-eabi/4.6.0/thumb\libgcc.a(unwind-arm.o)
 .ARM.extab     0x0203040c       0x30 c:/ndsdev/devkitpro/devkitarm/bin/../lib/gcc/arm-eabi/4.6.0/thumb\libgcc.a(pr-support.o)
 .ARM.extab     0x0203043c        0xc c:/ndsdev/devkitpro/devkitarm/bin/../lib/gcc/arm-eabi/4.6.0/thumb\libgcc.a(_divdi3.o)
 .ARM.extab     0x02030448        0xc c:/ndsdev/devkitpro/devkitarm/bin/../lib/gcc/arm-eabi/4.6.0/thumb\libgcc.a(_udivdi3.o)
                0x02030454                __exidx_start = .

ARM.exidx       0x02030454       0xf8
 *(.ARM.exidx* .gnu.linkonce.armexidx.*)
 .ARM.exidx     0x02030454        0x8 c:/ndsdev/devkitpro/devkitarm/bin/../lib/gcc/arm-eabi/4.6.0/thumb\libgcc.a(bpabi.o)
                                 0x10 (size before relaxing)
 .ARM.exidx     0x0203045c       0xa0 c:/ndsdev/devkitpro/devkitarm/bin/../lib/gcc/arm-eabi/4.6.0/thumb\libgcc.a(unwind-arm.o)
                                 0xc0 (size before relaxing)
 .ARM.exidx     0x020304fc       0x38 c:/ndsdev/devkitpro/devkitarm/bin/../lib/gcc/arm-eabi/4.6.0/thumb\libgcc.a(pr-support.o)
                                 0x48 (size before relaxing)
 .ARM.exidx     0x02030534        0x8 c:/ndsdev/devkitpro/devkitarm/bin/../lib/gcc/arm-eabi/4.6.0/thumb\libgcc.a(_divdi3.o)
 .ARM.exidx     0x0203053c       0x10 c:/ndsdev/devkitpro/devkitarm/bin/../lib/gcc/arm-eabi/4.6.0/thumb\libgcc.a(_udivdi3.o)
                                  0x8 (size before relaxing)
                0x0203054c                __exidx_end = .
                0x0203054c                . = ALIGN (0x4)
                0x0203054c                PROVIDE (__preinit_array_start, .)

.preinit_array
 *(.preinit_array)
                0x0203054c                PROVIDE (__preinit_array_end, .)
                0x0203054c                PROVIDE (__init_array_start, .)

.init_array     0x0203054c        0x4
 *(SORT(.init_array.*))
 *(.init_array)
 .init_array    0x0203054c        0x4 c:/ndsdev/devkitpro/devkitarm/bin/../lib/gcc/arm-eabi/4.6.0/thumb/crtbegin.o
                0x02030550                PROVIDE (__init_array_end, .)
                0x02030550                PROVIDE (__fini_array_start, .)

.fini_array     0x02030550        0x4
 *(.fini_array)
 .fini_array    0x02030550        0x4 c:/ndsdev/devkitpro/devkitarm/bin/../lib/gcc/arm-eabi/4.6.0/thumb/crtbegin.o
 *(SORT(.fini_array.*))
                0x02030554                PROVIDE (__fini_array_end, .)

.ctors          0x02030554        0x0
 *crtbegin.o(.ctors)
 *(EXCLUDE_FILE(*crtend.o) .ctors)
 *(SORT(.ctors.*))
 *(.ctors)
                0x02030554                . = ALIGN (0x4)

.dtors          0x02030554        0x0
 *crtbegin.o(.dtors)
 *(EXCLUDE_FILE(*crtend.o) .dtors)
 *(SORT(.dtors.*))
 *(.dtors)
                0x02030554                . = ALIGN (0x4)

.eh_frame       0x02030554        0x4
 *(.eh_frame)
 .eh_frame      0x02030554        0x0 c:/ndsdev/devkitpro/devkitarm/bin/../lib/gcc/arm-eabi/4.6.0/thumb/crtbegin.o
 .eh_frame      0x02030554        0x4 c:/ndsdev/devkitpro/devkitarm/bin/../lib/gcc/arm-eabi/4.6.0/thumb/crtend.o
                0x02030558                . = ALIGN (0x4)

.gcc_except_table
                0x02030558        0x0
 *(.gcc_except_table)
                0x02030558                . = ALIGN (0x4)

.jcr            0x02030558        0x4
 *(.jcr)
 .jcr           0x02030558        0x0 c:/ndsdev/devkitpro/devkitarm/bin/../lib/gcc/arm-eabi/4.6.0/thumb/crtbegin.o
 .jcr           0x02030558        0x4 c:/ndsdev/devkitpro/devkitarm/bin/../lib/gcc/arm-eabi/4.6.0/thumb/crtend.o

.got
 *(.got.plt)
 *(.got)
 *(.rel.got)

.ewram          0x0203055c        0x0
                0x0203055c                __ewram_start = ABSOLUTE (.)
 *(.ewram)
 *ewram.*(.text)
                0x0203055c                . = ALIGN (0x4)

.data           0x0203055c     0x1014
                0x0203055c                __data_start = ABSOLUTE (.)
 *(.data)
 .data          0x0203055c        0x0 c:/ndsdev/devkitpro/devkitarm/bin/../lib/gcc/arm-eabi/4.6.0/../../../../arm-eabi/lib/thumb/ds_arm9_crt0.o
 .data          0x0203055c        0x0 c:/ndsdev/devkitpro/devkitarm/bin/../lib/gcc/arm-eabi/4.6.0/thumb/crti.o
 .data          0x0203055c        0x4 c:/ndsdev/devkitpro/devkitarm/bin/../lib/gcc/arm-eabi/4.6.0/thumb/crtbegin.o
                0x0203055c                __dso_handle
 .data          0x02030560        0x0 download.o
 .data          0x02030560       0x94 main.o
                0x02030560                Config
 .data          0x020305f4        0x0 serial.o
 .data          0x020305f4        0x0 usb.o
 .data          0x020305f4        0x4 wifi.o
 .data          0x020305f8        0x0 jump.o
 .data          0x020305f8        0x0 c:/ndsdev/devkitPro/libnds/lib\libdswifi9.a(sgIP_DNS.o)
 .data          0x020305f8        0x0 c:/ndsdev/devkitPro/libnds/lib\libdswifi9.a(sgIP_Hub.o)
 .data          0x020305f8        0x0 c:/ndsdev/devkitPro/libnds/lib\libdswifi9.a(sgIP_memblock.o)
 .data          0x020305f8        0x0 c:/ndsdev/devkitPro/libnds/lib\libdswifi9.a(sgIP_sockets.o)
 .data          0x020305f8       0x1c c:/ndsdev/devkitPro/libnds/lib\libdswifi9.a(wifi_arm9.o)
                0x020305f8                ASSOCSTATUS_STRINGS
 .data          0x02030614        0x0 c:/ndsdev/devkitPro/libnds/lib\libdswifi9.a(spinlock.o)
 .data          0x02030614        0x0 c:/ndsdev/devkitPro/libnds/lib\libdswifi9.a(sgIP.o)
 .data          0x02030614        0x0 c:/ndsdev/devkitPro/libnds/lib\libdswifi9.a(sgIP_ARP.o)
 .data          0x02030614        0x0 c:/ndsdev/devkitPro/libnds/lib\libdswifi9.a(sgIP_DHCP.o)
 .data          0x02030614        0x0 c:/ndsdev/devkitPro/libnds/lib\libdswifi9.a(sgIP_IP.o)
 .data          0x02030614        0x0 c:/ndsdev/devkitPro/libnds/lib\libdswifi9.a(sgIP_TCP.o)
 .data          0x02030614        0x0 c:/ndsdev/devkitPro/libnds/lib\libdswifi9.a(sgIP_UDP.o)
 .data          0x02030614        0x0 c:/ndsdev/devkitPro/libnds/lib\libdswifi9.a(sgIP_ICMP.o)
 .data          0x02030614        0x0 c:/ndsdev/devkitPro/libnds/lib\libfat.a(libfat.o)
 .data          0x02030614        0x0 c:/ndsdev/devkitPro/libnds/lib\libfat.a(partition.o)
 .data          0x02030614        0x0 c:/ndsdev/devkitPro/libnds/lib\libfat.a(cache.o)
 .data          0x02030614        0x0 c:/ndsdev/devkitPro/libnds/lib\libfat.a(directory.o)
 .data          0x02030614        0x0 c:/ndsdev/devkitPro/libnds/lib\libfat.a(disc.o)
 .data          0x02030614        0x0 c:/ndsdev/devkitPro/libnds/lib\libfat.a(fatdir.o)
 .data          0x02030614        0x0 c:/ndsdev/devkitPro/libnds/lib\libfat.a(fatfile.o)
 .data          0x02030614        0x0 c:/ndsdev/devkitPro/libnds/lib\libfat.a(file_allocation_table.o)
 .data          0x02030614        0x0 c:/ndsdev/devkitPro/libnds/lib\libfat.a(filetime.o)
 .data          0x02030614        0x0 c:/ndsdev/devkitPro/libnds/lib\libfat.a(lock.o)
 .data          0x02030614       0x64 c:/ndsdev/devkitPro/libnds/lib\libnds9.a(console.o)
                0x02030614                currentConsole
                0x02030618                defaultConsole
 .data          0x02030678        0x4 c:/ndsdev/devkitPro/libnds/lib\libnds9.a(dldi.o)
                0x02030678                io_dldi_data
 .data          0x0203067c        0x0 c:/ndsdev/devkitPro/libnds/lib\libnds9.a(dsi_sd.o)
 .data          0x0203067c        0x0 c:/ndsdev/devkitPro/libnds/lib\libnds9.a(initSystem.o)
 .data          0x0203067c       0x10 c:/ndsdev/devkitPro/libnds/lib\libnds9.a(fifosystem.o)
                0x0203067c                fifo_freewords
                0x02030680                fifo_buffer_free
                0x02030684                fifo_send_queue
                0x02030688                fifo_receive_queue
 .data          0x0203068c        0x0 c:/ndsdev/devkitPro/libnds/lib\libnds9.a(interrupts.o)
 .data          0x0203068c        0x0 c:/ndsdev/devkitPro/libnds/lib\libnds9.a(libnds_exit.o)
 .data          0x0203068c        0x0 c:/ndsdev/devkitPro/libnds/lib\libnds9.a(dcache.o)
 .data          0x0203068c        0x0 c:/ndsdev/devkitPro/libnds/lib\libnds9.a(dldi_stub.o)
 .data          0x0203068c        0x0 c:/ndsdev/devkitPro/libnds/lib\libnds9.a(mpu_setup.o)
 .data          0x0203068c        0x0 c:/ndsdev/devkitPro/libnds/lib\libnds9.a(biosCalls.o)
 .data          0x0203068c        0x0 c:/ndsdev/devkitPro/libnds/lib\libnds9.a(debugprint.o)
 .data          0x0203068c        0x0 c:/ndsdev/devkitPro/libnds/lib\libnds9.a(interruptDispatcher.o)
 .data          0x0203068c        0x0 c:/ndsdev/devkitPro/libnds/lib\libnds9.a(swiSoftReset.o)
 .data          0x0203068c        0x0 c:/ndsdev/devkitPro/libnds/lib\libnds9.a(default_font.bin.o)
 .data          0x0203068c       0x60 c:/ndsdev/devkitPro/libnds/lib\libnds9.a(background.o)
                0x0203068c                bgScrollTable
                0x020306ac                bgTransform
                0x020306cc                bgControl
 .data          0x020306ec        0x0 c:/ndsdev/devkitPro/libnds/lib\libnds9.a(system.o)
 .data          0x020306ec        0x0 c:/ndsdev/devkitPro/libnds/lib\libnds9.a(trig.o)
 .data          0x020306ec        0x0 c:/ndsdev/devkitPro/libnds/lib\libnds9.a(video.o)
 .data          0x020306ec        0x0 c:/ndsdev/devkitpro/devkitarm/bin/../lib/gcc/arm-eabi/4.6.0/thumb\libgcc.a(_udivsi3.o)
 .data          0x020306ec        0x0 c:/ndsdev/devkitpro/devkitarm/bin/../lib/gcc/arm-eabi/4.6.0/thumb\libgcc.a(_divsi3.o)
 .data          0x020306ec        0x0 c:/ndsdev/devkitpro/devkitarm/bin/../lib/gcc/arm-eabi/4.6.0/thumb\libgcc.a(_dvmd_tls.o)
 .data          0x020306ec        0x0 c:/ndsdev/devkitpro/devkitarm/bin/../lib/gcc/arm-eabi/4.6.0/../../../../arm-eabi/lib/thumb\libg.a(lib_a-atoi.o)
 .data          0x020306ec        0x0 c:/ndsdev/devkitpro/devkitarm/bin/../lib/gcc/arm-eabi/4.6.0/../../../../arm-eabi/lib/thumb\libg.a(lib_a-bsearch.o)
 .data          0x020306ec        0x0 c:/ndsdev/devkitpro/devkitarm/bin/../lib/gcc/arm-eabi/4.6.0/../../../../arm-eabi/lib/thumb\libg.a(lib_a-errno.o)
 .data          0x020306ec        0x0 c:/ndsdev/devkitpro/devkitarm/bin/../lib/gcc/arm-eabi/4.6.0/../../../../arm-eabi/lib/thumb\libg.a(lib_a-fclose.o)
 .data          0x020306ec        0x0 c:/ndsdev/devkitpro/devkitarm/bin/../lib/gcc/arm-eabi/4.6.0/../../../../arm-eabi/lib/thumb\libg.a(lib_a-fflush.o)
 .data          0x020306ec        0x0 c:/ndsdev/devkitpro/devkitarm/bin/../lib/gcc/arm-eabi/4.6.0/../../../../arm-eabi/lib/thumb\libg.a(lib_a-fgets.o)
 .data          0x020306ec        0x0 c:/ndsdev/devkitpro/devkitarm/bin/../lib/gcc/arm-eabi/4.6.0/../../../../arm-eabi/lib/thumb\libg.a(lib_a-findfp.o)
 .data          0x020306ec        0x0 c:/ndsdev/devkitpro/devkitarm/bin/../lib/gcc/arm-eabi/4.6.0/../../../../arm-eabi/lib/thumb\libg.a(lib_a-fopen.o)
 .data          0x020306ec        0x0 c:/ndsdev/devkitpro/devkitarm/bin/../lib/gcc/arm-eabi/4.6.0/../../../../arm-eabi/lib/thumb\libg.a(lib_a-freer.o)
 .data          0x020306ec        0x0 c:/ndsdev/devkitpro/devkitarm/bin/../lib/gcc/arm-eabi/4.6.0/../../../../arm-eabi/lib/thumb\libg.a(lib_a-fseek.o)
 .data          0x020306ec        0x0 c:/ndsdev/devkitpro/devkitarm/bin/../lib/gcc/arm-eabi/4.6.0/../../../../arm-eabi/lib/thumb\libg.a(lib_a-fwalk.o)
 .data          0x020306ec        0x0 c:/ndsdev/devkitpro/devkitarm/bin/../lib/gcc/arm-eabi/4.6.0/../../../../arm-eabi/lib/thumb\libg.a(lib_a-fwrite.o)
 *fill*         0x020306ec        0x4 ff
 .data          0x020306f0      0x430 c:/ndsdev/devkitpro/devkitarm/bin/../lib/gcc/arm-eabi/4.6.0/../../../../arm-eabi/lib/thumb\libg.a(lib_a-impure.o)
                0x020306f0                _impure_ptr
 .data          0x02030b20        0x0 c:/ndsdev/devkitpro/devkitarm/bin/../lib/gcc/arm-eabi/4.6.0/../../../../arm-eabi/lib/thumb\libg.a(lib_a-init.o)
 .data          0x02030b20        0x0 c:/ndsdev/devkitpro/devkitarm/bin/../lib/gcc/arm-eabi/4.6.0/../../../../arm-eabi/lib/thumb\libg.a(lib_a-iprintf.o)
 .data          0x02030b20        0x0 c:/ndsdev/devkitpro/devkitarm/bin/../lib/gcc/arm-eabi/4.6.0/../../../../arm-eabi/lib/thumb\libg.a(lib_a-lcltime_r.o)
 .data          0x02030b20      0x17c c:/ndsdev/devkitpro/devkitarm/bin/../lib/gcc/arm-eabi/4.6.0/../../../../arm-eabi/lib/thumb\libg.a(lib_a-locale.o)
                0x02030b20                __default_locale
                0x02030c40                __mb_cur_max
 .data          0x02030c9c        0x0 c:/ndsdev/devkitpro/devkitarm/bin/../lib/gcc/arm-eabi/4.6.0/../../../../arm-eabi/lib/thumb\libg.a(lib_a-makebuf.o)
 .data          0x02030c9c        0x0 c:/ndsdev/devkitpro/devkitarm/bin/../lib/gcc/arm-eabi/4.6.0/../../../../arm-eabi/lib/thumb\libg.a(lib_a-malloc.o)
 .data          0x02030c9c      0x410 c:/ndsdev/devkitpro/devkitarm/bin/../lib/gcc/arm-eabi/4.6.0/../../../../arm-eabi/lib/thumb\libg.a(lib_a-mallocr.o)
                0x02030c9c                __malloc_av_
                0x020310a4                __malloc_sbrk_base
                0x020310a8                __malloc_trim_threshold
 .data          0x020310ac        0x0 c:/ndsdev/devkitpro/devkitarm/bin/../lib/gcc/arm-eabi/4.6.0/../../../../arm-eabi/lib/thumb\libg.a(lib_a-mbrtowc.o)
 .data          0x020310ac        0x0 c:/ndsdev/devkitpro/devkitarm/bin/../lib/gcc/arm-eabi/4.6.0/../../../../arm-eabi/lib/thumb\libg.a(lib_a-mbsrtowcs.o)
 .data          0x020310ac        0x4 c:/ndsdev/devkitpro/devkitarm/bin/../lib/gcc/arm-eabi/4.6.0/../../../../arm-eabi/lib/thumb\libg.a(lib_a-mbtowc_r.o)
                0x020310ac                __mbtowc
 .data          0x020310b0        0x0 c:/ndsdev/devkitpro/devkitarm/bin/../lib/gcc/arm-eabi/4.6.0/../../../../arm-eabi/lib/thumb\libg.a(lib_a-memchr.o)
 .data          0x020310b0        0x0 c:/ndsdev/devkitpro/devkitarm/bin/../lib/gcc/arm-eabi/4.6.0/../../../../arm-eabi/lib/thumb\libg.a(lib_a-memcmp.o)
 .data          0x020310b0        0x0 c:/ndsdev/devkitpro/devkitarm/bin/../lib/gcc/arm-eabi/4.6.0/../../../../arm-eabi/lib/thumb\libg.a(lib_a-memcpy.o)
 .data          0x020310b0        0x0 c:/ndsdev/devkitpro/devkitarm/bin/../lib/gcc/arm-eabi/4.6.0/../../../../arm-eabi/lib/thumb\libg.a(lib_a-memmove.o)
 .data          0x020310b0        0x0 c:/ndsdev/devkitpro/devkitarm/bin/../lib/gcc/arm-eabi/4.6.0/../../../../arm-eabi/lib/thumb\libg.a(lib_a-memset.o)
 .data          0x020310b0        0x0 c:/ndsdev/devkitpro/devkitarm/bin/../lib/gcc/arm-eabi/4.6.0/../../../../arm-eabi/lib/thumb\libg.a(lib_a-mktime.o)
 .data          0x020310b0        0x0 c:/ndsdev/devkitpro/devkitarm/bin/../lib/gcc/arm-eabi/4.6.0/../../../../arm-eabi/lib/thumb\libg.a(lib_a-mktm_r.o)
 .data          0x020310b0        0x0 c:/ndsdev/devkitpro/devkitarm/bin/../lib/gcc/arm-eabi/4.6.0/../../../../arm-eabi/lib/thumb\libg.a(lib_a-mlock.o)
 .data          0x020310b0        0x0 c:/ndsdev/devkitpro/devkitarm/bin/../lib/gcc/arm-eabi/4.6.0/../../../../arm-eabi/lib/thumb\libg.a(lib_a-printf.o)
 .data          0x020310b0        0x0 c:/ndsdev/devkitpro/devkitarm/bin/../lib/gcc/arm-eabi/4.6.0/../../../../arm-eabi/lib/thumb\libg.a(lib_a-refill.o)
 .data          0x020310b0        0x0 c:/ndsdev/devkitpro/devkitarm/bin/../lib/gcc/arm-eabi/4.6.0/../../../../arm-eabi/lib/thumb\libg.a(lib_a-setvbuf.o)
 .data          0x020310b0        0x0 c:/ndsdev/devkitpro/devkitarm/bin/../lib/gcc/arm-eabi/4.6.0/../../../../arm-eabi/lib/thumb\libg.a(lib_a-siscanf.o)
 .data          0x020310b0        0x0 c:/ndsdev/devkitpro/devkitarm/bin/../lib/gcc/arm-eabi/4.6.0/../../../../arm-eabi/lib/thumb\libg.a(lib_a-sprintf.o)
 .data          0x020310b0        0x0 c:/ndsdev/devkitpro/devkitarm/bin/../lib/gcc/arm-eabi/4.6.0/../../../../arm-eabi/lib/thumb\libg.a(lib_a-sscanf.o)
 .data          0x020310b0        0x0 c:/ndsdev/devkitpro/devkitarm/bin/../lib/gcc/arm-eabi/4.6.0/../../../../arm-eabi/lib/thumb\libg.a(lib_a-stdio.o)
 .data          0x020310b0        0x0 c:/ndsdev/devkitpro/devkitarm/bin/../lib/gcc/arm-eabi/4.6.0/../../../../arm-eabi/lib/thumb\libg.a(lib_a-strcasecmp.o)
 .data          0x020310b0        0x0 c:/ndsdev/devkitpro/devkitarm/bin/../lib/gcc/arm-eabi/4.6.0/../../../../arm-eabi/lib/thumb\libg.a(lib_a-strcat.o)
 .data          0x020310b0        0x0 c:/ndsdev/devkitpro/devkitarm/bin/../lib/gcc/arm-eabi/4.6.0/../../../../arm-eabi/lib/thumb\libg.a(lib_a-strchr.o)
 .data          0x020310b0        0x0 c:/ndsdev/devkitpro/devkitarm/bin/../lib/gcc/arm-eabi/4.6.0/../../../../arm-eabi/lib/thumb\libg.a(lib_a-strcmp.o)
 .data          0x020310b0        0x0 c:/ndsdev/devkitpro/devkitarm/bin/../lib/gcc/arm-eabi/4.6.0/../../../../arm-eabi/lib/thumb\libg.a(lib_a-strcpy.o)
 .data          0x020310b0        0x0 c:/ndsdev/devkitpro/devkitarm/bin/../lib/gcc/arm-eabi/4.6.0/../../../../arm-eabi/lib/thumb\libg.a(lib_a-strlcpy.o)
 .data          0x020310b0        0x0 c:/ndsdev/devkitpro/devkitarm/bin/../lib/gcc/arm-eabi/4.6.0/../../../../arm-eabi/lib/thumb\libg.a(lib_a-strlen.o)
 .data          0x020310b0        0x0 c:/ndsdev/devkitpro/devkitarm/bin/../lib/gcc/arm-eabi/4.6.0/../../../../arm-eabi/lib/thumb\libg.a(lib_a-strncasecmp.o)
 .data          0x020310b0        0x0 c:/ndsdev/devkitpro/devkitarm/bin/../lib/gcc/arm-eabi/4.6.0/../../../../arm-eabi/lib/thumb\libg.a(lib_a-strncmp.o)
 .data          0x020310b0        0x0 c:/ndsdev/devkitpro/devkitarm/bin/../lib/gcc/arm-eabi/4.6.0/../../../../arm-eabi/lib/thumb\libg.a(lib_a-strncpy.o)
 .data          0x020310b0        0x0 c:/ndsdev/devkitpro/devkitarm/bin/../lib/gcc/arm-eabi/4.6.0/../../../../arm-eabi/lib/thumb\libg.a(lib_a-strnlen.o)
 .data          0x020310b0        0x0 c:/ndsdev/devkitpro/devkitarm/bin/../lib/gcc/arm-eabi/4.6.0/../../../../arm-eabi/lib/thumb\libg.a(lib_a-strpbrk.o)
 .data          0x020310b0        0x0 c:/ndsdev/devkitpro/devkitarm/bin/../lib/gcc/arm-eabi/4.6.0/../../../../arm-eabi/lib/thumb\libg.a(lib_a-strrchr.o)
 .data          0x020310b0        0x0 c:/ndsdev/devkitpro/devkitarm/bin/../lib/gcc/arm-eabi/4.6.0/../../../../arm-eabi/lib/thumb\libg.a(lib_a-strtol.o)
 .data          0x020310b0        0x0 c:/ndsdev/devkitpro/devkitarm/bin/../lib/gcc/arm-eabi/4.6.0/../../../../arm-eabi/lib/thumb\libg.a(lib_a-svfiscanf.o)
 .data          0x020310b0        0x0 c:/ndsdev/devkitpro/devkitarm/bin/../lib/gcc/arm-eabi/4.6.0/../../../../arm-eabi/lib/thumb\libg.a(lib_a-svfprintf.o)
 .data          0x020310b0        0x0 c:/ndsdev/devkitpro/devkitarm/bin/../lib/gcc/arm-eabi/4.6.0/../../../../arm-eabi/lib/thumb\libg.a(lib_a-svfscanf.o)
 .data          0x020310b0        0x0 c:/ndsdev/devkitpro/devkitarm/bin/../lib/gcc/arm-eabi/4.6.0/../../../../arm-eabi/lib/thumb\libg.a(lib_a-sysclose.o)
 .data          0x020310b0        0x0 c:/ndsdev/devkitpro/devkitarm/bin/../lib/gcc/arm-eabi/4.6.0/../../../../arm-eabi/lib/thumb\libg.a(lib_a-syslseek.o)
 .data          0x020310b0        0x0 c:/ndsdev/devkitpro/devkitarm/bin/../lib/gcc/arm-eabi/4.6.0/../../../../arm-eabi/lib/thumb\libg.a(lib_a-sysopen.o)
 .data          0x020310b0        0x0 c:/ndsdev/devkitpro/devkitarm/bin/../lib/gcc/arm-eabi/4.6.0/../../../../arm-eabi/lib/thumb\libg.a(lib_a-sysread.o)
 .data          0x020310b0        0x0 c:/ndsdev/devkitpro/devkitarm/bin/../lib/gcc/arm-eabi/4.6.0/../../../../arm-eabi/lib/thumb\libg.a(lib_a-time.o)
 .data          0x020310b0        0x0 c:/ndsdev/devkitpro/devkitarm/bin/../lib/gcc/arm-eabi/4.6.0/../../../../arm-eabi/lib/thumb\libg.a(lib_a-towlower.o)
 .data          0x020310b0        0x0 c:/ndsdev/devkitpro/devkitarm/bin/../lib/gcc/arm-eabi/4.6.0/../../../../arm-eabi/lib/thumb\libg.a(lib_a-towupper.o)
 .data          0x020310b0        0x0 c:/ndsdev/devkitpro/devkitarm/bin/../lib/gcc/arm-eabi/4.6.0/../../../../arm-eabi/lib/thumb\libg.a(lib_a-tzlock.o)
 .data          0x020310b0        0x8 c:/ndsdev/devkitpro/devkitarm/bin/../lib/gcc/arm-eabi/4.6.0/../../../../arm-eabi/lib/thumb\libg.a(lib_a-tzvars.o)
                0x020310b0                _tzname
 .data          0x020310b8        0x0 c:/ndsdev/devkitpro/devkitarm/bin/../lib/gcc/arm-eabi/4.6.0/../../../../arm-eabi/lib/thumb\libg.a(lib_a-ungetc.o)
 .data          0x020310b8        0x0 c:/ndsdev/devkitpro/devkitarm/bin/../lib/gcc/arm-eabi/4.6.0/../../../../arm-eabi/lib/thumb\libg.a(lib_a-vfiprintf.o)
 .data          0x020310b8        0x0 c:/ndsdev/devkitpro/devkitarm/bin/../lib/gcc/arm-eabi/4.6.0/../../../../arm-eabi/lib/thumb\libg.a(lib_a-vfprintf.o)
 .data          0x020310b8        0x0 c:/ndsdev/devkitpro/devkitarm/bin/../lib/gcc/arm-eabi/4.6.0/../../../../arm-eabi/lib/thumb\libg.a(lib_a-wcrtomb.o)
 .data          0x020310b8        0x0 c:/ndsdev/devkitpro/devkitarm/bin/../lib/gcc/arm-eabi/4.6.0/../../../../arm-eabi/lib/thumb\libg.a(lib_a-wcsrtombs.o)
 .data          0x020310b8        0x0 c:/ndsdev/devkitpro/devkitarm/bin/../lib/gcc/arm-eabi/4.6.0/../../../../arm-eabi/lib/thumb\libg.a(lib_a-wctob.o)
 .data          0x020310b8        0x4 c:/ndsdev/devkitpro/devkitarm/bin/../lib/gcc/arm-eabi/4.6.0/../../../../arm-eabi/lib/thumb\libg.a(lib_a-wctomb_r.o)
                0x020310b8                __wctomb
 .data          0x020310bc        0x0 c:/ndsdev/devkitpro/devkitarm/bin/../lib/gcc/arm-eabi/4.6.0/../../../../arm-eabi/lib/thumb\libg.a(lib_a-wsetup.o)
 .data          0x020310bc        0x4 c:/ndsdev/devkitpro/devkitarm/bin/../lib/gcc/arm-eabi/4.6.0/../../../../arm-eabi/lib/thumb\libg.a(lib_a-ctype_.o)
                0x020310bc                __ctype_ptr__
 .data          0x020310c0        0x0 c:/ndsdev/devkitpro/devkitarm/bin/../lib/gcc/arm-eabi/4.6.0/../../../../arm-eabi/lib/thumb\libg.a(lib_a-div.o)
 .data          0x020310c0        0x0 c:/ndsdev/devkitpro/devkitarm/bin/../lib/gcc/arm-eabi/4.6.0/../../../../arm-eabi/lib/thumb\libg.a(lib_a-dtoa.o)
 .data          0x020310c0        0x0 c:/ndsdev/devkitpro/devkitarm/bin/../lib/gcc/arm-eabi/4.6.0/../../../../arm-eabi/lib/thumb\libg.a(lib_a-flags.o)
 .data          0x020310c0        0x0 c:/ndsdev/devkitpro/devkitarm/bin/../lib/gcc/arm-eabi/4.6.0/../../../../arm-eabi/lib/thumb\libg.a(lib_a-fputwc.o)
 .data          0x020310c0        0x0 c:/ndsdev/devkitpro/devkitarm/bin/../lib/gcc/arm-eabi/4.6.0/../../../../arm-eabi/lib/thumb\libg.a(lib_a-fvwrite.o)
 .data          0x020310c0        0x0 c:/ndsdev/devkitpro/devkitarm/bin/../lib/gcc/arm-eabi/4.6.0/../../../../arm-eabi/lib/thumb\libg.a(lib_a-getenv_r.o)
 .data          0x020310c0       0x40 c:/ndsdev/devkitpro/devkitarm/bin/../lib/gcc/arm-eabi/4.6.0/../../../../arm-eabi/lib/thumb\libg.a(lib_a-gettzinfo.o)
 .data          0x02031100        0x0 c:/ndsdev/devkitpro/devkitarm/bin/../lib/gcc/arm-eabi/4.6.0/../../../../arm-eabi/lib/thumb\libg.a(lib_a-iswspace.o)
 .data          0x02031100        0x0 c:/ndsdev/devkitpro/devkitarm/bin/../lib/gcc/arm-eabi/4.6.0/../../../../arm-eabi/lib/thumb\libg.a(lib_a-jp2uc.o)
 .data          0x02031100        0x0 c:/ndsdev/devkitpro/devkitarm/bin/../lib/gcc/arm-eabi/4.6.0/../../../../arm-eabi/lib/thumb\libg.a(lib_a-mbsnrtowcs.o)
 .data          0x02031100        0x0 c:/ndsdev/devkitpro/devkitarm/bin/../lib/gcc/arm-eabi/4.6.0/../../../../arm-eabi/lib/thumb\libg.a(lib_a-mprec.o)
 .data          0x02031100        0x0 c:/ndsdev/devkitpro/devkitarm/bin/../lib/gcc/arm-eabi/4.6.0/../../../../arm-eabi/lib/thumb\libg.a(lib_a-reallocr.o)
 .data          0x02031100        0x0 c:/ndsdev/devkitpro/devkitarm/bin/../lib/gcc/arm-eabi/4.6.0/../../../../arm-eabi/lib/thumb\libg.a(lib_a-s_fpclassify.o)
 .data          0x02031100        0x0 c:/ndsdev/devkitpro/devkitarm/bin/../lib/gcc/arm-eabi/4.6.0/../../../../arm-eabi/lib/thumb\libg.a(lib_a-sccl.o)
 .data          0x02031100        0x0 c:/ndsdev/devkitpro/devkitarm/bin/../lib/gcc/arm-eabi/4.6.0/../../../../arm-eabi/lib/thumb\libg.a(lib_a-sf_nan.o)
 .data          0x02031100       0x28 c:/ndsdev/devkitpro/devkitarm/bin/../lib/gcc/arm-eabi/4.6.0/../../../../arm-eabi/lib/thumb\libg.a(lib_a-strtod.o)
 .data          0x02031128        0x0 c:/ndsdev/devkitpro/devkitarm/bin/../lib/gcc/arm-eabi/4.6.0/../../../../arm-eabi/lib/thumb\libg.a(lib_a-strtoll_r.o)
 .data          0x02031128        0x0 c:/ndsdev/devkitpro/devkitarm/bin/../lib/gcc/arm-eabi/4.6.0/../../../../arm-eabi/lib/thumb\libg.a(lib_a-strtoul.o)
 .data          0x02031128        0x0 c:/ndsdev/devkitpro/devkitarm/bin/../lib/gcc/arm-eabi/4.6.0/../../../../arm-eabi/lib/thumb\libg.a(lib_a-strtoull_r.o)
 .data          0x02031128        0x0 c:/ndsdev/devkitpro/devkitarm/bin/../lib/gcc/arm-eabi/4.6.0/../../../../arm-eabi/lib/thumb\libg.a(lib_a-svfiprintf.o)
 .data          0x02031128        0x0 c:/ndsdev/devkitpro/devkitarm/bin/../lib/gcc/arm-eabi/4.6.0/../../../../arm-eabi/lib/thumb\libg.a(lib_a-wbuf.o)
 .data          0x02031128        0x0 c:/ndsdev/devkitpro/devkitarm/bin/../lib/gcc/arm-eabi/4.6.0/../../../../arm-eabi/lib/thumb\libg.a(lib_a-wcsnrtombs.o)
 .data          0x02031128        0x0 c:/ndsdev/devkitpro/devkitarm/bin/../lib/gcc/arm-eabi/4.6.0/../../../../arm-eabi/lib/thumb\libg.a(lib_a-callocr.o)
 .data          0x02031128        0x4 c:/ndsdev/devkitpro/devkitarm/bin/../lib/gcc/arm-eabi/4.6.0/../../../../arm-eabi/lib/thumb\libg.a(lib_a-environ.o)
                0x02031128                environ
 .data          0x0203112c        0x0 c:/ndsdev/devkitpro/devkitarm/bin/../lib/gcc/arm-eabi/4.6.0/../../../../arm-eabi/lib/thumb\libg.a(lib_a-envlock.o)
 .data          0x0203112c        0x0 c:/ndsdev/devkitpro/devkitarm/bin/../lib/gcc/arm-eabi/4.6.0/../../../../arm-eabi/lib/thumb\libg.a(lib_a-gdtoa-gethex.o)
 .data          0x0203112c        0x0 c:/ndsdev/devkitpro/devkitarm/bin/../lib/gcc/arm-eabi/4.6.0/../../../../arm-eabi/lib/thumb\libg.a(lib_a-gdtoa-hexnan.o)
 .data          0x0203112c       0x44 c:/ndsdev/devkitpro/devkitarm/bin/../lib/gcc/arm-eabi/4.6.0/../../../../arm-eabi/lib/thumb\libsysbase.a(iosupport.o)
                0x02031130                devoptab_list
 .data          0x02031170        0x0 c:/ndsdev/devkitpro/devkitarm/bin/../lib/gcc/arm-eabi/4.6.0/../../../../arm-eabi/lib/thumb\libsysbase.a(close.o)
 .data          0x02031170        0x0 c:/ndsdev/devkitpro/devkitarm/bin/../lib/gcc/arm-eabi/4.6.0/../../../../arm-eabi/lib/thumb\libsysbase.a(fstat.o)
 .data          0x02031170        0x0 c:/ndsdev/devkitpro/devkitarm/bin/../lib/gcc/arm-eabi/4.6.0/../../../../arm-eabi/lib/thumb\libsysbase.a(isatty.o)
 .data          0x02031170        0x0 c:/ndsdev/devkitpro/devkitarm/bin/../lib/gcc/arm-eabi/4.6.0/../../../../arm-eabi/lib/thumb\libsysbase.a(lseek.o)
 .data          0x02031170        0x0 c:/ndsdev/devkitpro/devkitarm/bin/../lib/gcc/arm-eabi/4.6.0/../../../../arm-eabi/lib/thumb\libsysbase.a(open.o)
 .data          0x02031170        0x0 c:/ndsdev/devkitpro/devkitarm/bin/../lib/gcc/arm-eabi/4.6.0/../../../../arm-eabi/lib/thumb\libsysbase.a(read.o)
 .data          0x02031170        0x0 c:/ndsdev/devkitpro/devkitarm/bin/../lib/gcc/arm-eabi/4.6.0/../../../../arm-eabi/lib/thumb\libsysbase.a(sbrk.o)
 .data          0x02031170        0x0 c:/ndsdev/devkitpro/devkitarm/bin/../lib/gcc/arm-eabi/4.6.0/../../../../arm-eabi/lib/thumb\libsysbase.a(times.o)
 .data          0x02031170        0x0 c:/ndsdev/devkitpro/devkitarm/bin/../lib/gcc/arm-eabi/4.6.0/../../../../arm-eabi/lib/thumb\libsysbase.a(write.o)
 .data          0x02031170        0x0 c:/ndsdev/devkitpro/devkitarm/bin/../lib/gcc/arm-eabi/4.6.0/../../../../arm-eabi/lib/thumb\libsysbase.a(malloc_vars.o)
 .data          0x02031170      0x400 c:/ndsdev/devkitpro/devkitarm/bin/../lib/gcc/arm-eabi/4.6.0/../../../../arm-eabi/lib/thumb\libsysbase.a(chdir.o)
 .data          0x02031570        0x0 c:/ndsdev/devkitpro/devkitarm/bin/../lib/gcc/arm-eabi/4.6.0/../../../../arm-eabi/lib/thumb\libsysbase.a(build_argv.o)
 .data          0x02031570        0x0 c:/ndsdev/devkitpro/devkitarm/bin/../lib/gcc/arm-eabi/4.6.0/../../../../arm-eabi/lib/thumb\libsysbase.a(syscall_support.o)
 .data          0x02031570        0x0 c:/ndsdev/devkitpro/devkitarm/bin/../lib/gcc/arm-eabi/4.6.0/../../../../arm-eabi/lib/thumb\libsysbase.a(handle_manager.o)
 .data          0x02031570        0x0 c:/ndsdev/devkitpro/devkitarm/bin/../lib/gcc/arm-eabi/4.6.0/thumb\libgcc.a(_arm_addsubdf3.o)
 .data          0x02031570        0x0 c:/ndsdev/devkitpro/devkitarm/bin/../lib/gcc/arm-eabi/4.6.0/thumb\libgcc.a(_arm_muldivdf3.o)
 .data          0x02031570        0x0 c:/ndsdev/devkitpro/devkitarm/bin/../lib/gcc/arm-eabi/4.6.0/thumb\libgcc.a(_arm_cmpdf2.o)
 .data          0x02031570        0x0 c:/ndsdev/devkitpro/devkitarm/bin/../lib/gcc/arm-eabi/4.6.0/thumb\libgcc.a(_arm_fixdfsi.o)
 .data          0x02031570        0x0 c:/ndsdev/devkitpro/devkitarm/bin/../lib/gcc/arm-eabi/4.6.0/thumb\libgcc.a(_arm_fixunsdfsi.o)
 .data          0x02031570        0x0 c:/ndsdev/devkitpro/devkitarm/bin/../lib/gcc/arm-eabi/4.6.0/thumb\libgcc.a(_arm_truncdfsf2.o)
 .data          0x02031570        0x0 c:/ndsdev/devkitpro/devkitarm/bin/../lib/gcc/arm-eabi/4.6.0/thumb\libgcc.a(_aeabi_uldivmod.o)
 .data          0x02031570        0x0 c:/ndsdev/devkitpro/devkitarm/bin/../lib/gcc/arm-eabi/4.6.0/thumb\libgcc.a(_muldi3.o)
 .data          0x02031570        0x0 c:/ndsdev/devkitpro/devkitarm/bin/../lib/gcc/arm-eabi/4.6.0/thumb\libgcc.a(bpabi.o)
 .data          0x02031570        0x0 c:/ndsdev/devkitpro/devkitarm/bin/../lib/gcc/arm-eabi/4.6.0/thumb\libgcc.a(unwind-arm.o)
 .data          0x02031570        0x0 c:/ndsdev/devkitpro/devkitarm/bin/../lib/gcc/arm-eabi/4.6.0/thumb\libgcc.a(libunwind.o)
 .data          0x02031570        0x0 c:/ndsdev/devkitpro/devkitarm/bin/../lib/gcc/arm-eabi/4.6.0/thumb\libgcc.a(pr-support.o)
 .data          0x02031570        0x0 c:/ndsdev/devkitpro/devkitarm/bin/../lib/gcc/arm-eabi/4.6.0/thumb\libgcc.a(_divdi3.o)
 .data          0x02031570        0x0 c:/ndsdev/devkitpro/devkitarm/bin/../lib/gcc/arm-eabi/4.6.0/thumb\libgcc.a(_udivdi3.o)
 .data          0x02031570        0x0 c:/ndsdev/devkitpro/devkitarm/bin/../lib/gcc/arm-eabi/4.6.0/thumb\libgcc.a(_clzsi2.o)
 .data          0x02031570        0x0 c:/ndsdev/devkitpro/devkitarm/bin/../lib/gcc/arm-eabi/4.6.0/../../../../arm-eabi/lib/thumb\libg.a(lib_a-abort.o)
 .data          0x02031570        0x0 c:/ndsdev/devkitpro/devkitarm/bin/../lib/gcc/arm-eabi/4.6.0/../../../../arm-eabi/lib/thumb\libg.a(lib_a-signal.o)
 .data          0x02031570        0x0 c:/ndsdev/devkitpro/devkitarm/bin/../lib/gcc/arm-eabi/4.6.0/../../../../arm-eabi/lib/thumb\libsysbase.a(getpid.o)
 .data          0x02031570        0x0 c:/ndsdev/devkitpro/devkitarm/bin/../lib/gcc/arm-eabi/4.6.0/../../../../arm-eabi/lib/thumb\libsysbase.a(kill.o)
 .data          0x02031570        0x0 c:/ndsdev/devkitpro/devkitarm/bin/../lib/gcc/arm-eabi/4.6.0/../../../../arm-eabi/lib/thumb\libsysbase.a(_exit.o)
 .data          0x02031570        0x0 c:/ndsdev/devkitpro/devkitarm/bin/../lib/gcc/arm-eabi/4.6.0/thumb/crtend.o
 .data          0x02031570        0x0 c:/ndsdev/devkitpro/devkitarm/bin/../lib/gcc/arm-eabi/4.6.0/thumb/crtn.o
 *(.data.*)
 *(.gnu.linkonce.d*)
                0x02031570                . = ALIGN (0x4)
                0x02031570                __data_end = ABSOLUTE (.)
                0x02031570                __dtcm_lma = .
                0x02031570                __bss_vma = .

.dtcm           0x0b000000        0x0 load address 0x02031570
 *(.dtcm)
 *(.dtcm.*)
                0x0b000000                . = ALIGN (0x4)
                0x0b000000                __dtcm_end = ABSOLUTE (.)
                0x02031570                __itcm_lma = (__dtcm_lma + SIZEOF (.dtcm))

.itcm           0x01000100      0x194 load address 0x02031570
 *(.itcm)
 .itcm          0x01000100       0xc8 c:/ndsdev/devkitPro/libnds/lib\libnds9.a(interrupts.o)
                0x01000100                irqTable
 .itcm          0x010001c8       0xcc c:/ndsdev/devkitPro/libnds/lib\libnds9.a(interruptDispatcher.o)
                0x010001c8                IntrMain
 *itcm.*(.text)
                0x01000294                . = ALIGN (0x4)
                0x01000294                __itcm_end = ABSOLUTE (.)
                0x02031704                __vectors_lma = (__itcm_lma + SIZEOF (.itcm))

.vectors        0x01000000        0x0 load address 0x02031704
 *(.vectors)
 *vectors.*(.text)
                0x01000000                . = ALIGN (0x4)
                0x01000000                __vectors_end = ABSOLUTE (.)

.sbss           0x0b000000        0x0
                0x0b000000                __sbss_start = ABSOLUTE (.)
                0x0b000000                __sbss_start__ = ABSOLUTE (.)
 *(.sbss)
                0x0b000000                . = ALIGN (0x4)
                0x0b000000                __sbss_end = ABSOLUTE (.)

.bss            0x02031570   0x212d44
                0x02031570                __bss_start = ABSOLUTE (.)
                0x02031570                __bss_start__ = ABSOLUTE (.)
 *(.dynbss)
 *(.gnu.linkonce.b*)
 *(.bss*)
 .bss           0x02031570        0x0 c:/ndsdev/devkitpro/devkitarm/bin/../lib/gcc/arm-eabi/4.6.0/../../../../arm-eabi/lib/thumb/ds_arm9_crt0.o
 .bss           0x02031570        0x0 c:/ndsdev/devkitpro/devkitarm/bin/../lib/gcc/arm-eabi/4.6.0/thumb/crti.o
 .bss           0x02031570       0x1c c:/ndsdev/devkitpro/devkitarm/bin/../lib/gcc/arm-eabi/4.6.0/thumb/crtbegin.o
 .bss           0x0203158c        0x4 download.o
 .bss           0x02031590        0x0 main.o
 .bss           0x02031590        0x4 serial.o
 .bss           0x02031594        0x4 usb.o
 .bss           0x02031598       0x14 wifi.o
 *fill*         0x020315ac        0x4 00
 .bss           0x020315b0        0x0 jump.o
 .bss           0x020315b0        0x0 c:/ndsdev/devkitPro/libnds/lib\libdswifi9.a(sgIP_DNS.o)
 .bss           0x020315b0        0x0 c:/ndsdev/devkitPro/libnds/lib\libdswifi9.a(sgIP_Hub.o)
 .bss           0x020315b0        0x0 c:/ndsdev/devkitPro/libnds/lib\libdswifi9.a(sgIP_memblock.o)
 .bss           0x020315b0        0x0 c:/ndsdev/devkitPro/libnds/lib\libdswifi9.a(sgIP_sockets.o)
 .bss           0x020315b0       0x10 c:/ndsdev/devkitPro/libnds/lib\libdswifi9.a(wifi_arm9.o)
                0x020315b0                WifiData
                0x020315b4                synchandler
                0x020315b8                packethandler
                0x020315bc                wifi_connect_state
 .bss           0x020315c0        0x0 c:/ndsdev/devkitPro/libnds/lib\libdswifi9.a(spinlock.o)
 .bss           0x020315c0        0x0 c:/ndsdev/devkitPro/libnds/lib\libdswifi9.a(sgIP.o)
 .bss           0x020315c0        0x0 c:/ndsdev/devkitPro/libnds/lib\libdswifi9.a(sgIP_ARP.o)
 .bss           0x020315c0        0x0 c:/ndsdev/devkitPro/libnds/lib\libdswifi9.a(sgIP_DHCP.o)
 .bss           0x020315c0        0x0 c:/ndsdev/devkitPro/libnds/lib\libdswifi9.a(sgIP_IP.o)
 .bss           0x020315c0        0x0 c:/ndsdev/devkitPro/libnds/lib\libdswifi9.a(sgIP_TCP.o)
 .bss           0x020315c0        0x0 c:/ndsdev/devkitPro/libnds/lib\libdswifi9.a(sgIP_UDP.o)
 .bss           0x020315c0        0x0 c:/ndsdev/devkitPro/libnds/lib\libdswifi9.a(sgIP_ICMP.o)
 .bss           0x020315c0        0x0 c:/ndsdev/devkitPro/libnds/lib\libfat.a(libfat.o)
 .bss           0x020315c0      0x200 c:/ndsdev/devkitPro/libnds/lib\libfat.a(partition.o)
 .bss           0x020317c0        0x4 c:/ndsdev/devkitPro/libnds/lib\libfat.a(cache.o)
 .bss           0x020317c4        0x0 c:/ndsdev/devkitPro/libnds/lib\libfat.a(directory.o)
 .bss           0x020317c4        0x0 c:/ndsdev/devkitPro/libnds/lib\libfat.a(disc.o)
 .bss           0x020317c4        0x0 c:/ndsdev/devkitPro/libnds/lib\libfat.a(fatdir.o)
 .bss           0x020317c4        0x0 c:/ndsdev/devkitPro/libnds/lib\libfat.a(fatfile.o)
 .bss           0x020317c4        0x0 c:/ndsdev/devkitPro/libnds/lib\libfat.a(file_allocation_table.o)
 .bss           0x020317c4        0x0 c:/ndsdev/devkitPro/libnds/lib\libfat.a(filetime.o)
 .bss           0x020317c4        0x0 c:/ndsdev/devkitPro/libnds/lib\libfat.a(lock.o)
 .bss           0x020317c4        0x0 c:/ndsdev/devkitPro/libnds/lib\libnds9.a(console.o)
 .bss           0x020317c4        0x0 c:/ndsdev/devkitPro/libnds/lib\libnds9.a(dldi.o)
 .bss           0x020317c4        0x0 c:/ndsdev/devkitPro/libnds/lib\libnds9.a(dsi_sd.o)
 .bss           0x020317c4        0x0 c:/ndsdev/devkitPro/libnds/lib\libnds9.a(initSystem.o)
 .bss           0x020317c4        0x8 c:/ndsdev/devkitPro/libnds/lib\libnds9.a(fifosystem.o)
                0x020317c8                processing
 .bss           0x020317cc        0x0 c:/ndsdev/devkitPro/libnds/lib\libnds9.a(interrupts.o)
 .bss           0x020317cc        0x0 c:/ndsdev/devkitPro/libnds/lib\libnds9.a(libnds_exit.o)
 .bss           0x020317cc        0x0 c:/ndsdev/devkitPro/libnds/lib\libnds9.a(dcache.o)
 .bss           0x020317cc        0x0 c:/ndsdev/devkitPro/libnds/lib\libnds9.a(dldi_stub.o)
 .bss           0x020317cc        0x0 c:/ndsdev/devkitPro/libnds/lib\libnds9.a(mpu_setup.o)
 .bss           0x020317cc        0x0 c:/ndsdev/devkitPro/libnds/lib\libnds9.a(biosCalls.o)
 .bss           0x020317cc        0x0 c:/ndsdev/devkitPro/libnds/lib\libnds9.a(debugprint.o)
 .bss           0x020317cc        0x0 c:/ndsdev/devkitPro/libnds/lib\libnds9.a(interruptDispatcher.o)
 .bss           0x020317cc        0x0 c:/ndsdev/devkitPro/libnds/lib\libnds9.a(swiSoftReset.o)
 .bss           0x020317cc        0x0 c:/ndsdev/devkitPro/libnds/lib\libnds9.a(default_font.bin.o)
 .bss           0x020317cc        0x0 c:/ndsdev/devkitPro/libnds/lib\libnds9.a(background.o)
 .bss           0x020317cc        0x0 c:/ndsdev/devkitPro/libnds/lib\libnds9.a(system.o)
 .bss           0x020317cc        0x0 c:/ndsdev/devkitPro/libnds/lib\libnds9.a(trig.o)
 .bss           0x020317cc        0x0 c:/ndsdev/devkitPro/libnds/lib\libnds9.a(video.o)
 .bss           0x020317cc        0x0 c:/ndsdev/devkitpro/devkitarm/bin/../lib/gcc/arm-eabi/4.6.0/thumb\libgcc.a(_udivsi3.o)
 .bss           0x020317cc        0x0 c:/ndsdev/devkitpro/devkitarm/bin/../lib/gcc/arm-eabi/4.6.0/thumb\libgcc.a(_divsi3.o)
 .bss           0x020317cc        0x0 c:/ndsdev/devkitpro/devkitarm/bin/../lib/gcc/arm-eabi/4.6.0/thumb\libgcc.a(_dvmd_tls.o)
 .bss           0x020317cc        0x0 c:/ndsdev/devkitpro/devkitarm/bin/../lib/gcc/arm-eabi/4.6.0/../../../../arm-eabi/lib/thumb\libg.a(lib_a-atoi.o)
 .bss           0x020317cc        0x0 c:/ndsdev/devkitpro/devkitarm/bin/../lib/gcc/arm-eabi/4.6.0/../../../../arm-eabi/lib/thumb\libg.a(lib_a-bsearch.o)
 .bss           0x020317cc        0x0 c:/ndsdev/devkitpro/devkitarm/bin/../lib/gcc/arm-eabi/4.6.0/../../../../arm-eabi/lib/thumb\libg.a(lib_a-errno.o)
 .bss           0x020317cc        0x0 c:/ndsdev/devkitpro/devkitarm/bin/../lib/gcc/arm-eabi/4.6.0/../../../../arm-eabi/lib/thumb\libg.a(lib_a-fclose.o)
 .bss           0x020317cc        0x0 c:/ndsdev/devkitpro/devkitarm/bin/../lib/gcc/arm-eabi/4.6.0/../../../../arm-eabi/lib/thumb\libg.a(lib_a-fflush.o)
 .bss           0x020317cc        0x0 c:/ndsdev/devkitpro/devkitarm/bin/../lib/gcc/arm-eabi/4.6.0/../../../../arm-eabi/lib/thumb\libg.a(lib_a-fgets.o)
 .bss           0x020317cc        0x0 c:/ndsdev/devkitpro/devkitarm/bin/../lib/gcc/arm-eabi/4.6.0/../../../../arm-eabi/lib/thumb\libg.a(lib_a-findfp.o)
 .bss           0x020317cc        0x0 c:/ndsdev/devkitpro/devkitarm/bin/../lib/gcc/arm-eabi/4.6.0/../../../../arm-eabi/lib/thumb\libg.a(lib_a-fopen.o)
 .bss           0x020317cc        0x0 c:/ndsdev/devkitpro/devkitarm/bin/../lib/gcc/arm-eabi/4.6.0/../../../../arm-eabi/lib/thumb\libg.a(lib_a-freer.o)
 .bss           0x020317cc        0x0 c:/ndsdev/devkitpro/devkitarm/bin/../lib/gcc/arm-eabi/4.6.0/../../../../arm-eabi/lib/thumb\libg.a(lib_a-fseek.o)
 .bss           0x020317cc        0x0 c:/ndsdev/devkitpro/devkitarm/bin/../lib/gcc/arm-eabi/4.6.0/../../../../arm-eabi/lib/thumb\libg.a(lib_a-fwalk.o)
 .bss           0x020317cc        0x0 c:/ndsdev/devkitpro/devkitarm/bin/../lib/gcc/arm-eabi/4.6.0/../../../../arm-eabi/lib/thumb\libg.a(lib_a-fwrite.o)
 .bss           0x020317cc        0x0 c:/ndsdev/devkitpro/devkitarm/bin/../lib/gcc/arm-eabi/4.6.0/../../../../arm-eabi/lib/thumb\libg.a(lib_a-impure.o)
 .bss           0x020317cc        0x0 c:/ndsdev/devkitpro/devkitarm/bin/../lib/gcc/arm-eabi/4.6.0/../../../../arm-eabi/lib/thumb\libg.a(lib_a-init.o)
 .bss           0x020317cc        0x0 c:/ndsdev/devkitpro/devkitarm/bin/../lib/gcc/arm-eabi/4.6.0/../../../../arm-eabi/lib/thumb\libg.a(lib_a-iprintf.o)
 .bss           0x020317cc        0x0 c:/ndsdev/devkitpro/devkitarm/bin/../lib/gcc/arm-eabi/4.6.0/../../../../arm-eabi/lib/thumb\libg.a(lib_a-lcltime_r.o)
 .bss           0x020317cc      0x2b8 c:/ndsdev/devkitpro/devkitarm/bin/../lib/gcc/arm-eabi/4.6.0/../../../../arm-eabi/lib/thumb\libg.a(lib_a-locale.o)
                0x02031a78                _PathLocale
                0x02031a7c                __mlocale_changed
                0x02031a80                __nlocale_changed
 .bss           0x02031a84        0x0 c:/ndsdev/devkitpro/devkitarm/bin/../lib/gcc/arm-eabi/4.6.0/../../../../arm-eabi/lib/thumb\libg.a(lib_a-makebuf.o)
 .bss           0x02031a84        0x0 c:/ndsdev/devkitpro/devkitarm/bin/../lib/gcc/arm-eabi/4.6.0/../../../../arm-eabi/lib/thumb\libg.a(lib_a-malloc.o)
 .bss           0x02031a84       0x34 c:/ndsdev/devkitpro/devkitarm/bin/../lib/gcc/arm-eabi/4.6.0/../../../../arm-eabi/lib/thumb\libg.a(lib_a-mallocr.o)
                0x02031a84                __malloc_top_pad
                0x02031a88                __malloc_current_mallinfo
                0x02031ab0                __malloc_max_sbrked_mem
                0x02031ab4                __malloc_max_total_mem
 .bss           0x02031ab8        0x0 c:/ndsdev/devkitpro/devkitarm/bin/../lib/gcc/arm-eabi/4.6.0/../../../../arm-eabi/lib/thumb\libg.a(lib_a-mbrtowc.o)
 .bss           0x02031ab8        0x0 c:/ndsdev/devkitpro/devkitarm/bin/../lib/gcc/arm-eabi/4.6.0/../../../../arm-eabi/lib/thumb\libg.a(lib_a-mbsrtowcs.o)
 .bss           0x02031ab8        0x0 c:/ndsdev/devkitpro/devkitarm/bin/../lib/gcc/arm-eabi/4.6.0/../../../../arm-eabi/lib/thumb\libg.a(lib_a-mbtowc_r.o)
 .bss           0x02031ab8        0x0 c:/ndsdev/devkitpro/devkitarm/bin/../lib/gcc/arm-eabi/4.6.0/../../../../arm-eabi/lib/thumb\libg.a(lib_a-memchr.o)
 .bss           0x02031ab8        0x0 c:/ndsdev/devkitpro/devkitarm/bin/../lib/gcc/arm-eabi/4.6.0/../../../../arm-eabi/lib/thumb\libg.a(lib_a-memcmp.o)
 .bss           0x02031ab8        0x0 c:/ndsdev/devkitpro/devkitarm/bin/../lib/gcc/arm-eabi/4.6.0/../../../../arm-eabi/lib/thumb\libg.a(lib_a-memcpy.o)
 .bss           0x02031ab8        0x0 c:/ndsdev/devkitpro/devkitarm/bin/../lib/gcc/arm-eabi/4.6.0/../../../../arm-eabi/lib/thumb\libg.a(lib_a-memmove.o)
 .bss           0x02031ab8        0x0 c:/ndsdev/devkitpro/devkitarm/bin/../lib/gcc/arm-eabi/4.6.0/../../../../arm-eabi/lib/thumb\libg.a(lib_a-memset.o)
 .bss           0x02031ab8        0x0 c:/ndsdev/devkitpro/devkitarm/bin/../lib/gcc/arm-eabi/4.6.0/../../../../arm-eabi/lib/thumb\libg.a(lib_a-mktime.o)
 .bss           0x02031ab8        0x0 c:/ndsdev/devkitpro/devkitarm/bin/../lib/gcc/arm-eabi/4.6.0/../../../../arm-eabi/lib/thumb\libg.a(lib_a-mktm_r.o)
 .bss           0x02031ab8        0x0 c:/ndsdev/devkitpro/devkitarm/bin/../lib/gcc/arm-eabi/4.6.0/../../../../arm-eabi/lib/thumb\libg.a(lib_a-mlock.o)
 .bss           0x02031ab8        0x0 c:/ndsdev/devkitpro/devkitarm/bin/../lib/gcc/arm-eabi/4.6.0/../../../../arm-eabi/lib/thumb\libg.a(lib_a-printf.o)
 .bss           0x02031ab8        0x0 c:/ndsdev/devkitpro/devkitarm/bin/../lib/gcc/arm-eabi/4.6.0/../../../../arm-eabi/lib/thumb\libg.a(lib_a-refill.o)
 .bss           0x02031ab8        0x0 c:/ndsdev/devkitpro/devkitarm/bin/../lib/gcc/arm-eabi/4.6.0/../../../../arm-eabi/lib/thumb\libg.a(lib_a-setvbuf.o)
 .bss           0x02031ab8        0x0 c:/ndsdev/devkitpro/devkitarm/bin/../lib/gcc/arm-eabi/4.6.0/../../../../arm-eabi/lib/thumb\libg.a(lib_a-siscanf.o)
 .bss           0x02031ab8        0x0 c:/ndsdev/devkitpro/devkitarm/bin/../lib/gcc/arm-eabi/4.6.0/../../../../arm-eabi/lib/thumb\libg.a(lib_a-sprintf.o)
 .bss           0x02031ab8        0x0 c:/ndsdev/devkitpro/devkitarm/bin/../lib/gcc/arm-eabi/4.6.0/../../../../arm-eabi/lib/thumb\libg.a(lib_a-sscanf.o)
 .bss           0x02031ab8        0x0 c:/ndsdev/devkitpro/devkitarm/bin/../lib/gcc/arm-eabi/4.6.0/../../../../arm-eabi/lib/thumb\libg.a(lib_a-stdio.o)
 .bss           0x02031ab8        0x0 c:/ndsdev/devkitpro/devkitarm/bin/../lib/gcc/arm-eabi/4.6.0/../../../../arm-eabi/lib/thumb\libg.a(lib_a-strcasecmp.o)
 .bss           0x02031ab8        0x0 c:/ndsdev/devkitpro/devkitarm/bin/../lib/gcc/arm-eabi/4.6.0/../../../../arm-eabi/lib/thumb\libg.a(lib_a-strcat.o)
 .bss           0x02031ab8        0x0 c:/ndsdev/devkitpro/devkitarm/bin/../lib/gcc/arm-eabi/4.6.0/../../../../arm-eabi/lib/thumb\libg.a(lib_a-strchr.o)
 .bss           0x02031ab8        0x0 c:/ndsdev/devkitpro/devkitarm/bin/../lib/gcc/arm-eabi/4.6.0/../../../../arm-eabi/lib/thumb\libg.a(lib_a-strcmp.o)
 .bss           0x02031ab8        0x0 c:/ndsdev/devkitpro/devkitarm/bin/../lib/gcc/arm-eabi/4.6.0/../../../../arm-eabi/lib/thumb\libg.a(lib_a-strcpy.o)
 .bss           0x02031ab8        0x0 c:/ndsdev/devkitpro/devkitarm/bin/../lib/gcc/arm-eabi/4.6.0/../../../../arm-eabi/lib/thumb\libg.a(lib_a-strlcpy.o)
 .bss           0x02031ab8        0x0 c:/ndsdev/devkitpro/devkitarm/bin/../lib/gcc/arm-eabi/4.6.0/../../../../arm-eabi/lib/thumb\libg.a(lib_a-strlen.o)
 .bss           0x02031ab8        0x0 c:/ndsdev/devkitpro/devkitarm/bin/../lib/gcc/arm-eabi/4.6.0/../../../../arm-eabi/lib/thumb\libg.a(lib_a-strncasecmp.o)
 .bss           0x02031ab8        0x0 c:/ndsdev/devkitpro/devkitarm/bin/../lib/gcc/arm-eabi/4.6.0/../../../../arm-eabi/lib/thumb\libg.a(lib_a-strncmp.o)
 .bss           0x02031ab8        0x0 c:/ndsdev/devkitpro/devkitarm/bin/../lib/gcc/arm-eabi/4.6.0/../../../../arm-eabi/lib/thumb\libg.a(lib_a-strncpy.o)
 .bss           0x02031ab8        0x0 c:/ndsdev/devkitpro/devkitarm/bin/../lib/gcc/arm-eabi/4.6.0/../../../../arm-eabi/lib/thumb\libg.a(lib_a-strnlen.o)
 .bss           0x02031ab8        0x0 c:/ndsdev/devkitpro/devkitarm/bin/../lib/gcc/arm-eabi/4.6.0/../../../../arm-eabi/lib/thumb\libg.a(lib_a-strpbrk.o)
 .bss           0x02031ab8        0x0 c:/ndsdev/devkitpro/devkitarm/bin/../lib/gcc/arm-eabi/4.6.0/../../../../arm-eabi/lib/thumb\libg.a(lib_a-strrchr.o)
 .bss           0x02031ab8        0x0 c:/ndsdev/devkitpro/devkitarm/bin/../lib/gcc/arm-eabi/4.6.0/../../../../arm-eabi/lib/thumb\libg.a(lib_a-strtol.o)
 .bss           0x02031ab8        0x0 c:/ndsdev/devkitpro/devkitarm/bin/../lib/gcc/arm-eabi/4.6.0/../../../../arm-eabi/lib/thumb\libg.a(lib_a-svfiscanf.o)
 .bss           0x02031ab8        0x0 c:/ndsdev/devkitpro/devkitarm/bin/../lib/gcc/arm-eabi/4.6.0/../../../../arm-eabi/lib/thumb\libg.a(lib_a-svfprintf.o)
 .bss           0x02031ab8        0x0 c:/ndsdev/devkitpro/devkitarm/bin/../lib/gcc/arm-eabi/4.6.0/../../../../arm-eabi/lib/thumb\libg.a(lib_a-svfscanf.o)
 .bss           0x02031ab8        0x0 c:/ndsdev/devkitpro/devkitarm/bin/../lib/gcc/arm-eabi/4.6.0/../../../../arm-eabi/lib/thumb\libg.a(lib_a-sysclose.o)
 .bss           0x02031ab8        0x0 c:/ndsdev/devkitpro/devkitarm/bin/../lib/gcc/arm-eabi/4.6.0/../../../../arm-eabi/lib/thumb\libg.a(lib_a-syslseek.o)
 .bss           0x02031ab8        0x0 c:/ndsdev/devkitpro/devkitarm/bin/../lib/gcc/arm-eabi/4.6.0/../../../../arm-eabi/lib/thumb\libg.a(lib_a-sysopen.o)
 .bss           0x02031ab8        0x0 c:/ndsdev/devkitpro/devkitarm/bin/../lib/gcc/arm-eabi/4.6.0/../../../../arm-eabi/lib/thumb\libg.a(lib_a-sysread.o)
 .bss           0x02031ab8        0x0 c:/ndsdev/devkitpro/devkitarm/bin/../lib/gcc/arm-eabi/4.6.0/../../../../arm-eabi/lib/thumb\libg.a(lib_a-time.o)
 .bss           0x02031ab8        0x0 c:/ndsdev/devkitpro/devkitarm/bin/../lib/gcc/arm-eabi/4.6.0/../../../../arm-eabi/lib/thumb\libg.a(lib_a-towlower.o)
 .bss           0x02031ab8        0x0 c:/ndsdev/devkitpro/devkitarm/bin/../lib/gcc/arm-eabi/4.6.0/../../../../arm-eabi/lib/thumb\libg.a(lib_a-towupper.o)
 .bss           0x02031ab8        0x0 c:/ndsdev/devkitpro/devkitarm/bin/../lib/gcc/arm-eabi/4.6.0/../../../../arm-eabi/lib/thumb\libg.a(lib_a-tzlock.o)
 .bss           0x02031ab8        0x8 c:/ndsdev/devkitpro/devkitarm/bin/../lib/gcc/arm-eabi/4.6.0/../../../../arm-eabi/lib/thumb\libg.a(lib_a-tzvars.o)
                0x02031ab8                _timezone
                0x02031abc                _daylight
 .bss           0x02031ac0        0x0 c:/ndsdev/devkitpro/devkitarm/bin/../lib/gcc/arm-eabi/4.6.0/../../../../arm-eabi/lib/thumb\libg.a(lib_a-ungetc.o)
 .bss           0x02031ac0        0x0 c:/ndsdev/devkitpro/devkitarm/bin/../lib/gcc/arm-eabi/4.6.0/../../../../arm-eabi/lib/thumb\libg.a(lib_a-vfiprintf.o)
 .bss           0x02031ac0        0x0 c:/ndsdev/devkitpro/devkitarm/bin/../lib/gcc/arm-eabi/4.6.0/../../../../arm-eabi/lib/thumb\libg.a(lib_a-vfprintf.o)
 .bss           0x02031ac0        0x0 c:/ndsdev/devkitpro/devkitarm/bin/../lib/gcc/arm-eabi/4.6.0/../../../../arm-eabi/lib/thumb\libg.a(lib_a-wcrtomb.o)
 .bss           0x02031ac0        0x0 c:/ndsdev/devkitpro/devkitarm/bin/../lib/gcc/arm-eabi/4.6.0/../../../../arm-eabi/lib/thumb\libg.a(lib_a-wcsrtombs.o)
 .bss           0x02031ac0        0x0 c:/ndsdev/devkitpro/devkitarm/bin/../lib/gcc/arm-eabi/4.6.0/../../../../arm-eabi/lib/thumb\libg.a(lib_a-wctob.o)
 .bss           0x02031ac0        0x0 c:/ndsdev/devkitpro/devkitarm/bin/../lib/gcc/arm-eabi/4.6.0/../../../../arm-eabi/lib/thumb\libg.a(lib_a-wctomb_r.o)
 .bss           0x02031ac0        0x0 c:/ndsdev/devkitpro/devkitarm/bin/../lib/gcc/arm-eabi/4.6.0/../../../../arm-eabi/lib/thumb\libg.a(lib_a-wsetup.o)
 .bss           0x02031ac0        0x0 c:/ndsdev/devkitpro/devkitarm/bin/../lib/gcc/arm-eabi/4.6.0/../../../../arm-eabi/lib/thumb\libg.a(lib_a-ctype_.o)
 .bss           0x02031ac0        0x0 c:/ndsdev/devkitpro/devkitarm/bin/../lib/gcc/arm-eabi/4.6.0/../../../../arm-eabi/lib/thumb\libg.a(lib_a-div.o)
 .bss           0x02031ac0        0x0 c:/ndsdev/devkitpro/devkitarm/bin/../lib/gcc/arm-eabi/4.6.0/../../../../arm-eabi/lib/thumb\libg.a(lib_a-dtoa.o)
 .bss           0x02031ac0        0x0 c:/ndsdev/devkitpro/devkitarm/bin/../lib/gcc/arm-eabi/4.6.0/../../../../arm-eabi/lib/thumb\libg.a(lib_a-flags.o)
 .bss           0x02031ac0        0x0 c:/ndsdev/devkitpro/devkitarm/bin/../lib/gcc/arm-eabi/4.6.0/../../../../arm-eabi/lib/thumb\libg.a(lib_a-fputwc.o)
 .bss           0x02031ac0        0x0 c:/ndsdev/devkitpro/devkitarm/bin/../lib/gcc/arm-eabi/4.6.0/../../../../arm-eabi/lib/thumb\libg.a(lib_a-fvwrite.o)
 .bss           0x02031ac0        0x0 c:/ndsdev/devkitpro/devkitarm/bin/../lib/gcc/arm-eabi/4.6.0/../../../../arm-eabi/lib/thumb\libg.a(lib_a-getenv_r.o)
 .bss           0x02031ac0        0x0 c:/ndsdev/devkitpro/devkitarm/bin/../lib/gcc/arm-eabi/4.6.0/../../../../arm-eabi/lib/thumb\libg.a(lib_a-gettzinfo.o)
 .bss           0x02031ac0        0x0 c:/ndsdev/devkitpro/devkitarm/bin/../lib/gcc/arm-eabi/4.6.0/../../../../arm-eabi/lib/thumb\libg.a(lib_a-iswspace.o)
 .bss           0x02031ac0        0x0 c:/ndsdev/devkitpro/devkitarm/bin/../lib/gcc/arm-eabi/4.6.0/../../../../arm-eabi/lib/thumb\libg.a(lib_a-jp2uc.o)
 .bss           0x02031ac0        0x0 c:/ndsdev/devkitpro/devkitarm/bin/../lib/gcc/arm-eabi/4.6.0/../../../../arm-eabi/lib/thumb\libg.a(lib_a-mbsnrtowcs.o)
 .bss           0x02031ac0        0x0 c:/ndsdev/devkitpro/devkitarm/bin/../lib/gcc/arm-eabi/4.6.0/../../../../arm-eabi/lib/thumb\libg.a(lib_a-mprec.o)
 .bss           0x02031ac0        0x0 c:/ndsdev/devkitpro/devkitarm/bin/../lib/gcc/arm-eabi/4.6.0/../../../../arm-eabi/lib/thumb\libg.a(lib_a-reallocr.o)
 .bss           0x02031ac0        0x0 c:/ndsdev/devkitpro/devkitarm/bin/../lib/gcc/arm-eabi/4.6.0/../../../../arm-eabi/lib/thumb\libg.a(lib_a-s_fpclassify.o)
 .bss           0x02031ac0        0x0 c:/ndsdev/devkitpro/devkitarm/bin/../lib/gcc/arm-eabi/4.6.0/../../../../arm-eabi/lib/thumb\libg.a(lib_a-sccl.o)
 .bss           0x02031ac0        0x0 c:/ndsdev/devkitpro/devkitarm/bin/../lib/gcc/arm-eabi/4.6.0/../../../../arm-eabi/lib/thumb\libg.a(lib_a-sf_nan.o)
 .bss           0x02031ac0        0x0 c:/ndsdev/devkitpro/devkitarm/bin/../lib/gcc/arm-eabi/4.6.0/../../../../arm-eabi/lib/thumb\libg.a(lib_a-strtod.o)
 .bss           0x02031ac0        0x0 c:/ndsdev/devkitpro/devkitarm/bin/../lib/gcc/arm-eabi/4.6.0/../../../../arm-eabi/lib/thumb\libg.a(lib_a-strtoll_r.o)
 .bss           0x02031ac0        0x0 c:/ndsdev/devkitpro/devkitarm/bin/../lib/gcc/arm-eabi/4.6.0/../../../../arm-eabi/lib/thumb\libg.a(lib_a-strtoul.o)
 .bss           0x02031ac0        0x0 c:/ndsdev/devkitpro/devkitarm/bin/../lib/gcc/arm-eabi/4.6.0/../../../../arm-eabi/lib/thumb\libg.a(lib_a-strtoull_r.o)
 .bss           0x02031ac0        0x0 c:/ndsdev/devkitpro/devkitarm/bin/../lib/gcc/arm-eabi/4.6.0/../../../../arm-eabi/lib/thumb\libg.a(lib_a-svfiprintf.o)
 .bss           0x02031ac0        0x0 c:/ndsdev/devkitpro/devkitarm/bin/../lib/gcc/arm-eabi/4.6.0/../../../../arm-eabi/lib/thumb\libg.a(lib_a-wbuf.o)
 .bss           0x02031ac0        0x0 c:/ndsdev/devkitpro/devkitarm/bin/../lib/gcc/arm-eabi/4.6.0/../../../../arm-eabi/lib/thumb\libg.a(lib_a-wcsnrtombs.o)
 .bss           0x02031ac0        0x0 c:/ndsdev/devkitpro/devkitarm/bin/../lib/gcc/arm-eabi/4.6.0/../../../../arm-eabi/lib/thumb\libg.a(lib_a-callocr.o)
 .bss           0x02031ac0        0x4 c:/ndsdev/devkitpro/devkitarm/bin/../lib/gcc/arm-eabi/4.6.0/../../../../arm-eabi/lib/thumb\libg.a(lib_a-environ.o)
 .bss           0x02031ac4        0x0 c:/ndsdev/devkitpro/devkitarm/bin/../lib/gcc/arm-eabi/4.6.0/../../../../arm-eabi/lib/thumb\libg.a(lib_a-envlock.o)
 .bss           0x02031ac4        0x0 c:/ndsdev/devkitpro/devkitarm/bin/../lib/gcc/arm-eabi/4.6.0/../../../../arm-eabi/lib/thumb\libg.a(lib_a-gdtoa-gethex.o)
 .bss           0x02031ac4        0x0 c:/ndsdev/devkitpro/devkitarm/bin/../lib/gcc/arm-eabi/4.6.0/../../../../arm-eabi/lib/thumb\libg.a(lib_a-gdtoa-hexnan.o)
 .bss           0x02031ac4        0x0 c:/ndsdev/devkitpro/devkitarm/bin/../lib/gcc/arm-eabi/4.6.0/../../../../arm-eabi/lib/thumb\libsysbase.a(iosupport.o)
 .bss           0x02031ac4        0x0 c:/ndsdev/devkitpro/devkitarm/bin/../lib/gcc/arm-eabi/4.6.0/../../../../arm-eabi/lib/thumb\libsysbase.a(close.o)
 .bss           0x02031ac4        0x0 c:/ndsdev/devkitpro/devkitarm/bin/../lib/gcc/arm-eabi/4.6.0/../../../../arm-eabi/lib/thumb\libsysbase.a(fstat.o)
 .bss           0x02031ac4        0x0 c:/ndsdev/devkitpro/devkitarm/bin/../lib/gcc/arm-eabi/4.6.0/../../../../arm-eabi/lib/thumb\libsysbase.a(isatty.o)
 .bss           0x02031ac4        0x0 c:/ndsdev/devkitpro/devkitarm/bin/../lib/gcc/arm-eabi/4.6.0/../../../../arm-eabi/lib/thumb\libsysbase.a(lseek.o)
 .bss           0x02031ac4        0x0 c:/ndsdev/devkitpro/devkitarm/bin/../lib/gcc/arm-eabi/4.6.0/../../../../arm-eabi/lib/thumb\libsysbase.a(open.o)
 .bss           0x02031ac4        0x0 c:/ndsdev/devkitpro/devkitarm/bin/../lib/gcc/arm-eabi/4.6.0/../../../../arm-eabi/lib/thumb\libsysbase.a(read.o)
 .bss           0x02031ac4        0x4 c:/ndsdev/devkitpro/devkitarm/bin/../lib/gcc/arm-eabi/4.6.0/../../../../arm-eabi/lib/thumb\libsysbase.a(sbrk.o)
 .bss           0x02031ac8        0x0 c:/ndsdev/devkitpro/devkitarm/bin/../lib/gcc/arm-eabi/4.6.0/../../../../arm-eabi/lib/thumb\libsysbase.a(times.o)
 .bss           0x02031ac8        0x0 c:/ndsdev/devkitpro/devkitarm/bin/../lib/gcc/arm-eabi/4.6.0/../../../../arm-eabi/lib/thumb\libsysbase.a(write.o)
 .bss           0x02031ac8        0x8 c:/ndsdev/devkitpro/devkitarm/bin/../lib/gcc/arm-eabi/4.6.0/../../../../arm-eabi/lib/thumb\libsysbase.a(malloc_vars.o)
                0x02031ac8                fake_heap_start
                0x02031acc                fake_heap_end
 .bss           0x02031ad0        0x0 c:/ndsdev/devkitpro/devkitarm/bin/../lib/gcc/arm-eabi/4.6.0/../../../../arm-eabi/lib/thumb\libsysbase.a(chdir.o)
 .bss           0x02031ad0        0x0 c:/ndsdev/devkitpro/devkitarm/bin/../lib/gcc/arm-eabi/4.6.0/../../../../arm-eabi/lib/thumb\libsysbase.a(build_argv.o)
 .bss           0x02031ad0        0x8 c:/ndsdev/devkitpro/devkitarm/bin/../lib/gcc/arm-eabi/4.6.0/../../../../arm-eabi/lib/thumb\libsysbase.a(syscall_support.o)
                0x02031ad0                __syscalls
 .bss           0x02031ad8     0x1000 c:/ndsdev/devkitpro/devkitarm/bin/../lib/gcc/arm-eabi/4.6.0/../../../../arm-eabi/lib/thumb\libsysbase.a(handle_manager.o)
 .bss           0x02032ad8        0x0 c:/ndsdev/devkitpro/devkitarm/bin/../lib/gcc/arm-eabi/4.6.0/thumb\libgcc.a(_arm_addsubdf3.o)
 .bss           0x02032ad8        0x0 c:/ndsdev/devkitpro/devkitarm/bin/../lib/gcc/arm-eabi/4.6.0/thumb\libgcc.a(_arm_muldivdf3.o)
 .bss           0x02032ad8        0x0 c:/ndsdev/devkitpro/devkitarm/bin/../lib/gcc/arm-eabi/4.6.0/thumb\libgcc.a(_arm_cmpdf2.o)
 .bss           0x02032ad8        0x0 c:/ndsdev/devkitpro/devkitarm/bin/../lib/gcc/arm-eabi/4.6.0/thumb\libgcc.a(_arm_fixdfsi.o)
 .bss           0x02032ad8        0x0 c:/ndsdev/devkitpro/devkitarm/bin/../lib/gcc/arm-eabi/4.6.0/thumb\libgcc.a(_arm_fixunsdfsi.o)
 .bss           0x02032ad8        0x0 c:/ndsdev/devkitpro/devkitarm/bin/../lib/gcc/arm-eabi/4.6.0/thumb\libgcc.a(_arm_truncdfsf2.o)
 .bss           0x02032ad8        0x0 c:/ndsdev/devkitpro/devkitarm/bin/../lib/gcc/arm-eabi/4.6.0/thumb\libgcc.a(_aeabi_uldivmod.o)
 .bss           0x02032ad8        0x0 c:/ndsdev/devkitpro/devkitarm/bin/../lib/gcc/arm-eabi/4.6.0/thumb\libgcc.a(_muldi3.o)
 .bss           0x02032ad8        0x0 c:/ndsdev/devkitpro/devkitarm/bin/../lib/gcc/arm-eabi/4.6.0/thumb\libgcc.a(bpabi.o)
 .bss           0x02032ad8        0x0 c:/ndsdev/devkitpro/devkitarm/bin/../lib/gcc/arm-eabi/4.6.0/thumb\libgcc.a(unwind-arm.o)
 .bss           0x02032ad8        0x0 c:/ndsdev/devkitpro/devkitarm/bin/../lib/gcc/arm-eabi/4.6.0/thumb\libgcc.a(libunwind.o)
 .bss           0x02032ad8        0x0 c:/ndsdev/devkitpro/devkitarm/bin/../lib/gcc/arm-eabi/4.6.0/thumb\libgcc.a(pr-support.o)
 .bss           0x02032ad8        0x0 c:/ndsdev/devkitpro/devkitarm/bin/../lib/gcc/arm-eabi/4.6.0/thumb\libgcc.a(_divdi3.o)
 .bss           0x02032ad8        0x0 c:/ndsdev/devkitpro/devkitarm/bin/../lib/gcc/arm-eabi/4.6.0/thumb\libgcc.a(_udivdi3.o)
 .bss           0x02032ad8        0x0 c:/ndsdev/devkitpro/devkitarm/bin/../lib/gcc/arm-eabi/4.6.0/thumb\libgcc.a(_clzsi2.o)
 .bss           0x02032ad8        0x0 c:/ndsdev/devkitpro/devkitarm/bin/../lib/gcc/arm-eabi/4.6.0/../../../../arm-eabi/lib/thumb\libg.a(lib_a-abort.o)
 .bss           0x02032ad8        0x0 c:/ndsdev/devkitpro/devkitarm/bin/../lib/gcc/arm-eabi/4.6.0/../../../../arm-eabi/lib/thumb\libg.a(lib_a-signal.o)
 .bss           0x02032ad8        0x0 c:/ndsdev/devkitpro/devkitarm/bin/../lib/gcc/arm-eabi/4.6.0/../../../../arm-eabi/lib/thumb\libsysbase.a(getpid.o)
 .bss           0x02032ad8        0x0 c:/ndsdev/devkitpro/devkitarm/bin/../lib/gcc/arm-eabi/4.6.0/../../../../arm-eabi/lib/thumb\libsysbase.a(kill.o)
 .bss           0x02032ad8        0x0 c:/ndsdev/devkitpro/devkitarm/bin/../lib/gcc/arm-eabi/4.6.0/../../../../arm-eabi/lib/thumb\libsysbase.a(_exit.o)
 .bss           0x02032ad8        0x0 c:/ndsdev/devkitpro/devkitarm/bin/../lib/gcc/arm-eabi/4.6.0/thumb/crtend.o
 .bss           0x02032ad8        0x0 c:/ndsdev/devkitpro/devkitarm/bin/../lib/gcc/arm-eabi/4.6.0/thumb/crtn.o
 *(COMMON)
 COMMON         0x02032ad8   0x200058 download.o
                0x02032ad8                ap
                0x02032b30                XXX_BUF_
 COMMON         0x02232b30       0x48 main.o
                0x02232b30                CHANNELS
 COMMON         0x02232b78     0x5cb4 c:/ndsdev/devkitPro/libnds/lib\libdswifi9.a(sgIP_DNS.o)
                0x02232b78                dnsrecord_return
                0x0223309c                time_count
                0x022330a0                alias_list
                0x022330b4                querydata
                0x022332b4                responsedata
                0x022334b4                dnsrecords
                0x022386f4                ipaddr_ip
                0x022386f8                query_time_start
                0x022386fc                addr_list
                0x02238710                ipaddr_alias
                0x02238810                dns_sock
                0x02238814                last_id
                0x02238818                dnsrecord_hostent
 COMMON         0x0223882c       0x40 c:/ndsdev/devkitPro/libnds/lib\libdswifi9.a(sgIP_Hub.o)
                0x0223882c                ProtocolInterfaces
                0x02238834                NumHWInterfaces
                0x02238838                HWInterfaces
                0x02238868                NumProtocolInterfaces
 COMMON         0x0223886c      0x100 c:/ndsdev/devkitPro/libnds/lib\libdswifi9.a(sgIP_sockets.o)
                0x0223886c                socketlist
 COMMON         0x0223896c     0x9fac c:/ndsdev/devkitPro/libnds/lib\libdswifi9.a(wifi_arm9.o)
                0x0223896c                Wifi_Data_Struct
                0x022428b0                wifi_hw
                0x022428b4                wHeapsize
                0x022428b8                wHeapFirst
                0x022428bc                wifi_connect_point
                0x02242914                wHeapStart
 COMMON         0x02242918       0x10 c:/ndsdev/devkitPro/libnds/lib\libdswifi9.a(sgIP.o)
                0x02242918                count_100ms
                0x0224291c                count_1000ms
                0x02242920                sgIP_timems
                0x02242924                sgIP_errno
 COMMON         0x02242928      0x400 c:/ndsdev/devkitPro/libnds/lib\libdswifi9.a(sgIP_ARP.o)
                0x02242928                ArpRecords
 COMMON         0x02242d28       0x84 c:/ndsdev/devkitPro/libnds/lib\libdswifi9.a(sgIP_DHCP.o)
                0x02242d28                dhcp_rcvd_dns
                0x02242d34                dhcp_rcvd_snmask
                0x02242d38                dhcp_state
                0x02242d3c                dhcp_p
                0x02242d40                dhcp_optionptr
                0x02242d44                dhcp_int
                0x02242d48                dhcp_rcvd_ip
                0x02242d4c                dhcp_hostname
                0x02242d8c                dhcp_serverip
                0x02242d90                dhcp_tid
                0x02242d94                dhcp_requestDNS
                0x02242d98                dhcp_socket
                0x02242d9c                dhcp_timestart
                0x02242da0                dhcp_status
                0x02242da4                dhcp_rcvd_gateway
                0x02242da8                dhcp_timelastaction
 COMMON         0x02242dac        0x4 c:/ndsdev/devkitPro/libnds/lib\libdswifi9.a(sgIP_IP.o)
                0x02242dac                idnum_count
 COMMON         0x02242db0      0x810 c:/ndsdev/devkitPro/libnds/lib\libdswifi9.a(sgIP_TCP.o)
                0x02242db0                tcprecords
                0x02242db4                lasttime
                0x02242db8                port_counter
                0x02242dbc                numsynlist
                0x02242dc0                synlist
 COMMON         0x022435c0        0x8 c:/ndsdev/devkitPro/libnds/lib\libdswifi9.a(sgIP_UDP.o)
                0x022435c0                udpport_counter
                0x022435c4                udprecords
 COMMON         0x022435c8       0x5c c:/ndsdev/devkitPro/libnds/lib\libnds9.a(console.o)
                0x022435c8                currentCopy
 COMMON         0x02243624        0x1 c:/ndsdev/devkitPro/libnds/lib\libnds9.a(initSystem.o)
                0x02243624                __dsimode
 *fill*         0x02243625        0x3 00
 COMMON         0x02243628      0xa40 c:/ndsdev/devkitPro/libnds/lib\libnds9.a(fifosystem.o)
                0x02243628                fifo_datamsg_data
                0x02243668                fifo_buffer
                0x02243e68                fifo_value32_func
                0x02243ea8                fifo_address_func
                0x02243ee8                fifo_value32_data
                0x02243f28                fifo_value32_queue
                0x02243f68                fifo_data_queue
                0x02243fa8                fifo_address_data
                0x02243fe8                fifo_datamsg_func
                0x02244028                fifo_address_queue
 COMMON         0x02244068      0x148 c:/ndsdev/devkitPro/libnds/lib\libnds9.a(background.o)
                0x02244068                bgState
                0x022441a8                bgIsTextLut
 COMMON         0x022441b0      0x100 c:/ndsdev/devkitpro/devkitarm/bin/../lib/gcc/arm-eabi/4.6.0/../../../../arm-eabi/lib/thumb\libg.a(lib_a-gdtoa-gethex.o)
                0x022441b0                __hexdig
 COMMON         0x022442b0        0x4 c:/ndsdev/devkitpro/devkitarm/bin/../lib/gcc/arm-eabi/4.6.0/../../../../arm-eabi/lib/thumb\libsysbase.a(times.o)
                0x022442b0                punixTime
                0x022442b4                . = ALIGN (0x4)
                0x022442b4                __bss_end__ = ABSOLUTE (.)
                0x022442b4                __end__ = ABSOLUTE (.)

.stab
 *(.stab)

.stabstr
 *(.stabstr)

.stab.excl
 *(.stab.excl)

.stab.exclstr
 *(.stab.exclstr)

.stab.index
 *(.stab.index)

.stab.indexstr
 *(.stab.indexstr)

.ARM.attributes
                0x00000000       0x2d load address 0x02031570
 .ARM.attributes
                0x00000000       0x23 c:/ndsdev/devkitpro/devkitarm/bin/../lib/gcc/arm-eabi/4.6.0/../../../../arm-eabi/lib/thumb/ds_arm9_crt0.o
 .ARM.attributes
                0x00000023       0x24 c:/ndsdev/devkitpro/devkitarm/bin/../lib/gcc/arm-eabi/4.6.0/thumb/crti.o
 .ARM.attributes
                0x00000047       0x32 c:/ndsdev/devkitpro/devkitarm/bin/../lib/gcc/arm-eabi/4.6.0/thumb/crtbegin.o
 .ARM.attributes
                0x00000079       0x29 download.o
 .ARM.attributes
                0x000000a2       0x29 main.o
 .ARM.attributes
                0x000000cb       0x29 serial.o
 .ARM.attributes
                0x000000f4       0x29 usb.o
 .ARM.attributes
                0x0000011d       0x29 wifi.o
 .ARM.attributes
                0x00000146       0x23 jump.o
 .ARM.attributes
                0x00000169       0x27 c:/ndsdev/devkitPro/libnds/lib\libdswifi9.a(sgIP_DNS.o)
 .ARM.attributes
                0x00000190       0x27 c:/ndsdev/devkitPro/libnds/lib\libdswifi9.a(sgIP_Hub.o)
 .ARM.attributes
                0x000001b7       0x27 c:/ndsdev/devkitPro/libnds/lib\libdswifi9.a(sgIP_memblock.o)
 .ARM.attributes
                0x000001de       0x27 c:/ndsdev/devkitPro/libnds/lib\libdswifi9.a(sgIP_sockets.o)
 .ARM.attributes
                0x00000205       0x27 c:/ndsdev/devkitPro/libnds/lib\libdswifi9.a(wifi_arm9.o)
 .ARM.attributes
                0x0000022c       0x20 c:/ndsdev/devkitPro/libnds/lib\libdswifi9.a(spinlock.o)
 .ARM.attributes
                0x0000024c       0x27 c:/ndsdev/devkitPro/libnds/lib\libdswifi9.a(sgIP.o)
 .ARM.attributes
                0x00000273       0x27 c:/ndsdev/devkitPro/libnds/lib\libdswifi9.a(sgIP_ARP.o)
 .ARM.attributes
                0x0000029a       0x27 c:/ndsdev/devkitPro/libnds/lib\libdswifi9.a(sgIP_DHCP.o)
 .ARM.attributes
                0x000002c1       0x27 c:/ndsdev/devkitPro/libnds/lib\libdswifi9.a(sgIP_IP.o)
 .ARM.attributes
                0x000002e8       0x27 c:/ndsdev/devkitPro/libnds/lib\libdswifi9.a(sgIP_TCP.o)
 .ARM.attributes
                0x0000030f       0x27 c:/ndsdev/devkitPro/libnds/lib\libdswifi9.a(sgIP_UDP.o)
 .ARM.attributes
                0x00000336       0x27 c:/ndsdev/devkitPro/libnds/lib\libdswifi9.a(sgIP_ICMP.o)
 .ARM.attributes
                0x0000035d       0x27 c:/ndsdev/devkitPro/libnds/lib\libfat.a(libfat.o)
 .ARM.attributes
                0x00000384       0x27 c:/ndsdev/devkitPro/libnds/lib\libfat.a(partition.o)
 .ARM.attributes
                0x000003ab       0x27 c:/ndsdev/devkitPro/libnds/lib\libfat.a(cache.o)
 .ARM.attributes
                0x000003d2       0x27 c:/ndsdev/devkitPro/libnds/lib\libfat.a(directory.o)
 .ARM.attributes
                0x000003f9       0x27 c:/ndsdev/devkitPro/libnds/lib\libfat.a(disc.o)
 .ARM.attributes
                0x00000420       0x27 c:/ndsdev/devkitPro/libnds/lib\libfat.a(fatdir.o)
 .ARM.attributes
                0x00000447       0x27 c:/ndsdev/devkitPro/libnds/lib\libfat.a(fatfile.o)
 .ARM.attributes
                0x0000046e       0x27 c:/ndsdev/devkitPro/libnds/lib\libfat.a(file_allocation_table.o)
 .ARM.attributes
                0x00000495       0x27 c:/ndsdev/devkitPro/libnds/lib\libfat.a(filetime.o)
 .ARM.attributes
                0x000004bc       0x27 c:/ndsdev/devkitPro/libnds/lib\libfat.a(lock.o)
 .ARM.attributes
                0x000004e3       0x29 c:/ndsdev/devkitPro/libnds/lib\libnds9.a(console.o)
 .ARM.attributes
                0x0000050c       0x29 c:/ndsdev/devkitPro/libnds/lib\libnds9.a(dldi.o)
 .ARM.attributes
                0x00000535       0x29 c:/ndsdev/devkitPro/libnds/lib\libnds9.a(dsi_sd.o)
 .ARM.attributes
                0x0000055e       0x29 c:/ndsdev/devkitPro/libnds/lib\libnds9.a(initSystem.o)
 .ARM.attributes
                0x00000587       0x29 c:/ndsdev/devkitPro/libnds/lib\libnds9.a(fifosystem.o)
 .ARM.attributes
                0x000005b0       0x29 c:/ndsdev/devkitPro/libnds/lib\libnds9.a(interrupts.o)
 .ARM.attributes
                0x000005d9       0x29 c:/ndsdev/devkitPro/libnds/lib\libnds9.a(libnds_exit.o)
 .ARM.attributes
                0x00000602       0x1d c:/ndsdev/devkitPro/libnds/lib\libnds9.a(dcache.o)
 .ARM.attributes
                0x0000061f       0x1d c:/ndsdev/devkitPro/libnds/lib\libnds9.a(dldi_stub.o)
 .ARM.attributes
                0x0000063c       0x23 c:/ndsdev/devkitPro/libnds/lib\libnds9.a(mpu_setup.o)
 .ARM.attributes
                0x0000065f       0x1d c:/ndsdev/devkitPro/libnds/lib\libnds9.a(biosCalls.o)
 .ARM.attributes
                0x0000067c       0x1d c:/ndsdev/devkitPro/libnds/lib\libnds9.a(debugprint.o)
 .ARM.attributes
                0x00000699       0x1d c:/ndsdev/devkitPro/libnds/lib\libnds9.a(interruptDispatcher.o)
 .ARM.attributes
                0x000006b6       0x23 c:/ndsdev/devkitPro/libnds/lib\libnds9.a(swiSoftReset.o)
 .ARM.attributes
                0x000006d9       0x16 c:/ndsdev/devkitPro/libnds/lib\libnds9.a(default_font.bin.o)
 .ARM.attributes
                0x000006ef       0x29 c:/ndsdev/devkitPro/libnds/lib\libnds9.a(background.o)
 .ARM.attributes
                0x00000718       0x29 c:/ndsdev/devkitPro/libnds/lib\libnds9.a(system.o)
 .ARM.attributes
                0x00000741       0x29 c:/ndsdev/devkitPro/libnds/lib\libnds9.a(trig.o)
 .ARM.attributes
                0x0000076a       0x29 c:/ndsdev/devkitPro/libnds/lib\libnds9.a(video.o)
 .ARM.attributes
                0x00000793       0x24 c:/ndsdev/devkitpro/devkitarm/bin/../lib/gcc/arm-eabi/4.6.0/thumb\libgcc.a(_udivsi3.o)
 .ARM.attributes
                0x000007b7       0x24 c:/ndsdev/devkitpro/devkitarm/bin/../lib/gcc/arm-eabi/4.6.0/thumb\libgcc.a(_divsi3.o)
 .ARM.attributes
                0x000007db       0x24 c:/ndsdev/devkitpro/devkitarm/bin/../lib/gcc/arm-eabi/4.6.0/thumb\libgcc.a(_dvmd_tls.o)
 .ARM.attributes
                0x000007ff       0x32 c:/ndsdev/devkitpro/devkitarm/bin/../lib/gcc/arm-eabi/4.6.0/../../../../arm-eabi/lib/thumb\libg.a(lib_a-atoi.o)
 .ARM.attributes
                0x00000831       0x32 c:/ndsdev/devkitpro/devkitarm/bin/../lib/gcc/arm-eabi/4.6.0/../../../../arm-eabi/lib/thumb\libg.a(lib_a-bsearch.o)
 .ARM.attributes
                0x00000863       0x32 c:/ndsdev/devkitpro/devkitarm/bin/../lib/gcc/arm-eabi/4.6.0/../../../../arm-eabi/lib/thumb\libg.a(lib_a-errno.o)
 .ARM.attributes
                0x00000895       0x32 c:/ndsdev/devkitpro/devkitarm/bin/../lib/gcc/arm-eabi/4.6.0/../../../../arm-eabi/lib/thumb\libg.a(lib_a-fclose.o)
 .ARM.attributes
                0x000008c7       0x32 c:/ndsdev/devkitpro/devkitarm/bin/../lib/gcc/arm-eabi/4.6.0/../../../../arm-eabi/lib/thumb\libg.a(lib_a-fflush.o)
 .ARM.attributes
                0x000008f9       0x32 c:/ndsdev/devkitpro/devkitarm/bin/../lib/gcc/arm-eabi/4.6.0/../../../../arm-eabi/lib/thumb\libg.a(lib_a-fgets.o)
 .ARM.attributes
                0x0000092b       0x32 c:/ndsdev/devkitpro/devkitarm/bin/../lib/gcc/arm-eabi/4.6.0/../../../../arm-eabi/lib/thumb\libg.a(lib_a-findfp.o)
 .ARM.attributes
                0x0000095d       0x32 c:/ndsdev/devkitpro/devkitarm/bin/../lib/gcc/arm-eabi/4.6.0/../../../../arm-eabi/lib/thumb\libg.a(lib_a-fopen.o)
 .ARM.attributes
                0x0000098f       0x32 c:/ndsdev/devkitpro/devkitarm/bin/../lib/gcc/arm-eabi/4.6.0/../../../../arm-eabi/lib/thumb\libg.a(lib_a-freer.o)
 .ARM.attributes
                0x000009c1       0x32 c:/ndsdev/devkitpro/devkitarm/bin/../lib/gcc/arm-eabi/4.6.0/../../../../arm-eabi/lib/thumb\libg.a(lib_a-fseek.o)
 .ARM.attributes
                0x000009f3       0x32 c:/ndsdev/devkitpro/devkitarm/bin/../lib/gcc/arm-eabi/4.6.0/../../../../arm-eabi/lib/thumb\libg.a(lib_a-fwalk.o)
 .ARM.attributes
                0x00000a25       0x32 c:/ndsdev/devkitpro/devkitarm/bin/../lib/gcc/arm-eabi/4.6.0/../../../../arm-eabi/lib/thumb\libg.a(lib_a-fwrite.o)
 .ARM.attributes
                0x00000a57       0x32 c:/ndsdev/devkitpro/devkitarm/bin/../lib/gcc/arm-eabi/4.6.0/../../../../arm-eabi/lib/thumb\libg.a(lib_a-impure.o)
 .ARM.attributes
                0x00000a89       0x32 c:/ndsdev/devkitpro/devkitarm/bin/../lib/gcc/arm-eabi/4.6.0/../../../../arm-eabi/lib/thumb\libg.a(lib_a-init.o)
 .ARM.attributes
                0x00000abb       0x32 c:/ndsdev/devkitpro/devkitarm/bin/../lib/gcc/arm-eabi/4.6.0/../../../../arm-eabi/lib/thumb\libg.a(lib_a-iprintf.o)
 .ARM.attributes
                0x00000aed       0x32 c:/ndsdev/devkitpro/devkitarm/bin/../lib/gcc/arm-eabi/4.6.0/../../../../arm-eabi/lib/thumb\libg.a(lib_a-lcltime_r.o)
 .ARM.attributes
                0x00000b1f       0x32 c:/ndsdev/devkitpro/devkitarm/bin/../lib/gcc/arm-eabi/4.6.0/../../../../arm-eabi/lib/thumb\libg.a(lib_a-locale.o)
 .ARM.attributes
                0x00000b51       0x32 c:/ndsdev/devkitpro/devkitarm/bin/../lib/gcc/arm-eabi/4.6.0/../../../../arm-eabi/lib/thumb\libg.a(lib_a-makebuf.o)
 .ARM.attributes
                0x00000b83       0x32 c:/ndsdev/devkitpro/devkitarm/bin/../lib/gcc/arm-eabi/4.6.0/../../../../arm-eabi/lib/thumb\libg.a(lib_a-malloc.o)
 .ARM.attributes
                0x00000bb5       0x32 c:/ndsdev/devkitpro/devkitarm/bin/../lib/gcc/arm-eabi/4.6.0/../../../../arm-eabi/lib/thumb\libg.a(lib_a-mallocr.o)
 .ARM.attributes
                0x00000be7       0x32 c:/ndsdev/devkitpro/devkitarm/bin/../lib/gcc/arm-eabi/4.6.0/../../../../arm-eabi/lib/thumb\libg.a(lib_a-mbrtowc.o)
 .ARM.attributes
                0x00000c19       0x32 c:/ndsdev/devkitpro/devkitarm/bin/../lib/gcc/arm-eabi/4.6.0/../../../../arm-eabi/lib/thumb\libg.a(lib_a-mbsrtowcs.o)
 .ARM.attributes
                0x00000c4b       0x32 c:/ndsdev/devkitpro/devkitarm/bin/../lib/gcc/arm-eabi/4.6.0/../../../../arm-eabi/lib/thumb\libg.a(lib_a-mbtowc_r.o)
 .ARM.attributes
                0x00000c7d       0x32 c:/ndsdev/devkitpro/devkitarm/bin/../lib/gcc/arm-eabi/4.6.0/../../../../arm-eabi/lib/thumb\libg.a(lib_a-memchr.o)
 .ARM.attributes
                0x00000caf       0x32 c:/ndsdev/devkitpro/devkitarm/bin/../lib/gcc/arm-eabi/4.6.0/../../../../arm-eabi/lib/thumb\libg.a(lib_a-memcmp.o)
 .ARM.attributes
                0x00000ce1       0x32 c:/ndsdev/devkitpro/devkitarm/bin/../lib/gcc/arm-eabi/4.6.0/../../../../arm-eabi/lib/thumb\libg.a(lib_a-memcpy.o)
 .ARM.attributes
                0x00000d13       0x32 c:/ndsdev/devkitpro/devkitarm/bin/../lib/gcc/arm-eabi/4.6.0/../../../../arm-eabi/lib/thumb\libg.a(lib_a-memmove.o)
 .ARM.attributes
                0x00000d45       0x32 c:/ndsdev/devkitpro/devkitarm/bin/../lib/gcc/arm-eabi/4.6.0/../../../../arm-eabi/lib/thumb\libg.a(lib_a-memset.o)
 .ARM.attributes
                0x00000d77       0x32 c:/ndsdev/devkitpro/devkitarm/bin/../lib/gcc/arm-eabi/4.6.0/../../../../arm-eabi/lib/thumb\libg.a(lib_a-mktime.o)
 .ARM.attributes
                0x00000da9       0x32 c:/ndsdev/devkitpro/devkitarm/bin/../lib/gcc/arm-eabi/4.6.0/../../../../arm-eabi/lib/thumb\libg.a(lib_a-mktm_r.o)
 .ARM.attributes
                0x00000ddb       0x32 c:/ndsdev/devkitpro/devkitarm/bin/../lib/gcc/arm-eabi/4.6.0/../../../../arm-eabi/lib/thumb\libg.a(lib_a-mlock.o)
 .ARM.attributes
                0x00000e0d       0x32 c:/ndsdev/devkitpro/devkitarm/bin/../lib/gcc/arm-eabi/4.6.0/../../../../arm-eabi/lib/thumb\libg.a(lib_a-printf.o)
 .ARM.attributes
                0x00000e3f       0x32 c:/ndsdev/devkitpro/devkitarm/bin/../lib/gcc/arm-eabi/4.6.0/../../../../arm-eabi/lib/thumb\libg.a(lib_a-refill.o)
 .ARM.attributes
                0x00000e71       0x32 c:/ndsdev/devkitpro/devkitarm/bin/../lib/gcc/arm-eabi/4.6.0/../../../../arm-eabi/lib/thumb\libg.a(lib_a-setvbuf.o)
 .ARM.attributes
                0x00000ea3       0x32 c:/ndsdev/devkitpro/devkitarm/bin/../lib/gcc/arm-eabi/4.6.0/../../../../arm-eabi/lib/thumb\libg.a(lib_a-siscanf.o)
 .ARM.attributes
                0x00000ed5       0x32 c:/ndsdev/devkitpro/devkitarm/bin/../lib/gcc/arm-eabi/4.6.0/../../../../arm-eabi/lib/thumb\libg.a(lib_a-sprintf.o)
 .ARM.attributes
                0x00000f07       0x32 c:/ndsdev/devkitpro/devkitarm/bin/../lib/gcc/arm-eabi/4.6.0/../../../../arm-eabi/lib/thumb\libg.a(lib_a-sscanf.o)
 .ARM.attributes
                0x00000f39       0x32 c:/ndsdev/devkitpro/devkitarm/bin/../lib/gcc/arm-eabi/4.6.0/../../../../arm-eabi/lib/thumb\libg.a(lib_a-stdio.o)
 .ARM.attributes
                0x00000f6b       0x32 c:/ndsdev/devkitpro/devkitarm/bin/../lib/gcc/arm-eabi/4.6.0/../../../../arm-eabi/lib/thumb\libg.a(lib_a-strcasecmp.o)
 .ARM.attributes
                0x00000f9d       0x32 c:/ndsdev/devkitpro/devkitarm/bin/../lib/gcc/arm-eabi/4.6.0/../../../../arm-eabi/lib/thumb\libg.a(lib_a-strcat.o)
 .ARM.attributes
                0x00000fcf       0x32 c:/ndsdev/devkitpro/devkitarm/bin/../lib/gcc/arm-eabi/4.6.0/../../../../arm-eabi/lib/thumb\libg.a(lib_a-strchr.o)
 .ARM.attributes
                0x00001001       0x32 c:/ndsdev/devkitpro/devkitarm/bin/../lib/gcc/arm-eabi/4.6.0/../../../../arm-eabi/lib/thumb\libg.a(lib_a-strcmp.o)
 .ARM.attributes
                0x00001033       0x32 c:/ndsdev/devkitpro/devkitarm/bin/../lib/gcc/arm-eabi/4.6.0/../../../../arm-eabi/lib/thumb\libg.a(lib_a-strcpy.o)
 .ARM.attributes
                0x00001065       0x32 c:/ndsdev/devkitpro/devkitarm/bin/../lib/gcc/arm-eabi/4.6.0/../../../../arm-eabi/lib/thumb\libg.a(lib_a-strlcpy.o)
 .ARM.attributes
                0x00001097       0x32 c:/ndsdev/devkitpro/devkitarm/bin/../lib/gcc/arm-eabi/4.6.0/../../../../arm-eabi/lib/thumb\libg.a(lib_a-strlen.o)
 .ARM.attributes
                0x000010c9       0x32 c:/ndsdev/devkitpro/devkitarm/bin/../lib/gcc/arm-eabi/4.6.0/../../../../arm-eabi/lib/thumb\libg.a(lib_a-strncasecmp.o)
 .ARM.attributes
                0x000010fb       0x32 c:/ndsdev/devkitpro/devkitarm/bin/../lib/gcc/arm-eabi/4.6.0/../../../../arm-eabi/lib/thumb\libg.a(lib_a-strncmp.o)
 .ARM.attributes
                0x0000112d       0x32 c:/ndsdev/devkitpro/devkitarm/bin/../lib/gcc/arm-eabi/4.6.0/../../../../arm-eabi/lib/thumb\libg.a(lib_a-strncpy.o)
 .ARM.attributes
                0x0000115f       0x32 c:/ndsdev/devkitpro/devkitarm/bin/../lib/gcc/arm-eabi/4.6.0/../../../../arm-eabi/lib/thumb\libg.a(lib_a-strnlen.o)
 .ARM.attributes
                0x00001191       0x32 c:/ndsdev/devkitpro/devkitarm/bin/../lib/gcc/arm-eabi/4.6.0/../../../../arm-eabi/lib/thumb\libg.a(lib_a-strpbrk.o)
 .ARM.attributes
                0x000011c3       0x32 c:/ndsdev/devkitpro/devkitarm/bin/../lib/gcc/arm-eabi/4.6.0/../../../../arm-eabi/lib/thumb\libg.a(lib_a-strrchr.o)
 .ARM.attributes
                0x000011f5       0x32 c:/ndsdev/devkitpro/devkitarm/bin/../lib/gcc/arm-eabi/4.6.0/../../../../arm-eabi/lib/thumb\libg.a(lib_a-strtol.o)
 .ARM.attributes
                0x00001227       0x32 c:/ndsdev/devkitpro/devkitarm/bin/../lib/gcc/arm-eabi/4.6.0/../../../../arm-eabi/lib/thumb\libg.a(lib_a-svfiscanf.o)
 .ARM.attributes
                0x00001259       0x32 c:/ndsdev/devkitpro/devkitarm/bin/../lib/gcc/arm-eabi/4.6.0/../../../../arm-eabi/lib/thumb\libg.a(lib_a-svfprintf.o)
 .ARM.attributes
                0x0000128b       0x32 c:/ndsdev/devkitpro/devkitarm/bin/../lib/gcc/arm-eabi/4.6.0/../../../../arm-eabi/lib/thumb\libg.a(lib_a-svfscanf.o)
 .ARM.attributes
                0x000012bd       0x32 c:/ndsdev/devkitpro/devkitarm/bin/../lib/gcc/arm-eabi/4.6.0/../../../../arm-eabi/lib/thumb\libg.a(lib_a-sysclose.o)
 .ARM.attributes
                0x000012ef       0x32 c:/ndsdev/devkitpro/devkitarm/bin/../lib/gcc/arm-eabi/4.6.0/../../../../arm-eabi/lib/thumb\libg.a(lib_a-syslseek.o)
 .ARM.attributes
                0x00001321       0x32 c:/ndsdev/devkitpro/devkitarm/bin/../lib/gcc/arm-eabi/4.6.0/../../../../arm-eabi/lib/thumb\libg.a(lib_a-sysopen.o)
 .ARM.attributes
                0x00001353       0x32 c:/ndsdev/devkitpro/devkitarm/bin/../lib/gcc/arm-eabi/4.6.0/../../../../arm-eabi/lib/thumb\libg.a(lib_a-sysread.o)
 .ARM.attributes
                0x00001385       0x32 c:/ndsdev/devkitpro/devkitarm/bin/../lib/gcc/arm-eabi/4.6.0/../../../../arm-eabi/lib/thumb\libg.a(lib_a-time.o)
 .ARM.attributes
                0x000013b7       0x32 c:/ndsdev/devkitpro/devkitarm/bin/../lib/gcc/arm-eabi/4.6.0/../../../../arm-eabi/lib/thumb\libg.a(lib_a-towlower.o)
 .ARM.attributes
                0x000013e9       0x32 c:/ndsdev/devkitpro/devkitarm/bin/../lib/gcc/arm-eabi/4.6.0/../../../../arm-eabi/lib/thumb\libg.a(lib_a-towupper.o)
 .ARM.attributes
                0x0000141b       0x32 c:/ndsdev/devkitpro/devkitarm/bin/../lib/gcc/arm-eabi/4.6.0/../../../../arm-eabi/lib/thumb\libg.a(lib_a-tzlock.o)
 .ARM.attributes
                0x0000144d       0x32 c:/ndsdev/devkitpro/devkitarm/bin/../lib/gcc/arm-eabi/4.6.0/../../../../arm-eabi/lib/thumb\libg.a(lib_a-tzvars.o)
 .ARM.attributes
                0x0000147f       0x32 c:/ndsdev/devkitpro/devkitarm/bin/../lib/gcc/arm-eabi/4.6.0/../../../../arm-eabi/lib/thumb\libg.a(lib_a-ungetc.o)
 .ARM.attributes
                0x000014b1       0x32 c:/ndsdev/devkitpro/devkitarm/bin/../lib/gcc/arm-eabi/4.6.0/../../../../arm-eabi/lib/thumb\libg.a(lib_a-vfiprintf.o)
 .ARM.attributes
                0x000014e3       0x32 c:/ndsdev/devkitpro/devkitarm/bin/../lib/gcc/arm-eabi/4.6.0/../../../../arm-eabi/lib/thumb\libg.a(lib_a-vfprintf.o)
 .ARM.attributes
                0x00001515       0x32 c:/ndsdev/devkitpro/devkitarm/bin/../lib/gcc/arm-eabi/4.6.0/../../../../arm-eabi/lib/thumb\libg.a(lib_a-wcrtomb.o)
 .ARM.attributes
                0x00001547       0x32 c:/ndsdev/devkitpro/devkitarm/bin/../lib/gcc/arm-eabi/4.6.0/../../../../arm-eabi/lib/thumb\libg.a(lib_a-wcsrtombs.o)
 .ARM.attributes
                0x00001579       0x32 c:/ndsdev/devkitpro/devkitarm/bin/../lib/gcc/arm-eabi/4.6.0/../../../../arm-eabi/lib/thumb\libg.a(lib_a-wctob.o)
 .ARM.attributes
                0x000015ab       0x32 c:/ndsdev/devkitpro/devkitarm/bin/../lib/gcc/arm-eabi/4.6.0/../../../../arm-eabi/lib/thumb\libg.a(lib_a-wctomb_r.o)
 .ARM.attributes
                0x000015dd       0x32 c:/ndsdev/devkitpro/devkitarm/bin/../lib/gcc/arm-eabi/4.6.0/../../../../arm-eabi/lib/thumb\libg.a(lib_a-wsetup.o)
 .ARM.attributes
                0x0000160f       0x32 c:/ndsdev/devkitpro/devkitarm/bin/../lib/gcc/arm-eabi/4.6.0/../../../../arm-eabi/lib/thumb\libg.a(lib_a-ctype_.o)
 .ARM.attributes
                0x00001641       0x32 c:/ndsdev/devkitpro/devkitarm/bin/../lib/gcc/arm-eabi/4.6.0/../../../../arm-eabi/lib/thumb\libg.a(lib_a-div.o)
 .ARM.attributes
                0x00001673       0x32 c:/ndsdev/devkitpro/devkitarm/bin/../lib/gcc/arm-eabi/4.6.0/../../../../arm-eabi/lib/thumb\libg.a(lib_a-dtoa.o)
 .ARM.attributes
                0x000016a5       0x32 c:/ndsdev/devkitpro/devkitarm/bin/../lib/gcc/arm-eabi/4.6.0/../../../../arm-eabi/lib/thumb\libg.a(lib_a-flags.o)
 .ARM.attributes
                0x000016d7       0x32 c:/ndsdev/devkitpro/devkitarm/bin/../lib/gcc/arm-eabi/4.6.0/../../../../arm-eabi/lib/thumb\libg.a(lib_a-fputwc.o)
 .ARM.attributes
                0x00001709       0x32 c:/ndsdev/devkitpro/devkitarm/bin/../lib/gcc/arm-eabi/4.6.0/../../../../arm-eabi/lib/thumb\libg.a(lib_a-fvwrite.o)
 .ARM.attributes
                0x0000173b       0x32 c:/ndsdev/devkitpro/devkitarm/bin/../lib/gcc/arm-eabi/4.6.0/../../../../arm-eabi/lib/thumb\libg.a(lib_a-getenv_r.o)
 .ARM.attributes
                0x0000176d       0x32 c:/ndsdev/devkitpro/devkitarm/bin/../lib/gcc/arm-eabi/4.6.0/../../../../arm-eabi/lib/thumb\libg.a(lib_a-gettzinfo.o)
 .ARM.attributes
                0x0000179f       0x32 c:/ndsdev/devkitpro/devkitarm/bin/../lib/gcc/arm-eabi/4.6.0/../../../../arm-eabi/lib/thumb\libg.a(lib_a-iswspace.o)
 .ARM.attributes
                0x000017d1       0x32 c:/ndsdev/devkitpro/devkitarm/bin/../lib/gcc/arm-eabi/4.6.0/../../../../arm-eabi/lib/thumb\libg.a(lib_a-jp2uc.o)
 .ARM.attributes
                0x00001803       0x32 c:/ndsdev/devkitpro/devkitarm/bin/../lib/gcc/arm-eabi/4.6.0/../../../../arm-eabi/lib/thumb\libg.a(lib_a-mbsnrtowcs.o)
 .ARM.attributes
                0x00001835       0x32 c:/ndsdev/devkitpro/devkitarm/bin/../lib/gcc/arm-eabi/4.6.0/../../../../arm-eabi/lib/thumb\libg.a(lib_a-mprec.o)
 .ARM.attributes
                0x00001867       0x32 c:/ndsdev/devkitpro/devkitarm/bin/../lib/gcc/arm-eabi/4.6.0/../../../../arm-eabi/lib/thumb\libg.a(lib_a-reallocr.o)
 .ARM.attributes
                0x00001899       0x32 c:/ndsdev/devkitpro/devkitarm/bin/../lib/gcc/arm-eabi/4.6.0/../../../../arm-eabi/lib/thumb\libg.a(lib_a-s_fpclassify.o)
 .ARM.attributes
                0x000018cb       0x32 c:/ndsdev/devkitpro/devkitarm/bin/../lib/gcc/arm-eabi/4.6.0/../../../../arm-eabi/lib/thumb\libg.a(lib_a-sccl.o)
 .ARM.attributes
                0x000018fd       0x32 c:/ndsdev/devkitpro/devkitarm/bin/../lib/gcc/arm-eabi/4.6.0/../../../../arm-eabi/lib/thumb\libg.a(lib_a-sf_nan.o)
 .ARM.attributes
                0x0000192f       0x32 c:/ndsdev/devkitpro/devkitarm/bin/../lib/gcc/arm-eabi/4.6.0/../../../../arm-eabi/lib/thumb\libg.a(lib_a-strtod.o)
 .ARM.attributes
                0x00001961       0x32 c:/ndsdev/devkitpro/devkitarm/bin/../lib/gcc/arm-eabi/4.6.0/../../../../arm-eabi/lib/thumb\libg.a(lib_a-strtoll_r.o)
 .ARM.attributes
                0x00001993       0x32 c:/ndsdev/devkitpro/devkitarm/bin/../lib/gcc/arm-eabi/4.6.0/../../../../arm-eabi/lib/thumb\libg.a(lib_a-strtoul.o)
 .ARM.attributes
                0x000019c5       0x32 c:/ndsdev/devkitpro/devkitarm/bin/../lib/gcc/arm-eabi/4.6.0/../../../../arm-eabi/lib/thumb\libg.a(lib_a-strtoull_r.o)
 .ARM.attributes
                0x000019f7       0x32 c:/ndsdev/devkitpro/devkitarm/bin/../lib/gcc/arm-eabi/4.6.0/../../../../arm-eabi/lib/thumb\libg.a(lib_a-svfiprintf.o)
 .ARM.attributes
                0x00001a29       0x32 c:/ndsdev/devkitpro/devkitarm/bin/../lib/gcc/arm-eabi/4.6.0/../../../../arm-eabi/lib/thumb\libg.a(lib_a-wbuf.o)
 .ARM.attributes
                0x00001a5b       0x32 c:/ndsdev/devkitpro/devkitarm/bin/../lib/gcc/arm-eabi/4.6.0/../../../../arm-eabi/lib/thumb\libg.a(lib_a-wcsnrtombs.o)
 .ARM.attributes
                0x00001a8d       0x32 c:/ndsdev/devkitpro/devkitarm/bin/../lib/gcc/arm-eabi/4.6.0/../../../../arm-eabi/lib/thumb\libg.a(lib_a-callocr.o)
 .ARM.attributes
                0x00001abf       0x32 c:/ndsdev/devkitpro/devkitarm/bin/../lib/gcc/arm-eabi/4.6.0/../../../../arm-eabi/lib/thumb\libg.a(lib_a-environ.o)
 .ARM.attributes
                0x00001af1       0x32 c:/ndsdev/devkitpro/devkitarm/bin/../lib/gcc/arm-eabi/4.6.0/../../../../arm-eabi/lib/thumb\libg.a(lib_a-envlock.o)
 .ARM.attributes
                0x00001b23       0x32 c:/ndsdev/devkitpro/devkitarm/bin/../lib/gcc/arm-eabi/4.6.0/../../../../arm-eabi/lib/thumb\libg.a(lib_a-gdtoa-gethex.o)
 .ARM.attributes
                0x00001b55       0x32 c:/ndsdev/devkitpro/devkitarm/bin/../lib/gcc/arm-eabi/4.6.0/../../../../arm-eabi/lib/thumb\libg.a(lib_a-gdtoa-hexnan.o)
 .ARM.attributes
                0x00001b87       0x32 c:/ndsdev/devkitpro/devkitarm/bin/../lib/gcc/arm-eabi/4.6.0/../../../../arm-eabi/lib/thumb\libsysbase.a(iosupport.o)
 .ARM.attributes
                0x00001bb9       0x32 c:/ndsdev/devkitpro/devkitarm/bin/../lib/gcc/arm-eabi/4.6.0/../../../../arm-eabi/lib/thumb\libsysbase.a(close.o)
 .ARM.attributes
                0x00001beb       0x32 c:/ndsdev/devkitpro/devkitarm/bin/../lib/gcc/arm-eabi/4.6.0/../../../../arm-eabi/lib/thumb\libsysbase.a(fstat.o)
 .ARM.attributes
                0x00001c1d       0x32 c:/ndsdev/devkitpro/devkitarm/bin/../lib/gcc/arm-eabi/4.6.0/../../../../arm-eabi/lib/thumb\libsysbase.a(isatty.o)
 .ARM.attributes
                0x00001c4f       0x32 c:/ndsdev/devkitpro/devkitarm/bin/../lib/gcc/arm-eabi/4.6.0/../../../../arm-eabi/lib/thumb\libsysbase.a(lseek.o)
 .ARM.attributes
                0x00001c81       0x32 c:/ndsdev/devkitpro/devkitarm/bin/../lib/gcc/arm-eabi/4.6.0/../../../../arm-eabi/lib/thumb\libsysbase.a(open.o)
 .ARM.attributes
                0x00001cb3       0x32 c:/ndsdev/devkitpro/devkitarm/bin/../lib/gcc/arm-eabi/4.6.0/../../../../arm-eabi/lib/thumb\libsysbase.a(read.o)
 .ARM.attributes
                0x00001ce5       0x32 c:/ndsdev/devkitpro/devkitarm/bin/../lib/gcc/arm-eabi/4.6.0/../../../../arm-eabi/lib/thumb\libsysbase.a(sbrk.o)
 .ARM.attributes
                0x00001d17       0x32 c:/ndsdev/devkitpro/devkitarm/bin/../lib/gcc/arm-eabi/4.6.0/../../../../arm-eabi/lib/thumb\libsysbase.a(times.o)
 .ARM.attributes
                0x00001d49       0x32 c:/ndsdev/devkitpro/devkitarm/bin/../lib/gcc/arm-eabi/4.6.0/../../../../arm-eabi/lib/thumb\libsysbase.a(write.o)
 .ARM.attributes
                0x00001d7b       0x32 c:/ndsdev/devkitpro/devkitarm/bin/../lib/gcc/arm-eabi/4.6.0/../../../../arm-eabi/lib/thumb\libsysbase.a(malloc_vars.o)
 .ARM.attributes
                0x00001dad       0x32 c:/ndsdev/devkitpro/devkitarm/bin/../lib/gcc/arm-eabi/4.6.0/../../../../arm-eabi/lib/thumb\libsysbase.a(chdir.o)
 .ARM.attributes
                0x00001ddf       0x32 c:/ndsdev/devkitpro/devkitarm/bin/../lib/gcc/arm-eabi/4.6.0/../../../../arm-eabi/lib/thumb\libsysbase.a(build_argv.o)
 .ARM.attributes
                0x00001e11       0x32 c:/ndsdev/devkitpro/devkitarm/bin/../lib/gcc/arm-eabi/4.6.0/../../../../arm-eabi/lib/thumb\libsysbase.a(syscall_support.o)
 .ARM.attributes
                0x00001e43       0x32 c:/ndsdev/devkitpro/devkitarm/bin/../lib/gcc/arm-eabi/4.6.0/../../../../arm-eabi/lib/thumb\libsysbase.a(handle_manager.o)
 .ARM.attributes
                0x00001e75       0x24 c:/ndsdev/devkitpro/devkitarm/bin/../lib/gcc/arm-eabi/4.6.0/thumb\libgcc.a(_arm_addsubdf3.o)
 .ARM.attributes
                0x00001e99       0x24 c:/ndsdev/devkitpro/devkitarm/bin/../lib/gcc/arm-eabi/4.6.0/thumb\libgcc.a(_arm_muldivdf3.o)
 .ARM.attributes
                0x00001ebd       0x24 c:/ndsdev/devkitpro/devkitarm/bin/../lib/gcc/arm-eabi/4.6.0/thumb\libgcc.a(_arm_cmpdf2.o)
 .ARM.attributes
                0x00001ee1       0x24 c:/ndsdev/devkitpro/devkitarm/bin/../lib/gcc/arm-eabi/4.6.0/thumb\libgcc.a(_arm_fixdfsi.o)
 .ARM.attributes
                0x00001f05       0x24 c:/ndsdev/devkitpro/devkitarm/bin/../lib/gcc/arm-eabi/4.6.0/thumb\libgcc.a(_arm_fixunsdfsi.o)
 .ARM.attributes
                0x00001f29       0x24 c:/ndsdev/devkitpro/devkitarm/bin/../lib/gcc/arm-eabi/4.6.0/thumb\libgcc.a(_arm_truncdfsf2.o)
 .ARM.attributes
                0x00001f4d       0x24 c:/ndsdev/devkitpro/devkitarm/bin/../lib/gcc/arm-eabi/4.6.0/thumb\libgcc.a(_aeabi_uldivmod.o)
 .ARM.attributes
                0x00001f71       0x32 c:/ndsdev/devkitpro/devkitarm/bin/../lib/gcc/arm-eabi/4.6.0/thumb\libgcc.a(_muldi3.o)
 .ARM.attributes
                0x00001fa3       0x32 c:/ndsdev/devkitpro/devkitarm/bin/../lib/gcc/arm-eabi/4.6.0/thumb\libgcc.a(bpabi.o)
 .ARM.attributes
                0x00001fd5       0x32 c:/ndsdev/devkitpro/devkitarm/bin/../lib/gcc/arm-eabi/4.6.0/thumb\libgcc.a(unwind-arm.o)
 .ARM.attributes
                0x00002007       0x1e c:/ndsdev/devkitpro/devkitarm/bin/../lib/gcc/arm-eabi/4.6.0/thumb\libgcc.a(libunwind.o)
 .ARM.attributes
                0x00002025       0x32 c:/ndsdev/devkitpro/devkitarm/bin/../lib/gcc/arm-eabi/4.6.0/thumb\libgcc.a(pr-support.o)
 .ARM.attributes
                0x00002057       0x32 c:/ndsdev/devkitpro/devkitarm/bin/../lib/gcc/arm-eabi/4.6.0/thumb\libgcc.a(_divdi3.o)
 .ARM.attributes
                0x00002089       0x32 c:/ndsdev/devkitpro/devkitarm/bin/../lib/gcc/arm-eabi/4.6.0/thumb\libgcc.a(_udivdi3.o)
 .ARM.attributes
                0x000020bb       0x24 c:/ndsdev/devkitpro/devkitarm/bin/../lib/gcc/arm-eabi/4.6.0/thumb\libgcc.a(_clzsi2.o)
 .ARM.attributes
                0x000020df       0x32 c:/ndsdev/devkitpro/devkitarm/bin/../lib/gcc/arm-eabi/4.6.0/../../../../arm-eabi/lib/thumb\libg.a(lib_a-abort.o)
 .ARM.attributes
                0x00002111       0x32 c:/ndsdev/devkitpro/devkitarm/bin/../lib/gcc/arm-eabi/4.6.0/../../../../arm-eabi/lib/thumb\libg.a(lib_a-signal.o)
 .ARM.attributes
                0x00002143       0x32 c:/ndsdev/devkitpro/devkitarm/bin/../lib/gcc/arm-eabi/4.6.0/../../../../arm-eabi/lib/thumb\libsysbase.a(getpid.o)
 .ARM.attributes
                0x00002175       0x32 c:/ndsdev/devkitpro/devkitarm/bin/../lib/gcc/arm-eabi/4.6.0/../../../../arm-eabi/lib/thumb\libsysbase.a(kill.o)
 .ARM.attributes
                0x000021a7       0x32 c:/ndsdev/devkitpro/devkitarm/bin/../lib/gcc/arm-eabi/4.6.0/../../../../arm-eabi/lib/thumb\libsysbase.a(_exit.o)
 .ARM.attributes
                0x000021d9       0x32 c:/ndsdev/devkitpro/devkitarm/bin/../lib/gcc/arm-eabi/4.6.0/thumb/crtend.o
 .ARM.attributes
                0x0000220b       0x24 c:/ndsdev/devkitpro/devkitarm/bin/../lib/gcc/arm-eabi/4.6.0/thumb/crtn.o

.comment        0x00000000       0x66 load address 0x02031570
 *(.comment)
 .comment       0x00000000       0x22 c:/ndsdev/devkitpro/devkitarm/bin/../lib/gcc/arm-eabi/4.6.0/thumb/crtbegin.o
                                 0x23 (size before relaxing)
 .comment       0x00000000       0x23 download.o
 .comment       0x00000000       0x23 main.o
 .comment       0x00000000       0x23 serial.o
 .comment       0x00000000       0x23 usb.o
 .comment       0x00000000       0x23 wifi.o
 .comment       0x00000022       0x22 c:/ndsdev/devkitPro/libnds/lib\libdswifi9.a(sgIP_DNS.o)
                                 0x23 (size before relaxing)
 .comment       0x00000000       0x23 c:/ndsdev/devkitPro/libnds/lib\libdswifi9.a(sgIP_Hub.o)
 .comment       0x00000000       0x23 c:/ndsdev/devkitPro/libnds/lib\libdswifi9.a(sgIP_memblock.o)
 .comment       0x00000000       0x23 c:/ndsdev/devkitPro/libnds/lib\libdswifi9.a(sgIP_sockets.o)
 .comment       0x00000000       0x23 c:/ndsdev/devkitPro/libnds/lib\libdswifi9.a(wifi_arm9.o)
 .comment       0x00000000       0x23 c:/ndsdev/devkitPro/libnds/lib\libdswifi9.a(sgIP.o)
 .comment       0x00000000       0x23 c:/ndsdev/devkitPro/libnds/lib\libdswifi9.a(sgIP_ARP.o)
 .comment       0x00000000       0x23 c:/ndsdev/devkitPro/libnds/lib\libdswifi9.a(sgIP_DHCP.o)
 .comment       0x00000000       0x23 c:/ndsdev/devkitPro/libnds/lib\libdswifi9.a(sgIP_IP.o)
 .comment       0x00000000       0x23 c:/ndsdev/devkitPro/libnds/lib\libdswifi9.a(sgIP_TCP.o)
 .comment       0x00000000       0x23 c:/ndsdev/devkitPro/libnds/lib\libdswifi9.a(sgIP_UDP.o)
 .comment       0x00000000       0x23 c:/ndsdev/devkitPro/libnds/lib\libdswifi9.a(sgIP_ICMP.o)
 .comment       0x00000000       0x23 c:/ndsdev/devkitPro/libnds/lib\libfat.a(libfat.o)
 .comment       0x00000000       0x23 c:/ndsdev/devkitPro/libnds/lib\libfat.a(partition.o)
 .comment       0x00000000       0x23 c:/ndsdev/devkitPro/libnds/lib\libfat.a(cache.o)
 .comment       0x00000000       0x23 c:/ndsdev/devkitPro/libnds/lib\libfat.a(directory.o)
 .comment       0x00000000       0x23 c:/ndsdev/devkitPro/libnds/lib\libfat.a(disc.o)
 .comment       0x00000000       0x23 c:/ndsdev/devkitPro/libnds/lib\libfat.a(fatdir.o)
 .comment       0x00000000       0x23 c:/ndsdev/devkitPro/libnds/lib\libfat.a(fatfile.o)
 .comment       0x00000000       0x23 c:/ndsdev/devkitPro/libnds/lib\libfat.a(file_allocation_table.o)
 .comment       0x00000000       0x23 c:/ndsdev/devkitPro/libnds/lib\libfat.a(filetime.o)
 .comment       0x00000000       0x23 c:/ndsdev/devkitPro/libnds/lib\libfat.a(lock.o)
 .comment       0x00000044       0x22 c:/ndsdev/devkitPro/libnds/lib\libnds9.a(console.o)
                                 0x23 (size before relaxing)
 .comment       0x00000000       0x23 c:/ndsdev/devkitPro/libnds/lib\libnds9.a(dldi.o)
 .comment       0x00000000       0x23 c:/ndsdev/devkitPro/libnds/lib\libnds9.a(dsi_sd.o)
 .comment       0x00000000       0x23 c:/ndsdev/devkitPro/libnds/lib\libnds9.a(initSystem.o)
 .comment       0x00000000       0x23 c:/ndsdev/devkitPro/libnds/lib\libnds9.a(fifosystem.o)
 .comment       0x00000000       0x23 c:/ndsdev/devkitPro/libnds/lib\libnds9.a(interrupts.o)
 .comment       0x00000000       0x23 c:/ndsdev/devkitPro/libnds/lib\libnds9.a(libnds_exit.o)
 .comment       0x00000000       0x23 c:/ndsdev/devkitPro/libnds/lib\libnds9.a(background.o)
 .comment       0x00000000       0x23 c:/ndsdev/devkitPro/libnds/lib\libnds9.a(system.o)
 .comment       0x00000000       0x23 c:/ndsdev/devkitPro/libnds/lib\libnds9.a(trig.o)
 .comment       0x00000000       0x23 c:/ndsdev/devkitPro/libnds/lib\libnds9.a(video.o)
 .comment       0x00000000       0x23 c:/ndsdev/devkitpro/devkitarm/bin/../lib/gcc/arm-eabi/4.6.0/../../../../arm-eabi/lib/thumb\libg.a(lib_a-atoi.o)
 .comment       0x00000000       0x23 c:/ndsdev/devkitpro/devkitarm/bin/../lib/gcc/arm-eabi/4.6.0/../../../../arm-eabi/lib/thumb\libg.a(lib_a-bsearch.o)
 .comment       0x00000000       0x23 c:/ndsdev/devkitpro/devkitarm/bin/../lib/gcc/arm-eabi/4.6.0/../../../../arm-eabi/lib/thumb\libg.a(lib_a-errno.o)
 .comment       0x00000000       0x23 c:/ndsdev/devkitpro/devkitarm/bin/../lib/gcc/arm-eabi/4.6.0/../../../../arm-eabi/lib/thumb\libg.a(lib_a-fclose.o)
 .comment       0x00000000       0x23 c:/ndsdev/devkitpro/devkitarm/bin/../lib/gcc/arm-eabi/4.6.0/../../../../arm-eabi/lib/thumb\libg.a(lib_a-fflush.o)
 .comment       0x00000000       0x23 c:/ndsdev/devkitpro/devkitarm/bin/../lib/gcc/arm-eabi/4.6.0/../../../../arm-eabi/lib/thumb\libg.a(lib_a-fgets.o)
 .comment       0x00000000       0x23 c:/ndsdev/devkitpro/devkitarm/bin/../lib/gcc/arm-eabi/4.6.0/../../../../arm-eabi/lib/thumb\libg.a(lib_a-findfp.o)
 .comment       0x00000000       0x23 c:/ndsdev/devkitpro/devkitarm/bin/../lib/gcc/arm-eabi/4.6.0/../../../../arm-eabi/lib/thumb\libg.a(lib_a-fopen.o)
 .comment       0x00000000       0x23 c:/ndsdev/devkitpro/devkitarm/bin/../lib/gcc/arm-eabi/4.6.0/../../../../arm-eabi/lib/thumb\libg.a(lib_a-freer.o)
 .comment       0x00000000       0x23 c:/ndsdev/devkitpro/devkitarm/bin/../lib/gcc/arm-eabi/4.6.0/../../../../arm-eabi/lib/thumb\libg.a(lib_a-fseek.o)
 .comment       0x00000000       0x23 c:/ndsdev/devkitpro/devkitarm/bin/../lib/gcc/arm-eabi/4.6.0/../../../../arm-eabi/lib/thumb\libg.a(lib_a-fwalk.o)
 .comment       0x00000000       0x23 c:/ndsdev/devkitpro/devkitarm/bin/../lib/gcc/arm-eabi/4.6.0/../../../../arm-eabi/lib/thumb\libg.a(lib_a-fwrite.o)
 .comment       0x00000000       0x23 c:/ndsdev/devkitpro/devkitarm/bin/../lib/gcc/arm-eabi/4.6.0/../../../../arm-eabi/lib/thumb\libg.a(lib_a-impure.o)
 .comment       0x00000000       0x23 c:/ndsdev/devkitpro/devkitarm/bin/../lib/gcc/arm-eabi/4.6.0/../../../../arm-eabi/lib/thumb\libg.a(lib_a-init.o)
 .comment       0x00000000       0x23 c:/ndsdev/devkitpro/devkitarm/bin/../lib/gcc/arm-eabi/4.6.0/../../../../arm-eabi/lib/thumb\libg.a(lib_a-iprintf.o)
 .comment       0x00000000       0x23 c:/ndsdev/devkitpro/devkitarm/bin/../lib/gcc/arm-eabi/4.6.0/../../../../arm-eabi/lib/thumb\libg.a(lib_a-lcltime_r.o)
 .comment       0x00000000       0x23 c:/ndsdev/devkitpro/devkitarm/bin/../lib/gcc/arm-eabi/4.6.0/../../../../arm-eabi/lib/thumb\libg.a(lib_a-locale.o)
 .comment       0x00000000       0x23 c:/ndsdev/devkitpro/devkitarm/bin/../lib/gcc/arm-eabi/4.6.0/../../../../arm-eabi/lib/thumb\libg.a(lib_a-makebuf.o)
 .comment       0x00000000       0x23 c:/ndsdev/devkitpro/devkitarm/bin/../lib/gcc/arm-eabi/4.6.0/../../../../arm-eabi/lib/thumb\libg.a(lib_a-malloc.o)
 .comment       0x00000000       0x23 c:/ndsdev/devkitpro/devkitarm/bin/../lib/gcc/arm-eabi/4.6.0/../../../../arm-eabi/lib/thumb\libg.a(lib_a-mallocr.o)
 .comment       0x00000000       0x23 c:/ndsdev/devkitpro/devkitarm/bin/../lib/gcc/arm-eabi/4.6.0/../../../../arm-eabi/lib/thumb\libg.a(lib_a-mbrtowc.o)
 .comment       0x00000000       0x23 c:/ndsdev/devkitpro/devkitarm/bin/../lib/gcc/arm-eabi/4.6.0/../../../../arm-eabi/lib/thumb\libg.a(lib_a-mbsrtowcs.o)
 .comment       0x00000000       0x23 c:/ndsdev/devkitpro/devkitarm/bin/../lib/gcc/arm-eabi/4.6.0/../../../../arm-eabi/lib/thumb\libg.a(lib_a-mbtowc_r.o)
 .comment       0x00000000       0x23 c:/ndsdev/devkitpro/devkitarm/bin/../lib/gcc/arm-eabi/4.6.0/../../../../arm-eabi/lib/thumb\libg.a(lib_a-memchr.o)
 .comment       0x00000000       0x23 c:/ndsdev/devkitpro/devkitarm/bin/../lib/gcc/arm-eabi/4.6.0/../../../../arm-eabi/lib/thumb\libg.a(lib_a-memcmp.o)
 .comment       0x00000000       0x23 c:/ndsdev/devkitpro/devkitarm/bin/../lib/gcc/arm-eabi/4.6.0/../../../../arm-eabi/lib/thumb\libg.a(lib_a-memcpy.o)
 .comment       0x00000000       0x23 c:/ndsdev/devkitpro/devkitarm/bin/../lib/gcc/arm-eabi/4.6.0/../../../../arm-eabi/lib/thumb\libg.a(lib_a-memmove.o)
 .comment       0x00000000       0x23 c:/ndsdev/devkitpro/devkitarm/bin/../lib/gcc/arm-eabi/4.6.0/../../../../arm-eabi/lib/thumb\libg.a(lib_a-memset.o)
 .comment       0x00000000       0x23 c:/ndsdev/devkitpro/devkitarm/bin/../lib/gcc/arm-eabi/4.6.0/../../../../arm-eabi/lib/thumb\libg.a(lib_a-mktime.o)
 .comment       0x00000000       0x23 c:/ndsdev/devkitpro/devkitarm/bin/../lib/gcc/arm-eabi/4.6.0/../../../../arm-eabi/lib/thumb\libg.a(lib_a-mktm_r.o)
 .comment       0x00000000       0x23 c:/ndsdev/devkitpro/devkitarm/bin/../lib/gcc/arm-eabi/4.6.0/../../../../arm-eabi/lib/thumb\libg.a(lib_a-mlock.o)
 .comment       0x00000000       0x23 c:/ndsdev/devkitpro/devkitarm/bin/../lib/gcc/arm-eabi/4.6.0/../../../../arm-eabi/lib/thumb\libg.a(lib_a-printf.o)
 .comment       0x00000000       0x23 c:/ndsdev/devkitpro/devkitarm/bin/../lib/gcc/arm-eabi/4.6.0/../../../../arm-eabi/lib/thumb\libg.a(lib_a-refill.o)
 .comment       0x00000000       0x23 c:/ndsdev/devkitpro/devkitarm/bin/../lib/gcc/arm-eabi/4.6.0/../../../../arm-eabi/lib/thumb\libg.a(lib_a-setvbuf.o)
 .comment       0x00000000       0x23 c:/ndsdev/devkitpro/devkitarm/bin/../lib/gcc/arm-eabi/4.6.0/../../../../arm-eabi/lib/thumb\libg.a(lib_a-siscanf.o)
 .comment       0x00000000       0x23 c:/ndsdev/devkitpro/devkitarm/bin/../lib/gcc/arm-eabi/4.6.0/../../../../arm-eabi/lib/thumb\libg.a(lib_a-sprintf.o)
 .comment       0x00000000       0x23 c:/ndsdev/devkitpro/devkitarm/bin/../lib/gcc/arm-eabi/4.6.0/../../../../arm-eabi/lib/thumb\libg.a(lib_a-sscanf.o)
 .comment       0x00000000       0x23 c:/ndsdev/devkitpro/devkitarm/bin/../lib/gcc/arm-eabi/4.6.0/../../../../arm-eabi/lib/thumb\libg.a(lib_a-stdio.o)
 .comment       0x00000000       0x23 c:/ndsdev/devkitpro/devkitarm/bin/../lib/gcc/arm-eabi/4.6.0/../../../../arm-eabi/lib/thumb\libg.a(lib_a-strcasecmp.o)
 .comment       0x00000000       0x23 c:/ndsdev/devkitpro/devkitarm/bin/../lib/gcc/arm-eabi/4.6.0/../../../../arm-eabi/lib/thumb\libg.a(lib_a-strcat.o)
 .comment       0x00000000       0x23 c:/ndsdev/devkitpro/devkitarm/bin/../lib/gcc/arm-eabi/4.6.0/../../../../arm-eabi/lib/thumb\libg.a(lib_a-strchr.o)
 .comment       0x00000000       0x23 c:/ndsdev/devkitpro/devkitarm/bin/../lib/gcc/arm-eabi/4.6.0/../../../../arm-eabi/lib/thumb\libg.a(lib_a-strcmp.o)
 .comment       0x00000000       0x23 c:/ndsdev/devkitpro/devkitarm/bin/../lib/gcc/arm-eabi/4.6.0/../../../../arm-eabi/lib/thumb\libg.a(lib_a-strcpy.o)
 .comment       0x00000000       0x23 c:/ndsdev/devkitpro/devkitarm/bin/../lib/gcc/arm-eabi/4.6.0/../../../../arm-eabi/lib/thumb\libg.a(lib_a-strlcpy.o)
 .comment       0x00000000       0x23 c:/ndsdev/devkitpro/devkitarm/bin/../lib/gcc/arm-eabi/4.6.0/../../../../arm-eabi/lib/thumb\libg.a(lib_a-strlen.o)
 .comment       0x00000000       0x23 c:/ndsdev/devkitpro/devkitarm/bin/../lib/gcc/arm-eabi/4.6.0/../../../../arm-eabi/lib/thumb\libg.a(lib_a-strncasecmp.o)
 .comment       0x00000000       0x23 c:/ndsdev/devkitpro/devkitarm/bin/../lib/gcc/arm-eabi/4.6.0/../../../../arm-eabi/lib/thumb\libg.a(lib_a-strncmp.o)
 .comment       0x00000000       0x23 c:/ndsdev/devkitpro/devkitarm/bin/../lib/gcc/arm-eabi/4.6.0/../../../../arm-eabi/lib/thumb\libg.a(lib_a-strncpy.o)
 .comment       0x00000000       0x23 c:/ndsdev/devkitpro/devkitarm/bin/../lib/gcc/arm-eabi/4.6.0/../../../../arm-eabi/lib/thumb\libg.a(lib_a-strnlen.o)
 .comment       0x00000000       0x23 c:/ndsdev/devkitpro/devkitarm/bin/../lib/gcc/arm-eabi/4.6.0/../../../../arm-eabi/lib/thumb\libg.a(lib_a-strpbrk.o)
 .comment       0x00000000       0x23 c:/ndsdev/devkitpro/devkitarm/bin/../lib/gcc/arm-eabi/4.6.0/../../../../arm-eabi/lib/thumb\libg.a(lib_a-strrchr.o)
 .comment       0x00000000       0x23 c:/ndsdev/devkitpro/devkitarm/bin/../lib/gcc/arm-eabi/4.6.0/../../../../arm-eabi/lib/thumb\libg.a(lib_a-strtol.o)
 .comment       0x00000000       0x23 c:/ndsdev/devkitpro/devkitarm/bin/../lib/gcc/arm-eabi/4.6.0/../../../../arm-eabi/lib/thumb\libg.a(lib_a-svfiscanf.o)
 .comment       0x00000000       0x23 c:/ndsdev/devkitpro/devkitarm/bin/../lib/gcc/arm-eabi/4.6.0/../../../../arm-eabi/lib/thumb\libg.a(lib_a-svfprintf.o)
 .comment       0x00000000       0x23 c:/ndsdev/devkitpro/devkitarm/bin/../lib/gcc/arm-eabi/4.6.0/../../../../arm-eabi/lib/thumb\libg.a(lib_a-svfscanf.o)
 .comment       0x00000000       0x23 c:/ndsdev/devkitpro/devkitarm/bin/../lib/gcc/arm-eabi/4.6.0/../../../../arm-eabi/lib/thumb\libg.a(lib_a-sysclose.o)
 .comment       0x00000000       0x23 c:/ndsdev/devkitpro/devkitarm/bin/../lib/gcc/arm-eabi/4.6.0/../../../../arm-eabi/lib/thumb\libg.a(lib_a-syslseek.o)
 .comment       0x00000000       0x23 c:/ndsdev/devkitpro/devkitarm/bin/../lib/gcc/arm-eabi/4.6.0/../../../../arm-eabi/lib/thumb\libg.a(lib_a-sysopen.o)
 .comment       0x00000000       0x23 c:/ndsdev/devkitpro/devkitarm/bin/../lib/gcc/arm-eabi/4.6.0/../../../../arm-eabi/lib/thumb\libg.a(lib_a-sysread.o)
 .comment       0x00000000       0x23 c:/ndsdev/devkitpro/devkitarm/bin/../lib/gcc/arm-eabi/4.6.0/../../../../arm-eabi/lib/thumb\libg.a(lib_a-time.o)
 .comment       0x00000000       0x23 c:/ndsdev/devkitpro/devkitarm/bin/../lib/gcc/arm-eabi/4.6.0/../../../../arm-eabi/lib/thumb\libg.a(lib_a-towlower.o)
 .comment       0x00000000       0x23 c:/ndsdev/devkitpro/devkitarm/bin/../lib/gcc/arm-eabi/4.6.0/../../../../arm-eabi/lib/thumb\libg.a(lib_a-towupper.o)
 .comment       0x00000000       0x23 c:/ndsdev/devkitpro/devkitarm/bin/../lib/gcc/arm-eabi/4.6.0/../../../../arm-eabi/lib/thumb\libg.a(lib_a-tzlock.o)
 .comment       0x00000000       0x23 c:/ndsdev/devkitpro/devkitarm/bin/../lib/gcc/arm-eabi/4.6.0/../../../../arm-eabi/lib/thumb\libg.a(lib_a-tzvars.o)
 .comment       0x00000000       0x23 c:/ndsdev/devkitpro/devkitarm/bin/../lib/gcc/arm-eabi/4.6.0/../../../../arm-eabi/lib/thumb\libg.a(lib_a-ungetc.o)
 .comment       0x00000000       0x23 c:/ndsdev/devkitpro/devkitarm/bin/../lib/gcc/arm-eabi/4.6.0/../../../../arm-eabi/lib/thumb\libg.a(lib_a-vfiprintf.o)
 .comment       0x00000000       0x23 c:/ndsdev/devkitpro/devkitarm/bin/../lib/gcc/arm-eabi/4.6.0/../../../../arm-eabi/lib/thumb\libg.a(lib_a-vfprintf.o)
 .comment       0x00000000       0x23 c:/ndsdev/devkitpro/devkitarm/bin/../lib/gcc/arm-eabi/4.6.0/../../../../arm-eabi/lib/thumb\libg.a(lib_a-wcrtomb.o)
 .comment       0x00000000       0x23 c:/ndsdev/devkitpro/devkitarm/bin/../lib/gcc/arm-eabi/4.6.0/../../../../arm-eabi/lib/thumb\libg.a(lib_a-wcsrtombs.o)
 .comment       0x00000000       0x23 c:/ndsdev/devkitpro/devkitarm/bin/../lib/gcc/arm-eabi/4.6.0/../../../../arm-eabi/lib/thumb\libg.a(lib_a-wctob.o)
 .comment       0x00000000       0x23 c:/ndsdev/devkitpro/devkitarm/bin/../lib/gcc/arm-eabi/4.6.0/../../../../arm-eabi/lib/thumb\libg.a(lib_a-wctomb_r.o)
 .comment       0x00000000       0x23 c:/ndsdev/devkitpro/devkitarm/bin/../lib/gcc/arm-eabi/4.6.0/../../../../arm-eabi/lib/thumb\libg.a(lib_a-wsetup.o)
 .comment       0x00000000       0x23 c:/ndsdev/devkitpro/devkitarm/bin/../lib/gcc/arm-eabi/4.6.0/../../../../arm-eabi/lib/thumb\libg.a(lib_a-ctype_.o)
 .comment       0x00000000       0x23 c:/ndsdev/devkitpro/devkitarm/bin/../lib/gcc/arm-eabi/4.6.0/../../../../arm-eabi/lib/thumb\libg.a(lib_a-div.o)
 .comment       0x00000000       0x23 c:/ndsdev/devkitpro/devkitarm/bin/../lib/gcc/arm-eabi/4.6.0/../../../../arm-eabi/lib/thumb\libg.a(lib_a-dtoa.o)
 .comment       0x00000000       0x23 c:/ndsdev/devkitpro/devkitarm/bin/../lib/gcc/arm-eabi/4.6.0/../../../../arm-eabi/lib/thumb\libg.a(lib_a-flags.o)
 .comment       0x00000000       0x23 c:/ndsdev/devkitpro/devkitarm/bin/../lib/gcc/arm-eabi/4.6.0/../../../../arm-eabi/lib/thumb\libg.a(lib_a-fputwc.o)
 .comment       0x00000000       0x23 c:/ndsdev/devkitpro/devkitarm/bin/../lib/gcc/arm-eabi/4.6.0/../../../../arm-eabi/lib/thumb\libg.a(lib_a-fvwrite.o)
 .comment       0x00000000       0x23 c:/ndsdev/devkitpro/devkitarm/bin/../lib/gcc/arm-eabi/4.6.0/../../../../arm-eabi/lib/thumb\libg.a(lib_a-getenv_r.o)
 .comment       0x00000000       0x23 c:/ndsdev/devkitpro/devkitarm/bin/../lib/gcc/arm-eabi/4.6.0/../../../../arm-eabi/lib/thumb\libg.a(lib_a-gettzinfo.o)
 .comment       0x00000000       0x23 c:/ndsdev/devkitpro/devkitarm/bin/../lib/gcc/arm-eabi/4.6.0/../../../../arm-eabi/lib/thumb\libg.a(lib_a-iswspace.o)
 .comment       0x00000000       0x23 c:/ndsdev/devkitpro/devkitarm/bin/../lib/gcc/arm-eabi/4.6.0/../../../../arm-eabi/lib/thumb\libg.a(lib_a-jp2uc.o)
 .comment       0x00000000       0x23 c:/ndsdev/devkitpro/devkitarm/bin/../lib/gcc/arm-eabi/4.6.0/../../../../arm-eabi/lib/thumb\libg.a(lib_a-mbsnrtowcs.o)
 .comment       0x00000000       0x23 c:/ndsdev/devkitpro/devkitarm/bin/../lib/gcc/arm-eabi/4.6.0/../../../../arm-eabi/lib/thumb\libg.a(lib_a-mprec.o)
 .comment       0x00000000       0x23 c:/ndsdev/devkitpro/devkitarm/bin/../lib/gcc/arm-eabi/4.6.0/../../../../arm-eabi/lib/thumb\libg.a(lib_a-reallocr.o)
 .comment       0x00000000       0x23 c:/ndsdev/devkitpro/devkitarm/bin/../lib/gcc/arm-eabi/4.6.0/../../../../arm-eabi/lib/thumb\libg.a(lib_a-s_fpclassify.o)
 .comment       0x00000000       0x23 c:/ndsdev/devkitpro/devkitarm/bin/../lib/gcc/arm-eabi/4.6.0/../../../../arm-eabi/lib/thumb\libg.a(lib_a-sccl.o)
 .comment       0x00000000       0x23 c:/ndsdev/devkitpro/devkitarm/bin/../lib/gcc/arm-eabi/4.6.0/../../../../arm-eabi/lib/thumb\libg.a(lib_a-sf_nan.o)
 .comment       0x00000000       0x23 c:/ndsdev/devkitpro/devkitarm/bin/../lib/gcc/arm-eabi/4.6.0/../../../../arm-eabi/lib/thumb\libg.a(lib_a-strtod.o)
 .comment       0x00000000       0x23 c:/ndsdev/devkitpro/devkitarm/bin/../lib/gcc/arm-eabi/4.6.0/../../../../arm-eabi/lib/thumb\libg.a(lib_a-strtoll_r.o)
 .comment       0x00000000       0x23 c:/ndsdev/devkitpro/devkitarm/bin/../lib/gcc/arm-eabi/4.6.0/../../../../arm-eabi/lib/thumb\libg.a(lib_a-strtoul.o)
 .comment       0x00000000       0x23 c:/ndsdev/devkitpro/devkitarm/bin/../lib/gcc/arm-eabi/4.6.0/../../../../arm-eabi/lib/thumb\libg.a(lib_a-strtoull_r.o)
 .comment       0x00000000       0x23 c:/ndsdev/devkitpro/devkitarm/bin/../lib/gcc/arm-eabi/4.6.0/../../../../arm-eabi/lib/thumb\libg.a(lib_a-svfiprintf.o)
 .comment       0x00000000       0x23 c:/ndsdev/devkitpro/devkitarm/bin/../lib/gcc/arm-eabi/4.6.0/../../../../arm-eabi/lib/thumb\libg.a(lib_a-wbuf.o)
 .comment       0x00000000       0x23 c:/ndsdev/devkitpro/devkitarm/bin/../lib/gcc/arm-eabi/4.6.0/../../../../arm-eabi/lib/thumb\libg.a(lib_a-wcsnrtombs.o)
 .comment       0x00000000       0x23 c:/ndsdev/devkitpro/devkitarm/bin/../lib/gcc/arm-eabi/4.6.0/../../../../arm-eabi/lib/thumb\libg.a(lib_a-callocr.o)
 .comment       0x00000000       0x23 c:/ndsdev/devkitpro/devkitarm/bin/../lib/gcc/arm-eabi/4.6.0/../../../../arm-eabi/lib/thumb\libg.a(lib_a-environ.o)
 .comment       0x00000000       0x23 c:/ndsdev/devkitpro/devkitarm/bin/../lib/gcc/arm-eabi/4.6.0/../../../../arm-eabi/lib/thumb\libg.a(lib_a-envlock.o)
 .comment       0x00000000       0x23 c:/ndsdev/devkitpro/devkitarm/bin/../lib/gcc/arm-eabi/4.6.0/../../../../arm-eabi/lib/thumb\libg.a(lib_a-gdtoa-gethex.o)
 .comment       0x00000000       0x23 c:/ndsdev/devkitpro/devkitarm/bin/../lib/gcc/arm-eabi/4.6.0/../../../../arm-eabi/lib/thumb\libg.a(lib_a-gdtoa-hexnan.o)
 .comment       0x00000000       0x23 c:/ndsdev/devkitpro/devkitarm/bin/../lib/gcc/arm-eabi/4.6.0/../../../../arm-eabi/lib/thumb\libsysbase.a(iosupport.o)
 .comment       0x00000000       0x23 c:/ndsdev/devkitpro/devkitarm/bin/../lib/gcc/arm-eabi/4.6.0/../../../../arm-eabi/lib/thumb\libsysbase.a(close.o)
 .comment       0x00000000       0x23 c:/ndsdev/devkitpro/devkitarm/bin/../lib/gcc/arm-eabi/4.6.0/../../../../arm-eabi/lib/thumb\libsysbase.a(fstat.o)
 .comment       0x00000000       0x23 c:/ndsdev/devkitpro/devkitarm/bin/../lib/gcc/arm-eabi/4.6.0/../../../../arm-eabi/lib/thumb\libsysbase.a(isatty.o)
 .comment       0x00000000       0x23 c:/ndsdev/devkitpro/devkitarm/bin/../lib/gcc/arm-eabi/4.6.0/../../../../arm-eabi/lib/thumb\libsysbase.a(lseek.o)
 .comment       0x00000000       0x23 c:/ndsdev/devkitpro/devkitarm/bin/../lib/gcc/arm-eabi/4.6.0/../../../../arm-eabi/lib/thumb\libsysbase.a(open.o)
 .comment       0x00000000       0x23 c:/ndsdev/devkitpro/devkitarm/bin/../lib/gcc/arm-eabi/4.6.0/../../../../arm-eabi/lib/thumb\libsysbase.a(read.o)
 .comment       0x00000000       0x23 c:/ndsdev/devkitpro/devkitarm/bin/../lib/gcc/arm-eabi/4.6.0/../../../../arm-eabi/lib/thumb\libsysbase.a(sbrk.o)
 .comment       0x00000000       0x23 c:/ndsdev/devkitpro/devkitarm/bin/../lib/gcc/arm-eabi/4.6.0/../../../../arm-eabi/lib/thumb\libsysbase.a(times.o)
 .comment       0x00000000       0x23 c:/ndsdev/devkitpro/devkitarm/bin/../lib/gcc/arm-eabi/4.6.0/../../../../arm-eabi/lib/thumb\libsysbase.a(write.o)
 .comment       0x00000000       0x23 c:/ndsdev/devkitpro/devkitarm/bin/../lib/gcc/arm-eabi/4.6.0/../../../../arm-eabi/lib/thumb\libsysbase.a(malloc_vars.o)
 .comment       0x00000000       0x23 c:/ndsdev/devkitpro/devkitarm/bin/../lib/gcc/arm-eabi/4.6.0/../../../../arm-eabi/lib/thumb\libsysbase.a(chdir.o)
 .comment       0x00000000       0x23 c:/ndsdev/devkitpro/devkitarm/bin/../lib/gcc/arm-eabi/4.6.0/../../../../arm-eabi/lib/thumb\libsysbase.a(build_argv.o)
 .comment       0x00000000       0x23 c:/ndsdev/devkitpro/devkitarm/bin/../lib/gcc/arm-eabi/4.6.0/../../../../arm-eabi/lib/thumb\libsysbase.a(syscall_support.o)
 .comment       0x00000000       0x23 c:/ndsdev/devkitpro/devkitarm/bin/../lib/gcc/arm-eabi/4.6.0/../../../../arm-eabi/lib/thumb\libsysbase.a(handle_manager.o)
 .comment       0x00000000       0x23 c:/ndsdev/devkitpro/devkitarm/bin/../lib/gcc/arm-eabi/4.6.0/thumb\libgcc.a(_muldi3.o)
 .comment       0x00000000       0x23 c:/ndsdev/devkitpro/devkitarm/bin/../lib/gcc/arm-eabi/4.6.0/thumb\libgcc.a(bpabi.o)
 .comment       0x00000000       0x23 c:/ndsdev/devkitpro/devkitarm/bin/../lib/gcc/arm-eabi/4.6.0/thumb\libgcc.a(unwind-arm.o)
 .comment       0x00000000       0x23 c:/ndsdev/devkitpro/devkitarm/bin/../lib/gcc/arm-eabi/4.6.0/thumb\libgcc.a(pr-support.o)
 .comment       0x00000000       0x23 c:/ndsdev/devkitpro/devkitarm/bin/../lib/gcc/arm-eabi/4.6.0/thumb\libgcc.a(_divdi3.o)
 .comment       0x00000000       0x23 c:/ndsdev/devkitpro/devkitarm/bin/../lib/gcc/arm-eabi/4.6.0/thumb\libgcc.a(_udivdi3.o)
 .comment       0x00000000       0x23 c:/ndsdev/devkitpro/devkitarm/bin/../lib/gcc/arm-eabi/4.6.0/../../../../arm-eabi/lib/thumb\libg.a(lib_a-abort.o)
 .comment       0x00000000       0x23 c:/ndsdev/devkitpro/devkitarm/bin/../lib/gcc/arm-eabi/4.6.0/../../../../arm-eabi/lib/thumb\libg.a(lib_a-signal.o)
 .comment       0x00000000       0x23 c:/ndsdev/devkitpro/devkitarm/bin/../lib/gcc/arm-eabi/4.6.0/../../../../arm-eabi/lib/thumb\libsysbase.a(getpid.o)
 .comment       0x00000000       0x23 c:/ndsdev/devkitpro/devkitarm/bin/../lib/gcc/arm-eabi/4.6.0/../../../../arm-eabi/lib/thumb\libsysbase.a(kill.o)
 .comment       0x00000000       0x23 c:/ndsdev/devkitpro/devkitarm/bin/../lib/gcc/arm-eabi/4.6.0/../../../../arm-eabi/lib/thumb\libsysbase.a(_exit.o)
 .comment       0x00000000       0x23 c:/ndsdev/devkitpro/devkitarm/bin/../lib/gcc/arm-eabi/4.6.0/thumb/crtend.o

.debug
 *(.debug)

.line
 *(.line)

.debug_srcinfo
 *(.debug_srcinfo)

.debug_sfnames
 *(.debug_sfnames)

.debug_aranges  0x00000000      0x5e0 load address 0x02031570
 *(.debug_aranges)
 .debug_aranges
                0x00000000       0x20 download.o
 .debug_aranges
                0x00000020       0x20 main.o
 .debug_aranges
                0x00000040       0x20 serial.o
 .debug_aranges
                0x00000060       0x20 usb.o
 .debug_aranges
                0x00000080       0x20 wifi.o
 .debug_aranges
                0x000000a0       0x20 jump.o
 .debug_aranges
                0x000000c0       0x20 c:/ndsdev/devkitPro/libnds/lib\libdswifi9.a(sgIP_DNS.o)
 .debug_aranges
                0x000000e0       0x20 c:/ndsdev/devkitPro/libnds/lib\libdswifi9.a(sgIP_Hub.o)
 .debug_aranges
                0x00000100       0x20 c:/ndsdev/devkitPro/libnds/lib\libdswifi9.a(sgIP_memblock.o)
 .debug_aranges
                0x00000120       0x20 c:/ndsdev/devkitPro/libnds/lib\libdswifi9.a(sgIP_sockets.o)
 .debug_aranges
                0x00000140       0x20 c:/ndsdev/devkitPro/libnds/lib\libdswifi9.a(wifi_arm9.o)
 .debug_aranges
                0x00000160       0x20 c:/ndsdev/devkitPro/libnds/lib\libdswifi9.a(spinlock.o)
 .debug_aranges
                0x00000180       0x20 c:/ndsdev/devkitPro/libnds/lib\libdswifi9.a(sgIP.o)
 .debug_aranges
                0x000001a0       0x20 c:/ndsdev/devkitPro/libnds/lib\libdswifi9.a(sgIP_ARP.o)
 .debug_aranges
                0x000001c0       0x20 c:/ndsdev/devkitPro/libnds/lib\libdswifi9.a(sgIP_DHCP.o)
 .debug_aranges
                0x000001e0       0x20 c:/ndsdev/devkitPro/libnds/lib\libdswifi9.a(sgIP_IP.o)
 .debug_aranges
                0x00000200       0x20 c:/ndsdev/devkitPro/libnds/lib\libdswifi9.a(sgIP_TCP.o)
 .debug_aranges
                0x00000220       0x20 c:/ndsdev/devkitPro/libnds/lib\libdswifi9.a(sgIP_UDP.o)
 .debug_aranges
                0x00000240       0x20 c:/ndsdev/devkitPro/libnds/lib\libdswifi9.a(sgIP_ICMP.o)
 .debug_aranges
                0x00000260       0x20 c:/ndsdev/devkitPro/libnds/lib\libfat.a(libfat.o)
 .debug_aranges
                0x00000280       0x20 c:/ndsdev/devkitPro/libnds/lib\libfat.a(partition.o)
 .debug_aranges
                0x000002a0       0x20 c:/ndsdev/devkitPro/libnds/lib\libfat.a(cache.o)
 .debug_aranges
                0x000002c0       0x20 c:/ndsdev/devkitPro/libnds/lib\libfat.a(directory.o)
 .debug_aranges
                0x000002e0       0x20 c:/ndsdev/devkitPro/libnds/lib\libfat.a(disc.o)
 .debug_aranges
                0x00000300       0x20 c:/ndsdev/devkitPro/libnds/lib\libfat.a(fatdir.o)
 .debug_aranges
                0x00000320       0x20 c:/ndsdev/devkitPro/libnds/lib\libfat.a(fatfile.o)
 .debug_aranges
                0x00000340       0x20 c:/ndsdev/devkitPro/libnds/lib\libfat.a(file_allocation_table.o)
 .debug_aranges
                0x00000360       0x20 c:/ndsdev/devkitPro/libnds/lib\libfat.a(filetime.o)
 .debug_aranges
                0x00000380       0x20 c:/ndsdev/devkitPro/libnds/lib\libfat.a(lock.o)
 .debug_aranges
                0x000003a0       0x20 c:/ndsdev/devkitPro/libnds/lib\libnds9.a(console.o)
 .debug_aranges
                0x000003c0       0x20 c:/ndsdev/devkitPro/libnds/lib\libnds9.a(dldi.o)
 .debug_aranges
                0x000003e0       0x20 c:/ndsdev/devkitPro/libnds/lib\libnds9.a(dsi_sd.o)
 .debug_aranges
                0x00000400       0x20 c:/ndsdev/devkitPro/libnds/lib\libnds9.a(initSystem.o)
 .debug_aranges
                0x00000420       0x20 c:/ndsdev/devkitPro/libnds/lib\libnds9.a(fifosystem.o)
 .debug_aranges
                0x00000440       0x20 c:/ndsdev/devkitPro/libnds/lib\libnds9.a(interrupts.o)
 .debug_aranges
                0x00000460       0x20 c:/ndsdev/devkitPro/libnds/lib\libnds9.a(libnds_exit.o)
 .debug_aranges
                0x00000480       0x20 c:/ndsdev/devkitPro/libnds/lib\libnds9.a(dcache.o)
 .debug_aranges
                0x000004a0       0x20 c:/ndsdev/devkitPro/libnds/lib\libnds9.a(dldi_stub.o)
 .debug_aranges
                0x000004c0       0x20 c:/ndsdev/devkitPro/libnds/lib\libnds9.a(mpu_setup.o)
 .debug_aranges
                0x000004e0       0x20 c:/ndsdev/devkitPro/libnds/lib\libnds9.a(biosCalls.o)
 .debug_aranges
                0x00000500       0x20 c:/ndsdev/devkitPro/libnds/lib\libnds9.a(debugprint.o)
 .debug_aranges
                0x00000520       0x20 c:/ndsdev/devkitPro/libnds/lib\libnds9.a(interruptDispatcher.o)
 .debug_aranges
                0x00000540       0x20 c:/ndsdev/devkitPro/libnds/lib\libnds9.a(swiSoftReset.o)
 .debug_aranges
                0x00000560       0x20 c:/ndsdev/devkitPro/libnds/lib\libnds9.a(background.o)
 .debug_aranges
                0x00000580       0x20 c:/ndsdev/devkitPro/libnds/lib\libnds9.a(system.o)
 .debug_aranges
                0x000005a0       0x20 c:/ndsdev/devkitPro/libnds/lib\libnds9.a(trig.o)
 .debug_aranges
                0x000005c0       0x20 c:/ndsdev/devkitPro/libnds/lib\libnds9.a(video.o)

.debug_pubnames
                0x00000000     0x1a35 load address 0x02031570
 *(.debug_pubnames)
 .debug_pubnames
                0x00000000      0x1db c:/ndsdev/devkitPro/libnds/lib\libdswifi9.a(sgIP_DNS.o)
 .debug_pubnames
                0x000001db      0x1d6 c:/ndsdev/devkitPro/libnds/lib\libdswifi9.a(sgIP_Hub.o)
 .debug_pubnames
                0x000003b1      0x125 c:/ndsdev/devkitPro/libnds/lib\libdswifi9.a(sgIP_memblock.o)
 .debug_pubnames
                0x000004d6      0x16c c:/ndsdev/devkitPro/libnds/lib\libdswifi9.a(sgIP_sockets.o)
 .debug_pubnames
                0x00000642      0x45e c:/ndsdev/devkitPro/libnds/lib\libdswifi9.a(wifi_arm9.o)
 .debug_pubnames
                0x00000aa0       0x6f c:/ndsdev/devkitPro/libnds/lib\libdswifi9.a(sgIP.o)
 .debug_pubnames
                0x00000b0f      0x170 c:/ndsdev/devkitPro/libnds/lib\libdswifi9.a(sgIP_ARP.o)
 .debug_pubnames
                0x00000c7f      0x216 c:/ndsdev/devkitPro/libnds/lib\libdswifi9.a(sgIP_DHCP.o)
 .debug_pubnames
                0x00000e95       0xaa c:/ndsdev/devkitPro/libnds/lib\libdswifi9.a(sgIP_IP.o)
 .debug_pubnames
                0x00000f3f      0x20d c:/ndsdev/devkitPro/libnds/lib\libdswifi9.a(sgIP_TCP.o)
 .debug_pubnames
                0x0000114c      0x124 c:/ndsdev/devkitPro/libnds/lib\libdswifi9.a(sgIP_UDP.o)
 .debug_pubnames
                0x00001270       0x41 c:/ndsdev/devkitPro/libnds/lib\libdswifi9.a(sgIP_ICMP.o)
 .debug_pubnames
                0x000012b1       0x76 c:/ndsdev/devkitPro/libnds/lib\libfat.a(libfat.o)
 .debug_pubnames
                0x00001327       0xf0 c:/ndsdev/devkitPro/libnds/lib\libfat.a(partition.o)
 .debug_pubnames
                0x00001417      0x162 c:/ndsdev/devkitPro/libnds/lib\libfat.a(cache.o)
 .debug_pubnames
                0x00001579      0x16f c:/ndsdev/devkitPro/libnds/lib\libfat.a(directory.o)
 .debug_pubnames
                0x000016e8       0x2b c:/ndsdev/devkitPro/libnds/lib\libfat.a(disc.o)
 .debug_pubnames
                0x00001713       0xd9 c:/ndsdev/devkitPro/libnds/lib\libfat.a(fatdir.o)
 .debug_pubnames
                0x000017ec       0xaf c:/ndsdev/devkitPro/libnds/lib\libfat.a(fatfile.o)
 .debug_pubnames
                0x0000189b       0xd2 c:/ndsdev/devkitPro/libnds/lib\libfat.a(file_allocation_table.o)
 .debug_pubnames
                0x0000196d       0x70 c:/ndsdev/devkitPro/libnds/lib\libfat.a(filetime.o)
 .debug_pubnames
                0x000019dd       0x58 c:/ndsdev/devkitPro/libnds/lib\libfat.a(lock.o)

.debug_info     0x00000000    0x1f0dd load address 0x02031570
 *(.debug_info)
 .debug_info    0x00000000     0x1601 download.o
 .debug_info    0x00001601      0xb6e main.o
 .debug_info    0x0000216f      0x9d4 serial.o
 .debug_info    0x00002b43      0x9d4 usb.o
 .debug_info    0x00003517     0x16b4 wifi.o
 .debug_info    0x00004bcb       0x60 jump.o
 .debug_info    0x00004c2b      0xdf5 c:/ndsdev/devkitPro/libnds/lib\libdswifi9.a(sgIP_DNS.o)
 .debug_info    0x00005a20      0x62a c:/ndsdev/devkitPro/libnds/lib\libdswifi9.a(sgIP_Hub.o)
 .debug_info    0x0000604a      0x4b1 c:/ndsdev/devkitPro/libnds/lib\libdswifi9.a(sgIP_memblock.o)
 .debug_info    0x000064fb     0x18aa c:/ndsdev/devkitPro/libnds/lib\libdswifi9.a(sgIP_sockets.o)
 .debug_info    0x00007da5     0x247f c:/ndsdev/devkitPro/libnds/lib\libdswifi9.a(wifi_arm9.o)
 .debug_info    0x0000a224       0xc0 c:/ndsdev/devkitPro/libnds/lib\libdswifi9.a(spinlock.o)
 .debug_info    0x0000a2e4      0x12e c:/ndsdev/devkitPro/libnds/lib\libdswifi9.a(sgIP.o)
 .debug_info    0x0000a412      0x7fc c:/ndsdev/devkitPro/libnds/lib\libdswifi9.a(sgIP_ARP.o)
 .debug_info    0x0000ac0e      0x93f c:/ndsdev/devkitPro/libnds/lib\libdswifi9.a(sgIP_DHCP.o)
 .debug_info    0x0000b54d      0x369 c:/ndsdev/devkitPro/libnds/lib\libdswifi9.a(sgIP_IP.o)
 .debug_info    0x0000b8b6     0x112e c:/ndsdev/devkitPro/libnds/lib\libdswifi9.a(sgIP_TCP.o)
 .debug_info    0x0000c9e4      0x8a6 c:/ndsdev/devkitPro/libnds/lib\libdswifi9.a(sgIP_UDP.o)
 .debug_info    0x0000d28a      0x1c1 c:/ndsdev/devkitPro/libnds/lib\libdswifi9.a(sgIP_ICMP.o)
 .debug_info    0x0000d44b     0x196a c:/ndsdev/devkitPro/libnds/lib\libfat.a(libfat.o)
 .debug_info    0x0000edb5     0x1efd c:/ndsdev/devkitPro/libnds/lib\libfat.a(partition.o)
 .debug_info    0x00010cb2      0xc06 c:/ndsdev/devkitPro/libnds/lib\libfat.a(cache.o)
 .debug_info    0x000118b8     0x1abd c:/ndsdev/devkitPro/libnds/lib\libfat.a(directory.o)
 .debug_info    0x00013375      0x275 c:/ndsdev/devkitPro/libnds/lib\libfat.a(disc.o)
 .debug_info    0x000135ea     0x19c9 c:/ndsdev/devkitPro/libnds/lib\libfat.a(fatdir.o)
 .debug_info    0x00014fb3     0x1f54 c:/ndsdev/devkitPro/libnds/lib\libfat.a(fatfile.o)
 .debug_info    0x00016f07      0x811 c:/ndsdev/devkitPro/libnds/lib\libfat.a(file_allocation_table.o)
 .debug_info    0x00017718      0x1d3 c:/ndsdev/devkitPro/libnds/lib\libfat.a(filetime.o)
 .debug_info    0x000178eb      0x11b c:/ndsdev/devkitPro/libnds/lib\libfat.a(lock.o)
 .debug_info    0x00017a06     0x20f5 c:/ndsdev/devkitPro/libnds/lib\libnds9.a(console.o)
 .debug_info    0x00019afb      0x5fb c:/ndsdev/devkitPro/libnds/lib\libnds9.a(dldi.o)
 .debug_info    0x0001a0f6      0x7b2 c:/ndsdev/devkitPro/libnds/lib\libnds9.a(dsi_sd.o)
 .debug_info    0x0001a8a8      0xed0 c:/ndsdev/devkitPro/libnds/lib\libnds9.a(initSystem.o)
 .debug_info    0x0001b778     0x11e6 c:/ndsdev/devkitPro/libnds/lib\libnds9.a(fifosystem.o)
 .debug_info    0x0001c95e      0x468 c:/ndsdev/devkitPro/libnds/lib\libnds9.a(interrupts.o)
 .debug_info    0x0001cdc6      0x2a6 c:/ndsdev/devkitPro/libnds/lib\libnds9.a(libnds_exit.o)
 .debug_info    0x0001d06c       0xba c:/ndsdev/devkitPro/libnds/lib\libnds9.a(dcache.o)
 .debug_info    0x0001d126       0xc2 c:/ndsdev/devkitPro/libnds/lib\libnds9.a(dldi_stub.o)
 .debug_info    0x0001d1e8       0xc4 c:/ndsdev/devkitPro/libnds/lib\libnds9.a(mpu_setup.o)
 .debug_info    0x0001d2ac       0xbf c:/ndsdev/devkitPro/libnds/lib\libnds9.a(biosCalls.o)
 .debug_info    0x0001d36b       0xc0 c:/ndsdev/devkitPro/libnds/lib\libnds9.a(debugprint.o)
 .debug_info    0x0001d42b       0xc9 c:/ndsdev/devkitPro/libnds/lib\libnds9.a(interruptDispatcher.o)
 .debug_info    0x0001d4f4       0xc2 c:/ndsdev/devkitPro/libnds/lib\libnds9.a(swiSoftReset.o)
 .debug_info    0x0001d5b6      0x909 c:/ndsdev/devkitPro/libnds/lib\libnds9.a(background.o)
 .debug_info    0x0001debf      0x6f4 c:/ndsdev/devkitPro/libnds/lib\libnds9.a(system.o)
 .debug_info    0x0001e5b3      0x4dd c:/ndsdev/devkitPro/libnds/lib\libnds9.a(trig.o)
 .debug_info    0x0001ea90      0x64d c:/ndsdev/devkitPro/libnds/lib\libnds9.a(video.o)

.debug_abbrev   0x00000000     0x586b load address 0x02031570
 *(.debug_abbrev)
 .debug_abbrev  0x00000000      0x2df download.o
 .debug_abbrev  0x000002df      0x222 main.o
 .debug_abbrev  0x00000501      0x20f serial.o
 .debug_abbrev  0x00000710      0x20f usb.o
 .debug_abbrev  0x0000091f      0x2e2 wifi.o
 .debug_abbrev  0x00000c01       0x14 jump.o
 .debug_abbrev  0x00000c15      0x319 c:/ndsdev/devkitPro/libnds/lib\libdswifi9.a(sgIP_DNS.o)
 .debug_abbrev  0x00000f2e      0x1b3 c:/ndsdev/devkitPro/libnds/lib\libdswifi9.a(sgIP_Hub.o)
 .debug_abbrev  0x000010e1      0x1eb c:/ndsdev/devkitPro/libnds/lib\libdswifi9.a(sgIP_memblock.o)
 .debug_abbrev  0x000012cc      0x2e3 c:/ndsdev/devkitPro/libnds/lib\libdswifi9.a(sgIP_sockets.o)
 .debug_abbrev  0x000015af      0x525 c:/ndsdev/devkitPro/libnds/lib\libdswifi9.a(wifi_arm9.o)
 .debug_abbrev  0x00001ad4       0x14 c:/ndsdev/devkitPro/libnds/lib\libdswifi9.a(spinlock.o)
 .debug_abbrev  0x00001ae8       0x8a c:/ndsdev/devkitPro/libnds/lib\libdswifi9.a(sgIP.o)
 .debug_abbrev  0x00001b72      0x285 c:/ndsdev/devkitPro/libnds/lib\libdswifi9.a(sgIP_ARP.o)
 .debug_abbrev  0x00001df7      0x234 c:/ndsdev/devkitPro/libnds/lib\libdswifi9.a(sgIP_DHCP.o)
 .debug_abbrev  0x0000202b      0x137 c:/ndsdev/devkitPro/libnds/lib\libdswifi9.a(sgIP_IP.o)
 .debug_abbrev  0x00002162      0x2de c:/ndsdev/devkitPro/libnds/lib\libdswifi9.a(sgIP_TCP.o)
 .debug_abbrev  0x00002440      0x22f c:/ndsdev/devkitPro/libnds/lib\libdswifi9.a(sgIP_UDP.o)
 .debug_abbrev  0x0000266f       0xd6 c:/ndsdev/devkitPro/libnds/lib\libdswifi9.a(sgIP_ICMP.o)
 .debug_abbrev  0x00002745      0x2b7 c:/ndsdev/devkitPro/libnds/lib\libfat.a(libfat.o)
 .debug_abbrev  0x000029fc      0x358 c:/ndsdev/devkitPro/libnds/lib\libfat.a(partition.o)
 .debug_abbrev  0x00002d54      0x2a4 c:/ndsdev/devkitPro/libnds/lib\libfat.a(cache.o)
 .debug_abbrev  0x00002ff8      0x408 c:/ndsdev/devkitPro/libnds/lib\libfat.a(directory.o)
 .debug_abbrev  0x00003400       0xf6 c:/ndsdev/devkitPro/libnds/lib\libfat.a(disc.o)
 .debug_abbrev  0x000034f6      0x35a c:/ndsdev/devkitPro/libnds/lib\libfat.a(fatdir.o)
 .debug_abbrev  0x00003850      0x3c8 c:/ndsdev/devkitPro/libnds/lib\libfat.a(fatfile.o)
 .debug_abbrev  0x00003c18      0x1e6 c:/ndsdev/devkitPro/libnds/lib\libfat.a(file_allocation_table.o)
 .debug_abbrev  0x00003dfe       0xa1 c:/ndsdev/devkitPro/libnds/lib\libfat.a(filetime.o)
 .debug_abbrev  0x00003e9f       0x79 c:/ndsdev/devkitPro/libnds/lib\libfat.a(lock.o)
 .debug_abbrev  0x00003f18      0x478 c:/ndsdev/devkitPro/libnds/lib\libnds9.a(console.o)
 .debug_abbrev  0x00004390      0x1f8 c:/ndsdev/devkitPro/libnds/lib\libnds9.a(dldi.o)
 .debug_abbrev  0x00004588      0x1ba c:/ndsdev/devkitPro/libnds/lib\libnds9.a(dsi_sd.o)
 .debug_abbrev  0x00004742      0x242 c:/ndsdev/devkitPro/libnds/lib\libnds9.a(initSystem.o)
 .debug_abbrev  0x00004984      0x3e0 c:/ndsdev/devkitPro/libnds/lib\libnds9.a(fifosystem.o)
 .debug_abbrev  0x00004d64      0x1d5 c:/ndsdev/devkitPro/libnds/lib\libnds9.a(interrupts.o)
 .debug_abbrev  0x00004f39      0x131 c:/ndsdev/devkitPro/libnds/lib\libnds9.a(libnds_exit.o)
 .debug_abbrev  0x0000506a       0x14 c:/ndsdev/devkitPro/libnds/lib\libnds9.a(dcache.o)
 .debug_abbrev  0x0000507e       0x14 c:/ndsdev/devkitPro/libnds/lib\libnds9.a(dldi_stub.o)
 .debug_abbrev  0x00005092       0x14 c:/ndsdev/devkitPro/libnds/lib\libnds9.a(mpu_setup.o)
 .debug_abbrev  0x000050a6       0x14 c:/ndsdev/devkitPro/libnds/lib\libnds9.a(biosCalls.o)
 .debug_abbrev  0x000050ba       0x14 c:/ndsdev/devkitPro/libnds/lib\libnds9.a(debugprint.o)
 .debug_abbrev  0x000050ce       0x14 c:/ndsdev/devkitPro/libnds/lib\libnds9.a(interruptDispatcher.o)
 .debug_abbrev  0x000050e2       0x14 c:/ndsdev/devkitPro/libnds/lib\libnds9.a(swiSoftReset.o)
 .debug_abbrev  0x000050f6      0x278 c:/ndsdev/devkitPro/libnds/lib\libnds9.a(background.o)
 .debug_abbrev  0x0000536e      0x19a c:/ndsdev/devkitPro/libnds/lib\libnds9.a(system.o)
 .debug_abbrev  0x00005508      0x1c2 c:/ndsdev/devkitPro/libnds/lib\libnds9.a(trig.o)
 .debug_abbrev  0x000056ca      0x1a1 c:/ndsdev/devkitPro/libnds/lib\libnds9.a(video.o)

.debug_line     0x00000000     0x9dd1 load address 0x02031570
 *(.debug_line)
 .debug_line    0x00000000      0x5c9 download.o
 .debug_line    0x000005c9      0x223 main.o
 .debug_line    0x000007ec      0x1c2 serial.o
 .debug_line    0x000009ae      0x1bf usb.o
 .debug_line    0x00000b6d      0x3da wifi.o
 .debug_line    0x00000f47       0x60 jump.o
 .debug_line    0x00000fa7      0x668 c:/ndsdev/devkitPro/libnds/lib\libdswifi9.a(sgIP_DNS.o)
 .debug_line    0x0000160f      0x134 c:/ndsdev/devkitPro/libnds/lib\libdswifi9.a(sgIP_Hub.o)
 .debug_line    0x00001743      0x283 c:/ndsdev/devkitPro/libnds/lib\libdswifi9.a(sgIP_memblock.o)
 .debug_line    0x000019c6      0xb1f c:/ndsdev/devkitPro/libnds/lib\libdswifi9.a(sgIP_sockets.o)
 .debug_line    0x000024e5      0xa55 c:/ndsdev/devkitPro/libnds/lib\libdswifi9.a(wifi_arm9.o)
 .debug_line    0x00002f3a       0x9b c:/ndsdev/devkitPro/libnds/lib\libdswifi9.a(spinlock.o)
 .debug_line    0x00002fd5       0xab c:/ndsdev/devkitPro/libnds/lib\libdswifi9.a(sgIP.o)
 .debug_line    0x00003080      0x418 c:/ndsdev/devkitPro/libnds/lib\libdswifi9.a(sgIP_ARP.o)
 .debug_line    0x00003498      0x48f c:/ndsdev/devkitPro/libnds/lib\libdswifi9.a(sgIP_DHCP.o)
 .debug_line    0x00003927       0xf3 c:/ndsdev/devkitPro/libnds/lib\libdswifi9.a(sgIP_IP.o)
 .debug_line    0x00003a1a      0x83f c:/ndsdev/devkitPro/libnds/lib\libdswifi9.a(sgIP_TCP.o)
 .debug_line    0x00004259      0x38d c:/ndsdev/devkitPro/libnds/lib\libdswifi9.a(sgIP_UDP.o)
 .debug_line    0x000045e6       0xb9 c:/ndsdev/devkitPro/libnds/lib\libdswifi9.a(sgIP_ICMP.o)
 .debug_line    0x0000469f      0x412 c:/ndsdev/devkitPro/libnds/lib\libfat.a(libfat.o)
 .debug_line    0x00004ab1      0x669 c:/ndsdev/devkitPro/libnds/lib\libfat.a(partition.o)
 .debug_line    0x0000511a      0x3ef c:/ndsdev/devkitPro/libnds/lib\libfat.a(cache.o)
 .debug_line    0x00005509      0xb41 c:/ndsdev/devkitPro/libnds/lib\libfat.a(directory.o)
 .debug_line    0x0000604a      0x120 c:/ndsdev/devkitPro/libnds/lib\libfat.a(disc.o)
 .debug_line    0x0000616a      0x61f c:/ndsdev/devkitPro/libnds/lib\libfat.a(fatdir.o)
 .debug_line    0x00006789      0x986 c:/ndsdev/devkitPro/libnds/lib\libfat.a(fatfile.o)
 .debug_line    0x0000710f      0x2ee c:/ndsdev/devkitPro/libnds/lib\libfat.a(file_allocation_table.o)
 .debug_line    0x000073fd      0x178 c:/ndsdev/devkitPro/libnds/lib\libfat.a(filetime.o)
 .debug_line    0x00007575       0x82 c:/ndsdev/devkitPro/libnds/lib\libfat.a(lock.o)
 .debug_line    0x000075f7      0x71c c:/ndsdev/devkitPro/libnds/lib\libnds9.a(console.o)
 .debug_line    0x00007d13      0x2ff c:/ndsdev/devkitPro/libnds/lib\libnds9.a(dldi.o)
 .debug_line    0x00008012      0x1bb c:/ndsdev/devkitPro/libnds/lib\libnds9.a(dsi_sd.o)
 .debug_line    0x000081cd      0x355 c:/ndsdev/devkitPro/libnds/lib\libnds9.a(initSystem.o)
 .debug_line    0x00008522      0x715 c:/ndsdev/devkitPro/libnds/lib\libnds9.a(fifosystem.o)
 .debug_line    0x00008c37      0x1c7 c:/ndsdev/devkitPro/libnds/lib\libnds9.a(interrupts.o)
 .debug_line    0x00008dfe      0x1ca c:/ndsdev/devkitPro/libnds/lib\libnds9.a(libnds_exit.o)
 .debug_line    0x00008fc8       0xa2 c:/ndsdev/devkitPro/libnds/lib\libnds9.a(dcache.o)
 .debug_line    0x0000906a       0x8b c:/ndsdev/devkitPro/libnds/lib\libnds9.a(dldi_stub.o)
 .debug_line    0x000090f5       0xe1 c:/ndsdev/devkitPro/libnds/lib\libnds9.a(mpu_setup.o)
 .debug_line    0x000091d6       0xc3 c:/ndsdev/devkitPro/libnds/lib\libnds9.a(biosCalls.o)
 .debug_line    0x00009299       0x9c c:/ndsdev/devkitPro/libnds/lib\libnds9.a(debugprint.o)
 .debug_line    0x00009335       0xc2 c:/ndsdev/devkitPro/libnds/lib\libnds9.a(interruptDispatcher.o)
 .debug_line    0x000093f7       0x91 c:/ndsdev/devkitPro/libnds/lib\libnds9.a(swiSoftReset.o)
 .debug_line    0x00009488      0x2af c:/ndsdev/devkitPro/libnds/lib\libnds9.a(background.o)
 .debug_line    0x00009737      0x25c c:/ndsdev/devkitPro/libnds/lib\libnds9.a(system.o)
 .debug_line    0x00009993      0x23d c:/ndsdev/devkitPro/libnds/lib\libnds9.a(trig.o)
 .debug_line    0x00009bd0      0x201 c:/ndsdev/devkitPro/libnds/lib\libnds9.a(video.o)

.debug_frame    0x00000000     0x2af0 load address 0x02031570
 *(.debug_frame)
 .debug_frame   0x00000000       0x78 download.o
 .debug_frame   0x00000078       0x7c main.o
 .debug_frame   0x000000f4       0x88 serial.o
 .debug_frame   0x0000017c       0x88 usb.o
 .debug_frame   0x00000204       0xbc wifi.o
 .debug_frame   0x000002c0      0x1a0 c:/ndsdev/devkitPro/libnds/lib\libdswifi9.a(sgIP_DNS.o)
 .debug_frame   0x00000460      0x134 c:/ndsdev/devkitPro/libnds/lib\libdswifi9.a(sgIP_Hub.o)
 .debug_frame   0x00000594      0x11c c:/ndsdev/devkitPro/libnds/lib\libdswifi9.a(sgIP_memblock.o)
 .debug_frame   0x000006b0      0x314 c:/ndsdev/devkitPro/libnds/lib\libdswifi9.a(sgIP_sockets.o)
 .debug_frame   0x000009c4      0x4ac c:/ndsdev/devkitPro/libnds/lib\libdswifi9.a(wifi_arm9.o)
 .debug_frame   0x00000e70       0x40 c:/ndsdev/devkitPro/libnds/lib\libdswifi9.a(sgIP.o)
 .debug_frame   0x00000eb0      0x17c c:/ndsdev/devkitPro/libnds/lib\libdswifi9.a(sgIP_ARP.o)
 .debug_frame   0x0000102c      0x154 c:/ndsdev/devkitPro/libnds/lib\libdswifi9.a(sgIP_DHCP.o)
 .debug_frame   0x00001180       0x94 c:/ndsdev/devkitPro/libnds/lib\libdswifi9.a(sgIP_IP.o)
 .debug_frame   0x00001214      0x280 c:/ndsdev/devkitPro/libnds/lib\libdswifi9.a(sgIP_TCP.o)
 .debug_frame   0x00001494      0x13c c:/ndsdev/devkitPro/libnds/lib\libdswifi9.a(sgIP_UDP.o)
 .debug_frame   0x000015d0       0x44 c:/ndsdev/devkitPro/libnds/lib\libdswifi9.a(sgIP_ICMP.o)
 .debug_frame   0x00001614       0xd4 c:/ndsdev/devkitPro/libnds/lib\libfat.a(libfat.o)
 .debug_frame   0x000016e8      0x114 c:/ndsdev/devkitPro/libnds/lib\libfat.a(partition.o)
 .debug_frame   0x000017fc      0x1c8 c:/ndsdev/devkitPro/libnds/lib\libfat.a(cache.o)
 .debug_frame   0x000019c4      0x268 c:/ndsdev/devkitPro/libnds/lib\libfat.a(directory.o)
 .debug_frame   0x00001c2c       0x20 c:/ndsdev/devkitPro/libnds/lib\libfat.a(disc.o)
 .debug_frame   0x00001c4c      0x180 c:/ndsdev/devkitPro/libnds/lib\libfat.a(fatdir.o)
 .debug_frame   0x00001dcc      0x1bc c:/ndsdev/devkitPro/libnds/lib\libfat.a(fatfile.o)
 .debug_frame   0x00001f88      0x118 c:/ndsdev/devkitPro/libnds/lib\libfat.a(file_allocation_table.o)
 .debug_frame   0x000020a0       0x68 c:/ndsdev/devkitPro/libnds/lib\libfat.a(filetime.o)
 .debug_frame   0x00002108       0x50 c:/ndsdev/devkitPro/libnds/lib\libfat.a(lock.o)
 .debug_frame   0x00002158      0x1a8 c:/ndsdev/devkitPro/libnds/lib\libnds9.a(console.o)
 .debug_frame   0x00002300       0x94 c:/ndsdev/devkitPro/libnds/lib\libnds9.a(dldi.o)
 .debug_frame   0x00002394       0x98 c:/ndsdev/devkitPro/libnds/lib\libnds9.a(dsi_sd.o)
 .debug_frame   0x0000242c       0x28 c:/ndsdev/devkitPro/libnds/lib\libnds9.a(initSystem.o)
 .debug_frame   0x00002454      0x2a4 c:/ndsdev/devkitPro/libnds/lib\libnds9.a(fifosystem.o)
 .debug_frame   0x000026f8       0xb4 c:/ndsdev/devkitPro/libnds/lib\libnds9.a(interrupts.o)
 .debug_frame   0x000027ac       0x38 c:/ndsdev/devkitPro/libnds/lib\libnds9.a(libnds_exit.o)
 .debug_frame   0x000027e4       0xa4 c:/ndsdev/devkitPro/libnds/lib\libnds9.a(background.o)
 .debug_frame   0x00002888       0xb8 c:/ndsdev/devkitPro/libnds/lib\libnds9.a(system.o)
 .debug_frame   0x00002940       0xf4 c:/ndsdev/devkitPro/libnds/lib\libnds9.a(trig.o)
 .debug_frame   0x00002a34       0xbc c:/ndsdev/devkitPro/libnds/lib\libnds9.a(video.o)

.debug_str      0x00000000     0x75ef load address 0x02031570
 *(.debug_str)
 .debug_str     0x00000000      0xadf download.o
                                0xc31 (size before relaxing)
 .debug_str     0x00000adf       0xc0 main.o
                                0x705 (size before relaxing)
 .debug_str     0x00000b9f       0xb0 serial.o
                                0x6be (size before relaxing)
 .debug_str     0x00000c4f       0x84 usb.o
                                0x6a0 (size before relaxing)
 .debug_str     0x00000cd3      0x214 wifi.o
                                0xcfd (size before relaxing)
 .debug_str     0x00000ee7      0x3e5 c:/ndsdev/devkitPro/libnds/lib\libdswifi9.a(sgIP_DNS.o)
                                0x543 (size before relaxing)
 .debug_str     0x000012cc      0x209 c:/ndsdev/devkitPro/libnds/lib\libdswifi9.a(sgIP_Hub.o)
                                0x3a5 (size before relaxing)
 .debug_str     0x000014d5      0x1e6 c:/ndsdev/devkitPro/libnds/lib\libdswifi9.a(sgIP_memblock.o)
                                0x321 (size before relaxing)
 .debug_str     0x000016bb      0x515 c:/ndsdev/devkitPro/libnds/lib\libdswifi9.a(sgIP_sockets.o)
                                0x788 (size before relaxing)
 .debug_str     0x00001bd0      0xeac c:/ndsdev/devkitPro/libnds/lib\libdswifi9.a(wifi_arm9.o)
                               0x1522 (size before relaxing)
 .debug_str     0x00002a7c       0x81 c:/ndsdev/devkitPro/libnds/lib\libdswifi9.a(sgIP.o)
                                0x136 (size before relaxing)
 .debug_str     0x00002afd      0x29b c:/ndsdev/devkitPro/libnds/lib\libdswifi9.a(sgIP_ARP.o)
                                0x414 (size before relaxing)
 .debug_str     0x00002d98      0x261 c:/ndsdev/devkitPro/libnds/lib\libdswifi9.a(sgIP_DHCP.o)
                                0x51c (size before relaxing)
 .debug_str     0x00002ff9      0x151 c:/ndsdev/devkitPro/libnds/lib\libdswifi9.a(sgIP_IP.o)
                                0x288 (size before relaxing)
 .debug_str     0x0000314a      0x30e c:/ndsdev/devkitPro/libnds/lib\libdswifi9.a(sgIP_TCP.o)
                                0x710 (size before relaxing)
 .debug_str     0x00003458      0x199 c:/ndsdev/devkitPro/libnds/lib\libdswifi9.a(sgIP_UDP.o)
                                0x3d0 (size before relaxing)
 .debug_str     0x000035f1       0x9b c:/ndsdev/devkitPro/libnds/lib\libdswifi9.a(sgIP_ICMP.o)
                                0x1ad (size before relaxing)
 .debug_str     0x0000368c      0x649 c:/ndsdev/devkitPro/libnds/lib\libfat.a(libfat.o)
                                0xc6e (size before relaxing)
 .debug_str     0x00003cd5      0x502 c:/ndsdev/devkitPro/libnds/lib\libfat.a(partition.o)
                               0x102b (size before relaxing)
 .debug_str     0x000041d7      0x21a c:/ndsdev/devkitPro/libnds/lib\libfat.a(cache.o)
                                0x503 (size before relaxing)
 .debug_str     0x000043f1      0x77e c:/ndsdev/devkitPro/libnds/lib\libfat.a(directory.o)
                                0xd00 (size before relaxing)
 .debug_str     0x00004b6f       0x64 c:/ndsdev/devkitPro/libnds/lib\libfat.a(disc.o)
                                0x243 (size before relaxing)
 .debug_str     0x00004bd3      0x1c4 c:/ndsdev/devkitPro/libnds/lib\libfat.a(fatdir.o)
                                0xcc3 (size before relaxing)
 .debug_str     0x00004d97      0x1e7 c:/ndsdev/devkitPro/libnds/lib\libfat.a(fatfile.o)
                                0xd42 (size before relaxing)
 .debug_str     0x00004f7e      0x169 c:/ndsdev/devkitPro/libnds/lib\libfat.a(file_allocation_table.o)
                                0x568 (size before relaxing)
 .debug_str     0x000050e7       0xb6 c:/ndsdev/devkitPro/libnds/lib\libfat.a(filetime.o)
                                0x1ae (size before relaxing)
 .debug_str     0x0000519d       0x88 c:/ndsdev/devkitPro/libnds/lib\libfat.a(lock.o)
                                0x129 (size before relaxing)
 .debug_str     0x00005225      0x8ae c:/ndsdev/devkitPro/libnds/lib\libnds9.a(console.o)
                               0x107c (size before relaxing)
 .debug_str     0x00005ad3      0x1f9 c:/ndsdev/devkitPro/libnds/lib\libnds9.a(dldi.o)
                                0x3e0 (size before relaxing)
 .debug_str     0x00005ccc      0x280 c:/ndsdev/devkitPro/libnds/lib\libnds9.a(dsi_sd.o)
                                0x555 (size before relaxing)
 .debug_str     0x00005f4c      0x1cd c:/ndsdev/devkitPro/libnds/lib\libnds9.a(initSystem.o)
                                0x95b (size before relaxing)
 .debug_str     0x00006119      0x4d7 c:/ndsdev/devkitPro/libnds/lib\libnds9.a(fifosystem.o)
                                0x74a (size before relaxing)
 .debug_str     0x000065f0      0x126 c:/ndsdev/devkitPro/libnds/lib\libnds9.a(interrupts.o)
                                0x348 (size before relaxing)
 .debug_str     0x00006716      0x136 c:/ndsdev/devkitPro/libnds/lib\libnds9.a(libnds_exit.o)
                                0x296 (size before relaxing)
 .debug_str     0x0000684c      0x2eb c:/ndsdev/devkitPro/libnds/lib\libnds9.a(background.o)
                                0x678 (size before relaxing)
 .debug_str     0x00006b37       0xca c:/ndsdev/devkitPro/libnds/lib\libnds9.a(system.o)
                                0x50e (size before relaxing)
 .debug_str     0x00006c01       0xe8 c:/ndsdev/devkitPro/libnds/lib\libnds9.a(trig.o)
                                0x1db (size before relaxing)
 .debug_str     0x00006ce9      0x906 c:/ndsdev/devkitPro/libnds/lib\libnds9.a(video.o)
                                0xb10 (size before relaxing)

.debug_loc      0x00000000    0x14bd3 load address 0x02031570
 *(.debug_loc)
 .debug_loc     0x00000000      0x926 download.o
 .debug_loc     0x00000926      0x117 main.o
 .debug_loc     0x00000a3d       0xd8 serial.o
 .debug_loc     0x00000b15       0xd8 usb.o
 .debug_loc     0x00000bed      0x360 wifi.o
 .debug_loc     0x00000f4d      0xfa3 c:/ndsdev/devkitPro/libnds/lib\libdswifi9.a(sgIP_DNS.o)
 .debug_loc     0x00001ef0      0x3ab c:/ndsdev/devkitPro/libnds/lib\libdswifi9.a(sgIP_Hub.o)
 .debug_loc     0x0000229b      0x803 c:/ndsdev/devkitPro/libnds/lib\libdswifi9.a(sgIP_memblock.o)
 .debug_loc     0x00002a9e     0x1cb6 c:/ndsdev/devkitPro/libnds/lib\libdswifi9.a(sgIP_sockets.o)
 .debug_loc     0x00004754     0x1ae6 c:/ndsdev/devkitPro/libnds/lib\libdswifi9.a(wifi_arm9.o)
 .debug_loc     0x0000623a       0x69 c:/ndsdev/devkitPro/libnds/lib\libdswifi9.a(sgIP.o)
 .debug_loc     0x000062a3      0x85d c:/ndsdev/devkitPro/libnds/lib\libdswifi9.a(sgIP_ARP.o)
 .debug_loc     0x00006b00      0x7be c:/ndsdev/devkitPro/libnds/lib\libdswifi9.a(sgIP_DHCP.o)
 .debug_loc     0x000072be      0x2c4 c:/ndsdev/devkitPro/libnds/lib\libdswifi9.a(sgIP_IP.o)
 .debug_loc     0x00007582     0x1d66 c:/ndsdev/devkitPro/libnds/lib\libdswifi9.a(sgIP_TCP.o)
 .debug_loc     0x000092e8      0x8ee c:/ndsdev/devkitPro/libnds/lib\libdswifi9.a(sgIP_UDP.o)
 .debug_loc     0x00009bd6       0xd1 c:/ndsdev/devkitPro/libnds/lib\libdswifi9.a(sgIP_ICMP.o)
 .debug_loc     0x00009ca7      0x51c c:/ndsdev/devkitPro/libnds/lib\libfat.a(libfat.o)
 .debug_loc     0x0000a1c3      0xa52 c:/ndsdev/devkitPro/libnds/lib\libfat.a(partition.o)
 .debug_loc     0x0000ac15      0xe16 c:/ndsdev/devkitPro/libnds/lib\libfat.a(cache.o)
 .debug_loc     0x0000ba2b     0x24a9 c:/ndsdev/devkitPro/libnds/lib\libfat.a(directory.o)
 .debug_loc     0x0000ded4      0xe76 c:/ndsdev/devkitPro/libnds/lib\libfat.a(fatdir.o)
 .debug_loc     0x0000ed4a     0x1fad c:/ndsdev/devkitPro/libnds/lib\libfat.a(fatfile.o)
 .debug_loc     0x00010cf7      0x92d c:/ndsdev/devkitPro/libnds/lib\libfat.a(file_allocation_table.o)
 .debug_loc     0x00011624       0xaa c:/ndsdev/devkitPro/libnds/lib\libfat.a(filetime.o)
 .debug_loc     0x000116ce      0xe70 c:/ndsdev/devkitPro/libnds/lib\libnds9.a(console.o)
 .debug_loc     0x0001253e      0x28e c:/ndsdev/devkitPro/libnds/lib\libnds9.a(dldi.o)
 .debug_loc     0x000127cc      0x24b c:/ndsdev/devkitPro/libnds/lib\libnds9.a(dsi_sd.o)
 .debug_loc     0x00012a17       0x64 c:/ndsdev/devkitPro/libnds/lib\libnds9.a(initSystem.o)
 .debug_loc     0x00012a7b     0x11b6 c:/ndsdev/devkitPro/libnds/lib\libnds9.a(fifosystem.o)
 .debug_loc     0x00013c31      0x168 c:/ndsdev/devkitPro/libnds/lib\libnds9.a(interrupts.o)
 .debug_loc     0x00013d99       0x5c c:/ndsdev/devkitPro/libnds/lib\libnds9.a(libnds_exit.o)
 .debug_loc     0x00013df5      0x384 c:/ndsdev/devkitPro/libnds/lib\libnds9.a(background.o)
 .debug_loc     0x00014179      0x1ba c:/ndsdev/devkitPro/libnds/lib\libnds9.a(system.o)
 .debug_loc     0x00014333      0x6d3 c:/ndsdev/devkitPro/libnds/lib\libnds9.a(trig.o)
 .debug_loc     0x00014a06      0x1cd c:/ndsdev/devkitPro/libnds/lib\libnds9.a(video.o)

.debug_macinfo
 *(.debug_macinfo)

.debug_weaknames
 *(.debug_weaknames)

.debug_funcnames
 *(.debug_funcnames)

.debug_typenames
 *(.debug_typenames)

.debug_varnames
 *(.debug_varnames)

.stack          0x00080000        0x0 load address 0x02031570
                0x00080000                _stack = .
 *(.stack)
LOAD c:/ndsdev/devkitpro/devkitarm/bin/../lib/gcc/arm-eabi/4.6.0/../../../../arm-eabi/lib/thumb/ds_arm9_crt0.o
LOAD c:/ndsdev/devkitpro/devkitarm/bin/../lib/gcc/arm-eabi/4.6.0/thumb/crti.o
LOAD c:/ndsdev/devkitpro/devkitarm/bin/../lib/gcc/arm-eabi/4.6.0/thumb/crtbegin.o
LOAD download.o
LOAD main.o
LOAD serial.o
LOAD usb.o
LOAD wifi.o
LOAD jump.o
LOAD c:/ndsdev/devkitPro/libnds/lib\libdswifi9.a
LOAD c:/ndsdev/devkitPro/libnds/lib\libfat.a
LOAD c:/ndsdev/devkitPro/libnds/lib\libnds9.a
START GROUP
LOAD c:/ndsdev/devkitpro/devkitarm/bin/../lib/gcc/arm-eabi/4.6.0/thumb\libgcc.a
LOAD c:/ndsdev/devkitpro/devkitarm/bin/../lib/gcc/arm-eabi/4.6.0/../../../../arm-eabi/lib/thumb\libg.a
LOAD c:/ndsdev/devkitpro/devkitarm/bin/../lib/gcc/arm-eabi/4.6.0/../../../../arm-eabi/lib/thumb\libc.a
LOAD c:/ndsdev/devkitpro/devkitarm/bin/../lib/gcc/arm-eabi/4.6.0/../../../../arm-eabi/lib/thumb\libsysbase.a
END GROUP
LOAD c:/ndsdev/devkitpro/devkitarm/bin/../lib/gcc/arm-eabi/4.6.0/thumb/crtend.o
LOAD c:/ndsdev/devkitpro/devkitarm/bin/../lib/gcc/arm-eabi/4.6.0/thumb/crtn.o
OUTPUT(c:/ndsdev/wifidown/wifidown.elf elf32-littlearm)

.debug_ranges   0x00000000     0x2068 load address 0x02031570
 .debug_ranges  0x00000000       0x38 main.o
 .debug_ranges  0x00000038      0x1c0 c:/ndsdev/devkitPro/libnds/lib\libdswifi9.a(sgIP_DNS.o)
 .debug_ranges  0x000001f8       0x18 c:/ndsdev/devkitPro/libnds/lib\libdswifi9.a(sgIP_Hub.o)
 .debug_ranges  0x00000210       0x48 c:/ndsdev/devkitPro/libnds/lib\libdswifi9.a(sgIP_memblock.o)
 .debug_ranges  0x00000258      0x4f0 c:/ndsdev/devkitPro/libnds/lib\libdswifi9.a(sgIP_sockets.o)
 .debug_ranges  0x00000748      0x310 c:/ndsdev/devkitPro/libnds/lib\libdswifi9.a(wifi_arm9.o)
 .debug_ranges  0x00000a58       0x18 c:/ndsdev/devkitPro/libnds/lib\libdswifi9.a(sgIP_ARP.o)
 .debug_ranges  0x00000a70      0x188 c:/ndsdev/devkitPro/libnds/lib\libdswifi9.a(sgIP_TCP.o)
 .debug_ranges  0x00000bf8      0x118 c:/ndsdev/devkitPro/libnds/lib\libdswifi9.a(sgIP_UDP.o)
 .debug_ranges  0x00000d10       0x48 c:/ndsdev/devkitPro/libnds/lib\libfat.a(libfat.o)
 .debug_ranges  0x00000d58      0x1f0 c:/ndsdev/devkitPro/libnds/lib\libfat.a(partition.o)
 .debug_ranges  0x00000f48       0x48 c:/ndsdev/devkitPro/libnds/lib\libfat.a(cache.o)
 .debug_ranges  0x00000f90      0x3a8 c:/ndsdev/devkitPro/libnds/lib\libfat.a(directory.o)
 .debug_ranges  0x00001338       0xd8 c:/ndsdev/devkitPro/libnds/lib\libfat.a(fatdir.o)
 .debug_ranges  0x00001410      0x2c8 c:/ndsdev/devkitPro/libnds/lib\libfat.a(fatfile.o)
 .debug_ranges  0x000016d8       0x38 c:/ndsdev/devkitPro/libnds/lib\libfat.a(file_allocation_table.o)
 .debug_ranges  0x00001710      0x2f8 c:/ndsdev/devkitPro/libnds/lib\libnds9.a(console.o)
 .debug_ranges  0x00001a08       0x30 c:/ndsdev/devkitPro/libnds/lib\libnds9.a(dldi.o)
 .debug_ranges  0x00001a38      0x498 c:/ndsdev/devkitPro/libnds/lib\libnds9.a(fifosystem.o)
 .debug_ranges  0x00001ed0       0x30 c:/ndsdev/devkitPro/libnds/lib\libnds9.a(interrupts.o)
 .debug_ranges  0x00001f00       0x88 c:/ndsdev/devkitPro/libnds/lib\libnds9.a(background.o)
 .debug_ranges  0x00001f88       0x80 c:/ndsdev/devkitPro/libnds/lib\libnds9.a(trig.o)
 .debug_ranges  0x00002008       0x60 c:/ndsdev/devkitPro/libnds/lib\libnds9.a(video.o)

.debug_pubtypes
                0x00000000     0x1f54 load address 0x02031570
 .debug_pubtypes
                0x00000000       0xfc c:/ndsdev/devkitPro/libnds/lib\libdswifi9.a(sgIP_DNS.o)
 .debug_pubtypes
                0x000000fc       0x94 c:/ndsdev/devkitPro/libnds/lib\libdswifi9.a(sgIP_Hub.o)
 .debug_pubtypes
                0x00000190       0x4f c:/ndsdev/devkitPro/libnds/lib\libdswifi9.a(sgIP_memblock.o)
 .debug_pubtypes
                0x000001df      0x186 c:/ndsdev/devkitPro/libnds/lib\libdswifi9.a(sgIP_sockets.o)
 .debug_pubtypes
                0x00000365      0x323 c:/ndsdev/devkitPro/libnds/lib\libdswifi9.a(wifi_arm9.o)
 .debug_pubtypes
                0x00000688       0x12 c:/ndsdev/devkitPro/libnds/lib\libdswifi9.a(sgIP.o)
 .debug_pubtypes
                0x0000069a       0xea c:/ndsdev/devkitPro/libnds/lib\libdswifi9.a(sgIP_ARP.o)
 .debug_pubtypes
                0x00000784      0x103 c:/ndsdev/devkitPro/libnds/lib\libdswifi9.a(sgIP_DHCP.o)
 .debug_pubtypes
                0x00000887       0x5c c:/ndsdev/devkitPro/libnds/lib\libdswifi9.a(sgIP_IP.o)
 .debug_pubtypes
                0x000008e3       0xe0 c:/ndsdev/devkitPro/libnds/lib\libdswifi9.a(sgIP_TCP.o)
 .debug_pubtypes
                0x000009c3       0xb2 c:/ndsdev/devkitPro/libnds/lib\libdswifi9.a(sgIP_UDP.o)
 .debug_pubtypes
                0x00000a75       0x60 c:/ndsdev/devkitPro/libnds/lib\libdswifi9.a(sgIP_ICMP.o)
 .debug_pubtypes
                0x00000ad5      0x397 c:/ndsdev/devkitPro/libnds/lib\libfat.a(libfat.o)
 .debug_pubtypes
                0x00000e6c      0x3a9 c:/ndsdev/devkitPro/libnds/lib\libfat.a(partition.o)
 .debug_pubtypes
                0x00001215      0x13a c:/ndsdev/devkitPro/libnds/lib\libfat.a(cache.o)
 .debug_pubtypes
                0x0000134f      0x294 c:/ndsdev/devkitPro/libnds/lib\libfat.a(directory.o)
 .debug_pubtypes
                0x000015e3      0x105 c:/ndsdev/devkitPro/libnds/lib\libfat.a(disc.o)
 .debug_pubtypes
                0x000016e8      0x35a c:/ndsdev/devkitPro/libnds/lib\libfat.a(fatdir.o)
 .debug_pubtypes
                0x00001a42      0x366 c:/ndsdev/devkitPro/libnds/lib\libfat.a(fatfile.o)
 .debug_pubtypes
                0x00001da8      0x15d c:/ndsdev/devkitPro/libnds/lib\libfat.a(file_allocation_table.o)
 .debug_pubtypes
                0x00001f05       0x31 c:/ndsdev/devkitPro/libnds/lib\libfat.a(filetime.o)
 .debug_pubtypes
                0x00001f36       0x1e c:/ndsdev/devkitPro/libnds/lib\libfat.a(lock.o)
