Archive member included because of file (symbol)

c:/_ndsdev/devkitPro/PAlib/lib\libpa9.a(PA.o)
                              main.o (PA_CheckLid)
c:/_ndsdev/devkitPro/PAlib/lib\libpa9.a(PA_BgEasy.o)
                              main.o (PA_StoreEasyBgInfos)
c:/_ndsdev/devkitPro/PAlib/lib\libpa9.a(PA_BgLargeMap.o)
                              c:/_ndsdev/devkitPro/PAlib/lib\libpa9.a(PA_BgEasy.o) (PA_InfLargeScrollXN)
c:/_ndsdev/devkitPro/PAlib/lib\libpa9.a(PA_BgTiles.o)
                              main.o (PA_BgInfo)
c:/_ndsdev/devkitPro/PAlib/lib\libpa9.a(PA_Error.o)
                              c:/_ndsdev/devkitPro/PAlib/lib\libpa9.a(PA_BgTiles.o) (PA_Error)
c:/_ndsdev/devkitPro/PAlib/lib\libpa9.a(PA_Inits.o)
                              c:/_ndsdev/devkitPro/PAlib/lib\libpa9.a(PA_Error.o) (PA_Init2D)
c:/_ndsdev/devkitPro/PAlib/lib\libpa9.a(PA_Interrupt.o)
                              main.o (PA_VBLCountersReset)
c:/_ndsdev/devkitPro/PAlib/lib\libpa9.a(PA_Keys.o)
                              c:/_ndsdev/devkitPro/PAlib/lib\libpa9.a(PA_Interrupt.o) (PA_UpdatePad)
c:/_ndsdev/devkitPro/PAlib/lib\libpa9.a(PA_Math.o)
                              main.o (RandomValue)
c:/_ndsdev/devkitPro/PAlib/lib\libpa9.a(PA_Palette.o)
                              main.o (PA_LoadSpriteExtPal)
c:/_ndsdev/devkitPro/PAlib/lib\libpa9.a(PA_RTC.o)
                              c:/_ndsdev/devkitPro/PAlib/lib\libpa9.a(PA_Inits.o) (PA_UpdateUserInfo)
c:/_ndsdev/devkitPro/PAlib/lib\libpa9.a(PA_Reco.o)
                              c:/_ndsdev/devkitPro/PAlib/lib\libpa9.a(PA_Inits.o) (PA_UseGraffiti)
c:/_ndsdev/devkitPro/PAlib/lib\libpa9.a(PA_Sprite.o)
                              main.o (PA_ResetSpriteSysScreen)
c:/_ndsdev/devkitPro/PAlib/lib\libpa9.a(PA_SpriteAnim.o)
                              main.o (PA_StartSpriteAnimEx)
c:/_ndsdev/devkitPro/PAlib/lib\libpa9.a(PA_Stuff.o)
                              c:/_ndsdev/devkitPro/PAlib/lib\libpa9.a(PA_BgTiles.o) (PA_SetVideoMode)
c:/_ndsdev/devkitPro/PAlib/lib\libpa9.a(PA_Text.o)
                              c:/_ndsdev/devkitPro/PAlib/lib\libpa9.a(PA_Inits.o) (PA_textpal)
c:/_ndsdev/devkitPro/PAlib/lib\libpa9.a(PA_TextBits.o)
                              c:/_ndsdev/devkitPro/PAlib/lib\libpa9.a(PA_Inits.o) (pa_bittextpoliceheight)
c:/_ndsdev/devkitPro/PAlib/lib\libpa9.a(PA_TiledFont.o)
                              c:/_ndsdev/devkitPro/PAlib/lib\libpa9.a(PA_Text.o) (PA_TiledFont)
c:/_ndsdev/devkitPro/PAlib/lib\libpa9.a(PA_BmpFont0.o)
                              c:/_ndsdev/devkitPro/PAlib/lib\libpa9.a(PA_Inits.o) (PA_BmpFont0)
c:/_ndsdev/devkitPro/PAlib/lib\libpa9.a(PA_BmpFont1.o)
                              c:/_ndsdev/devkitPro/PAlib/lib\libpa9.a(PA_Inits.o) (PA_BmpFont1)
c:/_ndsdev/devkitPro/PAlib/lib\libpa9.a(PA_BmpFont2.o)
                              c:/_ndsdev/devkitPro/PAlib/lib\libpa9.a(PA_Inits.o) (PA_BmpFont2)
c:/_ndsdev/devkitPro/PAlib/lib\libpa9.a(PA_BmpFont3.o)
                              c:/_ndsdev/devkitPro/PAlib/lib\libpa9.a(PA_Inits.o) (PA_BmpFont3)
c:/_ndsdev/devkitPro/PAlib/lib\libpa9.a(PA_BmpFont4.o)
                              c:/_ndsdev/devkitPro/PAlib/lib\libpa9.a(PA_Inits.o) (PA_BmpFont4)
c:/_ndsdev/devkitPro/PAlib/lib\libpa9.a(PA_TiledFont_Map.bin.o)
                              c:/_ndsdev/devkitPro/PAlib/lib\libpa9.a(PA_Inits.o) (PA_TiledFont_Map)
c:/_ndsdev/devkitPro/PAlib/lib\libpa9.a(PA_TiledFont_Pal.bin.o)
                              c:/_ndsdev/devkitPro/PAlib/lib\libpa9.a(PA_Inits.o) (PA_TiledFont_Pal)
c:/_ndsdev/devkitPro/PAlib/lib\libpa9.a(PA_TiledFont_Tiles.bin.o)
                              c:/_ndsdev/devkitPro/PAlib/lib\libpa9.a(PA_Inits.o) (PA_TiledFont_Tiles)
c:/_ndsdev/devkitPro/PAlib/lib\libpa9.a(PA_BmpFont0_Map.bin.o)
                              c:/_ndsdev/devkitPro/PAlib/lib\libpa9.a(PA_TextBits.o) (PA_BmpFont0_Map)
c:/_ndsdev/devkitPro/PAlib/lib\libpa9.a(PA_BmpFont0_Sizes.bin.o)
                              c:/_ndsdev/devkitPro/PAlib/lib\libpa9.a(PA_TextBits.o) (PA_BmpFont0_Sizes)
c:/_ndsdev/devkitPro/PAlib/lib\libpa9.a(PA_BmpFont0_Tiles.bin.o)
                              c:/_ndsdev/devkitPro/PAlib/lib\libpa9.a(PA_Inits.o) (PA_BmpFont0_Tiles_size)
c:/_ndsdev/devkitPro/PAlib/lib\libpa9.a(PA_BmpFont1_Map.bin.o)
                              c:/_ndsdev/devkitPro/PAlib/lib\libpa9.a(PA_TextBits.o) (PA_BmpFont1_Map)
c:/_ndsdev/devkitPro/PAlib/lib\libpa9.a(PA_BmpFont1_Sizes.bin.o)
                              c:/_ndsdev/devkitPro/PAlib/lib\libpa9.a(PA_TextBits.o) (PA_BmpFont1_Sizes)
c:/_ndsdev/devkitPro/PAlib/lib\libpa9.a(PA_BmpFont1_Tiles.bin.o)
                              c:/_ndsdev/devkitPro/PAlib/lib\libpa9.a(PA_Inits.o) (PA_BmpFont1_Tiles_size)
c:/_ndsdev/devkitPro/PAlib/lib\libpa9.a(PA_BmpFont2_Map.bin.o)
                              c:/_ndsdev/devkitPro/PAlib/lib\libpa9.a(PA_TextBits.o) (PA_BmpFont2_Map)
c:/_ndsdev/devkitPro/PAlib/lib\libpa9.a(PA_BmpFont2_Sizes.bin.o)
                              c:/_ndsdev/devkitPro/PAlib/lib\libpa9.a(PA_TextBits.o) (PA_BmpFont2_Sizes)
c:/_ndsdev/devkitPro/PAlib/lib\libpa9.a(PA_BmpFont2_Tiles.bin.o)
                              c:/_ndsdev/devkitPro/PAlib/lib\libpa9.a(PA_Inits.o) (PA_BmpFont2_Tiles_size)
c:/_ndsdev/devkitPro/PAlib/lib\libpa9.a(PA_BmpFont3_Map.bin.o)
                              c:/_ndsdev/devkitPro/PAlib/lib\libpa9.a(PA_TextBits.o) (PA_BmpFont3_Map)
c:/_ndsdev/devkitPro/PAlib/lib\libpa9.a(PA_BmpFont3_Sizes.bin.o)
                              c:/_ndsdev/devkitPro/PAlib/lib\libpa9.a(PA_TextBits.o) (PA_BmpFont3_Sizes)
c:/_ndsdev/devkitPro/PAlib/lib\libpa9.a(PA_BmpFont3_Tiles.bin.o)
                              c:/_ndsdev/devkitPro/PAlib/lib\libpa9.a(PA_Inits.o) (PA_BmpFont3_Tiles_size)
c:/_ndsdev/devkitPro/PAlib/lib\libpa9.a(PA_BmpFont4_Map.bin.o)
                              c:/_ndsdev/devkitPro/PAlib/lib\libpa9.a(PA_TextBits.o) (PA_BmpFont4_Map)
c:/_ndsdev/devkitPro/PAlib/lib\libpa9.a(PA_BmpFont4_Sizes.bin.o)
                              c:/_ndsdev/devkitPro/PAlib/lib\libpa9.a(PA_TextBits.o) (PA_BmpFont4_Sizes)
c:/_ndsdev/devkitPro/PAlib/lib\libpa9.a(PA_BmpFont4_Tiles.bin.o)
                              c:/_ndsdev/devkitPro/PAlib/lib\libpa9.a(PA_Inits.o) (PA_BmpFont4_Tiles_size)
c:/_ndsdev/devkitPro/PAlib/lib\libpa9.a(PA_Fifo.o)
                              c:/_ndsdev/devkitPro/PAlib/lib\libpa9.a(PA_Inits.o) (PA_InitFifo)
c:/_ndsdev/devkitPro/PAlib/lib\libpa9.a(PA_NewBg.o)
                              c:/_ndsdev/devkitPro/PAlib/lib\libpa9.a(PA_Text.o) (PA_LoadText)
c:/_ndsdev/devkitPro/PAlib/lib\libpa9.a(PA_PaletteEx.o)
                              c:/_ndsdev/devkitPro/PAlib/lib\libpa9.a(PA_Text.o) (PA_SetBgPalNCol)
c:/_ndsdev/devkitPro/PAlib/lib\libpa9.a(PA_Text8bit.o)
                              c:/_ndsdev/devkitPro/PAlib/lib\libpa9.a(PA_NewBg.o) (bit8_tiles)
c:/_ndsdev/devkitPro/PAlib/lib\libpa9.a(PA_16c.o)
                              c:/_ndsdev/devkitPro/PAlib/lib\libpa9.a(PA_NewBg.o) (c16_tiles)
c:/_ndsdev/devkitPro/PAlib/lib\libpa9.a(PA_BgRot.o)
                              c:/_ndsdev/devkitPro/PAlib/lib\libpa9.a(PA_NewBg.o) (PA_LoadRotBgMap)
c:/_ndsdev/devkitPro/PAlib/lib\libpa9.a(PA_Draw.o)
                              c:/_ndsdev/devkitPro/PAlib/lib\libpa9.a(PA_Text8bit.o) (PA_DrawBg)
c:/_ndsdev/devkitPro/PAlib/lib\libpa9.a(PA_Keyboard.o)
                              c:/_ndsdev/devkitPro/PAlib/lib\libpa9.a(PA_NewBg.o) (PA_Keyboard_Struct)
c:/_ndsdev/devkitPro/PAlib/lib\libpa9.a(keyboard.map.o)
                              c:/_ndsdev/devkitPro/PAlib/lib\libpa9.a(PA_Keyboard.o) (keyboard_Map)
c:/_ndsdev/devkitPro/PAlib/lib\libpa9.a(keyboard.pal.o)
                              c:/_ndsdev/devkitPro/PAlib/lib\libpa9.a(PA_Keyboard.o) (keyboard_Palette)
c:/_ndsdev/devkitPro/PAlib/lib\libpa9.a(keyboard.raw.o)
                              c:/_ndsdev/devkitPro/PAlib/lib\libpa9.a(PA_Keyboard.o) (keyboard_Tiles)
c:/_ndsdev/devkitPro/libnds/lib\libnds9.a(background.o)
                              virtual_io.o (bgInit_call)
c:/_ndsdev/devkitPro/libnds/lib\libnds9.a(decompress.o)
                              virtual_io.o (decompress)
c:/_ndsdev/devkitPro/libnds/lib\libnds9.a(keys.o)
                              c:/_ndsdev/devkitPro/PAlib/lib\libpa9.a(PA_Keys.o) (scanKeys)
c:/_ndsdev/devkitPro/libnds/lib\libnds9.a(system.o)
                              c:/_ndsdev/devkitPro/PAlib/lib\libpa9.a(PA_Inits.o) (powerOn)
c:/_ndsdev/devkitPro/libnds/lib\libnds9.a(touch.o)
                              virtual_io.o (touchRead)
c:/_ndsdev/devkitPro/libnds/lib\libnds9.a(trig.o)
                              c:/_ndsdev/devkitPro/libnds/lib\libnds9.a(background.o) (sinLerp)
c:/_ndsdev/devkitPro/libnds/lib\libnds9.a(video.o)
                              c:/_ndsdev/devkitPro/PAlib/lib\libpa9.a(PA_Inits.o) (vramSetMainBanks)
c:/_ndsdev/devkitPro/libnds/lib\libnds9.a(initSystem.o)
                              c:/_ndsdev/devkitpro/devkitarm/bin/../lib/gcc/arm-eabi/4.6.1/../../../../arm-eabi/lib/thumb/ds_arm9_crt0.o (initSystem)
c:/_ndsdev/devkitPro/libnds/lib\libnds9.a(fifosystem.o)
                              c:/_ndsdev/devkitPro/PAlib/lib\libpa9.a(PA.o) (fifoSendValue32)
c:/_ndsdev/devkitPro/libnds/lib\libnds9.a(interrupts.o)
                              port.o (irqSet)
c:/_ndsdev/devkitPro/libnds/lib\libnds9.a(libnds_exit.o)
                              c:/_ndsdev/devkitpro/devkitarm/bin/../lib/gcc/arm-eabi/4.6.1/../../../../arm-eabi/lib/thumb/ds_arm9_crt0.o (__libnds_exit)
c:/_ndsdev/devkitPro/libnds/lib\libnds9.a(syscalls.o)
                              c:/_ndsdev/devkitPro/libnds/lib\libnds9.a(decompress.o) (swiDecompressLZSSVram)
c:/_ndsdev/devkitPro/libnds/lib\libnds9.a(dcache.o)
                              c:/_ndsdev/devkitPro/PAlib/lib\libpa9.a(PA_BgTiles.o) (DC_FlushRange)
c:/_ndsdev/devkitPro/libnds/lib\libnds9.a(mpu_setup.o)
                              c:/_ndsdev/devkitpro/devkitarm/bin/../lib/gcc/arm-eabi/4.6.1/../../../../arm-eabi/lib/thumb/ds_arm9_crt0.o (__libnds_mpu_setup)
c:/_ndsdev/devkitPro/libnds/lib\libnds9.a(biosCalls.o)
                              c:/_ndsdev/devkitPro/PAlib/lib\libpa9.a(PA.o) (swiDelay)
c:/_ndsdev/devkitPro/libnds/lib\libnds9.a(interruptDispatcher.o)
                              c:/_ndsdev/devkitPro/libnds/lib\libnds9.a(interrupts.o) (IntrMain)
c:/_ndsdev/devkitPro/libnds/lib\libnds9.a(swiSoftReset.o)
                              c:/_ndsdev/devkitPro/libnds/lib\libnds9.a(fifosystem.o) (swiSoftReset)
c:/_ndsdev/devkitPro/libnds/lib\libmm9.a(mm_comms.o)
                              main.o (mmStart)
c:/_ndsdev/devkitPro/libnds/lib\libmm9.a(mm_main9.o)
                              c:/_ndsdev/devkitPro/libnds/lib\libmm9.a(mm_comms.o) (mmCallback)
c:/_ndsdev/devkitPro/libnds/lib\libmm9.a(mm_memory.o)
                              main.o (mmLoad)
c:/_ndsdev/devkitPro/libnds/lib\libmm9.a(mm_soundbank.o)
                              c:/_ndsdev/devkitPro/libnds/lib\libmm9.a(mm_main9.o) (mmSoundBankInMemory)
c:/_ndsdev/devkitPro/libnds/lib\libmm9.a(mm_flusher.o)
                              c:/_ndsdev/devkitPro/libnds/lib\libmm9.a(mm_memory.o) (mmFlushBank)
c:/_ndsdev/devkitpro/devkitarm/bin/../lib/gcc/arm-eabi/4.6.1/thumb\libgcc.a(_udivsi3.o)
                              main.o (__aeabi_uidivmod)
c:/_ndsdev/devkitpro/devkitarm/bin/../lib/gcc/arm-eabi/4.6.1/thumb\libgcc.a(_divsi3.o)
                              main.o (__aeabi_idiv)
c:/_ndsdev/devkitpro/devkitarm/bin/../lib/gcc/arm-eabi/4.6.1/thumb\libgcc.a(_dvmd_tls.o)
                              c:/_ndsdev/devkitpro/devkitarm/bin/../lib/gcc/arm-eabi/4.6.1/thumb\libgcc.a(_udivsi3.o) (__aeabi_idiv0)
c:/_ndsdev/devkitpro/devkitarm/bin/../lib/gcc/arm-eabi/4.6.1/thumb\libgcc.a(_arm_addsubdf3.o)
                              c:/_ndsdev/devkitPro/PAlib/lib\libpa9.a(PA_Text.o) (__aeabi_dsub)
c:/_ndsdev/devkitpro/devkitarm/bin/../lib/gcc/arm-eabi/4.6.1/thumb\libgcc.a(_arm_muldivdf3.o)
                              c:/_ndsdev/devkitPro/PAlib/lib\libpa9.a(PA_Text.o) (__aeabi_dmul)
c:/_ndsdev/devkitpro/devkitarm/bin/../lib/gcc/arm-eabi/4.6.1/thumb\libgcc.a(_arm_cmpdf2.o)
                              c:/_ndsdev/devkitPro/PAlib/lib\libpa9.a(PA_Text.o) (__aeabi_dcmplt)
c:/_ndsdev/devkitpro/devkitarm/bin/../lib/gcc/arm-eabi/4.6.1/thumb\libgcc.a(_arm_fixdfsi.o)
                              c:/_ndsdev/devkitPro/PAlib/lib\libpa9.a(PA_Text.o) (__aeabi_d2iz)
c:/_ndsdev/devkitpro/devkitarm/bin/../lib/gcc/arm-eabi/4.6.1/thumb\libgcc.a(_muldi3.o)
                              c:/_ndsdev/devkitPro/PAlib/lib\libpa9.a(PA_Math.o) (__aeabi_lmul)
c:/_ndsdev/devkitpro/devkitarm/bin/../lib/gcc/arm-eabi/4.6.1/../../../../arm-eabi/lib/thumb\libg.a(lib_a-bsearch.o)
                              c:/_ndsdev/devkitPro/libnds/lib\libnds9.a(trig.o) (bsearch)
c:/_ndsdev/devkitpro/devkitarm/bin/../lib/gcc/arm-eabi/4.6.1/../../../../arm-eabi/lib/thumb\libg.a(lib_a-fclose.o)
                              c:/_ndsdev/devkitPro/libnds/lib\libmm9.a(mm_main9.o) (fclose)
c:/_ndsdev/devkitpro/devkitarm/bin/../lib/gcc/arm-eabi/4.6.1/../../../../arm-eabi/lib/thumb\libg.a(lib_a-fflush.o)
                              c:/_ndsdev/devkitpro/devkitarm/bin/../lib/gcc/arm-eabi/4.6.1/../../../../arm-eabi/lib/thumb\libg.a(lib_a-fclose.o) (_fflush_r)
c:/_ndsdev/devkitpro/devkitarm/bin/../lib/gcc/arm-eabi/4.6.1/../../../../arm-eabi/lib/thumb\libg.a(lib_a-findfp.o)
                              c:/_ndsdev/devkitpro/devkitarm/bin/../lib/gcc/arm-eabi/4.6.1/../../../../arm-eabi/lib/thumb\libg.a(lib_a-fclose.o) (__sinit)
c:/_ndsdev/devkitpro/devkitarm/bin/../lib/gcc/arm-eabi/4.6.1/../../../../arm-eabi/lib/thumb\libg.a(lib_a-fopen.o)
                              c:/_ndsdev/devkitPro/libnds/lib\libmm9.a(mm_main9.o) (fopen)
c:/_ndsdev/devkitpro/devkitarm/bin/../lib/gcc/arm-eabi/4.6.1/../../../../arm-eabi/lib/thumb\libg.a(lib_a-fread.o)
                              c:/_ndsdev/devkitPro/libnds/lib\libmm9.a(mm_main9.o) (fread)
c:/_ndsdev/devkitpro/devkitarm/bin/../lib/gcc/arm-eabi/4.6.1/../../../../arm-eabi/lib/thumb\libg.a(lib_a-freer.o)
                              c:/_ndsdev/devkitpro/devkitarm/bin/../lib/gcc/arm-eabi/4.6.1/../../../../arm-eabi/lib/thumb\libg.a(lib_a-fclose.o) (_free_r)
c:/_ndsdev/devkitpro/devkitarm/bin/../lib/gcc/arm-eabi/4.6.1/../../../../arm-eabi/lib/thumb\libg.a(lib_a-fseek.o)
                              c:/_ndsdev/devkitpro/devkitarm/bin/../lib/gcc/arm-eabi/4.6.1/../../../../arm-eabi/lib/thumb\libg.a(lib_a-fopen.o) (_fseek_r)
c:/_ndsdev/devkitpro/devkitarm/bin/../lib/gcc/arm-eabi/4.6.1/../../../../arm-eabi/lib/thumb\libg.a(lib_a-fwalk.o)
                              c:/_ndsdev/devkitpro/devkitarm/bin/../lib/gcc/arm-eabi/4.6.1/../../../../arm-eabi/lib/thumb\libg.a(lib_a-findfp.o) (_fwalk)
c:/_ndsdev/devkitpro/devkitarm/bin/../lib/gcc/arm-eabi/4.6.1/../../../../arm-eabi/lib/thumb\libg.a(lib_a-gmtime.o)
                              c:/_ndsdev/devkitPro/PAlib/lib\libpa9.a(PA_RTC.o) (gmtime)
c:/_ndsdev/devkitpro/devkitarm/bin/../lib/gcc/arm-eabi/4.6.1/../../../../arm-eabi/lib/thumb\libg.a(lib_a-gmtime_r.o)
                              c:/_ndsdev/devkitpro/devkitarm/bin/../lib/gcc/arm-eabi/4.6.1/../../../../arm-eabi/lib/thumb\libg.a(lib_a-gmtime.o) (gmtime_r)
c:/_ndsdev/devkitpro/devkitarm/bin/../lib/gcc/arm-eabi/4.6.1/../../../../arm-eabi/lib/thumb\libg.a(lib_a-impure.o)
                              c:/_ndsdev/devkitpro/devkitarm/bin/../lib/gcc/arm-eabi/4.6.1/../../../../arm-eabi/lib/thumb\libg.a(lib_a-fflush.o) (_global_impure_ptr)
c:/_ndsdev/devkitpro/devkitarm/bin/../lib/gcc/arm-eabi/4.6.1/../../../../arm-eabi/lib/thumb\libg.a(lib_a-init.o)
                              c:/_ndsdev/devkitpro/devkitarm/bin/../lib/gcc/arm-eabi/4.6.1/../../../../arm-eabi/lib/thumb/ds_arm9_crt0.o (__libc_init_array)
c:/_ndsdev/devkitpro/devkitarm/bin/../lib/gcc/arm-eabi/4.6.1/../../../../arm-eabi/lib/thumb\libg.a(lib_a-locale.o)
                              c:/_ndsdev/devkitPro/PAlib/lib\libpa9.a(PA_Inits.o) (setlocale)
c:/_ndsdev/devkitpro/devkitarm/bin/../lib/gcc/arm-eabi/4.6.1/../../../../arm-eabi/lib/thumb\libg.a(lib_a-makebuf.o)
                              c:/_ndsdev/devkitpro/devkitarm/bin/../lib/gcc/arm-eabi/4.6.1/../../../../arm-eabi/lib/thumb\libg.a(lib_a-fseek.o) (__smakebuf_r)
c:/_ndsdev/devkitpro/devkitarm/bin/../lib/gcc/arm-eabi/4.6.1/../../../../arm-eabi/lib/thumb\libg.a(lib_a-malloc.o)
                              heap.o (malloc)
c:/_ndsdev/devkitpro/devkitarm/bin/../lib/gcc/arm-eabi/4.6.1/../../../../arm-eabi/lib/thumb\libg.a(lib_a-mallocr.o)
                              c:/_ndsdev/devkitpro/devkitarm/bin/../lib/gcc/arm-eabi/4.6.1/../../../../arm-eabi/lib/thumb\libg.a(lib_a-findfp.o) (_malloc_r)
c:/_ndsdev/devkitpro/devkitarm/bin/../lib/gcc/arm-eabi/4.6.1/../../../../arm-eabi/lib/thumb\libg.a(lib_a-mbtowc_r.o)
                              c:/_ndsdev/devkitpro/devkitarm/bin/../lib/gcc/arm-eabi/4.6.1/../../../../arm-eabi/lib/thumb\libg.a(lib_a-locale.o) (__utf8_mbtowc)
c:/_ndsdev/devkitpro/devkitarm/bin/../lib/gcc/arm-eabi/4.6.1/../../../../arm-eabi/lib/thumb\libg.a(lib_a-memcpy.o)
                              queue.o (memcpy)
c:/_ndsdev/devkitpro/devkitarm/bin/../lib/gcc/arm-eabi/4.6.1/../../../../arm-eabi/lib/thumb\libg.a(lib_a-memset.o)
                              tasks.o (memset)
c:/_ndsdev/devkitpro/devkitarm/bin/../lib/gcc/arm-eabi/4.6.1/../../../../arm-eabi/lib/thumb\libg.a(lib_a-mktm_r.o)
                              c:/_ndsdev/devkitpro/devkitarm/bin/../lib/gcc/arm-eabi/4.6.1/../../../../arm-eabi/lib/thumb\libg.a(lib_a-gmtime_r.o) (_mktm_r)
c:/_ndsdev/devkitpro/devkitarm/bin/../lib/gcc/arm-eabi/4.6.1/../../../../arm-eabi/lib/thumb\libg.a(lib_a-mlock.o)
                              c:/_ndsdev/devkitpro/devkitarm/bin/../lib/gcc/arm-eabi/4.6.1/../../../../arm-eabi/lib/thumb\libg.a(lib_a-freer.o) (__malloc_lock)
c:/_ndsdev/devkitpro/devkitarm/bin/../lib/gcc/arm-eabi/4.6.1/../../../../arm-eabi/lib/thumb\libg.a(lib_a-refill.o)
                              c:/_ndsdev/devkitpro/devkitarm/bin/../lib/gcc/arm-eabi/4.6.1/../../../../arm-eabi/lib/thumb\libg.a(lib_a-fread.o) (__srefill_r)
c:/_ndsdev/devkitpro/devkitarm/bin/../lib/gcc/arm-eabi/4.6.1/../../../../arm-eabi/lib/thumb\libg.a(lib_a-sprintf.o)
                              tasks.o (sprintf)
c:/_ndsdev/devkitpro/devkitarm/bin/../lib/gcc/arm-eabi/4.6.1/../../../../arm-eabi/lib/thumb\libg.a(lib_a-stdio.o)
                              c:/_ndsdev/devkitpro/devkitarm/bin/../lib/gcc/arm-eabi/4.6.1/../../../../arm-eabi/lib/thumb\libg.a(lib_a-findfp.o) (__sread)
c:/_ndsdev/devkitpro/devkitarm/bin/../lib/gcc/arm-eabi/4.6.1/../../../../arm-eabi/lib/thumb\libg.a(lib_a-strcasecmp.o)
                              c:/_ndsdev/devkitPro/PAlib/lib\libpa9.a(PA_Stuff.o) (strcasecmp)
c:/_ndsdev/devkitpro/devkitarm/bin/../lib/gcc/arm-eabi/4.6.1/../../../../arm-eabi/lib/thumb\libg.a(lib_a-strcat.o)
                              tasks.o (strcat)
c:/_ndsdev/devkitpro/devkitarm/bin/../lib/gcc/arm-eabi/4.6.1/../../../../arm-eabi/lib/thumb\libg.a(lib_a-strchr.o)
                              c:/_ndsdev/devkitpro/devkitarm/bin/../lib/gcc/arm-eabi/4.6.1/../../../../arm-eabi/lib/thumb\libg.a(lib_a-locale.o) (strchr)
c:/_ndsdev/devkitpro/devkitarm/bin/../lib/gcc/arm-eabi/4.6.1/../../../../arm-eabi/lib/thumb\libg.a(lib_a-strcmp.o)
                              c:/_ndsdev/devkitPro/PAlib/lib\libpa9.a(PA_Stuff.o) (strcmp)
c:/_ndsdev/devkitpro/devkitarm/bin/../lib/gcc/arm-eabi/4.6.1/../../../../arm-eabi/lib/thumb\libg.a(lib_a-strcpy.o)
                              c:/_ndsdev/devkitPro/PAlib/lib\libpa9.a(PA_Stuff.o) (strcpy)
c:/_ndsdev/devkitpro/devkitarm/bin/../lib/gcc/arm-eabi/4.6.1/../../../../arm-eabi/lib/thumb\libg.a(lib_a-strlcpy.o)
                              c:/_ndsdev/devkitpro/devkitarm/bin/../lib/gcc/arm-eabi/4.6.1/../../../../arm-eabi/lib/thumb\libg.a(lib_a-locale.o) (strlcpy)
c:/_ndsdev/devkitpro/devkitarm/bin/../lib/gcc/arm-eabi/4.6.1/../../../../arm-eabi/lib/thumb\libg.a(lib_a-strlen.o)
                              tasks.o (strlen)
c:/_ndsdev/devkitpro/devkitarm/bin/../lib/gcc/arm-eabi/4.6.1/../../../../arm-eabi/lib/thumb\libg.a(lib_a-strncasecmp.o)
                              c:/_ndsdev/devkitpro/devkitarm/bin/../lib/gcc/arm-eabi/4.6.1/../../../../arm-eabi/lib/thumb\libg.a(lib_a-locale.o) (strncasecmp)
c:/_ndsdev/devkitpro/devkitarm/bin/../lib/gcc/arm-eabi/4.6.1/../../../../arm-eabi/lib/thumb\libg.a(lib_a-strncmp.o)
                              c:/_ndsdev/devkitpro/devkitarm/bin/../lib/gcc/arm-eabi/4.6.1/../../../../arm-eabi/lib/thumb\libg.a(lib_a-locale.o) (strncmp)
c:/_ndsdev/devkitpro/devkitarm/bin/../lib/gcc/arm-eabi/4.6.1/../../../../arm-eabi/lib/thumb\libg.a(lib_a-strncpy.o)
                              tasks.o (strncpy)
c:/_ndsdev/devkitpro/devkitarm/bin/../lib/gcc/arm-eabi/4.6.1/../../../../arm-eabi/lib/thumb\libg.a(lib_a-strtol.o)
                              c:/_ndsdev/devkitpro/devkitarm/bin/../lib/gcc/arm-eabi/4.6.1/../../../../arm-eabi/lib/thumb\libg.a(lib_a-locale.o) (_strtol_r)
c:/_ndsdev/devkitpro/devkitarm/bin/../lib/gcc/arm-eabi/4.6.1/../../../../arm-eabi/lib/thumb\libg.a(lib_a-svfprintf.o)
                              c:/_ndsdev/devkitpro/devkitarm/bin/../lib/gcc/arm-eabi/4.6.1/../../../../arm-eabi/lib/thumb\libg.a(lib_a-sprintf.o) (_svfprintf_r)
c:/_ndsdev/devkitpro/devkitarm/bin/../lib/gcc/arm-eabi/4.6.1/../../../../arm-eabi/lib/thumb\libg.a(lib_a-sysstat.o)
                              c:/_ndsdev/devkitPro/PAlib/lib\libpa9.a(PA_Stuff.o) (stat)
c:/_ndsdev/devkitpro/devkitarm/bin/../lib/gcc/arm-eabi/4.6.1/../../../../arm-eabi/lib/thumb\libg.a(lib_a-time.o)
                              c:/_ndsdev/devkitPro/PAlib/lib\libpa9.a(PA_RTC.o) (time)
c:/_ndsdev/devkitpro/devkitarm/bin/../lib/gcc/arm-eabi/4.6.1/../../../../arm-eabi/lib/thumb\libg.a(lib_a-tzlock.o)
                              c:/_ndsdev/devkitpro/devkitarm/bin/../lib/gcc/arm-eabi/4.6.1/../../../../arm-eabi/lib/thumb\libg.a(lib_a-mktm_r.o) (__tz_lock)
c:/_ndsdev/devkitpro/devkitarm/bin/../lib/gcc/arm-eabi/4.6.1/../../../../arm-eabi/lib/thumb\libg.a(lib_a-tzvars.o)
                              c:/_ndsdev/devkitpro/devkitarm/bin/../lib/gcc/arm-eabi/4.6.1/../../../../arm-eabi/lib/thumb\libg.a(lib_a-mktm_r.o) (_daylight)
c:/_ndsdev/devkitpro/devkitarm/bin/../lib/gcc/arm-eabi/4.6.1/../../../../arm-eabi/lib/thumb\libg.a(lib_a-wcrtomb.o)
                              c:/_ndsdev/devkitpro/devkitarm/bin/../lib/gcc/arm-eabi/4.6.1/../../../../arm-eabi/lib/thumb\libg.a(lib_a-svfprintf.o) (_wcrtomb_r)
c:/_ndsdev/devkitpro/devkitarm/bin/../lib/gcc/arm-eabi/4.6.1/../../../../arm-eabi/lib/thumb\libg.a(lib_a-wcsrtombs.o)
                              c:/_ndsdev/devkitpro/devkitarm/bin/../lib/gcc/arm-eabi/4.6.1/../../../../arm-eabi/lib/thumb\libg.a(lib_a-svfprintf.o) (_wcsrtombs_r)
c:/_ndsdev/devkitpro/devkitarm/bin/../lib/gcc/arm-eabi/4.6.1/../../../../arm-eabi/lib/thumb\libg.a(lib_a-wctomb_r.o)
                              c:/_ndsdev/devkitpro/devkitarm/bin/../lib/gcc/arm-eabi/4.6.1/../../../../arm-eabi/lib/thumb\libg.a(lib_a-locale.o) (__utf8_wctomb)
c:/_ndsdev/devkitpro/devkitarm/bin/../lib/gcc/arm-eabi/4.6.1/../../../../arm-eabi/lib/thumb\libg.a(lib_a-ctype_.o)
                              c:/_ndsdev/devkitpro/devkitarm/bin/../lib/gcc/arm-eabi/4.6.1/../../../../arm-eabi/lib/thumb\libg.a(lib_a-locale.o) (__set_ctype)
c:/_ndsdev/devkitpro/devkitarm/bin/../lib/gcc/arm-eabi/4.6.1/../../../../arm-eabi/lib/thumb\libg.a(lib_a-dtoa.o)
                              c:/_ndsdev/devkitpro/devkitarm/bin/../lib/gcc/arm-eabi/4.6.1/../../../../arm-eabi/lib/thumb\libg.a(lib_a-svfprintf.o) (_dtoa_r)
c:/_ndsdev/devkitpro/devkitarm/bin/../lib/gcc/arm-eabi/4.6.1/../../../../arm-eabi/lib/thumb\libg.a(lib_a-flags.o)
                              c:/_ndsdev/devkitpro/devkitarm/bin/../lib/gcc/arm-eabi/4.6.1/../../../../arm-eabi/lib/thumb\libg.a(lib_a-fopen.o) (__sflags)
c:/_ndsdev/devkitpro/devkitarm/bin/../lib/gcc/arm-eabi/4.6.1/../../../../arm-eabi/lib/thumb\libg.a(lib_a-getenv_r.o)
                              c:/_ndsdev/devkitpro/devkitarm/bin/../lib/gcc/arm-eabi/4.6.1/../../../../arm-eabi/lib/thumb\libg.a(lib_a-locale.o) (_getenv_r)
c:/_ndsdev/devkitpro/devkitarm/bin/../lib/gcc/arm-eabi/4.6.1/../../../../arm-eabi/lib/thumb\libg.a(lib_a-gettzinfo.o)
                              c:/_ndsdev/devkitpro/devkitarm/bin/../lib/gcc/arm-eabi/4.6.1/../../../../arm-eabi/lib/thumb\libg.a(lib_a-mktm_r.o) (__gettzinfo)
c:/_ndsdev/devkitpro/devkitarm/bin/../lib/gcc/arm-eabi/4.6.1/../../../../arm-eabi/lib/thumb\libg.a(lib_a-memchr.o)
                              c:/_ndsdev/devkitpro/devkitarm/bin/../lib/gcc/arm-eabi/4.6.1/../../../../arm-eabi/lib/thumb\libg.a(lib_a-svfprintf.o) (memchr)
c:/_ndsdev/devkitpro/devkitarm/bin/../lib/gcc/arm-eabi/4.6.1/../../../../arm-eabi/lib/thumb\libg.a(lib_a-mprec.o)
                              c:/_ndsdev/devkitpro/devkitarm/bin/../lib/gcc/arm-eabi/4.6.1/../../../../arm-eabi/lib/thumb\libg.a(lib_a-dtoa.o) (_Balloc)
c:/_ndsdev/devkitpro/devkitarm/bin/../lib/gcc/arm-eabi/4.6.1/../../../../arm-eabi/lib/thumb\libg.a(lib_a-s_fpclassify.o)
                              c:/_ndsdev/devkitpro/devkitarm/bin/../lib/gcc/arm-eabi/4.6.1/../../../../arm-eabi/lib/thumb\libg.a(lib_a-svfprintf.o) (__fpclassifyd)
c:/_ndsdev/devkitpro/devkitarm/bin/../lib/gcc/arm-eabi/4.6.1/../../../../arm-eabi/lib/thumb\libg.a(lib_a-svfiprintf.o)
                              c:/_ndsdev/devkitpro/devkitarm/bin/../lib/gcc/arm-eabi/4.6.1/../../../../arm-eabi/lib/thumb\libg.a(lib_a-svfprintf.o) (__ssprint_r)
c:/_ndsdev/devkitpro/devkitarm/bin/../lib/gcc/arm-eabi/4.6.1/../../../../arm-eabi/lib/thumb\libg.a(lib_a-wcsnrtombs.o)
                              c:/_ndsdev/devkitpro/devkitarm/bin/../lib/gcc/arm-eabi/4.6.1/../../../../arm-eabi/lib/thumb\libg.a(lib_a-wcsrtombs.o) (_wcsnrtombs_r)
c:/_ndsdev/devkitpro/devkitarm/bin/../lib/gcc/arm-eabi/4.6.1/../../../../arm-eabi/lib/thumb\libg.a(lib_a-callocr.o)
                              c:/_ndsdev/devkitpro/devkitarm/bin/../lib/gcc/arm-eabi/4.6.1/../../../../arm-eabi/lib/thumb\libg.a(lib_a-mprec.o) (_calloc_r)
c:/_ndsdev/devkitpro/devkitarm/bin/../lib/gcc/arm-eabi/4.6.1/../../../../arm-eabi/lib/thumb\libg.a(lib_a-environ.o)
                              c:/_ndsdev/devkitpro/devkitarm/bin/../lib/gcc/arm-eabi/4.6.1/../../../../arm-eabi/lib/thumb\libg.a(lib_a-getenv_r.o) (environ)
c:/_ndsdev/devkitpro/devkitarm/bin/../lib/gcc/arm-eabi/4.6.1/../../../../arm-eabi/lib/thumb\libg.a(lib_a-envlock.o)
                              c:/_ndsdev/devkitpro/devkitarm/bin/../lib/gcc/arm-eabi/4.6.1/../../../../arm-eabi/lib/thumb\libg.a(lib_a-getenv_r.o) (__env_lock)
c:/_ndsdev/devkitpro/devkitarm/bin/../lib/gcc/arm-eabi/4.6.1/../../../../arm-eabi/lib/thumb\libg.a(lib_a-memmove.o)
                              c:/_ndsdev/devkitpro/devkitarm/bin/../lib/gcc/arm-eabi/4.6.1/../../../../arm-eabi/lib/thumb\libg.a(lib_a-svfiprintf.o) (memmove)
c:/_ndsdev/devkitpro/devkitarm/bin/../lib/gcc/arm-eabi/4.6.1/../../../../arm-eabi/lib/thumb\libg.a(lib_a-reallocr.o)
                              c:/_ndsdev/devkitpro/devkitarm/bin/../lib/gcc/arm-eabi/4.6.1/../../../../arm-eabi/lib/thumb\libg.a(lib_a-svfiprintf.o) (_realloc_r)
c:/_ndsdev/devkitpro/devkitarm/bin/../lib/gcc/arm-eabi/4.6.1/../../../../arm-eabi/lib/thumb\libsysbase.a(close.o)
                              c:/_ndsdev/devkitpro/devkitarm/bin/../lib/gcc/arm-eabi/4.6.1/../../../../arm-eabi/lib/thumb\libg.a(lib_a-stdio.o) (_close_r)
c:/_ndsdev/devkitpro/devkitarm/bin/../lib/gcc/arm-eabi/4.6.1/../../../../arm-eabi/lib/thumb\libsysbase.a(fstat.o)
                              c:/_ndsdev/devkitpro/devkitarm/bin/../lib/gcc/arm-eabi/4.6.1/../../../../arm-eabi/lib/thumb\libg.a(lib_a-fseek.o) (_fstat_r)
c:/_ndsdev/devkitpro/devkitarm/bin/../lib/gcc/arm-eabi/4.6.1/../../../../arm-eabi/lib/thumb\libsysbase.a(isatty.o)
                              c:/_ndsdev/devkitpro/devkitarm/bin/../lib/gcc/arm-eabi/4.6.1/../../../../arm-eabi/lib/thumb\libg.a(lib_a-makebuf.o) (_isatty_r)
c:/_ndsdev/devkitpro/devkitarm/bin/../lib/gcc/arm-eabi/4.6.1/../../../../arm-eabi/lib/thumb\libsysbase.a(lseek.o)
                              c:/_ndsdev/devkitpro/devkitarm/bin/../lib/gcc/arm-eabi/4.6.1/../../../../arm-eabi/lib/thumb\libg.a(lib_a-stdio.o) (_lseek_r)
c:/_ndsdev/devkitpro/devkitarm/bin/../lib/gcc/arm-eabi/4.6.1/../../../../arm-eabi/lib/thumb\libsysbase.a(open.o)
                              c:/_ndsdev/devkitpro/devkitarm/bin/../lib/gcc/arm-eabi/4.6.1/../../../../arm-eabi/lib/thumb\libg.a(lib_a-fopen.o) (_open_r)
c:/_ndsdev/devkitpro/devkitarm/bin/../lib/gcc/arm-eabi/4.6.1/../../../../arm-eabi/lib/thumb\libsysbase.a(read.o)
                              c:/_ndsdev/devkitpro/devkitarm/bin/../lib/gcc/arm-eabi/4.6.1/../../../../arm-eabi/lib/thumb\libg.a(lib_a-stdio.o) (_read_r)
c:/_ndsdev/devkitpro/devkitarm/bin/../lib/gcc/arm-eabi/4.6.1/../../../../arm-eabi/lib/thumb\libsysbase.a(sbrk.o)
                              c:/_ndsdev/devkitpro/devkitarm/bin/../lib/gcc/arm-eabi/4.6.1/../../../../arm-eabi/lib/thumb\libg.a(lib_a-freer.o) (_sbrk_r)
c:/_ndsdev/devkitpro/devkitarm/bin/../lib/gcc/arm-eabi/4.6.1/../../../../arm-eabi/lib/thumb\libsysbase.a(stat.o)
                              c:/_ndsdev/devkitpro/devkitarm/bin/../lib/gcc/arm-eabi/4.6.1/../../../../arm-eabi/lib/thumb\libg.a(lib_a-sysstat.o) (_stat_r)
c:/_ndsdev/devkitpro/devkitarm/bin/../lib/gcc/arm-eabi/4.6.1/../../../../arm-eabi/lib/thumb\libsysbase.a(times.o)
                              c:/_ndsdev/devkitpro/devkitarm/bin/../lib/gcc/arm-eabi/4.6.1/../../../../arm-eabi/lib/thumb\libg.a(lib_a-time.o) (_gettimeofday_r)
c:/_ndsdev/devkitpro/devkitarm/bin/../lib/gcc/arm-eabi/4.6.1/../../../../arm-eabi/lib/thumb\libsysbase.a(write.o)
                              c:/_ndsdev/devkitpro/devkitarm/bin/../lib/gcc/arm-eabi/4.6.1/../../../../arm-eabi/lib/thumb\libg.a(lib_a-stdio.o) (_write_r)
c:/_ndsdev/devkitpro/devkitarm/bin/../lib/gcc/arm-eabi/4.6.1/../../../../arm-eabi/lib/thumb\libsysbase.a(malloc_vars.o)
                              c:/_ndsdev/devkitpro/devkitarm/bin/../lib/gcc/arm-eabi/4.6.1/../../../../arm-eabi/lib/thumb/ds_arm9_crt0.o (fake_heap_start)
c:/_ndsdev/devkitpro/devkitarm/bin/../lib/gcc/arm-eabi/4.6.1/../../../../arm-eabi/lib/thumb\libsysbase.a(build_argv.o)
                              c:/_ndsdev/devkitpro/devkitarm/bin/../lib/gcc/arm-eabi/4.6.1/../../../../arm-eabi/lib/thumb/ds_arm9_crt0.o (build_argv)
c:/_ndsdev/devkitpro/devkitarm/bin/../lib/gcc/arm-eabi/4.6.1/../../../../arm-eabi/lib/thumb\libsysbase.a(syscall_support.o)
                              c:/_ndsdev/devkitPro/libnds/lib\libnds9.a(initSystem.o) (__syscalls)
c:/_ndsdev/devkitpro/devkitarm/bin/../lib/gcc/arm-eabi/4.6.1/../../../../arm-eabi/lib/thumb\libsysbase.a(handle_manager.o)
                              c:/_ndsdev/devkitpro/devkitarm/bin/../lib/gcc/arm-eabi/4.6.1/../../../../arm-eabi/lib/thumb\libsysbase.a(close.o) (__release_handle)
c:/_ndsdev/devkitpro/devkitarm/bin/../lib/gcc/arm-eabi/4.6.1/../../../../arm-eabi/lib/thumb\libsysbase.a(dirent.o)
                              c:/_ndsdev/devkitPro/PAlib/lib\libpa9.a(PA_Stuff.o) (opendir)
c:/_ndsdev/devkitpro/devkitarm/bin/../lib/gcc/arm-eabi/4.6.1/../../../../arm-eabi/lib/thumb\libsysbase.a(iosupport.o)
                              c:/_ndsdev/devkitpro/devkitarm/bin/../lib/gcc/arm-eabi/4.6.1/../../../../arm-eabi/lib/thumb\libsysbase.a(open.o) (FindDevice)
c:/_ndsdev/devkitpro/devkitarm/bin/../lib/gcc/arm-eabi/4.6.1/thumb\libgcc.a(_aeabi_uldivmod.o)
                              c:/_ndsdev/devkitpro/devkitarm/bin/../lib/gcc/arm-eabi/4.6.1/../../../../arm-eabi/lib/thumb\libg.a(lib_a-svfprintf.o) (__aeabi_uldivmod)
c:/_ndsdev/devkitpro/devkitarm/bin/../lib/gcc/arm-eabi/4.6.1/thumb\libgcc.a(bpabi.o)
                              c:/_ndsdev/devkitpro/devkitarm/bin/../lib/gcc/arm-eabi/4.6.1/thumb\libgcc.a(_aeabi_uldivmod.o) (__gnu_uldivmod_helper)
c:/_ndsdev/devkitpro/devkitarm/bin/../lib/gcc/arm-eabi/4.6.1/thumb\libgcc.a(_divdi3.o)
                              c:/_ndsdev/devkitpro/devkitarm/bin/../lib/gcc/arm-eabi/4.6.1/thumb\libgcc.a(bpabi.o) (__divdi3)
c:/_ndsdev/devkitpro/devkitarm/bin/../lib/gcc/arm-eabi/4.6.1/thumb\libgcc.a(_udivdi3.o)
                              c:/_ndsdev/devkitpro/devkitarm/bin/../lib/gcc/arm-eabi/4.6.1/thumb\libgcc.a(bpabi.o) (__udivdi3)
c:/_ndsdev/devkitpro/devkitarm/bin/../lib/gcc/arm-eabi/4.6.1/thumb\libgcc.a(_clzsi2.o)
                              c:/_ndsdev/devkitpro/devkitarm/bin/../lib/gcc/arm-eabi/4.6.1/thumb\libgcc.a(_divdi3.o) (__clzsi2)
c:/_ndsdev/devkitpro/devkitarm/bin/../lib/gcc/arm-eabi/4.6.1/../../../../arm-eabi/lib/thumb\libg.a(lib_a-errno.o)
                              c:/_ndsdev/devkitpro/devkitarm/bin/../lib/gcc/arm-eabi/4.6.1/../../../../arm-eabi/lib/thumb\libsysbase.a(times.o) (__errno)
c:/_ndsdev/devkitpro/devkitarm/bin/../lib/gcc/arm-eabi/4.6.1/../../../../arm-eabi/lib/thumb\libg.a(lib_a-strnlen.o)
                              c:/_ndsdev/devkitpro/devkitarm/bin/../lib/gcc/arm-eabi/4.6.1/../../../../arm-eabi/lib/thumb\libsysbase.a(dirent.o) (strnlen)

Allocating common symbols
Common symbol       size              file

PA_ScreenSpace      0x2               c:/_ndsdev/devkitPro/PAlib/lib\libpa9.a(PA.o)
PA_Reco             0xc               c:/_ndsdev/devkitPro/PAlib/lib\libpa9.a(PA_Reco.o)
fifo_datamsg_data   0x40              c:/_ndsdev/devkitPro/libnds/lib\libnds9.a(fifosystem.o)
PA_Draw16           0x8               c:/_ndsdev/devkitPro/PAlib/lib\libpa9.a(PA_16c.o)
PA_RTC              0x8               c:/_ndsdev/devkitPro/PAlib/lib\libpa9.a(PA_RTC.o)
free_mem            0x2000            c:/_ndsdev/devkitPro/PAlib/lib\libpa9.a(PA_Sprite.o)
PadPointer          0x4               c:/_ndsdev/devkitPro/PAlib/lib\libpa9.a(PA.o)
__dsimode           0x1               c:/_ndsdev/devkitPro/libnds/lib\libnds9.a(initSystem.o)
touch               0xc               main.o
destroy             0x90              main.o
bgState             0x140             c:/_ndsdev/devkitPro/libnds/lib\libnds9.a(background.o)
fifo_buffer         0x800             c:/_ndsdev/devkitPro/libnds/lib\libnds9.a(fifosystem.o)
PA_texttiles        0x8               c:/_ndsdev/devkitPro/PAlib/lib\libpa9.a(PA_Text.o)
n_free_mem          0x4               c:/_ndsdev/devkitPro/PAlib/lib\libpa9.a(PA_Sprite.o)
PA_SpritePrio       0x100             c:/_ndsdev/devkitPro/PAlib/lib\libpa9.a(PA_Sprite.o)
PA_LetterPos        0x3004            c:/_ndsdev/devkitPro/PAlib/lib\libpa9.a(PA_TextBits.o)
bgIsTextLut         0x8               c:/_ndsdev/devkitPro/libnds/lib\libnds9.a(background.o)
PA_olddowntime      0x4               c:/_ndsdev/devkitPro/PAlib/lib\libpa9.a(PA_Draw.o)
bottomScreen        0x5c              main.o
PA_Keyboard_Struct  0x12              c:/_ndsdev/devkitPro/PAlib/lib\libpa9.a(PA_Keyboard.o)
PA_VBLCounter       0x40              c:/_ndsdev/devkitPro/PAlib/lib\libpa9.a(PA_Interrupt.o)
PA_parallaxY        0x20              c:/_ndsdev/devkitPro/PAlib/lib\libpa9.a(PA_BgTiles.o)
used_mem            0x800             c:/_ndsdev/devkitPro/PAlib/lib\libpa9.a(PA_Sprite.o)
fifo_value32_func   0x40              c:/_ndsdev/devkitPro/libnds/lib\libnds9.a(fifosystem.o)
fifo_address_func   0x40              c:/_ndsdev/devkitPro/libnds/lib\libnds9.a(fifosystem.o)
PA_parallaxX        0x20              c:/_ndsdev/devkitPro/PAlib/lib\libpa9.a(PA_BgTiles.o)
PA_DrawBg32         0x8               c:/_ndsdev/devkitPro/PAlib/lib\libpa9.a(PA_Draw.o)
pa_checklid         0x1               c:/_ndsdev/devkitPro/PAlib/lib\libpa9.a(PA.o)
PA_RecoInfo         0x18              c:/_ndsdev/devkitPro/PAlib/lib\libpa9.a(PA_Reco.o)
spriteanims         0x2400            c:/_ndsdev/devkitPro/PAlib/lib\libpa9.a(PA_Sprite.o)
PA_SpriteAnimP      0x2000            c:/_ndsdev/devkitPro/PAlib/lib\libpa9.a(PA_Sprite.o)
PA_IPC              0x198             c:/_ndsdev/devkitPro/PAlib/lib\libpa9.a(PA.o)
Pad                 0x27              c:/_ndsdev/devkitPro/PAlib/lib\libpa9.a(PA.o)
PA_TextBox          0x8               c:/_ndsdev/devkitPro/PAlib/lib\libpa9.a(PA_Text.o)
PAbgtext            0x2               c:/_ndsdev/devkitPro/PAlib/lib\libpa9.a(PA_Text.o)
blocks              0x90              main.o
tempsize            0x2               c:/_ndsdev/devkitPro/PAlib/lib\libpa9.a(PA_BgTiles.o)
uinfo               0x2c              main.o
pa_printx           0x8               c:/_ndsdev/devkitPro/PAlib/lib\libpa9.a(PA_Text.o)
pa_bittextpoliceheight
                    0xa               c:/_ndsdev/devkitPro/PAlib/lib\libpa9.a(PA_TextBits.o)
xx                  0x4               main.o
Stylus              0x1c              c:/_ndsdev/devkitPro/PAlib/lib\libpa9.a(PA.o)
PA_first            0x200             c:/_ndsdev/devkitPro/PAlib/lib\libpa9.a(PA_Sprite.o)
pa_bittextsizes     0xa               c:/_ndsdev/devkitPro/PAlib/lib\libpa9.a(PA_TextBits.o)
fifo_value32_data   0x40              c:/_ndsdev/devkitPro/libnds/lib\libnds9.a(fifosystem.o)
charblocks          0x8c              c:/_ndsdev/devkitPro/PAlib/lib\libpa9.a(PA_BgTiles.o)
PA_next             0x100             c:/_ndsdev/devkitPro/PAlib/lib\libpa9.a(PA_Sprite.o)
PA_bgmap            0x20              c:/_ndsdev/devkitPro/PAlib/lib\libpa9.a(PA.o)
PA_GifInfo          0x14              c:/_ndsdev/devkitPro/PAlib/lib\libpa9.a(PA.o)
fifo_value32_queue  0x40              c:/_ndsdev/devkitPro/libnds/lib\libnds9.a(fifosystem.o)
PA_StylusPos        0x9c40            c:/_ndsdev/devkitPro/PAlib/lib\libpa9.a(PA_Reco.o)
fifo_data_queue     0x40              c:/_ndsdev/devkitPro/libnds/lib\libnds9.a(fifosystem.o)
rotbg_size          0x8               c:/_ndsdev/devkitPro/PAlib/lib\libpa9.a(PA_BgRot.o)
PA_VBLCounterOn     0x10              c:/_ndsdev/devkitPro/PAlib/lib\libpa9.a(PA_Interrupt.o)
pa_printy           0x8               c:/_ndsdev/devkitPro/PAlib/lib\libpa9.a(PA_Text.o)
PA_DrawBg           0x8               c:/_ndsdev/devkitPro/PAlib/lib\libpa9.a(PA_Draw.o)
PA_oldx             0x4               c:/_ndsdev/devkitPro/PAlib/lib\libpa9.a(PA_Draw.o)
textcol             0x4               c:/_ndsdev/devkitPro/PAlib/lib\libpa9.a(PA_Text.o)
Blksprite           0x90              main.o
PA_drawsize         0x2               c:/_ndsdev/devkitPro/PAlib/lib\libpa9.a(PA_Draw.o)
obj_per_gfx         0x800             c:/_ndsdev/devkitPro/PAlib/lib\libpa9.a(PA_Sprite.o)
PA_CustomShape      0xd48             c:/_ndsdev/devkitPro/PAlib/lib\libpa9.a(PA_Reco.o)
PA_RecoShape        0x10              c:/_ndsdev/devkitPro/PAlib/lib\libpa9.a(PA_Reco.o)
pa_printscroll      0x4               c:/_ndsdev/devkitPro/PAlib/lib\libpa9.a(PA_Text.o)
PA_oldy             0x4               c:/_ndsdev/devkitPro/PAlib/lib\libpa9.a(PA_Draw.o)
PA_MovedSprite      0x10              c:/_ndsdev/devkitPro/PAlib/lib\libpa9.a(PA.o)
PA_BgInfo           0x220             c:/_ndsdev/devkitPro/PAlib/lib\libpa9.a(PA_BgTiles.o)
tempvar             0x2               c:/_ndsdev/devkitPro/PAlib/lib\libpa9.a(PA_Draw.o)
punixTime           0x4               c:/_ndsdev/devkitpro/devkitarm/bin/../lib/gcc/arm-eabi/4.6.1/../../../../arm-eabi/lib/thumb\libsysbase.a(times.o)
fifo_address_data   0x40              c:/_ndsdev/devkitPro/libnds/lib\libnds9.a(fifosystem.o)
_PA_LidDown         0x1               c:/_ndsdev/devkitPro/PAlib/lib\libpa9.a(PA_Keys.o)
PA_temppal          0x200             c:/_ndsdev/devkitPro/PAlib/lib\libpa9.a(PA_Draw.o)
PA_UserInfo         0x52              c:/_ndsdev/devkitPro/PAlib/lib\libpa9.a(PA_RTC.o)
scrollpos           0xe0              c:/_ndsdev/devkitPro/PAlib/lib\libpa9.a(PA_BgTiles.o)
PA_obj              0x800             c:/_ndsdev/devkitPro/PAlib/lib\libpa9.a(PA_Sprite.o)
DualSpriteX         0x100             c:/_ndsdev/devkitPro/PAlib/lib\libpa9.a(PA_Sprite.o)
PA_textpal          0x8               c:/_ndsdev/devkitPro/PAlib/lib\libpa9.a(PA_Text.o)
PA_nBit             0x2               c:/_ndsdev/devkitPro/PAlib/lib\libpa9.a(PA_Draw.o)
fifo_datamsg_func   0x40              c:/_ndsdev/devkitPro/libnds/lib\libnds9.a(fifosystem.o)
PA_Draw1632         0x8               c:/_ndsdev/devkitPro/PAlib/lib\libpa9.a(PA_16c.o)
pa_obj_created      0x100             c:/_ndsdev/devkitPro/PAlib/lib\libpa9.a(PA_Sprite.o)
fifo_address_queue  0x40              c:/_ndsdev/devkitPro/libnds/lib\libnds9.a(fifosystem.o)
PA_textmap          0x8               c:/_ndsdev/devkitPro/PAlib/lib\libpa9.a(PA_Text.o)
PA_ExtPal           0x4               c:/_ndsdev/devkitPro/PAlib/lib\libpa9.a(PA_Palette.o)

Memory Configuration

Name             Origin             Length             Attributes
rom              0x08000000         0x02000000
ewram            0x02000000         0x003ff000
dtcm             0x0b000000         0x00004000
vectors          0x01000000         0x00000100
itcm             0x01000100         0x00007f00
*default*        0x00000000         0xffffffff

Linker script and memory map

                0x01000000                __vectors_start = ORIGIN (vectors)
                0x01000100                __itcm_start = ORIGIN (itcm)
                0x023ff000                __ewram_end = (ORIGIN (ewram) + 0x3ff000)
                0x023ff000                __eheap_end = (ORIGIN (ewram) + 0x3ff000)
                0x0b000000                __dtcm_start = ORIGIN (dtcm)
                0x0b004000                __dtcm_top = (ORIGIN (dtcm) + 0x4000)
                0x0b003ff8                __irq_flags = (__dtcm_top - 0x8)
                0x0b003ffc                __irq_vector = (__dtcm_top - 0x4)
                0x0b003f00                __sp_svc = (__dtcm_top - 0x100)
                0x0b003e00                __sp_irq = (__sp_svc - 0x100)
                0x0b003d00                __sp_usr = (__sp_irq - 0x100)

.init           0x02000000      0x23c
                0x02000000                __text_start = .
 *(.init)
 .init          0x02000000      0x230 c:/_ndsdev/devkitpro/devkitarm/bin/../lib/gcc/arm-eabi/4.6.1/../../../../arm-eabi/lib/thumb/ds_arm9_crt0.o
                0x02000000                _start
 .init          0x02000230        0x4 c:/_ndsdev/devkitpro/devkitarm/bin/../lib/gcc/arm-eabi/4.6.1/thumb/crti.o
                0x02000230                _init
 .init          0x02000234        0x8 c:/_ndsdev/devkitpro/devkitarm/bin/../lib/gcc/arm-eabi/4.6.1/thumb/crtn.o
                0x0200023c                . = ALIGN (0x4)

.plt
 *(.plt)

.text           0x02000240    0x187c8
 *(EXCLUDE_FILE(*.itcm*) .text)
 .text          0x02000240        0x0 c:/_ndsdev/devkitpro/devkitarm/bin/../lib/gcc/arm-eabi/4.6.1/../../../../arm-eabi/lib/thumb/ds_arm9_crt0.o
 .text          0x02000240        0x0 c:/_ndsdev/devkitpro/devkitarm/bin/../lib/gcc/arm-eabi/4.6.1/thumb/crti.o
 .text          0x02000240       0x6c c:/_ndsdev/devkitpro/devkitarm/bin/../lib/gcc/arm-eabi/4.6.1/thumb/crtbegin.o
 .text          0x020002ac        0x0 soundbank_bin.o
 .text          0x020002ac        0x0 down.o
 .text          0x020002ac        0x0 up.o
 .text          0x020002ac     0x4130 main.o
                0x020002ac                stage_init
                0x0200036c                gettouchcol
                0x020003a8                gettouchrow
                0x020003e4                UnLoad_Screen
                0x02000400                scr_Gameover
                0x02000774                scr_Season
                0x02000b18                scr_Main
                0x02000e84                isNearBlock
                0x02000ebc                swapsprite
                0x02000f60                swapBlock
                0x02000fa8                item_init
                0x02001294                scr_Shop
                0x0200184c                block_init
                0x02001a20                block_reload
                0x02001bb0                checkRow
                0x02001cac                checkCol
                0x02001db0                blocksCrack
                0x02001eac                itemgettouchrow
                0x02001ee0                useOneClickItem
                0x02002080                useTwoClickItem
                0x02002bb0                scr_Game
                0x0200439c                getitemindex
                0x020043b8                user_init
 .text          0x020043dc      0x264 croutine.o
                0x020043dc                xCoRoutineCreate
                0x02004494                vCoRoutineAddToDelayedList
                0x020044d8                vCoRoutineSchedule
                0x02004608                xCoRoutineRemoveFromEventList
 .text          0x02004640       0x30 heap.o
                0x02004640                pvPortMalloc
                0x02004658                vPortFree
 .text          0x02004670       0x98 list.o
                0x02004670                vListInitialise
                0x02004688                vListInitialiseItem
                0x02004690                vListInsertEnd
                0x020046ac                vListInsert
                0x020046e4                vListRemove
 .text          0x02004708       0xd4 port.o
                0x02004708                pxPortInitialiseStack
                0x020047a0                xPortStartScheduler
                0x020047d8                vPortEndScheduler
 .text          0x020047dc       0x40 portISR.o
                0x020047dc                vPortISRStartFirstTask
                0x020047e4                vPortYieldProcessor
                0x020047e4                vPortEnterCritical
                0x020047f8                vPortExitCritical
 .text          0x0200481c      0x4e4 queue.o
                0x02004940                xQueueCreate
                0x020049a4                xQueueGenericSend
                0x02004ab0                xQueueCreateMutex
                0x02004af4                xQueueGenericSendFromISR
                0x02004b38                xQueueGenericReceive
                0x02004c7c                xQueueReceiveFromISR
                0x02004cc0                uxQueueMessagesWaiting
                0x02004cd4                uxQueueMessagesWaitingFromISR
                0x02004cd8                vQueueDelete
                0x02004cec                xQueueIsQueueEmptyFromISR
                0x02004cf4                xQueueIsQueueFullFromISR
 .text          0x02004d00      0xb40 tasks.o
                0x02004da0                xTaskGenericCreate
                0x02004f3c                vTaskDelete
                0x02004fa4                uxTaskPriorityGet
                0x02004fc4                vTaskPrioritySet
                0x0200505c                vTaskSuspend
                0x020050ac                xTaskIsTaskSuspended
                0x020050d4                vTaskResume
                0x02005134                xTaskResumeFromISR
                0x020051a4                vTaskStartScheduler
                0x020051e4                vTaskEndScheduler
                0x020051fc                vTaskSuspendAll
                0x0200520c                xTaskGetTickCount
                0x02005224                uxTaskGetNumberOfTasks
                0x02005230                vTaskStartTrace
                0x02005254                ulTaskEndTrace
                0x02005270                vTaskIncrementTick
                0x020052f8                xTaskResumeAll
                0x020053c4                vTaskList
                0x020054e0                vTaskDelay
                0x02005534                vTaskDelayUntil
                0x0200559c                vTaskSwitchContext
                0x02005640                vTaskPlaceOnEventList
                0x0200569c                xTaskRemoveFromEventList
                0x0200570c                vTaskSetTimeOutState
                0x0200571c                xTaskCheckForTimeOut
                0x02005778                vTaskMissedYield
                0x02005784                xTaskGetCurrentTaskHandle
                0x02005790                vTaskPriorityInherit
                0x020057f8                vTaskPriorityDisinherit
 .text          0x02005840      0x400 virtual_io.o
                0x02005a50                init_virtual_io
                0x02005ad0                readb_virtual_io
                0x02005b24                writeb_virtual_io
                0x02005c28                close_virtual_io
 .text          0x02005c40       0xf0 assemfunc.o
                0x02005c40                vPortDisableInterruptsFromThumb
                0x02005c58                vPortEnableInterruptsFromThumb
                0x02005c70                portRESTORE_CONTEXT_FIRST
                0x02005c88                portRESTORE_CONTEXT
                0x02005cc0                vPreemptiveTick
 .text          0x02005d30       0xbc c:/_ndsdev/devkitPro/PAlib/lib\libpa9.a(PA.o)
                0x02005d30                PA_SetBrightness
                0x02005d70                PA_Nothing
                0x02005d74                PA_CheckLid
 .text          0x02005dec      0x338 c:/_ndsdev/devkitPro/PAlib/lib\libpa9.a(PA_BgEasy.o)
                0x02005dec                PA_EasyBgScrollX
                0x02005e78                PA_EasyBgScrollY
                0x02005f04                PA_StoreEasyBgInfos
                0x02005f40                PA_EasyBgLoadEx
 .text          0x02006124      0xccc c:/_ndsdev/devkitPro/PAlib/lib\libpa9.a(PA_BgLargeMap.o)
                0x02006124                PA_LargeScrollXN
                0x020062e0                PA_LargeScrollYN
                0x02006490                PA_InfLargeScrollXN
                0x02006674                PA_InfLargeScrollYN
                0x0200685c                PA_UpdateTileEngineX
                0x02006998                PA_UpdateTileEngineY
                0x02006ad0                PA_InfTilesScrollX
                0x02006b60                PA_InfTilesScrollY
                0x02006bf0                PA_InitLargeBg
 .text          0x02006df0      0x6f0 c:/_ndsdev/devkitPro/PAlib/lib\libpa9.a(PA_BgTiles.o)
                0x02006df0                PA_ReLoadBgTiles
                0x02006e38                PA_InitBg
                0x02006f20                PA_DeleteTiles
                0x02006fb4                PA_LoadBgTilesEx
                0x020071c4                PA_DeleteMap
                0x02007240                PA_LoadBgMap
                0x020073bc                PA_ResetBgSysScreen
                0x020074d0                PA_ResetBgSys
 .text          0x020074e0       0x84 c:/_ndsdev/devkitPro/PAlib/lib\libpa9.a(PA_Error.o)
                0x020074e0                PA_Error
                0x02007500                _PA_Assert
 .text          0x02007564      0x278 c:/_ndsdev/devkitPro/PAlib/lib\libpa9.a(PA_Inits.o)
                0x02007564                PA_Init2D
                0x020075c0                PA_Init
 .text          0x020077dc       0x78 c:/_ndsdev/devkitPro/PAlib/lib\libpa9.a(PA_Interrupt.o)
                0x020077dc                PA_VBLCountersReset
                0x020077fc                PA_vblFunc
 .text          0x02007854      0x2e0 c:/_ndsdev/devkitPro/PAlib/lib\libpa9.a(PA_Keys.o)
                0x02007854                PA_UpdatePad
                0x02007a6c                PA_UpdateStylus
 .text          0x02007b34      0x158 c:/_ndsdev/devkitPro/PAlib/lib\libpa9.a(PA_Math.o)
                0x02007b34                PA_AdjustAngle
 .text          0x02007c8c      0x244 c:/_ndsdev/devkitPro/PAlib/lib\libpa9.a(PA_Palette.o)
                0x02007c8c                PA_LoadSpriteExtPal
                0x02007d44                PA_InitSpriteExtPal
                0x02007d9c                PA_LoadBgPalN
                0x02007e6c                PA_InitBgExtPal
 .text          0x02007ed0       0xc4 c:/_ndsdev/devkitPro/PAlib/lib\libpa9.a(PA_RTC.o)
                0x02007ed0                PA_UpdateUserInfo
                0x02007f54                PA_UpdateRTC
 .text          0x02007f94      0x4e4 c:/_ndsdev/devkitPro/PAlib/lib\libpa9.a(PA_Reco.o)
                0x02007f94                PA_StylusLine
                0x020080f4                PA_AnalyzeShape
                0x020083f4                PA_CheckLetter
 .text          0x02008478      0x7dc c:/_ndsdev/devkitPro/PAlib/lib\libpa9.a(PA_Sprite.o)
                0x02008478                PA_InitSpriteExtPrio
                0x020084ac                PA_ResetSpriteSysScreen
                0x02008600                PA_ResetSpriteSys
                0x0200861c                PA_CreateGfx
                0x02008778                PA_DeleteGfx
                0x02008914                PA_DeleteSprite
                0x02008a68                PA_InitSpriteDraw
                0x02008ac8                PA_UpdateOAM
                0x02008c1c                PA_UpdateSpriteVBL
 .text          0x02008c54      0x3d8 c:/_ndsdev/devkitPro/PAlib/lib\libpa9.a(PA_SpriteAnim.o)
                0x02008c54                PA_UpdateSpriteAnims
                0x02008e6c                PA_StartSpriteAnimEx
 .text          0x0200902c      0x1b4 c:/_ndsdev/devkitPro/PAlib/lib\libpa9.a(PA_Stuff.o)
                0x0200902c                PA_SetVideoMode
                0x02009050                PA_Locate
 .text          0x020091e0      0xa98 c:/_ndsdev/devkitPro/PAlib/lib\libpa9.a(PA_Text.o)
                0x020091e0                PA_CreateTextPal
                0x0200928c                PA_LoadDefaultText
                0x02009354                PA_OutputSimpleText
                0x02009430                PA_OutputText
                0x02009bd0                PA_ClearTextBg
 .text          0x02009c78      0x428 c:/_ndsdev/devkitPro/PAlib/lib\libpa9.a(PA_TextBits.o)
                0x02009c78                PA_DoAlign
                0x02009dcc                PA_DoLetterPos
 .text          0x0200a0a0        0x0 c:/_ndsdev/devkitPro/PAlib/lib\libpa9.a(PA_TiledFont.o)
 .text          0x0200a0a0        0x0 c:/_ndsdev/devkitPro/PAlib/lib\libpa9.a(PA_BmpFont0.o)
 .text          0x0200a0a0        0x0 c:/_ndsdev/devkitPro/PAlib/lib\libpa9.a(PA_BmpFont1.o)
 .text          0x0200a0a0        0x0 c:/_ndsdev/devkitPro/PAlib/lib\libpa9.a(PA_BmpFont2.o)
 .text          0x0200a0a0        0x0 c:/_ndsdev/devkitPro/PAlib/lib\libpa9.a(PA_BmpFont3.o)
 .text          0x0200a0a0        0x0 c:/_ndsdev/devkitPro/PAlib/lib\libpa9.a(PA_BmpFont4.o)
 .text          0x0200a0a0        0x0 c:/_ndsdev/devkitPro/PAlib/lib\libpa9.a(PA_TiledFont_Map.bin.o)
 .text          0x0200a0a0        0x0 c:/_ndsdev/devkitPro/PAlib/lib\libpa9.a(PA_TiledFont_Pal.bin.o)
 .text          0x0200a0a0        0x0 c:/_ndsdev/devkitPro/PAlib/lib\libpa9.a(PA_TiledFont_Tiles.bin.o)
 .text          0x0200a0a0        0x0 c:/_ndsdev/devkitPro/PAlib/lib\libpa9.a(PA_BmpFont0_Map.bin.o)
 .text          0x0200a0a0        0x0 c:/_ndsdev/devkitPro/PAlib/lib\libpa9.a(PA_BmpFont0_Sizes.bin.o)
 .text          0x0200a0a0        0x0 c:/_ndsdev/devkitPro/PAlib/lib\libpa9.a(PA_BmpFont0_Tiles.bin.o)
 .text          0x0200a0a0        0x0 c:/_ndsdev/devkitPro/PAlib/lib\libpa9.a(PA_BmpFont1_Map.bin.o)
 .text          0x0200a0a0        0x0 c:/_ndsdev/devkitPro/PAlib/lib\libpa9.a(PA_BmpFont1_Sizes.bin.o)
 .text          0x0200a0a0        0x0 c:/_ndsdev/devkitPro/PAlib/lib\libpa9.a(PA_BmpFont1_Tiles.bin.o)
 .text          0x0200a0a0        0x0 c:/_ndsdev/devkitPro/PAlib/lib\libpa9.a(PA_BmpFont2_Map.bin.o)
 .text          0x0200a0a0        0x0 c:/_ndsdev/devkitPro/PAlib/lib\libpa9.a(PA_BmpFont2_Sizes.bin.o)
 .text          0x0200a0a0        0x0 c:/_ndsdev/devkitPro/PAlib/lib\libpa9.a(PA_BmpFont2_Tiles.bin.o)
 .text          0x0200a0a0        0x0 c:/_ndsdev/devkitPro/PAlib/lib\libpa9.a(PA_BmpFont3_Map.bin.o)
 .text          0x0200a0a0        0x0 c:/_ndsdev/devkitPro/PAlib/lib\libpa9.a(PA_BmpFont3_Sizes.bin.o)
 .text          0x0200a0a0        0x0 c:/_ndsdev/devkitPro/PAlib/lib\libpa9.a(PA_BmpFont3_Tiles.bin.o)
 .text          0x0200a0a0        0x0 c:/_ndsdev/devkitPro/PAlib/lib\libpa9.a(PA_BmpFont4_Map.bin.o)
 .text          0x0200a0a0        0x0 c:/_ndsdev/devkitPro/PAlib/lib\libpa9.a(PA_BmpFont4_Sizes.bin.o)
 .text          0x0200a0a0        0x0 c:/_ndsdev/devkitPro/PAlib/lib\libpa9.a(PA_BmpFont4_Tiles.bin.o)
 .text          0x0200a0a0       0x50 c:/_ndsdev/devkitPro/PAlib/lib\libpa9.a(PA_Fifo.o)
                0x0200a0a0                PA_FifoMsgHandler
                0x0200a0dc                PA_InitFifo
 .text          0x0200a0f0      0x824 c:/_ndsdev/devkitPro/PAlib/lib\libpa9.a(PA_NewBg.o)
                0x0200a0f0                PA_LoadBackground
                0x0200a5ec                PA_LoadText
                0x0200a720                PA_LoadKeyboard
                0x0200a874                PA_AddBitmapFont
                0x0200a8c4                PA_Add16cFont
 .text          0x0200a914      0x1e8 c:/_ndsdev/devkitPro/PAlib/lib\libpa9.a(PA_PaletteEx.o)
                0x0200a914                PA_CreatePalBright
                0x0200a9d8                PA_CreatePalTransition
                0x0200aa40                PA_SetBgPalNCol
                0x0200aa90                PA_SetSpritePalCol
                0x0200aad8                PA_3DSetSpritePalCol
 .text          0x0200aafc     0x1230 c:/_ndsdev/devkitPro/PAlib/lib\libpa9.a(PA_Text8bit.o)
                0x0200aafc                NoLetter
                0x0200ab00                Letter
                0x0200aef0                RotLetter2
                0x0200b334                RotLetter
                0x0200b77c                TranspLetter
                0x0200bba0                pa_8bitTextDecompress
                0x0200bc18                PA_8bitText
                0x0200bcc8                PA_CenterSmartText
 .text          0x0200bd2c      0x6d0 c:/_ndsdev/devkitPro/PAlib/lib\libpa9.a(PA_16c.o)
                0x0200bd2c                PA_16c8X8Color
                0x0200be84                PA_Init16cBgEx
                0x0200c024                pa_16cTextDecompress
                0x0200c0b0                PA_16cText
                0x0200c234                PA_16cErase
                0x0200c26c                PA_16cClearZone
 .text          0x0200c3fc      0x188 c:/_ndsdev/devkitPro/PAlib/lib\libpa9.a(PA_BgRot.o)
                0x0200c3fc                PA_LoadRotBgMap
 .text          0x0200c584      0x2b4 c:/_ndsdev/devkitPro/PAlib/lib\libpa9.a(PA_Draw.o)
                0x0200c584                PA_LoadBmpToBuffer
 .text          0x0200c838      0x604 c:/_ndsdev/devkitPro/PAlib/lib\libpa9.a(PA_Keyboard.o)
                0x0200c838                PA_ReloadKeyboardCol
                0x0200c918                PA_LoadDefaultKeyboard
                0x0200ca74                PA_ChangeKeyboardType
                0x0200cbf4                PA_SetLetterPal
                0x0200cd14                PA_CheckKeyboard
 .text          0x0200ce3c        0x0 c:/_ndsdev/devkitPro/PAlib/lib\libpa9.a(keyboard.map.o)
 .text          0x0200ce3c        0x0 c:/_ndsdev/devkitPro/PAlib/lib\libpa9.a(keyboard.pal.o)
 .text          0x0200ce3c        0x0 c:/_ndsdev/devkitPro/PAlib/lib\libpa9.a(keyboard.raw.o)
 .text          0x0200ce3c      0x314 c:/_ndsdev/devkitPro/libnds/lib\libnds9.a(background.o)
                0x0200ce3c                bgIsText
                0x0200ce48                checkIfText
                0x0200cea8                bgUpdate
                0x0200cfb8                bgInit_call
                0x0200d07c                bgInitSub_call
 .text          0x0200d150       0x84 c:/_ndsdev/devkitPro/libnds/lib\libnds9.a(decompress.o)
                0x0200d150                getHeader
                0x0200d154                readByte
                0x0200d158                decompress
                0x0200d198                decompressStream
 .text          0x0200d1d4       0xf4 c:/_ndsdev/devkitPro/libnds/lib\libnds9.a(keys.o)
                0x0200d1d4                scanKeys
                0x0200d240                keysHeld
                0x0200d24c                keysDown
                0x0200d25c                keysDownRepeat
                0x0200d26c                keysSetRepeat
                0x0200d284                keysUp
                0x0200d294                keysCurrent
 .text          0x0200d2c8       0xf0 c:/_ndsdev/devkitPro/libnds/lib\libnds9.a(system.o)
                0x0200d2c8                systemMsgHandler
                0x0200d30c                systemSleep
                0x0200d324                powerValueHandler
                0x0200d334                powerOn
                0x0200d360                powerOff
                0x0200d388                ledBlink
                0x0200d398                getBatteryLevel
 .text          0x0200d3b8       0x4c c:/_ndsdev/devkitPro/libnds/lib\libnds9.a(touch.o)
                0x0200d3b8                touchRead
                0x0200d3e0                touchReadXY
 .text          0x0200d404      0x248 c:/_ndsdev/devkitPro/libnds/lib\libnds9.a(trig.o)
                0x0200d404                asinComp
                0x0200d428                sinLutLookup
                0x0200d464                sinLerp
                0x0200d49c                cosLerp
                0x0200d4b0                tanLutLookup
                0x0200d4e8                tanLerp
                0x0200d598                asinLerp
                0x0200d614                acosLerp
                0x0200d628                atanComp
 .text          0x0200d64c      0x1f8 c:/_ndsdev/devkitPro/libnds/lib\libnds9.a(video.o)
                0x0200d64c                vramSetPrimaryBanks
                0x0200d690                vramSetMainBanks
                0x0200d6d4                vramSetBanks_EFG
                0x0200d70c                vramRestorePrimaryBanks
                0x0200d718                vramRestoreMainBanks
                0x0200d724                vramRestoreBanks_EFG
                0x0200d730                setBrightness
                0x0200d770                vramDefault
 .text          0x0200d844      0x19c c:/_ndsdev/devkitPro/libnds/lib\libnds9.a(initSystem.o)
                0x0200d844                initSystem
 .text          0x0200d9e0      0xc8c c:/_ndsdev/devkitPro/libnds/lib\libnds9.a(fifosystem.o)
                0x0200dc40                fifoSendAddress
                0x0200dc6c                fifoSendValue32
                0x0200dcac                fifoSendDatamsg
                0x0200dd1c                fifoGetAddress
                0x0200dd90                fifoSetAddressHandler
                0x0200de04                fifoGetValue32
                0x0200de78                fifoSetValue32Handler
                0x0200deec                fifoGetDatamsg
                0x0200e394                fifoSetDatamsgHandler
                0x0200e42c                fifoCheckAddress
                0x0200e450                fifoCheckDatamsg
                0x0200e474                fifoCheckValue32
                0x0200e498                fifoInit
 .text          0x0200e66c      0x1f4 c:/_ndsdev/devkitPro/libnds/lib\libnds9.a(interrupts.o)
                0x0200e66c                irqDummy
                0x0200e670                irqSet
                0x0200e6e0                irqInit
                0x0200e72c                irqInitHandler
                0x0200e75c                irqEnable
                0x0200e7c0                irqDisable
                0x0200e824                irqClear
 .text          0x0200e860       0x40 c:/_ndsdev/devkitPro/libnds/lib\libnds9.a(libnds_exit.o)
                0x0200e860                systemErrorExit
                0x0200e864                __libnds_exit
 .text          0x0200e8a0       0x1c c:/_ndsdev/devkitPro/libnds/lib\libnds9.a(syscalls.o)
                0x0200e8a0                swiDecompressLZSSVram
 .text          0x0200e8bc       0x70 c:/_ndsdev/devkitPro/libnds/lib\libnds9.a(dcache.o)
                0x0200e8bc                DC_FlushAll
                0x0200e8e8                DC_FlushRange
                0x0200e904                DC_InvalidateAll
                0x0200e910                DC_InvalidateRange
 .text          0x0200e92c      0x1b4 c:/_ndsdev/devkitPro/libnds/lib\libnds9.a(mpu_setup.o)
                0x0200e92c                __libnds_mpu_setup
                0x0200ea6c                memCached
                0x0200ea84                memUncached
 .text          0x0200eae0       0x70 c:/_ndsdev/devkitPro/libnds/lib\libnds9.a(biosCalls.o)
                0x0200eae0                swiDelay
                0x0200eae4                swiIntrWait
                0x0200eae8                swiWaitForVBlank
                0x0200eaec                swiSleep
                0x0200eaf0                swiChangeSoundBias
                0x0200eaf4                swiDivide
                0x0200eaf8                swiRemainder
                0x0200eafe                swiDivMod
                0x0200eb0a                swiCopy
                0x0200eb0e                swiFastCopy
                0x0200eb12                swiSqrt
                0x0200eb16                swiCRC16
                0x0200eb1a                swiIsDebugger
                0x0200eb1e                swiUnpackBits
                0x0200eb22                swiDecompressLZSSWram
                0x0200eb26                swiDecompressLZSSVramNTR
                0x0200eb2a                swiDecompressLZSSVramTWL
                0x0200eb2e                swiDecompressHuffman
                0x0200eb32                swiDecompressRLEWram
                0x0200eb36                swiDecompressRLEVram
                0x0200eb3a                swiWaitForIRQ
                0x0200eb3e                swiDecodeDelta8
                0x0200eb42                swiDecodeDelta16
                0x0200eb46                swiSetHaltCR
 .text          0x0200eb50        0x0 c:/_ndsdev/devkitPro/libnds/lib\libnds9.a(interruptDispatcher.o)
 .text          0x0200eb50       0x30 c:/_ndsdev/devkitPro/libnds/lib\libnds9.a(swiSoftReset.o)
                0x0200eb50                swiSoftReset
 .text          0x0200eb80      0x240 c:/_ndsdev/devkitPro/libnds/lib\libmm9.a(mm_comms.o)
                0x0200eb80                mmSetupComms
                0x0200ebc2                mmSendBank
                0x0200ebcc                mmLockChannels
                0x0200ebd2                mmUnlockChannels
                0x0200ebd8                mmStart
                0x0200ebe2                mmPause
                0x0200ebe6                mmResume
                0x0200ebea                mmStop
                0x0200ebee                mmPosition
                0x0200ebf2                mmJingle
                0x0200ebf6                mmSetModuleVolume
                0x0200ebfa                mmSetJingleVolume
                0x0200ebfe                mmSetModuleTempo
                0x0200ec02                mmSetModulePitch
                0x0200ec06                mmSetEffectsVolume
                0x0200ec0a                mmSelectMode
                0x0200ec0e                mmStreamBegin
                0x0200ec22                mmStreamEnd
                0x0200ec78                mmEffect
                0x0200ec9c                mmEffectVolume
                0x0200eca0                mmEffectPanning
                0x0200eca4                mmEffectRate
                0x0200ecae                mmEffectScaleRate
                0x0200ecb8                mmEffectRelease
                0x0200ecbe                mmEffectCancel
                0x0200ecc4                mmEffectEx
                0x0200ed02                mmEffectCancelAll
                0x0200ed06                mmReverbEnable
                0x0200ed0a                mmReverbDisable
                0x0200ed0e                mmReverbConfigure
                0x0200ed6a                mmReverbStart
                0x0200ed6e                mmReverbStop
 .text          0x0200edc0      0x108 c:/_ndsdev/devkitPro/libnds/lib\libmm9.a(mm_main9.o)
                0x0200edc0                mmActive
                0x0200edc6                mmSetEventHandler
                0x0200edcc                mmInit
                0x0200edf6                mmInitDefault
                0x0200ee40                mmInitDefaultMem
                0x0200ee62                mmSuspendIRQ_t
                0x0200ee80                mmRestoreIRQ_t
 .text          0x0200eec8      0x120 c:/_ndsdev/devkitPro/libnds/lib\libmm9.a(mm_memory.o)
                0x0200eec8                mmLoad
                0x0200ef18                mmUnload
                0x0200ef70                mmLoadEffect
                0x0200efa8                mmUnloadEffect
 .text          0x0200efe8      0x100 c:/_ndsdev/devkitPro/libnds/lib\libmm9.a(mm_soundbank.o)
                0x0200efe8                mmSoundBankInMemory
                0x0200eff0                mmSoundBankInFiles
                0x0200f002                mmSetCustomSoundBankHandler
                0x0200f02e                mmsHandleFileOp
 .text          0x0200f0e8       0x3c c:/_ndsdev/devkitPro/libnds/lib\libmm9.a(mm_flusher.o)
                0x0200f0e8                mmFlushBank
 .text          0x0200f124      0x11c c:/_ndsdev/devkitpro/devkitarm/bin/../lib/gcc/arm-eabi/4.6.1/thumb\libgcc.a(_udivsi3.o)
                0x0200f124                __aeabi_uidiv
                0x0200f124                __udivsi3
                0x0200f220                __aeabi_uidivmod
 .text          0x0200f240      0x150 c:/_ndsdev/devkitpro/devkitarm/bin/../lib/gcc/arm-eabi/4.6.1/thumb\libgcc.a(_divsi3.o)
                0x0200f240                __divsi3
                0x0200f240                __aeabi_idiv
                0x0200f370                __aeabi_idivmod
 .text          0x0200f390        0x4 c:/_ndsdev/devkitpro/devkitarm/bin/../lib/gcc/arm-eabi/4.6.1/thumb\libgcc.a(_dvmd_tls.o)
                0x0200f390                __aeabi_idiv0
                0x0200f390                __aeabi_ldiv0
 .text          0x0200f394      0x41c c:/_ndsdev/devkitpro/devkitarm/bin/../lib/gcc/arm-eabi/4.6.1/thumb\libgcc.a(_arm_addsubdf3.o)
                0x0200f394                __aeabi_drsub
                0x0200f39c                __aeabi_dsub
                0x0200f39c                __subdf3
                0x0200f3a0                __aeabi_dadd
                0x0200f3a0                __adddf3
                0x0200f6b0                __floatunsidf
                0x0200f6b0                __aeabi_ui2d
                0x0200f6d4                __floatsidf
                0x0200f6d4                __aeabi_i2d
                0x0200f6fc                __aeabi_f2d
                0x0200f6fc                __extendsfdf2
                0x0200f73c                __floatundidf
                0x0200f73c                __aeabi_ul2d
                0x0200f750                __floatdidf
                0x0200f750                __aeabi_l2d
 .text          0x0200f7b0      0x49c c:/_ndsdev/devkitpro/devkitarm/bin/../lib/gcc/arm-eabi/4.6.1/thumb\libgcc.a(_arm_muldivdf3.o)
                0x0200f7b0                __aeabi_dmul
                0x0200f7b0                __muldf3
                0x0200fa40                __divdf3
                0x0200fa40                __aeabi_ddiv
 .text          0x0200fc4c      0x144 c:/_ndsdev/devkitpro/devkitarm/bin/../lib/gcc/arm-eabi/4.6.1/thumb\libgcc.a(_arm_cmpdf2.o)
                0x0200fc4c                __gtdf2
                0x0200fc4c                __gedf2
                0x0200fc54                __ltdf2
                0x0200fc54                __ledf2
                0x0200fc5c                __nedf2
                0x0200fc5c                __eqdf2
                0x0200fc5c                __cmpdf2
                0x0200fce4                __aeabi_cdrcmple
                0x0200fd00                __aeabi_cdcmpeq
                0x0200fd00                __aeabi_cdcmple
                0x0200fd18                __aeabi_dcmpeq
                0x0200fd30                __aeabi_dcmplt
                0x0200fd48                __aeabi_dcmple
                0x0200fd60                __aeabi_dcmpge
                0x0200fd78                __aeabi_dcmpgt
 .text          0x0200fd90       0x5c c:/_ndsdev/devkitpro/devkitarm/bin/../lib/gcc/arm-eabi/4.6.1/thumb\libgcc.a(_arm_fixdfsi.o)
                0x0200fd90                __aeabi_d2iz
                0x0200fd90                __fixdfsi
 .text          0x0200fdec       0x4c c:/_ndsdev/devkitpro/devkitarm/bin/../lib/gcc/arm-eabi/4.6.1/thumb\libgcc.a(_muldi3.o)
                0x0200fdec                __muldi3
                0x0200fdec                __aeabi_lmul
 .text          0x0200fe38       0x64 c:/_ndsdev/devkitpro/devkitarm/bin/../lib/gcc/arm-eabi/4.6.1/../../../../arm-eabi/lib/thumb\libg.a(lib_a-bsearch.o)
                0x0200fe38                bsearch
 .text          0x0200fe9c       0xc0 c:/_ndsdev/devkitpro/devkitarm/bin/../lib/gcc/arm-eabi/4.6.1/../../../../arm-eabi/lib/thumb\libg.a(lib_a-fclose.o)
                0x0200fe9c                _fclose_r
                0x0200ff40                fclose
 .text          0x0200ff5c      0x18c c:/_ndsdev/devkitpro/devkitarm/bin/../lib/gcc/arm-eabi/4.6.1/../../../../arm-eabi/lib/thumb\libg.a(lib_a-fflush.o)
                0x0200ff5c                _fflush_r
                0x020100b8                fflush
 .text          0x020100e8      0x1ec c:/_ndsdev/devkitpro/devkitarm/bin/../lib/gcc/arm-eabi/4.6.1/../../../../arm-eabi/lib/thumb\libg.a(lib_a-findfp.o)
                0x020100f0                _cleanup_r
                0x02010150                __sfmoreglue
                0x02010180                _cleanup
                0x02010194                __sinit
                0x020101e8                __sfp
                0x0201028c                __sfp_lock_acquire
                0x02010290                __sfp_lock_release
                0x02010294                __sinit_lock_acquire
                0x02010298                __sinit_lock_release
                0x0201029c                __fp_lock_all
                0x020102b8                __fp_unlock_all
 .text          0x020102d4       0xb0 c:/_ndsdev/devkitpro/devkitarm/bin/../lib/gcc/arm-eabi/4.6.1/../../../../arm-eabi/lib/thumb\libg.a(lib_a-fopen.o)
                0x020102d4                _fopen_r
                0x02010368                fopen
 .text          0x02010384      0x190 c:/_ndsdev/devkitpro/devkitarm/bin/../lib/gcc/arm-eabi/4.6.1/../../../../arm-eabi/lib/thumb\libg.a(lib_a-fread.o)
                0x02010384                _fread_r
                0x020104ec                fread
 .text          0x02010514      0x248 c:/_ndsdev/devkitpro/devkitarm/bin/../lib/gcc/arm-eabi/4.6.1/../../../../arm-eabi/lib/thumb\libg.a(lib_a-freer.o)
                0x02010514                _malloc_trim_r
                0x020105c0                _free_r
 .text          0x0201075c      0x32c c:/_ndsdev/devkitpro/devkitarm/bin/../lib/gcc/arm-eabi/4.6.1/../../../../arm-eabi/lib/thumb\libg.a(lib_a-fseek.o)
                0x0201075c                _fseek_r
                0x02010a64                fseek
 .text          0x02010a88       0xc4 c:/_ndsdev/devkitpro/devkitarm/bin/../lib/gcc/arm-eabi/4.6.1/../../../../arm-eabi/lib/thumb\libg.a(lib_a-fwalk.o)
                0x02010a88                _fwalk
                0x02010ae4                _fwalk_reent
 .text          0x02010b4c       0x18 c:/_ndsdev/devkitpro/devkitarm/bin/../lib/gcc/arm-eabi/4.6.1/../../../../arm-eabi/lib/thumb\libg.a(lib_a-gmtime.o)
                0x02010b4c                gmtime
 .text          0x02010b64       0x10 c:/_ndsdev/devkitpro/devkitarm/bin/../lib/gcc/arm-eabi/4.6.1/../../../../arm-eabi/lib/thumb\libg.a(lib_a-gmtime_r.o)
                0x02010b64                gmtime_r
 .text          0x02010b74        0x0 c:/_ndsdev/devkitpro/devkitarm/bin/../lib/gcc/arm-eabi/4.6.1/../../../../arm-eabi/lib/thumb\libg.a(lib_a-impure.o)
 .text          0x02010b74       0x50 c:/_ndsdev/devkitpro/devkitarm/bin/../lib/gcc/arm-eabi/4.6.1/../../../../arm-eabi/lib/thumb\libg.a(lib_a-init.o)
                0x02010b74                __libc_init_array
 .text          0x02010bc4      0x938 c:/_ndsdev/devkitpro/devkitarm/bin/../lib/gcc/arm-eabi/4.6.1/../../../../arm-eabi/lib/thumb\libg.a(lib_a-locale.o)
                0x02011280                _setlocale_r
                0x0201149c                __locale_charset
                0x020114a4                __locale_mb_cur_max
                0x020114b0                __locale_msgcharset
                0x020114bc                __locale_cjk_lang
                0x020114c8                _localeconv_r
                0x020114d4                setlocale
                0x020114f0                localeconv
 .text          0x020114fc       0xe4 c:/_ndsdev/devkitpro/devkitarm/bin/../lib/gcc/arm-eabi/4.6.1/../../../../arm-eabi/lib/thumb\libg.a(lib_a-makebuf.o)
                0x020114fc                __smakebuf_r
 .text          0x020115e0       0x30 c:/_ndsdev/devkitpro/devkitarm/bin/../lib/gcc/arm-eabi/4.6.1/../../../../arm-eabi/lib/thumb\libg.a(lib_a-malloc.o)
                0x020115e0                malloc
                0x020115f8                free
 .text          0x02011610      0x514 c:/_ndsdev/devkitpro/devkitarm/bin/../lib/gcc/arm-eabi/4.6.1/../../../../arm-eabi/lib/thumb\libg.a(lib_a-mallocr.o)
                0x02011610                _malloc_r
 .text          0x02011b24      0x5f8 c:/_ndsdev/devkitpro/devkitarm/bin/../lib/gcc/arm-eabi/4.6.1/../../../../arm-eabi/lib/thumb\libg.a(lib_a-mbtowc_r.o)
                0x02011b24                __utf8_mbtowc
                0x02011dec                _mbtowc_r
                0x02011e28                __ascii_mbtowc
                0x02011e54                __sjis_mbtowc
                0x02011f10                __eucjp_mbtowc
                0x02011ff0                __jis_mbtowc
 .text          0x0201211c       0x80 c:/_ndsdev/devkitpro/devkitarm/bin/../lib/gcc/arm-eabi/4.6.1/../../../../arm-eabi/lib/thumb\libg.a(lib_a-memcpy.o)
                0x0201211c                memcpy
 .text          0x0201219c       0x98 c:/_ndsdev/devkitpro/devkitarm/bin/../lib/gcc/arm-eabi/4.6.1/../../../../arm-eabi/lib/thumb\libg.a(lib_a-memset.o)
                0x0201219c                memset
 .text          0x02012234      0x488 c:/_ndsdev/devkitpro/devkitarm/bin/../lib/gcc/arm-eabi/4.6.1/../../../../arm-eabi/lib/thumb\libg.a(lib_a-mktm_r.o)
                0x02012234                __tzcalc_limits
                0x020123cc                _mktm_r
 .text          0x020126bc        0x8 c:/_ndsdev/devkitpro/devkitarm/bin/../lib/gcc/arm-eabi/4.6.1/../../../../arm-eabi/lib/thumb\libg.a(lib_a-mlock.o)
                0x020126bc                __malloc_lock
                0x020126c0                __malloc_unlock
 .text          0x020126c4      0x138 c:/_ndsdev/devkitpro/devkitarm/bin/../lib/gcc/arm-eabi/4.6.1/../../../../arm-eabi/lib/thumb\libg.a(lib_a-refill.o)
                0x020126e4                __srefill_r
 .text          0x020127fc       0x84 c:/_ndsdev/devkitpro/devkitarm/bin/../lib/gcc/arm-eabi/4.6.1/../../../../arm-eabi/lib/thumb\libg.a(lib_a-sprintf.o)
                0x020127fc                _sprintf_r
                0x0201283c                sprintf
 .text          0x02012880       0xac c:/_ndsdev/devkitpro/devkitarm/bin/../lib/gcc/arm-eabi/4.6.1/../../../../arm-eabi/lib/thumb\libg.a(lib_a-stdio.o)
                0x02012880                __sread
                0x020128ac                __seofread
                0x020128b0                __swrite
                0x020128ec                __sseek
                0x0201291c                __sclose
 .text          0x0201292c       0x50 c:/_ndsdev/devkitpro/devkitarm/bin/../lib/gcc/arm-eabi/4.6.1/../../../../arm-eabi/lib/thumb\libg.a(lib_a-strcasecmp.o)
                0x0201292c                strcasecmp
 .text          0x0201297c       0x58 c:/_ndsdev/devkitpro/devkitarm/bin/../lib/gcc/arm-eabi/4.6.1/../../../../arm-eabi/lib/thumb\libg.a(lib_a-strcat.o)
                0x0201297c                strcat
 .text          0x020129d4       0xe4 c:/_ndsdev/devkitpro/devkitarm/bin/../lib/gcc/arm-eabi/4.6.1/../../../../arm-eabi/lib/thumb\libg.a(lib_a-strchr.o)
                0x020129d4                strchr
 .text          0x02012ab8       0x14 c:/_ndsdev/devkitpro/devkitarm/bin/../lib/gcc/arm-eabi/4.6.1/../../../../arm-eabi/lib/thumb\libg.a(lib_a-strcmp.o)
                0x02012ab8                strcmp
 .text          0x02012acc       0x10 c:/_ndsdev/devkitpro/devkitarm/bin/../lib/gcc/arm-eabi/4.6.1/../../../../arm-eabi/lib/thumb\libg.a(lib_a-strcpy.o)
                0x02012acc                strcpy
 .text          0x02012adc       0x4c c:/_ndsdev/devkitpro/devkitarm/bin/../lib/gcc/arm-eabi/4.6.1/../../../../arm-eabi/lib/thumb\libg.a(lib_a-strlcpy.o)
                0x02012adc                strlcpy
 .text          0x02012b28       0x10 c:/_ndsdev/devkitpro/devkitarm/bin/../lib/gcc/arm-eabi/4.6.1/../../../../arm-eabi/lib/thumb\libg.a(lib_a-strlen.o)
                0x02012b28                strlen
 .text          0x02012b38       0x60 c:/_ndsdev/devkitpro/devkitarm/bin/../lib/gcc/arm-eabi/4.6.1/../../../../arm-eabi/lib/thumb\libg.a(lib_a-strncasecmp.o)
                0x02012b38                strncasecmp
 .text          0x02012b98       0xc0 c:/_ndsdev/devkitpro/devkitarm/bin/../lib/gcc/arm-eabi/4.6.1/../../../../arm-eabi/lib/thumb\libg.a(lib_a-strncmp.o)
                0x02012b98                strncmp
 .text          0x02012c58       0x78 c:/_ndsdev/devkitpro/devkitarm/bin/../lib/gcc/arm-eabi/4.6.1/../../../../arm-eabi/lib/thumb\libg.a(lib_a-strncpy.o)
                0x02012c58                strncpy
 .text          0x02012cd0      0x184 c:/_ndsdev/devkitpro/devkitarm/bin/../lib/gcc/arm-eabi/4.6.1/../../../../arm-eabi/lib/thumb\libg.a(lib_a-strtol.o)
                0x02012cd0                _strtol_r
                0x02012e34                strtol
 *fill*         0x02012e54        0x4 ff
 .text          0x02012e58     0x16f8 c:/_ndsdev/devkitpro/devkitarm/bin/../lib/gcc/arm-eabi/4.6.1/../../../../arm-eabi/lib/thumb\libg.a(lib_a-svfprintf.o)
                0x02012e58                _svfprintf_r
 .text          0x02014550       0x1c c:/_ndsdev/devkitpro/devkitarm/bin/../lib/gcc/arm-eabi/4.6.1/../../../../arm-eabi/lib/thumb\libg.a(lib_a-sysstat.o)
                0x02014550                stat
 .text          0x0201456c       0x30 c:/_ndsdev/devkitpro/devkitarm/bin/../lib/gcc/arm-eabi/4.6.1/../../../../arm-eabi/lib/thumb\libg.a(lib_a-time.o)
                0x0201456c                time
 .text          0x0201459c        0x8 c:/_ndsdev/devkitpro/devkitarm/bin/../lib/gcc/arm-eabi/4.6.1/../../../../arm-eabi/lib/thumb\libg.a(lib_a-tzlock.o)
                0x0201459c                __tz_lock
                0x020145a0                __tz_unlock
 .text          0x020145a4        0x0 c:/_ndsdev/devkitpro/devkitarm/bin/../lib/gcc/arm-eabi/4.6.1/../../../../arm-eabi/lib/thumb\libg.a(lib_a-tzvars.o)
 .text          0x020145a4       0xdc c:/_ndsdev/devkitpro/devkitarm/bin/../lib/gcc/arm-eabi/4.6.1/../../../../arm-eabi/lib/thumb\libg.a(lib_a-wcrtomb.o)
                0x020145a4                _wcrtomb_r
                0x02014608                wcrtomb
 .text          0x02014680       0x40 c:/_ndsdev/devkitpro/devkitarm/bin/../lib/gcc/arm-eabi/4.6.1/../../../../arm-eabi/lib/thumb\libg.a(lib_a-wcsrtombs.o)
                0x02014680                _wcsrtombs_r
                0x02014698                wcsrtombs
 .text          0x020146c0      0x27c c:/_ndsdev/devkitpro/devkitarm/bin/../lib/gcc/arm-eabi/4.6.1/../../../../arm-eabi/lib/thumb\libg.a(lib_a-wctomb_r.o)
                0x020146c0                __utf8_wctomb
                0x02014780                _wctomb_r
                0x020147b8                __ascii_wctomb
                0x020147d8                __sjis_wctomb
                0x02014844                __eucjp_wctomb
                0x020148c0                __jis_wctomb
 .text          0x0201493c       0x10 c:/_ndsdev/devkitpro/devkitarm/bin/../lib/gcc/arm-eabi/4.6.1/../../../../arm-eabi/lib/thumb\libg.a(lib_a-ctype_.o)
                0x0201493c                __set_ctype
 *fill*         0x0201494c        0x4 ff
 .text          0x02014950     0x1010 c:/_ndsdev/devkitpro/devkitarm/bin/../lib/gcc/arm-eabi/4.6.1/../../../../arm-eabi/lib/thumb\libg.a(lib_a-dtoa.o)
                0x02014aac                _dtoa_r
 .text          0x02015960       0x70 c:/_ndsdev/devkitpro/devkitarm/bin/../lib/gcc/arm-eabi/4.6.1/../../../../arm-eabi/lib/thumb\libg.a(lib_a-flags.o)
                0x02015960                __sflags
 .text          0x020159d0       0xa8 c:/_ndsdev/devkitpro/devkitarm/bin/../lib/gcc/arm-eabi/4.6.1/../../../../arm-eabi/lib/thumb\libg.a(lib_a-getenv_r.o)
                0x020159d0                _findenv_r
                0x02015a68                _getenv_r
 .text          0x02015a78        0x8 c:/_ndsdev/devkitpro/devkitarm/bin/../lib/gcc/arm-eabi/4.6.1/../../../../arm-eabi/lib/thumb\libg.a(lib_a-gettzinfo.o)
                0x02015a78                __gettzinfo
 .text          0x02015a80       0x94 c:/_ndsdev/devkitpro/devkitarm/bin/../lib/gcc/arm-eabi/4.6.1/../../../../arm-eabi/lib/thumb\libg.a(lib_a-memchr.o)
                0x02015a80                memchr
 *fill*         0x02015b14        0x4 ff
 .text          0x02015b18      0x988 c:/_ndsdev/devkitpro/devkitarm/bin/../lib/gcc/arm-eabi/4.6.1/../../../../arm-eabi/lib/thumb\libg.a(lib_a-mprec.o)
                0x02015b18                _Balloc
                0x02015b6c                _Bfree
                0x02015b84                __multadd
                0x02015c18                __s2b
                0x02015cac                __hi0bits
                0x02015ce4                __lo0bits
                0x02015d44                __i2b
                0x02015d5c                __multiply
                0x02015ecc                __pow5mult
                0x02015f7c                __lshift
                0x0201604c                __mcmp
                0x02016088                __mdiff
                0x02016174                __ulp
                0x020161bc                __b2d
                0x02016278                __d2b
                0x02016348                __ratio
                0x020163b4                _mprec_log10
                0x020163f4                __copybits
                0x0201643c                __any_on
 .text          0x020164a0       0x90 c:/_ndsdev/devkitpro/devkitarm/bin/../lib/gcc/arm-eabi/4.6.1/../../../../arm-eabi/lib/thumb\libg.a(lib_a-s_fpclassify.o)
                0x020164a0                __fpclassifyd
 .text          0x02016530      0xd9c c:/_ndsdev/devkitpro/devkitarm/bin/../lib/gcc/arm-eabi/4.6.1/../../../../arm-eabi/lib/thumb\libg.a(lib_a-svfiprintf.o)
                0x02016530                __ssprint_r
                0x02016660                _svfiprintf_r
 .text          0x020172cc      0x13c c:/_ndsdev/devkitpro/devkitarm/bin/../lib/gcc/arm-eabi/4.6.1/../../../../arm-eabi/lib/thumb\libg.a(lib_a-wcsnrtombs.o)
                0x020172cc                _wcsnrtombs_r
                0x020173d8                wcsnrtombs
 .text          0x02017408       0x64 c:/_ndsdev/devkitpro/devkitarm/bin/../lib/gcc/arm-eabi/4.6.1/../../../../arm-eabi/lib/thumb\libg.a(lib_a-callocr.o)
                0x02017408                _calloc_r
 .text          0x0201746c        0x0 c:/_ndsdev/devkitpro/devkitarm/bin/../lib/gcc/arm-eabi/4.6.1/../../../../arm-eabi/lib/thumb\libg.a(lib_a-environ.o)
 .text          0x0201746c        0x8 c:/_ndsdev/devkitpro/devkitarm/bin/../lib/gcc/arm-eabi/4.6.1/../../../../arm-eabi/lib/thumb\libg.a(lib_a-envlock.o)
                0x0201746c                __env_lock
                0x02017470                __env_unlock
 .text          0x02017474       0xa8 c:/_ndsdev/devkitpro/devkitarm/bin/../lib/gcc/arm-eabi/4.6.1/../../../../arm-eabi/lib/thumb\libg.a(lib_a-memmove.o)
                0x02017474                memmove
 .text          0x0201751c      0x3c4 c:/_ndsdev/devkitpro/devkitarm/bin/../lib/gcc/arm-eabi/4.6.1/../../../../arm-eabi/lib/thumb\libg.a(lib_a-reallocr.o)
                0x0201751c                _realloc_r
 .text          0x020178e0       0x50 c:/_ndsdev/devkitpro/devkitarm/bin/../lib/gcc/arm-eabi/4.6.1/../../../../arm-eabi/lib/thumb\libsysbase.a(close.o)
                0x020178e0                _close_r
 .text          0x02017930       0x58 c:/_ndsdev/devkitpro/devkitarm/bin/../lib/gcc/arm-eabi/4.6.1/../../../../arm-eabi/lib/thumb\libsysbase.a(fstat.o)
                0x02017930                _fstat_r
 .text          0x02017988        0x4 c:/_ndsdev/devkitpro/devkitarm/bin/../lib/gcc/arm-eabi/4.6.1/../../../../arm-eabi/lib/thumb\libsysbase.a(isatty.o)
                0x02017988                _isatty_r
 .text          0x0201798c       0x54 c:/_ndsdev/devkitpro/devkitarm/bin/../lib/gcc/arm-eabi/4.6.1/../../../../arm-eabi/lib/thumb\libsysbase.a(lseek.o)
                0x0201798c                _lseek_r
 .text          0x020179e0       0xa0 c:/_ndsdev/devkitpro/devkitarm/bin/../lib/gcc/arm-eabi/4.6.1/../../../../arm-eabi/lib/thumb\libsysbase.a(open.o)
                0x020179e0                _open_r
 .text          0x02017a80       0x54 c:/_ndsdev/devkitpro/devkitarm/bin/../lib/gcc/arm-eabi/4.6.1/../../../../arm-eabi/lib/thumb\libsysbase.a(read.o)
                0x02017a80                _read_r
 .text          0x02017ad4       0x54 c:/_ndsdev/devkitpro/devkitarm/bin/../lib/gcc/arm-eabi/4.6.1/../../../../arm-eabi/lib/thumb\libsysbase.a(sbrk.o)
                0x02017ad4                _sbrk_r
 .text          0x02017b28       0x40 c:/_ndsdev/devkitpro/devkitarm/bin/../lib/gcc/arm-eabi/4.6.1/../../../../arm-eabi/lib/thumb\libsysbase.a(stat.o)
                0x02017b28                _stat_r
 .text          0x02017b68       0x48 c:/_ndsdev/devkitpro/devkitarm/bin/../lib/gcc/arm-eabi/4.6.1/../../../../arm-eabi/lib/thumb\libsysbase.a(times.o)
                0x02017b68                _times
                0x02017b7c                _times_r
                0x02017b84                _gettimeofday_r
 .text          0x02017bb0       0x54 c:/_ndsdev/devkitpro/devkitarm/bin/../lib/gcc/arm-eabi/4.6.1/../../../../arm-eabi/lib/thumb\libsysbase.a(write.o)
                0x02017bb0                _write_r
 .text          0x02017c04        0x0 c:/_ndsdev/devkitpro/devkitarm/bin/../lib/gcc/arm-eabi/4.6.1/../../../../arm-eabi/lib/thumb\libsysbase.a(malloc_vars.o)
 .text          0x02017c04       0x48 c:/_ndsdev/devkitpro/devkitarm/bin/../lib/gcc/arm-eabi/4.6.1/../../../../arm-eabi/lib/thumb\libsysbase.a(build_argv.o)
                0x02017c04                build_argv
 .text          0x02017c4c        0x0 c:/_ndsdev/devkitpro/devkitarm/bin/../lib/gcc/arm-eabi/4.6.1/../../../../arm-eabi/lib/thumb\libsysbase.a(syscall_support.o)
 .text          0x02017c4c       0x80 c:/_ndsdev/devkitpro/devkitarm/bin/../lib/gcc/arm-eabi/4.6.1/../../../../arm-eabi/lib/thumb\libsysbase.a(handle_manager.o)
                0x02017c4c                __release_handle
                0x02017c78                __alloc_handle
                0x02017cb0                __get_handle
 .text          0x02017ccc      0x350 c:/_ndsdev/devkitpro/devkitarm/bin/../lib/gcc/arm-eabi/4.6.1/../../../../arm-eabi/lib/thumb\libsysbase.a(dirent.o)
                0x02017d10                opendir
                0x02017db4                closedir
                0x02017e14                readdir
                0x02017ec4                readdir_r
                0x02017f54                rewinddir
                0x02017f90                seekdir
                0x02018004                telldir
 .text          0x0201801c      0x144 c:/_ndsdev/devkitpro/devkitarm/bin/../lib/gcc/arm-eabi/4.6.1/../../../../arm-eabi/lib/thumb\libsysbase.a(iosupport.o)
                0x0201801c                setDefaultDevice
                0x02018030                FindDevice
                0x020180a0                RemoveDevice
                0x020180c4                AddDevice
                0x02018140                GetDeviceOpTab
 .text          0x02018160       0x3c c:/_ndsdev/devkitpro/devkitarm/bin/../lib/gcc/arm-eabi/4.6.1/thumb\libgcc.a(_aeabi_uldivmod.o)
                0x02018160                __aeabi_uldivmod
 .text          0x0201819c       0x74 c:/_ndsdev/devkitpro/devkitarm/bin/../lib/gcc/arm-eabi/4.6.1/thumb\libgcc.a(bpabi.o)
                0x0201819c                __gnu_ldivmod_helper
                0x020181d8                __gnu_uldivmod_helper
 .text          0x02018210      0x3c8 c:/_ndsdev/devkitpro/devkitarm/bin/../lib/gcc/arm-eabi/4.6.1/thumb\libgcc.a(_divdi3.o)
                0x02018210                __divdi3
 .text          0x020185d8      0x370 c:/_ndsdev/devkitpro/devkitarm/bin/../lib/gcc/arm-eabi/4.6.1/thumb\libgcc.a(_udivdi3.o)
                0x020185d8                __udivdi3
 .text          0x02018948       0x48 c:/_ndsdev/devkitpro/devkitarm/bin/../lib/gcc/arm-eabi/4.6.1/thumb\libgcc.a(_clzsi2.o)
                0x02018948                __clzsi2
 .text          0x02018990        0xc c:/_ndsdev/devkitpro/devkitarm/bin/../lib/gcc/arm-eabi/4.6.1/../../../../arm-eabi/lib/thumb\libg.a(lib_a-errno.o)
                0x02018990                __errno
 .text          0x0201899c       0x30 c:/_ndsdev/devkitpro/devkitarm/bin/../lib/gcc/arm-eabi/4.6.1/../../../../arm-eabi/lib/thumb\libg.a(lib_a-strnlen.o)
                0x0201899c                strnlen
 .text          0x020189cc        0x0 c:/_ndsdev/devkitpro/devkitarm/bin/../lib/gcc/arm-eabi/4.6.1/thumb/crtend.o
 .text          0x020189cc        0x0 c:/_ndsdev/devkitpro/devkitarm/bin/../lib/gcc/arm-eabi/4.6.1/thumb/crtn.o
 *(.text.*)
 .text.startup  0x020189cc       0x2c main.o
                0x020189cc                main
 .text.startup.stub
                0x020189f8       0x10 linker stubs
 *(.stub)
 *(.gnu.warning)
 *(.gnu.linkonce.t*)
 *(.glue_7)
 .glue_7        0x00000000        0x0 linker stubs
 *(.glue_7t)
 .glue_7t       0x00000000        0x0 linker stubs
                0x02018a08                . = ALIGN (0x4)

.vfp11_veneer   0x02018a08        0x0
 .vfp11_veneer  0x00000000        0x0 linker stubs

.v4_bx          0x02018a08        0x0
 .v4_bx         0x00000000        0x0 linker stubs

.fini           0x02018a08        0xc
 *(.fini)
 .fini          0x02018a08        0x4 c:/_ndsdev/devkitpro/devkitarm/bin/../lib/gcc/arm-eabi/4.6.1/thumb/crti.o
                0x02018a08                _fini
 .fini          0x02018a0c        0x8 c:/_ndsdev/devkitpro/devkitarm/bin/../lib/gcc/arm-eabi/4.6.1/thumb/crtn.o
                0x02018a14                __text_end = .

.rodata         0x02018a18    0xa7248
 *(.rodata)
 .rodata        0x02018a18    0x3e028 soundbank_bin.o
                0x02018a18                soundbank_bin
                0x02056a3c                soundbank_bin_size
                0x02056a3c                soundbank_bin_end
 .rodata        0x02056a40     0x2f30 down.o
                0x02056a40                downBitmap
 .rodata        0x02059970     0x2e7c up.o
                0x02059970                upBitmap
 .rodata        0x0205c7ec    0x55c24 main.o
                0x0205c82c                number_Sprite
                0x02060c2c                Title_Tiles
                0x02067e6c                Title_Map
                0x0206846c                Title_Pal
                0x02068510                Gameover_Tiles
                0x02074410                Gameover_Map
                0x02074a10                Gameover_Pal
                0x02074b10                Season_Tiles
                0x02080750                Season_Map
                0x02080d50                Season_Pal
                0x02080e40                Title_Down_Tiles
                0x02089a40                Title_Down_Map
                0x0208a040                Title_Down_Pal
                0x0208a144                item_Sprite
                0x0208d544                Shop_Tiles
                0x02099244                Shop_Map
                0x02099844                Shop_Pal
                0x02099940                item_Pal
                0x020999fc                number_Pal
                0x02099af8                Play_Down_Tiles
                0x020a57b8                Play_Down_Map
                0x020a5db8                Play_Down_Pal
                0x020a5eb8                Pause_Down_Tiles
                0x020b1cb8                Pause_Down_Map
                0x020b22b8                Pause_Down_Pal
                0x020b23bc                Title_Down_Info
                0x020b23c8                Title_Info
                0x020b23d4                Shop_Info
                0x020b23e0                Season_Info
                0x020b23ec                Play_Down_Info
                0x020b23f8                Pause_Down_Info
                0x020b2404                Gameover_Info
 .rodata        0x020b2410      0x224 virtual_io.o
 .rodata        0x020b2634       0x40 c:/_ndsdev/devkitPro/PAlib/lib\libpa9.a(PA_Inits.o)
                0x020b2634                winfades
 .rodata        0x020b2674      0x400 c:/_ndsdev/devkitPro/PAlib/lib\libpa9.a(PA_Math.o)
                0x020b2674                PA_SIN
 .rodata        0x020b2a74       0x30 c:/_ndsdev/devkitPro/PAlib/lib\libpa9.a(PA_Sprite.o)
                0x020b2a74                PA_obj_sizes
                0x020b2a8c                PA_size
 .rodata        0x020b2aa4       0x20 c:/_ndsdev/devkitPro/PAlib/lib\libpa9.a(PA_TiledFont.o)
                0x020b2aa4                PA_TiledFont
 .rodata        0x020b2ac4       0x20 c:/_ndsdev/devkitPro/PAlib/lib\libpa9.a(PA_BmpFont0.o)
                0x020b2ac4                PA_BmpFont0
 .rodata        0x020b2ae4       0x20 c:/_ndsdev/devkitPro/PAlib/lib\libpa9.a(PA_BmpFont1.o)
                0x020b2ae4                PA_BmpFont1
 .rodata        0x020b2b04       0x20 c:/_ndsdev/devkitPro/PAlib/lib\libpa9.a(PA_BmpFont2.o)
                0x020b2b04                PA_BmpFont2
 .rodata        0x020b2b24       0x20 c:/_ndsdev/devkitPro/PAlib/lib\libpa9.a(PA_BmpFont3.o)
                0x020b2b24                PA_BmpFont3
 .rodata        0x020b2b44       0x20 c:/_ndsdev/devkitPro/PAlib/lib\libpa9.a(PA_BmpFont4.o)
                0x020b2b44                PA_BmpFont4
 .rodata        0x020b2b64      0x604 c:/_ndsdev/devkitPro/PAlib/lib\libpa9.a(PA_TiledFont_Map.bin.o)
                0x020b2b64                PA_TiledFont_Map
                0x020b3164                PA_TiledFont_Map_size
                0x020b3164                PA_TiledFont_Map_end
 .rodata        0x020b3168      0x204 c:/_ndsdev/devkitPro/PAlib/lib\libpa9.a(PA_TiledFont_Pal.bin.o)
                0x020b3168                PA_TiledFont_Pal
                0x020b3368                PA_TiledFont_Pal_end
                0x020b3368                PA_TiledFont_Pal_size
 .rodata        0x020b336c     0x33c4 c:/_ndsdev/devkitPro/PAlib/lib\libpa9.a(PA_TiledFont_Tiles.bin.o)
                0x020b336c                PA_TiledFont_Tiles
                0x020b672c                PA_TiledFont_Tiles_size
                0x020b672c                PA_TiledFont_Tiles_end
 .rodata        0x020b6730      0x204 c:/_ndsdev/devkitPro/PAlib/lib\libpa9.a(PA_BmpFont0_Map.bin.o)
                0x020b6730                PA_BmpFont0_Map
                0x020b6930                PA_BmpFont0_Map_end
                0x020b6930                PA_BmpFont0_Map_size
 .rodata        0x020b6934      0x104 c:/_ndsdev/devkitPro/PAlib/lib\libpa9.a(PA_BmpFont0_Sizes.bin.o)
                0x020b6934                PA_BmpFont0_Sizes
                0x020b6a34                PA_BmpFont0_Sizes_size
                0x020b6a34                PA_BmpFont0_Sizes_end
 .rodata        0x020b6a38      0x324 c:/_ndsdev/devkitPro/PAlib/lib\libpa9.a(PA_BmpFont0_Tiles.bin.o)
                0x020b6a38                PA_BmpFont0_Tiles
                0x020b6d58                PA_BmpFont0_Tiles_size
                0x020b6d58                PA_BmpFont0_Tiles_end
 .rodata        0x020b6d5c      0x204 c:/_ndsdev/devkitPro/PAlib/lib\libpa9.a(PA_BmpFont1_Map.bin.o)
                0x020b6d5c                PA_BmpFont1_Map
                0x020b6f5c                PA_BmpFont1_Map_end
                0x020b6f5c                PA_BmpFont1_Map_size
 .rodata        0x020b6f60      0x104 c:/_ndsdev/devkitPro/PAlib/lib\libpa9.a(PA_BmpFont1_Sizes.bin.o)
                0x020b6f60                PA_BmpFont1_Sizes
                0x020b7060                PA_BmpFont1_Sizes_size
                0x020b7060                PA_BmpFont1_Sizes_end
 .rodata        0x020b7064      0x34c c:/_ndsdev/devkitPro/PAlib/lib\libpa9.a(PA_BmpFont1_Tiles.bin.o)
                0x020b7064                PA_BmpFont1_Tiles
                0x020b73ac                PA_BmpFont1_Tiles_end
                0x020b73ac                PA_BmpFont1_Tiles_size
 .rodata        0x020b73b0      0x804 c:/_ndsdev/devkitPro/PAlib/lib\libpa9.a(PA_BmpFont2_Map.bin.o)
                0x020b73b0                PA_BmpFont2_Map
                0x020b7bb0                PA_BmpFont2_Map_size
                0x020b7bb0                PA_BmpFont2_Map_end
 .rodata        0x020b7bb4      0x104 c:/_ndsdev/devkitPro/PAlib/lib\libpa9.a(PA_BmpFont2_Sizes.bin.o)
                0x020b7bb4                PA_BmpFont2_Sizes
                0x020b7cb4                PA_BmpFont2_Sizes_end
                0x020b7cb4                PA_BmpFont2_Sizes_size
 .rodata        0x020b7cb8      0x39c c:/_ndsdev/devkitPro/PAlib/lib\libpa9.a(PA_BmpFont2_Tiles.bin.o)
                0x020b7cb8                PA_BmpFont2_Tiles
                0x020b8050                PA_BmpFont2_Tiles_size
                0x020b8050                PA_BmpFont2_Tiles_end
 .rodata        0x020b8054      0x804 c:/_ndsdev/devkitPro/PAlib/lib\libpa9.a(PA_BmpFont3_Map.bin.o)
                0x020b8054                PA_BmpFont3_Map
                0x020b8854                PA_BmpFont3_Map_end
                0x020b8854                PA_BmpFont3_Map_size
 .rodata        0x020b8858      0x104 c:/_ndsdev/devkitPro/PAlib/lib\libpa9.a(PA_BmpFont3_Sizes.bin.o)
                0x020b8858                PA_BmpFont3_Sizes
                0x020b8958                PA_BmpFont3_Sizes_end
                0x020b8958                PA_BmpFont3_Sizes_size
 .rodata        0x020b895c      0x624 c:/_ndsdev/devkitPro/PAlib/lib\libpa9.a(PA_BmpFont3_Tiles.bin.o)
                0x020b895c                PA_BmpFont3_Tiles
                0x020b8f7c                PA_BmpFont3_Tiles_end
                0x020b8f7c                PA_BmpFont3_Tiles_size
 .rodata        0x020b8f80      0x804 c:/_ndsdev/devkitPro/PAlib/lib\libpa9.a(PA_BmpFont4_Map.bin.o)
                0x020b8f80                PA_BmpFont4_Map
                0x020b9780                PA_BmpFont4_Map_size
                0x020b9780                PA_BmpFont4_Map_end
 .rodata        0x020b9784      0x104 c:/_ndsdev/devkitPro/PAlib/lib\libpa9.a(PA_BmpFont4_Sizes.bin.o)
                0x020b9784                PA_BmpFont4_Sizes
                0x020b9884                PA_BmpFont4_Sizes_end
                0x020b9884                PA_BmpFont4_Sizes_size
 .rodata        0x020b9888      0x834 c:/_ndsdev/devkitPro/PAlib/lib\libpa9.a(PA_BmpFont4_Tiles.bin.o)
                0x020b9888                PA_BmpFont4_Tiles
                0x020ba0b8                PA_BmpFont4_Tiles_size
                0x020ba0b8                PA_BmpFont4_Tiles_end
 .rodata        0x020ba0bc       0xf0 c:/_ndsdev/devkitPro/PAlib/lib\libpa9.a(PA_Keyboard.o)
                0x020ba0bc                PA_Keyboard
 .rodata        0x020ba1ac     0x2000 c:/_ndsdev/devkitPro/PAlib/lib\libpa9.a(keyboard.map.o)
                0x020ba1ac                keyboard_Map
 .rodata        0x020bc1ac       0x20 c:/_ndsdev/devkitPro/PAlib/lib\libpa9.a(keyboard.pal.o)
                0x020bc1ac                keyboard_Palette
 .rodata        0x020bc1cc     0x28a0 c:/_ndsdev/devkitPro/PAlib/lib\libpa9.a(keyboard.raw.o)
                0x020bc1cc                keyboard_Tiles
 .rodata        0x020bea6c       0x14 c:/_ndsdev/devkitPro/libnds/lib\libnds9.a(decompress.o)
 .rodata        0x020bea80      0x308 c:/_ndsdev/devkitPro/libnds/lib\libnds9.a(trig.o)
                0x020bea80                SIN_LUT
                0x020beb84                TAN_LUT
 .rodata        0x020bed88        0x4 c:/_ndsdev/devkitpro/devkitarm/bin/../lib/gcc/arm-eabi/4.6.1/../../../../arm-eabi/lib/thumb\libg.a(lib_a-impure.o)
                0x020bed88                _global_impure_ptr
 .rodata        0x020bed8c       0xf0 c:/_ndsdev/devkitpro/devkitarm/bin/../lib/gcc/arm-eabi/4.6.1/../../../../arm-eabi/lib/thumb\libg.a(lib_a-locale.o)
 .rodata        0x020bee7c       0xa8 c:/_ndsdev/devkitpro/devkitarm/bin/../lib/gcc/arm-eabi/4.6.1/../../../../arm-eabi/lib/thumb\libg.a(lib_a-mbtowc_r.o)
 .rodata        0x020bef24       0x68 c:/_ndsdev/devkitpro/devkitarm/bin/../lib/gcc/arm-eabi/4.6.1/../../../../arm-eabi/lib/thumb\libg.a(lib_a-mktm_r.o)
 .rodata        0x020bef8c      0x184 c:/_ndsdev/devkitpro/devkitarm/bin/../lib/gcc/arm-eabi/4.6.1/../../../../arm-eabi/lib/thumb\libg.a(lib_a-svfprintf.o)
 .rodata        0x020bf110      0x104 c:/_ndsdev/devkitpro/devkitarm/bin/../lib/gcc/arm-eabi/4.6.1/../../../../arm-eabi/lib/thumb\libg.a(lib_a-ctype_.o)
                0x020bf110                _ctype_
 *fill*         0x020bf214        0x4 ff
 .rodata        0x020bf218      0x128 c:/_ndsdev/devkitpro/devkitarm/bin/../lib/gcc/arm-eabi/4.6.1/../../../../arm-eabi/lib/thumb\libg.a(lib_a-mprec.o)
                0x020bf228                __mprec_tens
                0x020bf2f0                __mprec_tinytens
                0x020bf318                __mprec_bigtens
 .rodata        0x020bf340      0x184 c:/_ndsdev/devkitpro/devkitarm/bin/../lib/gcc/arm-eabi/4.6.1/../../../../arm-eabi/lib/thumb\libg.a(lib_a-svfiprintf.o)
 .rodata        0x020bf4c4       0x64 c:/_ndsdev/devkitpro/devkitarm/bin/../lib/gcc/arm-eabi/4.6.1/../../../../arm-eabi/lib/thumb\libsysbase.a(iosupport.o)
                0x020bf4c4                dotab_stdnull
 *all.rodata*(*)
 *(.roda)
 *(.rodata.*)
 .rodata.str1.4
                0x020bf528       0x68 main.o
 .rodata.str1.4
                0x020bf590       0x1f tasks.o
                                 0x20 (size before relaxing)
 *fill*         0x020bf5af        0x1 ff
 .rodata.str1.4
                0x020bf5b0        0xd virtual_io.o
                                 0x10 (size before relaxing)
 *fill*         0x020bf5bd        0x3 ff
 .rodata.str1.4
                0x020bf5c0      0x18b c:/_ndsdev/devkitPro/PAlib/lib\libpa9.a(PA_BgTiles.o)
                                0x190 (size before relaxing)
 *fill*         0x020bf74b        0x1 ff
 .rodata.str1.4
                0x020bf74c       0x26 c:/_ndsdev/devkitPro/PAlib/lib\libpa9.a(PA_Error.o)
                                 0x28 (size before relaxing)
 *fill*         0x020bf772        0x2 ff
 .rodata.str1.4
                0x020bf774        0x2 c:/_ndsdev/devkitPro/PAlib/lib\libpa9.a(PA_Inits.o)
                                  0x4 (size before relaxing)
 *fill*         0x020bf776        0x2 ff
 .rodata.str1.4
                0x020bf778      0x234 c:/_ndsdev/devkitPro/PAlib/lib\libpa9.a(PA_Sprite.o)
 .rodata.str1.4
                0x020bf9ac        0xa c:/_ndsdev/devkitPro/PAlib/lib\libpa9.a(PA_Stuff.o)
                                  0xc (size before relaxing)
 *fill*         0x020bf9b6        0x2 ff
 .rodata.str1.4
                0x020bf9b8      0x128 c:/_ndsdev/devkitPro/PAlib/lib\libpa9.a(PA_NewBg.o)
 .rodata.str1.4
                0x00000000        0x4 c:/_ndsdev/devkitpro/devkitarm/bin/../lib/gcc/arm-eabi/4.6.1/../../../../arm-eabi/lib/thumb\libg.a(lib_a-impure.o)
 .rodata.str1.4
                0x020bfae0      0x120 c:/_ndsdev/devkitpro/devkitarm/bin/../lib/gcc/arm-eabi/4.6.1/../../../../arm-eabi/lib/thumb\libg.a(lib_a-locale.o)
                                0x130 (size before relaxing)
 .rodata.str1.4
                0x020bfc00       0x42 c:/_ndsdev/devkitpro/devkitarm/bin/../lib/gcc/arm-eabi/4.6.1/../../../../arm-eabi/lib/thumb\libg.a(lib_a-svfprintf.o)
                                 0x44 (size before relaxing)
 *fill*         0x020bfc42        0x2 ff
 .rodata.str1.4
                0x020bfc44        0x4 c:/_ndsdev/devkitpro/devkitarm/bin/../lib/gcc/arm-eabi/4.6.1/../../../../arm-eabi/lib/thumb\libg.a(lib_a-tzvars.o)
 .rodata.str1.4
                0x020bfc48       0x10 c:/_ndsdev/devkitpro/devkitarm/bin/../lib/gcc/arm-eabi/4.6.1/../../../../arm-eabi/lib/thumb\libg.a(lib_a-dtoa.o)
                                 0x14 (size before relaxing)
 .rodata.str1.4
                0x00000000       0x30 c:/_ndsdev/devkitpro/devkitarm/bin/../lib/gcc/arm-eabi/4.6.1/../../../../arm-eabi/lib/thumb\libg.a(lib_a-svfiprintf.o)
 .rodata.str1.4
                0x020bfc58        0x8 c:/_ndsdev/devkitpro/devkitarm/bin/../lib/gcc/arm-eabi/4.6.1/../../../../arm-eabi/lib/thumb\libsysbase.a(iosupport.o)
 *(.gnu.linkonce.r*)
                0x020bfc60                . = ALIGN (0x4)

.ARM.extab
 *(.ARM.extab* .gnu.linkonce.armextab.*)
                0x020bfc60                __exidx_start = .

ARM.exidx
 *(.ARM.exidx* .gnu.linkonce.armexidx.*)
                0x020bfc60                __exidx_end = .
                0x020bfc60                . = ALIGN (0x4)
                0x020bfc60                PROVIDE (__preinit_array_start, .)

.preinit_array
 *(.preinit_array)
                0x020bfc60                PROVIDE (__preinit_array_end, .)
                0x020bfc60                PROVIDE (__init_array_start, .)

.init_array     0x020bfc60        0x4
 *(SORT(.init_array.*))
 *(.init_array)
 .init_array    0x020bfc60        0x4 c:/_ndsdev/devkitpro/devkitarm/bin/../lib/gcc/arm-eabi/4.6.1/thumb/crtbegin.o
                0x020bfc64                PROVIDE (__init_array_end, .)
                0x020bfc64                PROVIDE (__fini_array_start, .)

.fini_array     0x020bfc64        0x4
 *(.fini_array)
 .fini_array    0x020bfc64        0x4 c:/_ndsdev/devkitpro/devkitarm/bin/../lib/gcc/arm-eabi/4.6.1/thumb/crtbegin.o
 *(SORT(.fini_array.*))
                0x020bfc68                PROVIDE (__fini_array_end, .)

.ctors          0x020bfc68        0x0
 *crtbegin.o(.ctors)
 *(EXCLUDE_FILE(*crtend.o) .ctors)
 *(SORT(.ctors.*))
 *(.ctors)
                0x020bfc68                . = ALIGN (0x4)

.dtors          0x020bfc68        0x0
 *crtbegin.o(.dtors)
 *(EXCLUDE_FILE(*crtend.o) .dtors)
 *(SORT(.dtors.*))
 *(.dtors)
                0x020bfc68                . = ALIGN (0x4)

.eh_frame       0x020bfc68        0x4
 *(.eh_frame)
 .eh_frame      0x020bfc68        0x0 c:/_ndsdev/devkitpro/devkitarm/bin/../lib/gcc/arm-eabi/4.6.1/thumb/crtbegin.o
 .eh_frame      0x020bfc68        0x4 c:/_ndsdev/devkitpro/devkitarm/bin/../lib/gcc/arm-eabi/4.6.1/thumb/crtend.o
                0x020bfc6c                . = ALIGN (0x4)

.gcc_except_table
                0x020bfc6c        0x0
 *(.gcc_except_table)
                0x020bfc6c                . = ALIGN (0x4)

.jcr            0x020bfc6c        0x4
 *(.jcr)
 .jcr           0x020bfc6c        0x0 c:/_ndsdev/devkitpro/devkitarm/bin/../lib/gcc/arm-eabi/4.6.1/thumb/crtbegin.o
 .jcr           0x020bfc6c        0x4 c:/_ndsdev/devkitpro/devkitarm/bin/../lib/gcc/arm-eabi/4.6.1/thumb/crtend.o

.got
 *(.got.plt)
 *(.got)
 *(.rel.got)

.ewram          0x020bfc70        0x0
                0x020bfc70                __ewram_start = ABSOLUTE (.)
 *(.ewram)
 *ewram.*(.text)
                0x020bfc70                . = ALIGN (0x4)

.data           0x020bfc70      0xed8
                0x020bfc70                __data_start = ABSOLUTE (.)
 *(.data)
 .data          0x020bfc70        0x0 c:/_ndsdev/devkitpro/devkitarm/bin/../lib/gcc/arm-eabi/4.6.1/../../../../arm-eabi/lib/thumb/ds_arm9_crt0.o
 .data          0x020bfc70        0x0 c:/_ndsdev/devkitpro/devkitarm/bin/../lib/gcc/arm-eabi/4.6.1/thumb/crti.o
 .data          0x020bfc70        0x4 c:/_ndsdev/devkitpro/devkitarm/bin/../lib/gcc/arm-eabi/4.6.1/thumb/crtbegin.o
                0x020bfc70                __dso_handle
 .data          0x020bfc74        0x0 soundbank_bin.o
 .data          0x020bfc74        0x0 down.o
 .data          0x020bfc74        0x0 up.o
 .data          0x020bfc74       0xb4 main.o
                0x020bfc7c                newGame
                0x020bfc80                Title_Down
                0x020bfc98                Title
                0x020bfcb0                Shop
                0x020bfcc8                Season
                0x020bfce0                Play_Down
                0x020bfcf8                Pause_Down
                0x020bfd10                Gameover
 .data          0x020bfd28        0x0 croutine.o
 .data          0x020bfd28        0x0 heap.o
 .data          0x020bfd28        0x0 list.o
 .data          0x020bfd28        0x0 port.o
 .data          0x020bfd28        0x4 portISR.o
                0x020bfd28                ulCriticalNesting
 .data          0x020bfd2c        0x0 queue.o
 .data          0x020bfd2c        0x4 tasks.o
 .data          0x020bfd30       0x20 virtual_io.o
                0x020bfd30                virtual_io_resister
 .data          0x020bfd50        0x0 assemfunc.o
 .data          0x020bfd50        0x0 c:/_ndsdev/devkitPro/PAlib/lib\libpa9.a(PA.o)
 .data          0x020bfd50        0x0 c:/_ndsdev/devkitPro/PAlib/lib\libpa9.a(PA_BgEasy.o)
 .data          0x020bfd50        0x0 c:/_ndsdev/devkitPro/PAlib/lib\libpa9.a(PA_BgLargeMap.o)
 .data          0x020bfd50       0x10 c:/_ndsdev/devkitPro/PAlib/lib\libpa9.a(PA_BgTiles.o)
                0x020bfd50                charsetstart
                0x020bfd54                bg_place
                0x020bfd58                bg_sizes
 .data          0x020bfd60        0x0 c:/_ndsdev/devkitPro/PAlib/lib\libpa9.a(PA_Error.o)
 .data          0x020bfd60        0x0 c:/_ndsdev/devkitPro/PAlib/lib\libpa9.a(PA_Inits.o)
 .data          0x020bfd60       0x14 c:/_ndsdev/devkitPro/PAlib/lib\libpa9.a(PA_Interrupt.o)
                0x020bfd60                SpriteVBL
                0x020bfd64                MotionVBL
                0x020bfd68                GHPadVBL
                0x020bfd6c                PaddleVBL
                0x020bfd70                CustomVBL
 .data          0x020bfd74        0x0 c:/_ndsdev/devkitPro/PAlib/lib\libpa9.a(PA_Keys.o)
 .data          0x020bfd74        0x4 c:/_ndsdev/devkitPro/PAlib/lib\libpa9.a(PA_Math.o)
                0x020bfd74                RandomValue
 .data          0x020bfd78        0x0 c:/_ndsdev/devkitPro/PAlib/lib\libpa9.a(PA_Palette.o)
 .data          0x020bfd78        0x0 c:/_ndsdev/devkitPro/PAlib/lib\libpa9.a(PA_RTC.o)
 .data          0x020bfd78      0x204 c:/_ndsdev/devkitPro/PAlib/lib\libpa9.a(PA_Reco.o)
                0x020bfd78                PA_UseGraffiti
                0x020bfd7c                PA_Graffiti
 .data          0x020bff7c        0x4 c:/_ndsdev/devkitPro/PAlib/lib\libpa9.a(PA_Sprite.o)
                0x020bff7c                VBLSpriteAnims
 .data          0x020bff80        0x0 c:/_ndsdev/devkitPro/PAlib/lib\libpa9.a(PA_SpriteAnim.o)
 .data          0x020bff80        0x0 c:/_ndsdev/devkitPro/PAlib/lib\libpa9.a(PA_Stuff.o)
 .data          0x020bff80        0x0 c:/_ndsdev/devkitPro/PAlib/lib\libpa9.a(PA_Text.o)
 .data          0x020bff80       0x7c c:/_ndsdev/devkitPro/PAlib/lib\libpa9.a(PA_TextBits.o)
                0x020bff80                textinfo
                0x020bff84                pa_bittextdefaultsize
                0x020bffac                bittext_maps
                0x020bffd4                bittext_tiles_blank
 .data          0x020bfffc        0x0 c:/_ndsdev/devkitPro/PAlib/lib\libpa9.a(PA_TiledFont.o)
 .data          0x020bfffc        0x0 c:/_ndsdev/devkitPro/PAlib/lib\libpa9.a(PA_BmpFont0.o)
 .data          0x020bfffc        0x0 c:/_ndsdev/devkitPro/PAlib/lib\libpa9.a(PA_BmpFont1.o)
 .data          0x020bfffc        0x0 c:/_ndsdev/devkitPro/PAlib/lib\libpa9.a(PA_BmpFont2.o)
 .data          0x020bfffc        0x0 c:/_ndsdev/devkitPro/PAlib/lib\libpa9.a(PA_BmpFont3.o)
 .data          0x020bfffc        0x0 c:/_ndsdev/devkitPro/PAlib/lib\libpa9.a(PA_BmpFont4.o)
 .data          0x020bfffc        0x0 c:/_ndsdev/devkitPro/PAlib/lib\libpa9.a(PA_TiledFont_Map.bin.o)
 .data          0x020bfffc        0x0 c:/_ndsdev/devkitPro/PAlib/lib\libpa9.a(PA_TiledFont_Pal.bin.o)
 .data          0x020bfffc        0x0 c:/_ndsdev/devkitPro/PAlib/lib\libpa9.a(PA_TiledFont_Tiles.bin.o)
 .data          0x020bfffc        0x0 c:/_ndsdev/devkitPro/PAlib/lib\libpa9.a(PA_BmpFont0_Map.bin.o)
 .data          0x020bfffc        0x0 c:/_ndsdev/devkitPro/PAlib/lib\libpa9.a(PA_BmpFont0_Sizes.bin.o)
 .data          0x020bfffc        0x0 c:/_ndsdev/devkitPro/PAlib/lib\libpa9.a(PA_BmpFont0_Tiles.bin.o)
 .data          0x020bfffc        0x0 c:/_ndsdev/devkitPro/PAlib/lib\libpa9.a(PA_BmpFont1_Map.bin.o)
 .data          0x020bfffc        0x0 c:/_ndsdev/devkitPro/PAlib/lib\libpa9.a(PA_BmpFont1_Sizes.bin.o)
 .data          0x020bfffc        0x0 c:/_ndsdev/devkitPro/PAlib/lib\libpa9.a(PA_BmpFont1_Tiles.bin.o)
 .data          0x020bfffc        0x0 c:/_ndsdev/devkitPro/PAlib/lib\libpa9.a(PA_BmpFont2_Map.bin.o)
 .data          0x020bfffc        0x0 c:/_ndsdev/devkitPro/PAlib/lib\libpa9.a(PA_BmpFont2_Sizes.bin.o)
 .data          0x020bfffc        0x0 c:/_ndsdev/devkitPro/PAlib/lib\libpa9.a(PA_BmpFont2_Tiles.bin.o)
 .data          0x020bfffc        0x0 c:/_ndsdev/devkitPro/PAlib/lib\libpa9.a(PA_BmpFont3_Map.bin.o)
 .data          0x020bfffc        0x0 c:/_ndsdev/devkitPro/PAlib/lib\libpa9.a(PA_BmpFont3_Sizes.bin.o)
 .data          0x020bfffc        0x0 c:/_ndsdev/devkitPro/PAlib/lib\libpa9.a(PA_BmpFont3_Tiles.bin.o)
 .data          0x020bfffc        0x0 c:/_ndsdev/devkitPro/PAlib/lib\libpa9.a(PA_BmpFont4_Map.bin.o)
 .data          0x020bfffc        0x0 c:/_ndsdev/devkitPro/PAlib/lib\libpa9.a(PA_BmpFont4_Sizes.bin.o)
 .data          0x020bfffc        0x0 c:/_ndsdev/devkitPro/PAlib/lib\libpa9.a(PA_BmpFont4_Tiles.bin.o)
 .data          0x020bfffc        0x0 c:/_ndsdev/devkitPro/PAlib/lib\libpa9.a(PA_Fifo.o)
 .data          0x020bfffc        0x0 c:/_ndsdev/devkitPro/PAlib/lib\libpa9.a(PA_NewBg.o)
 .data          0x020bfffc        0x0 c:/_ndsdev/devkitPro/PAlib/lib\libpa9.a(PA_PaletteEx.o)
 .data          0x020bfffc       0x3c c:/_ndsdev/devkitPro/PAlib/lib\libpa9.a(PA_Text8bit.o)
                0x020bfffc                bit8_tiles
                0x020c0024                letters
 .data          0x020c0038       0x28 c:/_ndsdev/devkitPro/PAlib/lib\libpa9.a(PA_16c.o)
                0x020c0038                c16_tiles
 .data          0x020c0060        0xc c:/_ndsdev/devkitPro/PAlib/lib\libpa9.a(PA_BgRot.o)
                0x020c0060                rotbg_place
                0x020c0064                rotbg_sizes
 .data          0x020c006c        0x0 c:/_ndsdev/devkitPro/PAlib/lib\libpa9.a(PA_Draw.o)
 .data          0x020c006c        0x0 c:/_ndsdev/devkitPro/PAlib/lib\libpa9.a(PA_Keyboard.o)
 .data          0x020c006c        0x0 c:/_ndsdev/devkitPro/PAlib/lib\libpa9.a(keyboard.map.o)
 .data          0x020c006c        0x0 c:/_ndsdev/devkitPro/PAlib/lib\libpa9.a(keyboard.pal.o)
 .data          0x020c006c        0x0 c:/_ndsdev/devkitPro/PAlib/lib\libpa9.a(keyboard.raw.o)
 .data          0x020c006c       0x60 c:/_ndsdev/devkitPro/libnds/lib\libnds9.a(background.o)
                0x020c006c                bgScrollTable
                0x020c008c                bgTransform
                0x020c00ac                bgControl
 .data          0x020c00cc        0xc c:/_ndsdev/devkitPro/libnds/lib\libnds9.a(decompress.o)
                0x020c00cc                decomStream
 .data          0x020c00d8        0x3 c:/_ndsdev/devkitPro/libnds/lib\libnds9.a(keys.o)
 .data          0x020c00db        0x0 c:/_ndsdev/devkitPro/libnds/lib\libnds9.a(system.o)
 .data          0x020c00db        0x0 c:/_ndsdev/devkitPro/libnds/lib\libnds9.a(touch.o)
 .data          0x020c00db        0x0 c:/_ndsdev/devkitPro/libnds/lib\libnds9.a(trig.o)
 .data          0x020c00db        0x0 c:/_ndsdev/devkitPro/libnds/lib\libnds9.a(video.o)
 .data          0x020c00db        0x0 c:/_ndsdev/devkitPro/libnds/lib\libnds9.a(initSystem.o)
 *fill*         0x020c00db        0x1 ff
 .data          0x020c00dc       0x10 c:/_ndsdev/devkitPro/libnds/lib\libnds9.a(fifosystem.o)
                0x020c00dc                fifo_freewords
                0x020c00e0                fifo_buffer_free
                0x020c00e4                fifo_send_queue
                0x020c00e8                fifo_receive_queue
 .data          0x020c00ec        0x0 c:/_ndsdev/devkitPro/libnds/lib\libnds9.a(interrupts.o)
 .data          0x020c00ec        0x0 c:/_ndsdev/devkitPro/libnds/lib\libnds9.a(libnds_exit.o)
 .data          0x020c00ec        0x0 c:/_ndsdev/devkitPro/libnds/lib\libnds9.a(syscalls.o)
 .data          0x020c00ec        0x0 c:/_ndsdev/devkitPro/libnds/lib\libnds9.a(dcache.o)
 .data          0x020c00ec        0x0 c:/_ndsdev/devkitPro/libnds/lib\libnds9.a(mpu_setup.o)
 .data          0x020c00ec        0x0 c:/_ndsdev/devkitPro/libnds/lib\libnds9.a(biosCalls.o)
 .data          0x020c00ec        0x0 c:/_ndsdev/devkitPro/libnds/lib\libnds9.a(interruptDispatcher.o)
 .data          0x020c00ec        0x0 c:/_ndsdev/devkitPro/libnds/lib\libnds9.a(swiSoftReset.o)
 .data          0x020c00ec        0x0 c:/_ndsdev/devkitPro/libnds/lib\libmm9.a(mm_comms.o)
 .data          0x020c00ec        0x0 c:/_ndsdev/devkitPro/libnds/lib\libmm9.a(mm_main9.o)
 .data          0x020c00ec        0x0 c:/_ndsdev/devkitPro/libnds/lib\libmm9.a(mm_memory.o)
 .data          0x020c00ec        0x0 c:/_ndsdev/devkitPro/libnds/lib\libmm9.a(mm_soundbank.o)
 .data          0x020c00ec        0x0 c:/_ndsdev/devkitPro/libnds/lib\libmm9.a(mm_flusher.o)
 .data          0x020c00ec        0x0 c:/_ndsdev/devkitpro/devkitarm/bin/../lib/gcc/arm-eabi/4.6.1/thumb\libgcc.a(_udivsi3.o)
 .data          0x020c00ec        0x0 c:/_ndsdev/devkitpro/devkitarm/bin/../lib/gcc/arm-eabi/4.6.1/thumb\libgcc.a(_divsi3.o)
 .data          0x020c00ec        0x0 c:/_ndsdev/devkitpro/devkitarm/bin/../lib/gcc/arm-eabi/4.6.1/thumb\libgcc.a(_dvmd_tls.o)
 .data          0x020c00ec        0x0 c:/_ndsdev/devkitpro/devkitarm/bin/../lib/gcc/arm-eabi/4.6.1/thumb\libgcc.a(_arm_addsubdf3.o)
 .data          0x020c00ec        0x0 c:/_ndsdev/devkitpro/devkitarm/bin/../lib/gcc/arm-eabi/4.6.1/thumb\libgcc.a(_arm_muldivdf3.o)
 .data          0x020c00ec        0x0 c:/_ndsdev/devkitpro/devkitarm/bin/../lib/gcc/arm-eabi/4.6.1/thumb\libgcc.a(_arm_cmpdf2.o)
 .data          0x020c00ec        0x0 c:/_ndsdev/devkitpro/devkitarm/bin/../lib/gcc/arm-eabi/4.6.1/thumb\libgcc.a(_arm_fixdfsi.o)
 .data          0x020c00ec        0x0 c:/_ndsdev/devkitpro/devkitarm/bin/../lib/gcc/arm-eabi/4.6.1/thumb\libgcc.a(_muldi3.o)
 .data          0x020c00ec        0x0 c:/_ndsdev/devkitpro/devkitarm/bin/../lib/gcc/arm-eabi/4.6.1/../../../../arm-eabi/lib/thumb\libg.a(lib_a-bsearch.o)
 .data          0x020c00ec        0x0 c:/_ndsdev/devkitpro/devkitarm/bin/../lib/gcc/arm-eabi/4.6.1/../../../../arm-eabi/lib/thumb\libg.a(lib_a-fclose.o)
 .data          0x020c00ec        0x0 c:/_ndsdev/devkitpro/devkitarm/bin/../lib/gcc/arm-eabi/4.6.1/../../../../arm-eabi/lib/thumb\libg.a(lib_a-fflush.o)
 .data          0x020c00ec        0x0 c:/_ndsdev/devkitpro/devkitarm/bin/../lib/gcc/arm-eabi/4.6.1/../../../../arm-eabi/lib/thumb\libg.a(lib_a-findfp.o)
 .data          0x020c00ec        0x0 c:/_ndsdev/devkitpro/devkitarm/bin/../lib/gcc/arm-eabi/4.6.1/../../../../arm-eabi/lib/thumb\libg.a(lib_a-fopen.o)
 .data          0x020c00ec        0x0 c:/_ndsdev/devkitpro/devkitarm/bin/../lib/gcc/arm-eabi/4.6.1/../../../../arm-eabi/lib/thumb\libg.a(lib_a-fread.o)
 .data          0x020c00ec        0x0 c:/_ndsdev/devkitpro/devkitarm/bin/../lib/gcc/arm-eabi/4.6.1/../../../../arm-eabi/lib/thumb\libg.a(lib_a-freer.o)
 .data          0x020c00ec        0x0 c:/_ndsdev/devkitpro/devkitarm/bin/../lib/gcc/arm-eabi/4.6.1/../../../../arm-eabi/lib/thumb\libg.a(lib_a-fseek.o)
 .data          0x020c00ec        0x0 c:/_ndsdev/devkitpro/devkitarm/bin/../lib/gcc/arm-eabi/4.6.1/../../../../arm-eabi/lib/thumb\libg.a(lib_a-fwalk.o)
 .data          0x020c00ec        0x0 c:/_ndsdev/devkitpro/devkitarm/bin/../lib/gcc/arm-eabi/4.6.1/../../../../arm-eabi/lib/thumb\libg.a(lib_a-gmtime.o)
 .data          0x020c00ec        0x0 c:/_ndsdev/devkitpro/devkitarm/bin/../lib/gcc/arm-eabi/4.6.1/../../../../arm-eabi/lib/thumb\libg.a(lib_a-gmtime_r.o)
 *fill*         0x020c00ec        0x4 ff
 .data          0x020c00f0      0x430 c:/_ndsdev/devkitpro/devkitarm/bin/../lib/gcc/arm-eabi/4.6.1/../../../../arm-eabi/lib/thumb\libg.a(lib_a-impure.o)
                0x020c00f0                _impure_ptr
 .data          0x020c0520        0x0 c:/_ndsdev/devkitpro/devkitarm/bin/../lib/gcc/arm-eabi/4.6.1/../../../../arm-eabi/lib/thumb\libg.a(lib_a-init.o)
 .data          0x020c0520      0x17c c:/_ndsdev/devkitpro/devkitarm/bin/../lib/gcc/arm-eabi/4.6.1/../../../../arm-eabi/lib/thumb\libg.a(lib_a-locale.o)
                0x020c0520                __default_locale
                0x020c0640                __mb_cur_max
 .data          0x020c069c        0x0 c:/_ndsdev/devkitpro/devkitarm/bin/../lib/gcc/arm-eabi/4.6.1/../../../../arm-eabi/lib/thumb\libg.a(lib_a-makebuf.o)
 .data          0x020c069c        0x0 c:/_ndsdev/devkitpro/devkitarm/bin/../lib/gcc/arm-eabi/4.6.1/../../../../arm-eabi/lib/thumb\libg.a(lib_a-malloc.o)
 .data          0x020c069c      0x410 c:/_ndsdev/devkitpro/devkitarm/bin/../lib/gcc/arm-eabi/4.6.1/../../../../arm-eabi/lib/thumb\libg.a(lib_a-mallocr.o)
                0x020c069c                __malloc_av_
                0x020c0aa4                __malloc_sbrk_base
                0x020c0aa8                __malloc_trim_threshold
 .data          0x020c0aac        0x4 c:/_ndsdev/devkitpro/devkitarm/bin/../lib/gcc/arm-eabi/4.6.1/../../../../arm-eabi/lib/thumb\libg.a(lib_a-mbtowc_r.o)
                0x020c0aac                __mbtowc
 .data          0x020c0ab0        0x0 c:/_ndsdev/devkitpro/devkitarm/bin/../lib/gcc/arm-eabi/4.6.1/../../../../arm-eabi/lib/thumb\libg.a(lib_a-memcpy.o)
 .data          0x020c0ab0        0x0 c:/_ndsdev/devkitpro/devkitarm/bin/../lib/gcc/arm-eabi/4.6.1/../../../../arm-eabi/lib/thumb\libg.a(lib_a-memset.o)
 .data          0x020c0ab0        0x0 c:/_ndsdev/devkitpro/devkitarm/bin/../lib/gcc/arm-eabi/4.6.1/../../../../arm-eabi/lib/thumb\libg.a(lib_a-mktm_r.o)
 .data          0x020c0ab0        0x0 c:/_ndsdev/devkitpro/devkitarm/bin/../lib/gcc/arm-eabi/4.6.1/../../../../arm-eabi/lib/thumb\libg.a(lib_a-mlock.o)
 .data          0x020c0ab0        0x0 c:/_ndsdev/devkitpro/devkitarm/bin/../lib/gcc/arm-eabi/4.6.1/../../../../arm-eabi/lib/thumb\libg.a(lib_a-refill.o)
 .data          0x020c0ab0        0x0 c:/_ndsdev/devkitpro/devkitarm/bin/../lib/gcc/arm-eabi/4.6.1/../../../../arm-eabi/lib/thumb\libg.a(lib_a-sprintf.o)
 .data          0x020c0ab0        0x0 c:/_ndsdev/devkitpro/devkitarm/bin/../lib/gcc/arm-eabi/4.6.1/../../../../arm-eabi/lib/thumb\libg.a(lib_a-stdio.o)
 .data          0x020c0ab0        0x0 c:/_ndsdev/devkitpro/devkitarm/bin/../lib/gcc/arm-eabi/4.6.1/../../../../arm-eabi/lib/thumb\libg.a(lib_a-strcasecmp.o)
 .data          0x020c0ab0        0x0 c:/_ndsdev/devkitpro/devkitarm/bin/../lib/gcc/arm-eabi/4.6.1/../../../../arm-eabi/lib/thumb\libg.a(lib_a-strcat.o)
 .data          0x020c0ab0        0x0 c:/_ndsdev/devkitpro/devkitarm/bin/../lib/gcc/arm-eabi/4.6.1/../../../../arm-eabi/lib/thumb\libg.a(lib_a-strchr.o)
 .data          0x020c0ab0        0x0 c:/_ndsdev/devkitpro/devkitarm/bin/../lib/gcc/arm-eabi/4.6.1/../../../../arm-eabi/lib/thumb\libg.a(lib_a-strcmp.o)
 .data          0x020c0ab0        0x0 c:/_ndsdev/devkitpro/devkitarm/bin/../lib/gcc/arm-eabi/4.6.1/../../../../arm-eabi/lib/thumb\libg.a(lib_a-strcpy.o)
 .data          0x020c0ab0        0x0 c:/_ndsdev/devkitpro/devkitarm/bin/../lib/gcc/arm-eabi/4.6.1/../../../../arm-eabi/lib/thumb\libg.a(lib_a-strlcpy.o)
 .data          0x020c0ab0        0x0 c:/_ndsdev/devkitpro/devkitarm/bin/../lib/gcc/arm-eabi/4.6.1/../../../../arm-eabi/lib/thumb\libg.a(lib_a-strlen.o)
 .data          0x020c0ab0        0x0 c:/_ndsdev/devkitpro/devkitarm/bin/../lib/gcc/arm-eabi/4.6.1/../../../../arm-eabi/lib/thumb\libg.a(lib_a-strncasecmp.o)
 .data          0x020c0ab0        0x0 c:/_ndsdev/devkitpro/devkitarm/bin/../lib/gcc/arm-eabi/4.6.1/../../../../arm-eabi/lib/thumb\libg.a(lib_a-strncmp.o)
 .data          0x020c0ab0        0x0 c:/_ndsdev/devkitpro/devkitarm/bin/../lib/gcc/arm-eabi/4.6.1/../../../../arm-eabi/lib/thumb\libg.a(lib_a-strncpy.o)
 .data          0x020c0ab0        0x0 c:/_ndsdev/devkitpro/devkitarm/bin/../lib/gcc/arm-eabi/4.6.1/../../../../arm-eabi/lib/thumb\libg.a(lib_a-strtol.o)
 .data          0x020c0ab0        0x0 c:/_ndsdev/devkitpro/devkitarm/bin/../lib/gcc/arm-eabi/4.6.1/../../../../arm-eabi/lib/thumb\libg.a(lib_a-svfprintf.o)
 .data          0x020c0ab0        0x0 c:/_ndsdev/devkitpro/devkitarm/bin/../lib/gcc/arm-eabi/4.6.1/../../../../arm-eabi/lib/thumb\libg.a(lib_a-sysstat.o)
 .data          0x020c0ab0        0x0 c:/_ndsdev/devkitpro/devkitarm/bin/../lib/gcc/arm-eabi/4.6.1/../../../../arm-eabi/lib/thumb\libg.a(lib_a-time.o)
 .data          0x020c0ab0        0x0 c:/_ndsdev/devkitpro/devkitarm/bin/../lib/gcc/arm-eabi/4.6.1/../../../../arm-eabi/lib/thumb\libg.a(lib_a-tzlock.o)
 .data          0x020c0ab0        0x8 c:/_ndsdev/devkitpro/devkitarm/bin/../lib/gcc/arm-eabi/4.6.1/../../../../arm-eabi/lib/thumb\libg.a(lib_a-tzvars.o)
                0x020c0ab0                _tzname
 .data          0x020c0ab8        0x0 c:/_ndsdev/devkitpro/devkitarm/bin/../lib/gcc/arm-eabi/4.6.1/../../../../arm-eabi/lib/thumb\libg.a(lib_a-wcrtomb.o)
 .data          0x020c0ab8        0x0 c:/_ndsdev/devkitpro/devkitarm/bin/../lib/gcc/arm-eabi/4.6.1/../../../../arm-eabi/lib/thumb\libg.a(lib_a-wcsrtombs.o)
 .data          0x020c0ab8        0x4 c:/_ndsdev/devkitpro/devkitarm/bin/../lib/gcc/arm-eabi/4.6.1/../../../../arm-eabi/lib/thumb\libg.a(lib_a-wctomb_r.o)
                0x020c0ab8                __wctomb
 .data          0x020c0abc        0x4 c:/_ndsdev/devkitpro/devkitarm/bin/../lib/gcc/arm-eabi/4.6.1/../../../../arm-eabi/lib/thumb\libg.a(lib_a-ctype_.o)
                0x020c0abc                __ctype_ptr__
 .data          0x020c0ac0        0x0 c:/_ndsdev/devkitpro/devkitarm/bin/../lib/gcc/arm-eabi/4.6.1/../../../../arm-eabi/lib/thumb\libg.a(lib_a-dtoa.o)
 .data          0x020c0ac0        0x0 c:/_ndsdev/devkitpro/devkitarm/bin/../lib/gcc/arm-eabi/4.6.1/../../../../arm-eabi/lib/thumb\libg.a(lib_a-flags.o)
 .data          0x020c0ac0        0x0 c:/_ndsdev/devkitpro/devkitarm/bin/../lib/gcc/arm-eabi/4.6.1/../../../../arm-eabi/lib/thumb\libg.a(lib_a-getenv_r.o)
 .data          0x020c0ac0       0x40 c:/_ndsdev/devkitpro/devkitarm/bin/../lib/gcc/arm-eabi/4.6.1/../../../../arm-eabi/lib/thumb\libg.a(lib_a-gettzinfo.o)
 .data          0x020c0b00        0x0 c:/_ndsdev/devkitpro/devkitarm/bin/../lib/gcc/arm-eabi/4.6.1/../../../../arm-eabi/lib/thumb\libg.a(lib_a-memchr.o)
 .data          0x020c0b00        0x0 c:/_ndsdev/devkitpro/devkitarm/bin/../lib/gcc/arm-eabi/4.6.1/../../../../arm-eabi/lib/thumb\libg.a(lib_a-mprec.o)
 .data          0x020c0b00        0x0 c:/_ndsdev/devkitpro/devkitarm/bin/../lib/gcc/arm-eabi/4.6.1/../../../../arm-eabi/lib/thumb\libg.a(lib_a-s_fpclassify.o)
 .data          0x020c0b00        0x0 c:/_ndsdev/devkitpro/devkitarm/bin/../lib/gcc/arm-eabi/4.6.1/../../../../arm-eabi/lib/thumb\libg.a(lib_a-svfiprintf.o)
 .data          0x020c0b00        0x0 c:/_ndsdev/devkitpro/devkitarm/bin/../lib/gcc/arm-eabi/4.6.1/../../../../arm-eabi/lib/thumb\libg.a(lib_a-wcsnrtombs.o)
 .data          0x020c0b00        0x0 c:/_ndsdev/devkitpro/devkitarm/bin/../lib/gcc/arm-eabi/4.6.1/../../../../arm-eabi/lib/thumb\libg.a(lib_a-callocr.o)
 .data          0x020c0b00        0x4 c:/_ndsdev/devkitpro/devkitarm/bin/../lib/gcc/arm-eabi/4.6.1/../../../../arm-eabi/lib/thumb\libg.a(lib_a-environ.o)
                0x020c0b00                environ
 .data          0x020c0b04        0x0 c:/_ndsdev/devkitpro/devkitarm/bin/../lib/gcc/arm-eabi/4.6.1/../../../../arm-eabi/lib/thumb\libg.a(lib_a-envlock.o)
 .data          0x020c0b04        0x0 c:/_ndsdev/devkitpro/devkitarm/bin/../lib/gcc/arm-eabi/4.6.1/../../../../arm-eabi/lib/thumb\libg.a(lib_a-memmove.o)
 .data          0x020c0b04        0x0 c:/_ndsdev/devkitpro/devkitarm/bin/../lib/gcc/arm-eabi/4.6.1/../../../../arm-eabi/lib/thumb\libg.a(lib_a-reallocr.o)
 .data          0x020c0b04        0x0 c:/_ndsdev/devkitpro/devkitarm/bin/../lib/gcc/arm-eabi/4.6.1/../../../../arm-eabi/lib/thumb\libsysbase.a(close.o)
 .data          0x020c0b04        0x0 c:/_ndsdev/devkitpro/devkitarm/bin/../lib/gcc/arm-eabi/4.6.1/../../../../arm-eabi/lib/thumb\libsysbase.a(fstat.o)
 .data          0x020c0b04        0x0 c:/_ndsdev/devkitpro/devkitarm/bin/../lib/gcc/arm-eabi/4.6.1/../../../../arm-eabi/lib/thumb\libsysbase.a(isatty.o)
 .data          0x020c0b04        0x0 c:/_ndsdev/devkitpro/devkitarm/bin/../lib/gcc/arm-eabi/4.6.1/../../../../arm-eabi/lib/thumb\libsysbase.a(lseek.o)
 .data          0x020c0b04        0x0 c:/_ndsdev/devkitpro/devkitarm/bin/../lib/gcc/arm-eabi/4.6.1/../../../../arm-eabi/lib/thumb\libsysbase.a(open.o)
 .data          0x020c0b04        0x0 c:/_ndsdev/devkitpro/devkitarm/bin/../lib/gcc/arm-eabi/4.6.1/../../../../arm-eabi/lib/thumb\libsysbase.a(read.o)
 .data          0x020c0b04        0x0 c:/_ndsdev/devkitpro/devkitarm/bin/../lib/gcc/arm-eabi/4.6.1/../../../../arm-eabi/lib/thumb\libsysbase.a(sbrk.o)
 .data          0x020c0b04        0x0 c:/_ndsdev/devkitpro/devkitarm/bin/../lib/gcc/arm-eabi/4.6.1/../../../../arm-eabi/lib/thumb\libsysbase.a(stat.o)
 .data          0x020c0b04        0x0 c:/_ndsdev/devkitpro/devkitarm/bin/../lib/gcc/arm-eabi/4.6.1/../../../../arm-eabi/lib/thumb\libsysbase.a(times.o)
 .data          0x020c0b04        0x0 c:/_ndsdev/devkitpro/devkitarm/bin/../lib/gcc/arm-eabi/4.6.1/../../../../arm-eabi/lib/thumb\libsysbase.a(write.o)
 .data          0x020c0b04        0x0 c:/_ndsdev/devkitpro/devkitarm/bin/../lib/gcc/arm-eabi/4.6.1/../../../../arm-eabi/lib/thumb\libsysbase.a(malloc_vars.o)
 .data          0x020c0b04        0x0 c:/_ndsdev/devkitpro/devkitarm/bin/../lib/gcc/arm-eabi/4.6.1/../../../../arm-eabi/lib/thumb\libsysbase.a(build_argv.o)
 .data          0x020c0b04        0x0 c:/_ndsdev/devkitpro/devkitarm/bin/../lib/gcc/arm-eabi/4.6.1/../../../../arm-eabi/lib/thumb\libsysbase.a(syscall_support.o)
 .data          0x020c0b04        0x0 c:/_ndsdev/devkitpro/devkitarm/bin/../lib/gcc/arm-eabi/4.6.1/../../../../arm-eabi/lib/thumb\libsysbase.a(handle_manager.o)
 .data          0x020c0b04        0x0 c:/_ndsdev/devkitpro/devkitarm/bin/../lib/gcc/arm-eabi/4.6.1/../../../../arm-eabi/lib/thumb\libsysbase.a(dirent.o)
 .data          0x020c0b04       0x44 c:/_ndsdev/devkitpro/devkitarm/bin/../lib/gcc/arm-eabi/4.6.1/../../../../arm-eabi/lib/thumb\libsysbase.a(iosupport.o)
                0x020c0b08                devoptab_list
 .data          0x020c0b48        0x0 c:/_ndsdev/devkitpro/devkitarm/bin/../lib/gcc/arm-eabi/4.6.1/thumb\libgcc.a(_aeabi_uldivmod.o)
 .data          0x020c0b48        0x0 c:/_ndsdev/devkitpro/devkitarm/bin/../lib/gcc/arm-eabi/4.6.1/thumb\libgcc.a(bpabi.o)
 .data          0x020c0b48        0x0 c:/_ndsdev/devkitpro/devkitarm/bin/../lib/gcc/arm-eabi/4.6.1/thumb\libgcc.a(_divdi3.o)
 .data          0x020c0b48        0x0 c:/_ndsdev/devkitpro/devkitarm/bin/../lib/gcc/arm-eabi/4.6.1/thumb\libgcc.a(_udivdi3.o)
 .data          0x020c0b48        0x0 c:/_ndsdev/devkitpro/devkitarm/bin/../lib/gcc/arm-eabi/4.6.1/thumb\libgcc.a(_clzsi2.o)
 .data          0x020c0b48        0x0 c:/_ndsdev/devkitpro/devkitarm/bin/../lib/gcc/arm-eabi/4.6.1/../../../../arm-eabi/lib/thumb\libg.a(lib_a-errno.o)
 .data          0x020c0b48        0x0 c:/_ndsdev/devkitpro/devkitarm/bin/../lib/gcc/arm-eabi/4.6.1/../../../../arm-eabi/lib/thumb\libg.a(lib_a-strnlen.o)
 .data          0x020c0b48        0x0 c:/_ndsdev/devkitpro/devkitarm/bin/../lib/gcc/arm-eabi/4.6.1/thumb/crtend.o
 .data          0x020c0b48        0x0 c:/_ndsdev/devkitpro/devkitarm/bin/../lib/gcc/arm-eabi/4.6.1/thumb/crtn.o
 *(.data.*)
 *(.gnu.linkonce.d*)
                0x020c0b48                . = ALIGN (0x4)
                0x020c0b48                __data_end = ABSOLUTE (.)
                0x020c0b48                __dtcm_lma = .
                0x020c0b48                __bss_vma = .

.dtcm           0x0b000000        0x0 load address 0x020c0b48
 *(.dtcm)
 *(.dtcm.*)
                0x0b000000                . = ALIGN (0x4)
                0x0b000000                __dtcm_end = ABSOLUTE (.)
                0x020c0b48                __itcm_lma = (__dtcm_lma + SIZEOF (.dtcm))

.itcm           0x01000100      0x194 load address 0x020c0b48
 *(.itcm)
 .itcm          0x01000100       0xc8 c:/_ndsdev/devkitPro/libnds/lib\libnds9.a(interrupts.o)
                0x01000100                irqTable
 .itcm          0x010001c8       0xcc c:/_ndsdev/devkitPro/libnds/lib\libnds9.a(interruptDispatcher.o)
                0x010001c8                IntrMain
 *itcm.*(.text)
                0x01000294                . = ALIGN (0x4)
                0x01000294                __itcm_end = ABSOLUTE (.)
                0x020c0cdc                __vectors_lma = (__itcm_lma + SIZEOF (.itcm))

.vectors        0x01000000        0x0 load address 0x020c0cdc
 *(.vectors)
 *vectors.*(.text)
                0x01000000                . = ALIGN (0x4)
                0x01000000                __vectors_end = ABSOLUTE (.)

.sbss           0x0b000000        0x0
                0x0b000000                __sbss_start = ABSOLUTE (.)
                0x0b000000                __sbss_start__ = ABSOLUTE (.)
 *(.sbss)
                0x0b000000                . = ALIGN (0x4)
                0x0b000000                __sbss_end = ABSOLUTE (.)

.bss            0x020c0b48    0x1888c
                0x020c0b48                __bss_start = ABSOLUTE (.)
                0x020c0b48                __bss_start__ = ABSOLUTE (.)
 *(.dynbss)
 *(.gnu.linkonce.b*)
 *(.bss*)
 .bss           0x020c0b48        0x0 c:/_ndsdev/devkitpro/devkitarm/bin/../lib/gcc/arm-eabi/4.6.1/../../../../arm-eabi/lib/thumb/ds_arm9_crt0.o
 .bss           0x020c0b48        0x0 c:/_ndsdev/devkitpro/devkitarm/bin/../lib/gcc/arm-eabi/4.6.1/thumb/crti.o
 .bss           0x020c0b48       0x1c c:/_ndsdev/devkitpro/devkitarm/bin/../lib/gcc/arm-eabi/4.6.1/thumb/crtbegin.o
 .bss           0x020c0b64        0x0 soundbank_bin.o
 .bss           0x020c0b64        0x0 down.o
 .bss           0x020c0b64        0x0 up.o
 .bss           0x020c0b64        0x8 main.o
                0x020c0b68                isplaying
 .bss           0x020c0b6c       0x80 croutine.o
                0x020c0b6c                pxCurrentCoRoutine
 .bss           0x020c0bec        0x0 heap.o
 .bss           0x020c0bec        0x0 list.o
 .bss           0x020c0bec        0x0 port.o
 .bss           0x020c0bec        0x0 portISR.o
 .bss           0x020c0bec        0x0 queue.o
 .bss           0x020c0bec      0x144 tasks.o
                0x020c0c24                pxCurrentTCB
 .bss           0x020c0d30        0x0 virtual_io.o
 .bss           0x020c0d30        0x0 assemfunc.o
 .bss           0x020c0d30        0x4 c:/_ndsdev/devkitPro/PAlib/lib\libpa9.a(PA.o)
                0x020c0d30                pa_giftotexcolor
                0x020c0d32                PA_Screen
                0x020c0d33                PA_MoveSpriteType
 .bss           0x020c0d34        0x0 c:/_ndsdev/devkitPro/PAlib/lib\libpa9.a(PA_BgEasy.o)
 .bss           0x020c0d34        0x0 c:/_ndsdev/devkitPro/PAlib/lib\libpa9.a(PA_BgLargeMap.o)
 .bss           0x020c0d34        0x0 c:/_ndsdev/devkitPro/PAlib/lib\libpa9.a(PA_BgTiles.o)
 .bss           0x020c0d34        0x0 c:/_ndsdev/devkitPro/PAlib/lib\libpa9.a(PA_Error.o)
 .bss           0x020c0d34        0x0 c:/_ndsdev/devkitPro/PAlib/lib\libpa9.a(PA_Inits.o)
 .bss           0x020c0d34        0x0 c:/_ndsdev/devkitPro/PAlib/lib\libpa9.a(PA_Interrupt.o)
 .bss           0x020c0d34        0x0 c:/_ndsdev/devkitPro/PAlib/lib\libpa9.a(PA_Keys.o)
 .bss           0x020c0d34        0x0 c:/_ndsdev/devkitPro/PAlib/lib\libpa9.a(PA_Math.o)
 .bss           0x020c0d34        0x0 c:/_ndsdev/devkitPro/PAlib/lib\libpa9.a(PA_Palette.o)
 .bss           0x020c0d34        0x0 c:/_ndsdev/devkitPro/PAlib/lib\libpa9.a(PA_RTC.o)
 .bss           0x020c0d34        0x1 c:/_ndsdev/devkitPro/PAlib/lib\libpa9.a(PA_Reco.o)
                0x020c0d34                PA_CustomReco
 *fill*         0x020c0d35        0x3 00
 .bss           0x020c0d38        0xc c:/_ndsdev/devkitPro/PAlib/lib\libpa9.a(PA_Sprite.o)
                0x020c0d38                PA_SpriteExtPrio
                0x020c0d3c                FirstGfx
                0x020c0d40                nspriteanims
 .bss           0x020c0d44        0x0 c:/_ndsdev/devkitPro/PAlib/lib\libpa9.a(PA_SpriteAnim.o)
 .bss           0x020c0d44        0x0 c:/_ndsdev/devkitPro/PAlib/lib\libpa9.a(PA_Stuff.o)
 .bss           0x020c0d44        0x8 c:/_ndsdev/devkitPro/PAlib/lib\libpa9.a(PA_Text.o)
                0x020c0d44                PAtext_pal
                0x020c0d48                PA_font
 .bss           0x020c0d4c        0x0 c:/_ndsdev/devkitPro/PAlib/lib\libpa9.a(PA_TextBits.o)
 .bss           0x020c0d4c        0x0 c:/_ndsdev/devkitPro/PAlib/lib\libpa9.a(PA_TiledFont.o)
 .bss           0x020c0d4c        0x0 c:/_ndsdev/devkitPro/PAlib/lib\libpa9.a(PA_BmpFont0.o)
 .bss           0x020c0d4c        0x0 c:/_ndsdev/devkitPro/PAlib/lib\libpa9.a(PA_BmpFont1.o)
 .bss           0x020c0d4c        0x0 c:/_ndsdev/devkitPro/PAlib/lib\libpa9.a(PA_BmpFont2.o)
 .bss           0x020c0d4c        0x0 c:/_ndsdev/devkitPro/PAlib/lib\libpa9.a(PA_BmpFont3.o)
 .bss           0x020c0d4c        0x0 c:/_ndsdev/devkitPro/PAlib/lib\libpa9.a(PA_BmpFont4.o)
 .bss           0x020c0d4c        0x0 c:/_ndsdev/devkitPro/PAlib/lib\libpa9.a(PA_TiledFont_Map.bin.o)
 .bss           0x020c0d4c        0x0 c:/_ndsdev/devkitPro/PAlib/lib\libpa9.a(PA_TiledFont_Pal.bin.o)
 .bss           0x020c0d4c        0x0 c:/_ndsdev/devkitPro/PAlib/lib\libpa9.a(PA_TiledFont_Tiles.bin.o)
 .bss           0x020c0d4c        0x0 c:/_ndsdev/devkitPro/PAlib/lib\libpa9.a(PA_BmpFont0_Map.bin.o)
 .bss           0x020c0d4c        0x0 c:/_ndsdev/devkitPro/PAlib/lib\libpa9.a(PA_BmpFont0_Sizes.bin.o)
 .bss           0x020c0d4c        0x0 c:/_ndsdev/devkitPro/PAlib/lib\libpa9.a(PA_BmpFont0_Tiles.bin.o)
 .bss           0x020c0d4c        0x0 c:/_ndsdev/devkitPro/PAlib/lib\libpa9.a(PA_BmpFont1_Map.bin.o)
 .bss           0x020c0d4c        0x0 c:/_ndsdev/devkitPro/PAlib/lib\libpa9.a(PA_BmpFont1_Sizes.bin.o)
 .bss           0x020c0d4c        0x0 c:/_ndsdev/devkitPro/PAlib/lib\libpa9.a(PA_BmpFont1_Tiles.bin.o)
 .bss           0x020c0d4c        0x0 c:/_ndsdev/devkitPro/PAlib/lib\libpa9.a(PA_BmpFont2_Map.bin.o)
 .bss           0x020c0d4c        0x0 c:/_ndsdev/devkitPro/PAlib/lib\libpa9.a(PA_BmpFont2_Sizes.bin.o)
 .bss           0x020c0d4c        0x0 c:/_ndsdev/devkitPro/PAlib/lib\libpa9.a(PA_BmpFont2_Tiles.bin.o)
 .bss           0x020c0d4c        0x0 c:/_ndsdev/devkitPro/PAlib/lib\libpa9.a(PA_BmpFont3_Map.bin.o)
 .bss           0x020c0d4c        0x0 c:/_ndsdev/devkitPro/PAlib/lib\libpa9.a(PA_BmpFont3_Sizes.bin.o)
 .bss           0x020c0d4c        0x0 c:/_ndsdev/devkitPro/PAlib/lib\libpa9.a(PA_BmpFont3_Tiles.bin.o)
 .bss           0x020c0d4c        0x0 c:/_ndsdev/devkitPro/PAlib/lib\libpa9.a(PA_BmpFont4_Map.bin.o)
 .bss           0x020c0d4c        0x0 c:/_ndsdev/devkitPro/PAlib/lib\libpa9.a(PA_BmpFont4_Sizes.bin.o)
 .bss           0x020c0d4c        0x0 c:/_ndsdev/devkitPro/PAlib/lib\libpa9.a(PA_BmpFont4_Tiles.bin.o)
 .bss           0x020c0d4c        0x0 c:/_ndsdev/devkitPro/PAlib/lib\libpa9.a(PA_Fifo.o)
 .bss           0x020c0d4c        0x0 c:/_ndsdev/devkitPro/PAlib/lib\libpa9.a(PA_NewBg.o)
 .bss           0x020c0d4c        0x0 c:/_ndsdev/devkitPro/PAlib/lib\libpa9.a(PA_PaletteEx.o)
 .bss           0x020c0d4c        0x0 c:/_ndsdev/devkitPro/PAlib/lib\libpa9.a(PA_Text8bit.o)
 .bss           0x020c0d4c        0x0 c:/_ndsdev/devkitPro/PAlib/lib\libpa9.a(PA_16c.o)
 .bss           0x020c0d4c        0x0 c:/_ndsdev/devkitPro/PAlib/lib\libpa9.a(PA_BgRot.o)
 .bss           0x020c0d4c        0x0 c:/_ndsdev/devkitPro/PAlib/lib\libpa9.a(PA_Draw.o)
 .bss           0x020c0d4c        0x1 c:/_ndsdev/devkitPro/PAlib/lib\libpa9.a(PA_Keyboard.o)
                0x020c0d4c                keyb_screen
 .bss           0x020c0d4d        0x0 c:/_ndsdev/devkitPro/PAlib/lib\libpa9.a(keyboard.map.o)
 .bss           0x020c0d4d        0x0 c:/_ndsdev/devkitPro/PAlib/lib\libpa9.a(keyboard.pal.o)
 .bss           0x020c0d4d        0x0 c:/_ndsdev/devkitPro/PAlib/lib\libpa9.a(keyboard.raw.o)
 .bss           0x020c0d4d        0x0 c:/_ndsdev/devkitPro/libnds/lib\libnds9.a(background.o)
 .bss           0x020c0d4d        0x0 c:/_ndsdev/devkitPro/libnds/lib\libnds9.a(decompress.o)
 *fill*         0x020c0d4d        0x1 00
 .bss           0x020c0d4e        0x6 c:/_ndsdev/devkitPro/libnds/lib\libnds9.a(keys.o)
 .bss           0x020c0d54        0x0 c:/_ndsdev/devkitPro/libnds/lib\libnds9.a(system.o)
 .bss           0x020c0d54        0x0 c:/_ndsdev/devkitPro/libnds/lib\libnds9.a(touch.o)
 .bss           0x020c0d54        0x0 c:/_ndsdev/devkitPro/libnds/lib\libnds9.a(trig.o)
 .bss           0x020c0d54        0x0 c:/_ndsdev/devkitPro/libnds/lib\libnds9.a(video.o)
 .bss           0x020c0d54        0x0 c:/_ndsdev/devkitPro/libnds/lib\libnds9.a(initSystem.o)
 .bss           0x020c0d54        0x8 c:/_ndsdev/devkitPro/libnds/lib\libnds9.a(fifosystem.o)
                0x020c0d58                processing
 .bss           0x020c0d5c        0x0 c:/_ndsdev/devkitPro/libnds/lib\libnds9.a(interrupts.o)
 .bss           0x020c0d5c        0x0 c:/_ndsdev/devkitPro/libnds/lib\libnds9.a(libnds_exit.o)
 .bss           0x020c0d5c        0x0 c:/_ndsdev/devkitPro/libnds/lib\libnds9.a(syscalls.o)
 .bss           0x020c0d5c        0x0 c:/_ndsdev/devkitPro/libnds/lib\libnds9.a(dcache.o)
 .bss           0x020c0d5c        0x0 c:/_ndsdev/devkitPro/libnds/lib\libnds9.a(mpu_setup.o)
 .bss           0x020c0d5c        0x0 c:/_ndsdev/devkitPro/libnds/lib\libnds9.a(biosCalls.o)
 .bss           0x020c0d5c        0x0 c:/_ndsdev/devkitPro/libnds/lib\libnds9.a(interruptDispatcher.o)
 .bss           0x020c0d5c        0x0 c:/_ndsdev/devkitPro/libnds/lib\libnds9.a(swiSoftReset.o)
 .bss           0x020c0d5c       0x18 c:/_ndsdev/devkitPro/libnds/lib\libmm9.a(mm_comms.o)
 .bss           0x020c0d74       0x1c c:/_ndsdev/devkitPro/libnds/lib\libmm9.a(mm_main9.o)
                0x020c0d74                mmcbMemory
                0x020c0d78                mmModuleCount
                0x020c0d7c                mmSampleCount
                0x020c0d80                mmMemoryBank
                0x020c0d80                mmModuleBank
                0x020c0d84                mmSampleBank
                0x020c0d88                mmCallback
                0x020c0d8c                mmActiveStatus
 .bss           0x020c0d90        0x0 c:/_ndsdev/devkitPro/libnds/lib\libmm9.a(mm_memory.o)
 .bss           0x020c0d90       0x44 c:/_ndsdev/devkitPro/libnds/lib\libmm9.a(mm_soundbank.o)
 .bss           0x020c0dd4        0x0 c:/_ndsdev/devkitPro/libnds/lib\libmm9.a(mm_flusher.o)
 .bss           0x020c0dd4        0x0 c:/_ndsdev/devkitpro/devkitarm/bin/../lib/gcc/arm-eabi/4.6.1/thumb\libgcc.a(_udivsi3.o)
 .bss           0x020c0dd4        0x0 c:/_ndsdev/devkitpro/devkitarm/bin/../lib/gcc/arm-eabi/4.6.1/thumb\libgcc.a(_divsi3.o)
 .bss           0x020c0dd4        0x0 c:/_ndsdev/devkitpro/devkitarm/bin/../lib/gcc/arm-eabi/4.6.1/thumb\libgcc.a(_dvmd_tls.o)
 .bss           0x020c0dd4        0x0 c:/_ndsdev/devkitpro/devkitarm/bin/../lib/gcc/arm-eabi/4.6.1/thumb\libgcc.a(_arm_addsubdf3.o)
 .bss           0x020c0dd4        0x0 c:/_ndsdev/devkitpro/devkitarm/bin/../lib/gcc/arm-eabi/4.6.1/thumb\libgcc.a(_arm_muldivdf3.o)
 .bss           0x020c0dd4        0x0 c:/_ndsdev/devkitpro/devkitarm/bin/../lib/gcc/arm-eabi/4.6.1/thumb\libgcc.a(_arm_cmpdf2.o)
 .bss           0x020c0dd4        0x0 c:/_ndsdev/devkitpro/devkitarm/bin/../lib/gcc/arm-eabi/4.6.1/thumb\libgcc.a(_arm_fixdfsi.o)
 .bss           0x020c0dd4        0x0 c:/_ndsdev/devkitpro/devkitarm/bin/../lib/gcc/arm-eabi/4.6.1/thumb\libgcc.a(_muldi3.o)
 .bss           0x020c0dd4        0x0 c:/_ndsdev/devkitpro/devkitarm/bin/../lib/gcc/arm-eabi/4.6.1/../../../../arm-eabi/lib/thumb\libg.a(lib_a-bsearch.o)
 .bss           0x020c0dd4        0x0 c:/_ndsdev/devkitpro/devkitarm/bin/../lib/gcc/arm-eabi/4.6.1/../../../../arm-eabi/lib/thumb\libg.a(lib_a-fclose.o)
 .bss           0x020c0dd4        0x0 c:/_ndsdev/devkitpro/devkitarm/bin/../lib/gcc/arm-eabi/4.6.1/../../../../arm-eabi/lib/thumb\libg.a(lib_a-fflush.o)
 .bss           0x020c0dd4        0x0 c:/_ndsdev/devkitpro/devkitarm/bin/../lib/gcc/arm-eabi/4.6.1/../../../../arm-eabi/lib/thumb\libg.a(lib_a-findfp.o)
 .bss           0x020c0dd4        0x0 c:/_ndsdev/devkitpro/devkitarm/bin/../lib/gcc/arm-eabi/4.6.1/../../../../arm-eabi/lib/thumb\libg.a(lib_a-fopen.o)
 .bss           0x020c0dd4        0x0 c:/_ndsdev/devkitpro/devkitarm/bin/../lib/gcc/arm-eabi/4.6.1/../../../../arm-eabi/lib/thumb\libg.a(lib_a-fread.o)
 .bss           0x020c0dd4        0x0 c:/_ndsdev/devkitpro/devkitarm/bin/../lib/gcc/arm-eabi/4.6.1/../../../../arm-eabi/lib/thumb\libg.a(lib_a-freer.o)
 .bss           0x020c0dd4        0x0 c:/_ndsdev/devkitpro/devkitarm/bin/../lib/gcc/arm-eabi/4.6.1/../../../../arm-eabi/lib/thumb\libg.a(lib_a-fseek.o)
 .bss           0x020c0dd4        0x0 c:/_ndsdev/devkitpro/devkitarm/bin/../lib/gcc/arm-eabi/4.6.1/../../../../arm-eabi/lib/thumb\libg.a(lib_a-fwalk.o)
 .bss           0x020c0dd4        0x0 c:/_ndsdev/devkitpro/devkitarm/bin/../lib/gcc/arm-eabi/4.6.1/../../../../arm-eabi/lib/thumb\libg.a(lib_a-gmtime.o)
 .bss           0x020c0dd4        0x0 c:/_ndsdev/devkitpro/devkitarm/bin/../lib/gcc/arm-eabi/4.6.1/../../../../arm-eabi/lib/thumb\libg.a(lib_a-gmtime_r.o)
 .bss           0x020c0dd4        0x0 c:/_ndsdev/devkitpro/devkitarm/bin/../lib/gcc/arm-eabi/4.6.1/../../../../arm-eabi/lib/thumb\libg.a(lib_a-impure.o)
 .bss           0x020c0dd4        0x0 c:/_ndsdev/devkitpro/devkitarm/bin/../lib/gcc/arm-eabi/4.6.1/../../../../arm-eabi/lib/thumb\libg.a(lib_a-init.o)
 .bss           0x020c0dd4      0x2b8 c:/_ndsdev/devkitpro/devkitarm/bin/../lib/gcc/arm-eabi/4.6.1/../../../../arm-eabi/lib/thumb\libg.a(lib_a-locale.o)
                0x020c1080                _PathLocale
                0x020c1084                __mlocale_changed
                0x020c1088                __nlocale_changed
 .bss           0x020c108c        0x0 c:/_ndsdev/devkitpro/devkitarm/bin/../lib/gcc/arm-eabi/4.6.1/../../../../arm-eabi/lib/thumb\libg.a(lib_a-makebuf.o)
 .bss           0x020c108c        0x0 c:/_ndsdev/devkitpro/devkitarm/bin/../lib/gcc/arm-eabi/4.6.1/../../../../arm-eabi/lib/thumb\libg.a(lib_a-malloc.o)
 .bss           0x020c108c       0x34 c:/_ndsdev/devkitpro/devkitarm/bin/../lib/gcc/arm-eabi/4.6.1/../../../../arm-eabi/lib/thumb\libg.a(lib_a-mallocr.o)
                0x020c108c                __malloc_top_pad
                0x020c1090                __malloc_current_mallinfo
                0x020c10b8                __malloc_max_sbrked_mem
                0x020c10bc                __malloc_max_total_mem
 .bss           0x020c10c0        0x0 c:/_ndsdev/devkitpro/devkitarm/bin/../lib/gcc/arm-eabi/4.6.1/../../../../arm-eabi/lib/thumb\libg.a(lib_a-mbtowc_r.o)
 .bss           0x020c10c0        0x0 c:/_ndsdev/devkitpro/devkitarm/bin/../lib/gcc/arm-eabi/4.6.1/../../../../arm-eabi/lib/thumb\libg.a(lib_a-memcpy.o)
 .bss           0x020c10c0        0x0 c:/_ndsdev/devkitpro/devkitarm/bin/../lib/gcc/arm-eabi/4.6.1/../../../../arm-eabi/lib/thumb\libg.a(lib_a-memset.o)
 .bss           0x020c10c0        0x0 c:/_ndsdev/devkitpro/devkitarm/bin/../lib/gcc/arm-eabi/4.6.1/../../../../arm-eabi/lib/thumb\libg.a(lib_a-mktm_r.o)
 .bss           0x020c10c0        0x0 c:/_ndsdev/devkitpro/devkitarm/bin/../lib/gcc/arm-eabi/4.6.1/../../../../arm-eabi/lib/thumb\libg.a(lib_a-mlock.o)
 .bss           0x020c10c0        0x0 c:/_ndsdev/devkitpro/devkitarm/bin/../lib/gcc/arm-eabi/4.6.1/../../../../arm-eabi/lib/thumb\libg.a(lib_a-refill.o)
 .bss           0x020c10c0        0x0 c:/_ndsdev/devkitpro/devkitarm/bin/../lib/gcc/arm-eabi/4.6.1/../../../../arm-eabi/lib/thumb\libg.a(lib_a-sprintf.o)
 .bss           0x020c10c0        0x0 c:/_ndsdev/devkitpro/devkitarm/bin/../lib/gcc/arm-eabi/4.6.1/../../../../arm-eabi/lib/thumb\libg.a(lib_a-stdio.o)
 .bss           0x020c10c0        0x0 c:/_ndsdev/devkitpro/devkitarm/bin/../lib/gcc/arm-eabi/4.6.1/../../../../arm-eabi/lib/thumb\libg.a(lib_a-strcasecmp.o)
 .bss           0x020c10c0        0x0 c:/_ndsdev/devkitpro/devkitarm/bin/../lib/gcc/arm-eabi/4.6.1/../../../../arm-eabi/lib/thumb\libg.a(lib_a-strcat.o)
 .bss           0x020c10c0        0x0 c:/_ndsdev/devkitpro/devkitarm/bin/../lib/gcc/arm-eabi/4.6.1/../../../../arm-eabi/lib/thumb\libg.a(lib_a-strchr.o)
 .bss           0x020c10c0        0x0 c:/_ndsdev/devkitpro/devkitarm/bin/../lib/gcc/arm-eabi/4.6.1/../../../../arm-eabi/lib/thumb\libg.a(lib_a-strcmp.o)
 .bss           0x020c10c0        0x0 c:/_ndsdev/devkitpro/devkitarm/bin/../lib/gcc/arm-eabi/4.6.1/../../../../arm-eabi/lib/thumb\libg.a(lib_a-strcpy.o)
 .bss           0x020c10c0        0x0 c:/_ndsdev/devkitpro/devkitarm/bin/../lib/gcc/arm-eabi/4.6.1/../../../../arm-eabi/lib/thumb\libg.a(lib_a-strlcpy.o)
 .bss           0x020c10c0        0x0 c:/_ndsdev/devkitpro/devkitarm/bin/../lib/gcc/arm-eabi/4.6.1/../../../../arm-eabi/lib/thumb\libg.a(lib_a-strlen.o)
 .bss           0x020c10c0        0x0 c:/_ndsdev/devkitpro/devkitarm/bin/../lib/gcc/arm-eabi/4.6.1/../../../../arm-eabi/lib/thumb\libg.a(lib_a-strncasecmp.o)
 .bss           0x020c10c0        0x0 c:/_ndsdev/devkitpro/devkitarm/bin/../lib/gcc/arm-eabi/4.6.1/../../../../arm-eabi/lib/thumb\libg.a(lib_a-strncmp.o)
 .bss           0x020c10c0        0x0 c:/_ndsdev/devkitpro/devkitarm/bin/../lib/gcc/arm-eabi/4.6.1/../../../../arm-eabi/lib/thumb\libg.a(lib_a-strncpy.o)
 .bss           0x020c10c0        0x0 c:/_ndsdev/devkitpro/devkitarm/bin/../lib/gcc/arm-eabi/4.6.1/../../../../arm-eabi/lib/thumb\libg.a(lib_a-strtol.o)
 .bss           0x020c10c0        0x0 c:/_ndsdev/devkitpro/devkitarm/bin/../lib/gcc/arm-eabi/4.6.1/../../../../arm-eabi/lib/thumb\libg.a(lib_a-svfprintf.o)
 .bss           0x020c10c0        0x0 c:/_ndsdev/devkitpro/devkitarm/bin/../lib/gcc/arm-eabi/4.6.1/../../../../arm-eabi/lib/thumb\libg.a(lib_a-sysstat.o)
 .bss           0x020c10c0        0x0 c:/_ndsdev/devkitpro/devkitarm/bin/../lib/gcc/arm-eabi/4.6.1/../../../../arm-eabi/lib/thumb\libg.a(lib_a-time.o)
 .bss           0x020c10c0        0x0 c:/_ndsdev/devkitpro/devkitarm/bin/../lib/gcc/arm-eabi/4.6.1/../../../../arm-eabi/lib/thumb\libg.a(lib_a-tzlock.o)
 .bss           0x020c10c0        0x8 c:/_ndsdev/devkitpro/devkitarm/bin/../lib/gcc/arm-eabi/4.6.1/../../../../arm-eabi/lib/thumb\libg.a(lib_a-tzvars.o)
                0x020c10c0                _timezone
                0x020c10c4                _daylight
 .bss           0x020c10c8        0x0 c:/_ndsdev/devkitpro/devkitarm/bin/../lib/gcc/arm-eabi/4.6.1/../../../../arm-eabi/lib/thumb\libg.a(lib_a-wcrtomb.o)
 .bss           0x020c10c8        0x0 c:/_ndsdev/devkitpro/devkitarm/bin/../lib/gcc/arm-eabi/4.6.1/../../../../arm-eabi/lib/thumb\libg.a(lib_a-wcsrtombs.o)
 .bss           0x020c10c8        0x0 c:/_ndsdev/devkitpro/devkitarm/bin/../lib/gcc/arm-eabi/4.6.1/../../../../arm-eabi/lib/thumb\libg.a(lib_a-wctomb_r.o)
 .bss           0x020c10c8        0x0 c:/_ndsdev/devkitpro/devkitarm/bin/../lib/gcc/arm-eabi/4.6.1/../../../../arm-eabi/lib/thumb\libg.a(lib_a-ctype_.o)
 .bss           0x020c10c8        0x0 c:/_ndsdev/devkitpro/devkitarm/bin/../lib/gcc/arm-eabi/4.6.1/../../../../arm-eabi/lib/thumb\libg.a(lib_a-dtoa.o)
 .bss           0x020c10c8        0x0 c:/_ndsdev/devkitpro/devkitarm/bin/../lib/gcc/arm-eabi/4.6.1/../../../../arm-eabi/lib/thumb\libg.a(lib_a-flags.o)
 .bss           0x020c10c8        0x0 c:/_ndsdev/devkitpro/devkitarm/bin/../lib/gcc/arm-eabi/4.6.1/../../../../arm-eabi/lib/thumb\libg.a(lib_a-getenv_r.o)
 .bss           0x020c10c8        0x0 c:/_ndsdev/devkitpro/devkitarm/bin/../lib/gcc/arm-eabi/4.6.1/../../../../arm-eabi/lib/thumb\libg.a(lib_a-gettzinfo.o)
 .bss           0x020c10c8        0x0 c:/_ndsdev/devkitpro/devkitarm/bin/../lib/gcc/arm-eabi/4.6.1/../../../../arm-eabi/lib/thumb\libg.a(lib_a-memchr.o)
 .bss           0x020c10c8        0x0 c:/_ndsdev/devkitpro/devkitarm/bin/../lib/gcc/arm-eabi/4.6.1/../../../../arm-eabi/lib/thumb\libg.a(lib_a-mprec.o)
 .bss           0x020c10c8        0x0 c:/_ndsdev/devkitpro/devkitarm/bin/../lib/gcc/arm-eabi/4.6.1/../../../../arm-eabi/lib/thumb\libg.a(lib_a-s_fpclassify.o)
 .bss           0x020c10c8        0x0 c:/_ndsdev/devkitpro/devkitarm/bin/../lib/gcc/arm-eabi/4.6.1/../../../../arm-eabi/lib/thumb\libg.a(lib_a-svfiprintf.o)
 .bss           0x020c10c8        0x0 c:/_ndsdev/devkitpro/devkitarm/bin/../lib/gcc/arm-eabi/4.6.1/../../../../arm-eabi/lib/thumb\libg.a(lib_a-wcsnrtombs.o)
 .bss           0x020c10c8        0x0 c:/_ndsdev/devkitpro/devkitarm/bin/../lib/gcc/arm-eabi/4.6.1/../../../../arm-eabi/lib/thumb\libg.a(lib_a-callocr.o)
 .bss           0x020c10c8        0x4 c:/_ndsdev/devkitpro/devkitarm/bin/../lib/gcc/arm-eabi/4.6.1/../../../../arm-eabi/lib/thumb\libg.a(lib_a-environ.o)
 .bss           0x020c10cc        0x0 c:/_ndsdev/devkitpro/devkitarm/bin/../lib/gcc/arm-eabi/4.6.1/../../../../arm-eabi/lib/thumb\libg.a(lib_a-envlock.o)
 .bss           0x020c10cc        0x0 c:/_ndsdev/devkitpro/devkitarm/bin/../lib/gcc/arm-eabi/4.6.1/../../../../arm-eabi/lib/thumb\libg.a(lib_a-memmove.o)
 .bss           0x020c10cc        0x0 c:/_ndsdev/devkitpro/devkitarm/bin/../lib/gcc/arm-eabi/4.6.1/../../../../arm-eabi/lib/thumb\libg.a(lib_a-reallocr.o)
 .bss           0x020c10cc        0x0 c:/_ndsdev/devkitpro/devkitarm/bin/../lib/gcc/arm-eabi/4.6.1/../../../../arm-eabi/lib/thumb\libsysbase.a(close.o)
 .bss           0x020c10cc        0x0 c:/_ndsdev/devkitpro/devkitarm/bin/../lib/gcc/arm-eabi/4.6.1/../../../../arm-eabi/lib/thumb\libsysbase.a(fstat.o)
 .bss           0x020c10cc        0x0 c:/_ndsdev/devkitpro/devkitarm/bin/../lib/gcc/arm-eabi/4.6.1/../../../../arm-eabi/lib/thumb\libsysbase.a(isatty.o)
 .bss           0x020c10cc        0x0 c:/_ndsdev/devkitpro/devkitarm/bin/../lib/gcc/arm-eabi/4.6.1/../../../../arm-eabi/lib/thumb\libsysbase.a(lseek.o)
 .bss           0x020c10cc        0x0 c:/_ndsdev/devkitpro/devkitarm/bin/../lib/gcc/arm-eabi/4.6.1/../../../../arm-eabi/lib/thumb\libsysbase.a(open.o)
 .bss           0x020c10cc        0x0 c:/_ndsdev/devkitpro/devkitarm/bin/../lib/gcc/arm-eabi/4.6.1/../../../../arm-eabi/lib/thumb\libsysbase.a(read.o)
 .bss           0x020c10cc        0x4 c:/_ndsdev/devkitpro/devkitarm/bin/../lib/gcc/arm-eabi/4.6.1/../../../../arm-eabi/lib/thumb\libsysbase.a(sbrk.o)
 .bss           0x020c10d0        0x0 c:/_ndsdev/devkitpro/devkitarm/bin/../lib/gcc/arm-eabi/4.6.1/../../../../arm-eabi/lib/thumb\libsysbase.a(stat.o)
 .bss           0x020c10d0        0x0 c:/_ndsdev/devkitpro/devkitarm/bin/../lib/gcc/arm-eabi/4.6.1/../../../../arm-eabi/lib/thumb\libsysbase.a(times.o)
 .bss           0x020c10d0        0x0 c:/_ndsdev/devkitpro/devkitarm/bin/../lib/gcc/arm-eabi/4.6.1/../../../../arm-eabi/lib/thumb\libsysbase.a(write.o)
 .bss           0x020c10d0        0x8 c:/_ndsdev/devkitpro/devkitarm/bin/../lib/gcc/arm-eabi/4.6.1/../../../../arm-eabi/lib/thumb\libsysbase.a(malloc_vars.o)
                0x020c10d0                fake_heap_start
                0x020c10d4                fake_heap_end
 .bss           0x020c10d8        0x0 c:/_ndsdev/devkitpro/devkitarm/bin/../lib/gcc/arm-eabi/4.6.1/../../../../arm-eabi/lib/thumb\libsysbase.a(build_argv.o)
 .bss           0x020c10d8        0x8 c:/_ndsdev/devkitpro/devkitarm/bin/../lib/gcc/arm-eabi/4.6.1/../../../../arm-eabi/lib/thumb\libsysbase.a(syscall_support.o)
                0x020c10d8                __syscalls
 .bss           0x020c10e0     0x1000 c:/_ndsdev/devkitpro/devkitarm/bin/../lib/gcc/arm-eabi/4.6.1/../../../../arm-eabi/lib/thumb\libsysbase.a(handle_manager.o)
 .bss           0x020c20e0        0x0 c:/_ndsdev/devkitpro/devkitarm/bin/../lib/gcc/arm-eabi/4.6.1/../../../../arm-eabi/lib/thumb\libsysbase.a(dirent.o)
 .bss           0x020c20e0        0x0 c:/_ndsdev/devkitpro/devkitarm/bin/../lib/gcc/arm-eabi/4.6.1/../../../../arm-eabi/lib/thumb\libsysbase.a(iosupport.o)
 .bss           0x020c20e0        0x0 c:/_ndsdev/devkitpro/devkitarm/bin/../lib/gcc/arm-eabi/4.6.1/thumb\libgcc.a(_aeabi_uldivmod.o)
 .bss           0x020c20e0        0x0 c:/_ndsdev/devkitpro/devkitarm/bin/../lib/gcc/arm-eabi/4.6.1/thumb\libgcc.a(bpabi.o)
 .bss           0x020c20e0        0x0 c:/_ndsdev/devkitpro/devkitarm/bin/../lib/gcc/arm-eabi/4.6.1/thumb\libgcc.a(_divdi3.o)
 .bss           0x020c20e0        0x0 c:/_ndsdev/devkitpro/devkitarm/bin/../lib/gcc/arm-eabi/4.6.1/thumb\libgcc.a(_udivdi3.o)
 .bss           0x020c20e0        0x0 c:/_ndsdev/devkitpro/devkitarm/bin/../lib/gcc/arm-eabi/4.6.1/thumb\libgcc.a(_clzsi2.o)
 .bss           0x020c20e0        0x0 c:/_ndsdev/devkitpro/devkitarm/bin/../lib/gcc/arm-eabi/4.6.1/../../../../arm-eabi/lib/thumb\libg.a(lib_a-errno.o)
 .bss           0x020c20e0        0x0 c:/_ndsdev/devkitpro/devkitarm/bin/../lib/gcc/arm-eabi/4.6.1/../../../../arm-eabi/lib/thumb\libg.a(lib_a-strnlen.o)
 .bss           0x020c20e0        0x0 c:/_ndsdev/devkitpro/devkitarm/bin/../lib/gcc/arm-eabi/4.6.1/thumb/crtend.o
 .bss           0x020c20e0        0x0 c:/_ndsdev/devkitpro/devkitarm/bin/../lib/gcc/arm-eabi/4.6.1/thumb/crtn.o
 *(COMMON)
 COMMON         0x020c20e0      0x248 main.o
                0x020c20e0                touch
                0x020c20ec                destroy
                0x020c217c                bottomScreen
                0x020c21d8                blocks
                0x020c2268                uinfo
                0x020c2294                xx
                0x020c2298                Blksprite
 COMMON         0x020c2328      0x22c c:/_ndsdev/devkitPro/PAlib/lib\libpa9.a(PA.o)
                0x020c2328                PA_ScreenSpace
                0x020c232c                PadPointer
                0x020c2330                pa_checklid
                0x020c2334                PA_IPC
                0x020c24cc                Pad
                0x020c24f4                Stylus
                0x020c2510                PA_bgmap
                0x020c2530                PA_GifInfo
                0x020c2544                PA_MovedSprite
 COMMON         0x020c2554      0x3d0 c:/_ndsdev/devkitPro/PAlib/lib\libpa9.a(PA_BgTiles.o)
                0x020c2554                PA_parallaxY
                0x020c2574                PA_parallaxX
                0x020c2594                tempsize
                0x020c2598                charblocks
                0x020c2624                PA_BgInfo
                0x020c2844                scrollpos
 COMMON         0x020c2924       0x50 c:/_ndsdev/devkitPro/PAlib/lib\libpa9.a(PA_Interrupt.o)
                0x020c2924                PA_VBLCounter
                0x020c2964                PA_VBLCounterOn
 COMMON         0x020c2974        0x1 c:/_ndsdev/devkitPro/PAlib/lib\libpa9.a(PA_Keys.o)
                0x020c2974                _PA_LidDown
 *fill*         0x020c2975        0x3 00
 COMMON         0x020c2978        0x4 c:/_ndsdev/devkitPro/PAlib/lib\libpa9.a(PA_Palette.o)
                0x020c2978                PA_ExtPal
 COMMON         0x020c297c       0x5a c:/_ndsdev/devkitPro/PAlib/lib\libpa9.a(PA_RTC.o)
                0x020c297c                PA_RTC
                0x020c2984                PA_UserInfo
 *fill*         0x020c29d6        0x2 00
 COMMON         0x020c29d8     0xa9bc c:/_ndsdev/devkitPro/PAlib/lib\libpa9.a(PA_Reco.o)
                0x020c29d8                PA_Reco
                0x020c29e4                PA_RecoInfo
                0x020c29fc                PA_StylusPos
                0x020cc63c                PA_CustomShape
                0x020cd384                PA_RecoShape
 COMMON         0x020cd394     0x8204 c:/_ndsdev/devkitPro/PAlib/lib\libpa9.a(PA_Sprite.o)
                0x020cd394                free_mem
                0x020cf394                n_free_mem
                0x020cf398                PA_SpritePrio
                0x020cf498                used_mem
                0x020cfc98                spriteanims
                0x020d2098                PA_SpriteAnimP
                0x020d4098                PA_first
                0x020d4298                PA_next
                0x020d4398                obj_per_gfx
                0x020d4b98                PA_obj
                0x020d5398                DualSpriteX
                0x020d5498                pa_obj_created
 COMMON         0x020d5598       0x3c c:/_ndsdev/devkitPro/PAlib/lib\libpa9.a(PA_Text.o)
                0x020d5598                PA_texttiles
                0x020d55a0                PA_TextBox
                0x020d55a8                PAbgtext
                0x020d55ac                pa_printx
                0x020d55b4                pa_printy
                0x020d55bc                textcol
                0x020d55c0                pa_printscroll
                0x020d55c4                PA_textpal
                0x020d55cc                PA_textmap
 COMMON         0x020d55d4     0x301a c:/_ndsdev/devkitPro/PAlib/lib\libpa9.a(PA_TextBits.o)
                0x020d55d4                PA_LetterPos
                0x020d85d8                pa_bittextpoliceheight
                0x020d85e4                pa_bittextsizes
 *fill*         0x020d85ee        0x2 00
 COMMON         0x020d85f0       0x10 c:/_ndsdev/devkitPro/PAlib/lib\libpa9.a(PA_16c.o)
                0x020d85f0                PA_Draw16
                0x020d85f8                PA_Draw1632
 COMMON         0x020d8600        0x8 c:/_ndsdev/devkitPro/PAlib/lib\libpa9.a(PA_BgRot.o)
                0x020d8600                rotbg_size
 COMMON         0x020d8608      0x226 c:/_ndsdev/devkitPro/PAlib/lib\libpa9.a(PA_Draw.o)
                0x020d8608                PA_olddowntime
                0x020d860c                PA_DrawBg32
                0x020d8614                PA_DrawBg
                0x020d861c                PA_oldx
                0x020d8620                PA_drawsize
                0x020d8624                PA_oldy
                0x020d8628                tempvar
                0x020d862c                PA_temppal
                0x020d882c                PA_nBit
 *fill*         0x020d882e        0x2 00
 COMMON         0x020d8830       0x12 c:/_ndsdev/devkitPro/PAlib/lib\libpa9.a(PA_Keyboard.o)
                0x020d8830                PA_Keyboard_Struct
 *fill*         0x020d8842        0x2 00
 COMMON         0x020d8844      0x148 c:/_ndsdev/devkitPro/libnds/lib\libnds9.a(background.o)
                0x020d8844                bgState
                0x020d8984                bgIsTextLut
 COMMON         0x020d898c        0x1 c:/_ndsdev/devkitPro/libnds/lib\libnds9.a(initSystem.o)
                0x020d898c                __dsimode
 *fill*         0x020d898d        0x3 00
 COMMON         0x020d8990      0xa40 c:/_ndsdev/devkitPro/libnds/lib\libnds9.a(fifosystem.o)
                0x020d8990                fifo_datamsg_data
                0x020d89d0                fifo_buffer
                0x020d91d0                fifo_value32_func
                0x020d9210                fifo_address_func
                0x020d9250                fifo_value32_data
                0x020d9290                fifo_value32_queue
                0x020d92d0                fifo_data_queue
                0x020d9310                fifo_address_data
                0x020d9350                fifo_datamsg_func
                0x020d9390                fifo_address_queue
 COMMON         0x020d93d0        0x4 c:/_ndsdev/devkitpro/devkitarm/bin/../lib/gcc/arm-eabi/4.6.1/../../../../arm-eabi/lib/thumb\libsysbase.a(times.o)
                0x020d93d0                punixTime
                0x020d93d4                . = ALIGN (0x4)
                0x020d93d4                __bss_end__ = ABSOLUTE (.)
                0x020d93d4                __end__ = ABSOLUTE (.)

.stab
 *(.stab)

.stabstr
 *(.stabstr)

.stab.excl
 *(.stab.excl)

.stab.exclstr
 *(.stab.exclstr)

.stab.index
 *(.stab.index)

.stab.indexstr
 *(.stab.indexstr)

.comment        0x00000000       0x66
 *(.comment)
 .comment       0x00000000       0x22 c:/_ndsdev/devkitpro/devkitarm/bin/../lib/gcc/arm-eabi/4.6.1/thumb/crtbegin.o
                                 0x23 (size before relaxing)
 .comment       0x00000000       0x23 main.o
 .comment       0x00000000       0x23 croutine.o
 .comment       0x00000000       0x23 heap.o
 .comment       0x00000000       0x23 list.o
 .comment       0x00000000       0x23 port.o
 .comment       0x00000000       0x23 portISR.o
 .comment       0x00000000       0x23 queue.o
 .comment       0x00000000       0x23 tasks.o
 .comment       0x00000000       0x23 virtual_io.o
 .comment       0x00000022       0x22 c:/_ndsdev/devkitPro/PAlib/lib\libpa9.a(PA.o)
                                 0x23 (size before relaxing)
 .comment       0x00000000       0x23 c:/_ndsdev/devkitPro/PAlib/lib\libpa9.a(PA_BgEasy.o)
 .comment       0x00000000       0x23 c:/_ndsdev/devkitPro/PAlib/lib\libpa9.a(PA_BgLargeMap.o)
 .comment       0x00000000       0x23 c:/_ndsdev/devkitPro/PAlib/lib\libpa9.a(PA_BgTiles.o)
 .comment       0x00000000       0x23 c:/_ndsdev/devkitPro/PAlib/lib\libpa9.a(PA_Error.o)
 .comment       0x00000000       0x23 c:/_ndsdev/devkitPro/PAlib/lib\libpa9.a(PA_Inits.o)
 .comment       0x00000000       0x23 c:/_ndsdev/devkitPro/PAlib/lib\libpa9.a(PA_Interrupt.o)
 .comment       0x00000000       0x23 c:/_ndsdev/devkitPro/PAlib/lib\libpa9.a(PA_Keys.o)
 .comment       0x00000000       0x23 c:/_ndsdev/devkitPro/PAlib/lib\libpa9.a(PA_Math.o)
 .comment       0x00000000       0x23 c:/_ndsdev/devkitPro/PAlib/lib\libpa9.a(PA_Palette.o)
 .comment       0x00000000       0x23 c:/_ndsdev/devkitPro/PAlib/lib\libpa9.a(PA_RTC.o)
 .comment       0x00000000       0x23 c:/_ndsdev/devkitPro/PAlib/lib\libpa9.a(PA_Reco.o)
 .comment       0x00000000       0x23 c:/_ndsdev/devkitPro/PAlib/lib\libpa9.a(PA_Sprite.o)
 .comment       0x00000000       0x23 c:/_ndsdev/devkitPro/PAlib/lib\libpa9.a(PA_SpriteAnim.o)
 .comment       0x00000000       0x23 c:/_ndsdev/devkitPro/PAlib/lib\libpa9.a(PA_Stuff.o)
 .comment       0x00000000       0x23 c:/_ndsdev/devkitPro/PAlib/lib\libpa9.a(PA_Text.o)
 .comment       0x00000000       0x23 c:/_ndsdev/devkitPro/PAlib/lib\libpa9.a(PA_TextBits.o)
 .comment       0x00000000       0x23 c:/_ndsdev/devkitPro/PAlib/lib\libpa9.a(PA_TiledFont.o)
 .comment       0x00000000       0x23 c:/_ndsdev/devkitPro/PAlib/lib\libpa9.a(PA_BmpFont0.o)
 .comment       0x00000000       0x23 c:/_ndsdev/devkitPro/PAlib/lib\libpa9.a(PA_BmpFont1.o)
 .comment       0x00000000       0x23 c:/_ndsdev/devkitPro/PAlib/lib\libpa9.a(PA_BmpFont2.o)
 .comment       0x00000000       0x23 c:/_ndsdev/devkitPro/PAlib/lib\libpa9.a(PA_BmpFont3.o)
 .comment       0x00000000       0x23 c:/_ndsdev/devkitPro/PAlib/lib\libpa9.a(PA_BmpFont4.o)
 .comment       0x00000000       0x23 c:/_ndsdev/devkitPro/PAlib/lib\libpa9.a(PA_Fifo.o)
 .comment       0x00000000       0x23 c:/_ndsdev/devkitPro/PAlib/lib\libpa9.a(PA_NewBg.o)
 .comment       0x00000000       0x23 c:/_ndsdev/devkitPro/PAlib/lib\libpa9.a(PA_PaletteEx.o)
 .comment       0x00000000       0x23 c:/_ndsdev/devkitPro/PAlib/lib\libpa9.a(PA_Text8bit.o)
 .comment       0x00000000       0x23 c:/_ndsdev/devkitPro/PAlib/lib\libpa9.a(PA_16c.o)
 .comment       0x00000000       0x23 c:/_ndsdev/devkitPro/PAlib/lib\libpa9.a(PA_BgRot.o)
 .comment       0x00000000       0x23 c:/_ndsdev/devkitPro/PAlib/lib\libpa9.a(PA_Draw.o)
 .comment       0x00000000       0x23 c:/_ndsdev/devkitPro/PAlib/lib\libpa9.a(PA_Keyboard.o)
 .comment       0x00000000       0x23 c:/_ndsdev/devkitPro/PAlib/lib\libpa9.a(keyboard.map.o)
 .comment       0x00000000       0x23 c:/_ndsdev/devkitPro/PAlib/lib\libpa9.a(keyboard.pal.o)
 .comment       0x00000000       0x23 c:/_ndsdev/devkitPro/PAlib/lib\libpa9.a(keyboard.raw.o)
 .comment       0x00000044       0x22 c:/_ndsdev/devkitPro/libnds/lib\libnds9.a(background.o)
                                 0x23 (size before relaxing)
 .comment       0x00000000       0x23 c:/_ndsdev/devkitPro/libnds/lib\libnds9.a(decompress.o)
 .comment       0x00000000       0x23 c:/_ndsdev/devkitPro/libnds/lib\libnds9.a(keys.o)
 .comment       0x00000000       0x23 c:/_ndsdev/devkitPro/libnds/lib\libnds9.a(system.o)
 .comment       0x00000000       0x23 c:/_ndsdev/devkitPro/libnds/lib\libnds9.a(touch.o)
 .comment       0x00000000       0x23 c:/_ndsdev/devkitPro/libnds/lib\libnds9.a(trig.o)
 .comment       0x00000000       0x23 c:/_ndsdev/devkitPro/libnds/lib\libnds9.a(video.o)
 .comment       0x00000000       0x23 c:/_ndsdev/devkitPro/libnds/lib\libnds9.a(initSystem.o)
 .comment       0x00000000       0x23 c:/_ndsdev/devkitPro/libnds/lib\libnds9.a(fifosystem.o)
 .comment       0x00000000       0x23 c:/_ndsdev/devkitPro/libnds/lib\libnds9.a(interrupts.o)
 .comment       0x00000000       0x23 c:/_ndsdev/devkitPro/libnds/lib\libnds9.a(libnds_exit.o)
 .comment       0x00000000       0x23 c:/_ndsdev/devkitPro/libnds/lib\libnds9.a(syscalls.o)
 .comment       0x00000000       0x23 c:/_ndsdev/devkitpro/devkitarm/bin/../lib/gcc/arm-eabi/4.6.1/thumb\libgcc.a(_muldi3.o)
 .comment       0x00000000       0x23 c:/_ndsdev/devkitpro/devkitarm/bin/../lib/gcc/arm-eabi/4.6.1/../../../../arm-eabi/lib/thumb\libg.a(lib_a-bsearch.o)
 .comment       0x00000000       0x23 c:/_ndsdev/devkitpro/devkitarm/bin/../lib/gcc/arm-eabi/4.6.1/../../../../arm-eabi/lib/thumb\libg.a(lib_a-fclose.o)
 .comment       0x00000000       0x23 c:/_ndsdev/devkitpro/devkitarm/bin/../lib/gcc/arm-eabi/4.6.1/../../../../arm-eabi/lib/thumb\libg.a(lib_a-fflush.o)
 .comment       0x00000000       0x23 c:/_ndsdev/devkitpro/devkitarm/bin/../lib/gcc/arm-eabi/4.6.1/../../../../arm-eabi/lib/thumb\libg.a(lib_a-findfp.o)
 .comment       0x00000000       0x23 c:/_ndsdev/devkitpro/devkitarm/bin/../lib/gcc/arm-eabi/4.6.1/../../../../arm-eabi/lib/thumb\libg.a(lib_a-fopen.o)
 .comment       0x00000000       0x23 c:/_ndsdev/devkitpro/devkitarm/bin/../lib/gcc/arm-eabi/4.6.1/../../../../arm-eabi/lib/thumb\libg.a(lib_a-fread.o)
 .comment       0x00000000       0x23 c:/_ndsdev/devkitpro/devkitarm/bin/../lib/gcc/arm-eabi/4.6.1/../../../../arm-eabi/lib/thumb\libg.a(lib_a-freer.o)
 .comment       0x00000000       0x23 c:/_ndsdev/devkitpro/devkitarm/bin/../lib/gcc/arm-eabi/4.6.1/../../../../arm-eabi/lib/thumb\libg.a(lib_a-fseek.o)
 .comment       0x00000000       0x23 c:/_ndsdev/devkitpro/devkitarm/bin/../lib/gcc/arm-eabi/4.6.1/../../../../arm-eabi/lib/thumb\libg.a(lib_a-fwalk.o)
 .comment       0x00000000       0x23 c:/_ndsdev/devkitpro/devkitarm/bin/../lib/gcc/arm-eabi/4.6.1/../../../../arm-eabi/lib/thumb\libg.a(lib_a-gmtime.o)
 .comment       0x00000000       0x23 c:/_ndsdev/devkitpro/devkitarm/bin/../lib/gcc/arm-eabi/4.6.1/../../../../arm-eabi/lib/thumb\libg.a(lib_a-gmtime_r.o)
 .comment       0x00000000       0x23 c:/_ndsdev/devkitpro/devkitarm/bin/../lib/gcc/arm-eabi/4.6.1/../../../../arm-eabi/lib/thumb\libg.a(lib_a-impure.o)
 .comment       0x00000000       0x23 c:/_ndsdev/devkitpro/devkitarm/bin/../lib/gcc/arm-eabi/4.6.1/../../../../arm-eabi/lib/thumb\libg.a(lib_a-init.o)
 .comment       0x00000000       0x23 c:/_ndsdev/devkitpro/devkitarm/bin/../lib/gcc/arm-eabi/4.6.1/../../../../arm-eabi/lib/thumb\libg.a(lib_a-locale.o)
 .comment       0x00000000       0x23 c:/_ndsdev/devkitpro/devkitarm/bin/../lib/gcc/arm-eabi/4.6.1/../../../../arm-eabi/lib/thumb\libg.a(lib_a-makebuf.o)
 .comment       0x00000000       0x23 c:/_ndsdev/devkitpro/devkitarm/bin/../lib/gcc/arm-eabi/4.6.1/../../../../arm-eabi/lib/thumb\libg.a(lib_a-malloc.o)
 .comment       0x00000000       0x23 c:/_ndsdev/devkitpro/devkitarm/bin/../lib/gcc/arm-eabi/4.6.1/../../../../arm-eabi/lib/thumb\libg.a(lib_a-mallocr.o)
 .comment       0x00000000       0x23 c:/_ndsdev/devkitpro/devkitarm/bin/../lib/gcc/arm-eabi/4.6.1/../../../../arm-eabi/lib/thumb\libg.a(lib_a-mbtowc_r.o)
 .comment       0x00000000       0x23 c:/_ndsdev/devkitpro/devkitarm/bin/../lib/gcc/arm-eabi/4.6.1/../../../../arm-eabi/lib/thumb\libg.a(lib_a-memcpy.o)
 .comment       0x00000000       0x23 c:/_ndsdev/devkitpro/devkitarm/bin/../lib/gcc/arm-eabi/4.6.1/../../../../arm-eabi/lib/thumb\libg.a(lib_a-memset.o)
 .comment       0x00000000       0x23 c:/_ndsdev/devkitpro/devkitarm/bin/../lib/gcc/arm-eabi/4.6.1/../../../../arm-eabi/lib/thumb\libg.a(lib_a-mktm_r.o)
 .comment       0x00000000       0x23 c:/_ndsdev/devkitpro/devkitarm/bin/../lib/gcc/arm-eabi/4.6.1/../../../../arm-eabi/lib/thumb\libg.a(lib_a-mlock.o)
 .comment       0x00000000       0x23 c:/_ndsdev/devkitpro/devkitarm/bin/../lib/gcc/arm-eabi/4.6.1/../../../../arm-eabi/lib/thumb\libg.a(lib_a-refill.o)
 .comment       0x00000000       0x23 c:/_ndsdev/devkitpro/devkitarm/bin/../lib/gcc/arm-eabi/4.6.1/../../../../arm-eabi/lib/thumb\libg.a(lib_a-sprintf.o)
 .comment       0x00000000       0x23 c:/_ndsdev/devkitpro/devkitarm/bin/../lib/gcc/arm-eabi/4.6.1/../../../../arm-eabi/lib/thumb\libg.a(lib_a-stdio.o)
 .comment       0x00000000       0x23 c:/_ndsdev/devkitpro/devkitarm/bin/../lib/gcc/arm-eabi/4.6.1/../../../../arm-eabi/lib/thumb\libg.a(lib_a-strcasecmp.o)
 .comment       0x00000000       0x23 c:/_ndsdev/devkitpro/devkitarm/bin/../lib/gcc/arm-eabi/4.6.1/../../../../arm-eabi/lib/thumb\libg.a(lib_a-strcat.o)
 .comment       0x00000000       0x23 c:/_ndsdev/devkitpro/devkitarm/bin/../lib/gcc/arm-eabi/4.6.1/../../../../arm-eabi/lib/thumb\libg.a(lib_a-strchr.o)
 .comment       0x00000000       0x23 c:/_ndsdev/devkitpro/devkitarm/bin/../lib/gcc/arm-eabi/4.6.1/../../../../arm-eabi/lib/thumb\libg.a(lib_a-strcmp.o)
 .comment       0x00000000       0x23 c:/_ndsdev/devkitpro/devkitarm/bin/../lib/gcc/arm-eabi/4.6.1/../../../../arm-eabi/lib/thumb\libg.a(lib_a-strcpy.o)
 .comment       0x00000000       0x23 c:/_ndsdev/devkitpro/devkitarm/bin/../lib/gcc/arm-eabi/4.6.1/../../../../arm-eabi/lib/thumb\libg.a(lib_a-strlcpy.o)
 .comment       0x00000000       0x23 c:/_ndsdev/devkitpro/devkitarm/bin/../lib/gcc/arm-eabi/4.6.1/../../../../arm-eabi/lib/thumb\libg.a(lib_a-strlen.o)
 .comment       0x00000000       0x23 c:/_ndsdev/devkitpro/devkitarm/bin/../lib/gcc/arm-eabi/4.6.1/../../../../arm-eabi/lib/thumb\libg.a(lib_a-strncasecmp.o)
 .comment       0x00000000       0x23 c:/_ndsdev/devkitpro/devkitarm/bin/../lib/gcc/arm-eabi/4.6.1/../../../../arm-eabi/lib/thumb\libg.a(lib_a-strncmp.o)
 .comment       0x00000000       0x23 c:/_ndsdev/devkitpro/devkitarm/bin/../lib/gcc/arm-eabi/4.6.1/../../../../arm-eabi/lib/thumb\libg.a(lib_a-strncpy.o)
 .comment       0x00000000       0x23 c:/_ndsdev/devkitpro/devkitarm/bin/../lib/gcc/arm-eabi/4.6.1/../../../../arm-eabi/lib/thumb\libg.a(lib_a-strtol.o)
 .comment       0x00000000       0x23 c:/_ndsdev/devkitpro/devkitarm/bin/../lib/gcc/arm-eabi/4.6.1/../../../../arm-eabi/lib/thumb\libg.a(lib_a-svfprintf.o)
 .comment       0x00000000       0x23 c:/_ndsdev/devkitpro/devkitarm/bin/../lib/gcc/arm-eabi/4.6.1/../../../../arm-eabi/lib/thumb\libg.a(lib_a-sysstat.o)
 .comment       0x00000000       0x23 c:/_ndsdev/devkitpro/devkitarm/bin/../lib/gcc/arm-eabi/4.6.1/../../../../arm-eabi/lib/thumb\libg.a(lib_a-time.o)
 .comment       0x00000000       0x23 c:/_ndsdev/devkitpro/devkitarm/bin/../lib/gcc/arm-eabi/4.6.1/../../../../arm-eabi/lib/thumb\libg.a(lib_a-tzlock.o)
 .comment       0x00000000       0x23 c:/_ndsdev/devkitpro/devkitarm/bin/../lib/gcc/arm-eabi/4.6.1/../../../../arm-eabi/lib/thumb\libg.a(lib_a-tzvars.o)
 .comment       0x00000000       0x23 c:/_ndsdev/devkitpro/devkitarm/bin/../lib/gcc/arm-eabi/4.6.1/../../../../arm-eabi/lib/thumb\libg.a(lib_a-wcrtomb.o)
 .comment       0x00000000       0x23 c:/_ndsdev/devkitpro/devkitarm/bin/../lib/gcc/arm-eabi/4.6.1/../../../../arm-eabi/lib/thumb\libg.a(lib_a-wcsrtombs.o)
 .comment       0x00000000       0x23 c:/_ndsdev/devkitpro/devkitarm/bin/../lib/gcc/arm-eabi/4.6.1/../../../../arm-eabi/lib/thumb\libg.a(lib_a-wctomb_r.o)
 .comment       0x00000000       0x23 c:/_ndsdev/devkitpro/devkitarm/bin/../lib/gcc/arm-eabi/4.6.1/../../../../arm-eabi/lib/thumb\libg.a(lib_a-ctype_.o)
 .comment       0x00000000       0x23 c:/_ndsdev/devkitpro/devkitarm/bin/../lib/gcc/arm-eabi/4.6.1/../../../../arm-eabi/lib/thumb\libg.a(lib_a-dtoa.o)
 .comment       0x00000000       0x23 c:/_ndsdev/devkitpro/devkitarm/bin/../lib/gcc/arm-eabi/4.6.1/../../../../arm-eabi/lib/thumb\libg.a(lib_a-flags.o)
 .comment       0x00000000       0x23 c:/_ndsdev/devkitpro/devkitarm/bin/../lib/gcc/arm-eabi/4.6.1/../../../../arm-eabi/lib/thumb\libg.a(lib_a-getenv_r.o)
 .comment       0x00000000       0x23 c:/_ndsdev/devkitpro/devkitarm/bin/../lib/gcc/arm-eabi/4.6.1/../../../../arm-eabi/lib/thumb\libg.a(lib_a-gettzinfo.o)
 .comment       0x00000000       0x23 c:/_ndsdev/devkitpro/devkitarm/bin/../lib/gcc/arm-eabi/4.6.1/../../../../arm-eabi/lib/thumb\libg.a(lib_a-memchr.o)
 .comment       0x00000000       0x23 c:/_ndsdev/devkitpro/devkitarm/bin/../lib/gcc/arm-eabi/4.6.1/../../../../arm-eabi/lib/thumb\libg.a(lib_a-mprec.o)
 .comment       0x00000000       0x23 c:/_ndsdev/devkitpro/devkitarm/bin/../lib/gcc/arm-eabi/4.6.1/../../../../arm-eabi/lib/thumb\libg.a(lib_a-s_fpclassify.o)
 .comment       0x00000000       0x23 c:/_ndsdev/devkitpro/devkitarm/bin/../lib/gcc/arm-eabi/4.6.1/../../../../arm-eabi/lib/thumb\libg.a(lib_a-svfiprintf.o)
 .comment       0x00000000       0x23 c:/_ndsdev/devkitpro/devkitarm/bin/../lib/gcc/arm-eabi/4.6.1/../../../../arm-eabi/lib/thumb\libg.a(lib_a-wcsnrtombs.o)
 .comment       0x00000000       0x23 c:/_ndsdev/devkitpro/devkitarm/bin/../lib/gcc/arm-eabi/4.6.1/../../../../arm-eabi/lib/thumb\libg.a(lib_a-callocr.o)
 .comment       0x00000000       0x23 c:/_ndsdev/devkitpro/devkitarm/bin/../lib/gcc/arm-eabi/4.6.1/../../../../arm-eabi/lib/thumb\libg.a(lib_a-environ.o)
 .comment       0x00000000       0x23 c:/_ndsdev/devkitpro/devkitarm/bin/../lib/gcc/arm-eabi/4.6.1/../../../../arm-eabi/lib/thumb\libg.a(lib_a-envlock.o)
 .comment       0x00000000       0x23 c:/_ndsdev/devkitpro/devkitarm/bin/../lib/gcc/arm-eabi/4.6.1/../../../../arm-eabi/lib/thumb\libg.a(lib_a-memmove.o)
 .comment       0x00000000       0x23 c:/_ndsdev/devkitpro/devkitarm/bin/../lib/gcc/arm-eabi/4.6.1/../../../../arm-eabi/lib/thumb\libg.a(lib_a-reallocr.o)
 .comment       0x00000000       0x23 c:/_ndsdev/devkitpro/devkitarm/bin/../lib/gcc/arm-eabi/4.6.1/../../../../arm-eabi/lib/thumb\libsysbase.a(close.o)
 .comment       0x00000000       0x23 c:/_ndsdev/devkitpro/devkitarm/bin/../lib/gcc/arm-eabi/4.6.1/../../../../arm-eabi/lib/thumb\libsysbase.a(fstat.o)
 .comment       0x00000000       0x23 c:/_ndsdev/devkitpro/devkitarm/bin/../lib/gcc/arm-eabi/4.6.1/../../../../arm-eabi/lib/thumb\libsysbase.a(isatty.o)
 .comment       0x00000000       0x23 c:/_ndsdev/devkitpro/devkitarm/bin/../lib/gcc/arm-eabi/4.6.1/../../../../arm-eabi/lib/thumb\libsysbase.a(lseek.o)
 .comment       0x00000000       0x23 c:/_ndsdev/devkitpro/devkitarm/bin/../lib/gcc/arm-eabi/4.6.1/../../../../arm-eabi/lib/thumb\libsysbase.a(open.o)
 .comment       0x00000000       0x23 c:/_ndsdev/devkitpro/devkitarm/bin/../lib/gcc/arm-eabi/4.6.1/../../../../arm-eabi/lib/thumb\libsysbase.a(read.o)
 .comment       0x00000000       0x23 c:/_ndsdev/devkitpro/devkitarm/bin/../lib/gcc/arm-eabi/4.6.1/../../../../arm-eabi/lib/thumb\libsysbase.a(sbrk.o)
 .comment       0x00000000       0x23 c:/_ndsdev/devkitpro/devkitarm/bin/../lib/gcc/arm-eabi/4.6.1/../../../../arm-eabi/lib/thumb\libsysbase.a(stat.o)
 .comment       0x00000000       0x23 c:/_ndsdev/devkitpro/devkitarm/bin/../lib/gcc/arm-eabi/4.6.1/../../../../arm-eabi/lib/thumb\libsysbase.a(times.o)
 .comment       0x00000000       0x23 c:/_ndsdev/devkitpro/devkitarm/bin/../lib/gcc/arm-eabi/4.6.1/../../../../arm-eabi/lib/thumb\libsysbase.a(write.o)
 .comment       0x00000000       0x23 c:/_ndsdev/devkitpro/devkitarm/bin/../lib/gcc/arm-eabi/4.6.1/../../../../arm-eabi/lib/thumb\libsysbase.a(malloc_vars.o)
 .comment       0x00000000       0x23 c:/_ndsdev/devkitpro/devkitarm/bin/../lib/gcc/arm-eabi/4.6.1/../../../../arm-eabi/lib/thumb\libsysbase.a(build_argv.o)
 .comment       0x00000000       0x23 c:/_ndsdev/devkitpro/devkitarm/bin/../lib/gcc/arm-eabi/4.6.1/../../../../arm-eabi/lib/thumb\libsysbase.a(syscall_support.o)
 .comment       0x00000000       0x23 c:/_ndsdev/devkitpro/devkitarm/bin/../lib/gcc/arm-eabi/4.6.1/../../../../arm-eabi/lib/thumb\libsysbase.a(handle_manager.o)
 .comment       0x00000000       0x23 c:/_ndsdev/devkitpro/devkitarm/bin/../lib/gcc/arm-eabi/4.6.1/../../../../arm-eabi/lib/thumb\libsysbase.a(dirent.o)
 .comment       0x00000000       0x23 c:/_ndsdev/devkitpro/devkitarm/bin/../lib/gcc/arm-eabi/4.6.1/../../../../arm-eabi/lib/thumb\libsysbase.a(iosupport.o)
 .comment       0x00000000       0x23 c:/_ndsdev/devkitpro/devkitarm/bin/../lib/gcc/arm-eabi/4.6.1/thumb\libgcc.a(bpabi.o)
 .comment       0x00000000       0x23 c:/_ndsdev/devkitpro/devkitarm/bin/../lib/gcc/arm-eabi/4.6.1/thumb\libgcc.a(_divdi3.o)
 .comment       0x00000000       0x23 c:/_ndsdev/devkitpro/devkitarm/bin/../lib/gcc/arm-eabi/4.6.1/thumb\libgcc.a(_udivdi3.o)
 .comment       0x00000000       0x23 c:/_ndsdev/devkitpro/devkitarm/bin/../lib/gcc/arm-eabi/4.6.1/../../../../arm-eabi/lib/thumb\libg.a(lib_a-errno.o)
 .comment       0x00000000       0x23 c:/_ndsdev/devkitpro/devkitarm/bin/../lib/gcc/arm-eabi/4.6.1/../../../../arm-eabi/lib/thumb\libg.a(lib_a-strnlen.o)
 .comment       0x00000000       0x23 c:/_ndsdev/devkitpro/devkitarm/bin/../lib/gcc/arm-eabi/4.6.1/thumb/crtend.o

.ARM.attributes
                0x00000000       0x2d
 .ARM.attributes
                0x00000000       0x23 c:/_ndsdev/devkitpro/devkitarm/bin/../lib/gcc/arm-eabi/4.6.1/../../../../arm-eabi/lib/thumb/ds_arm9_crt0.o
 .ARM.attributes
                0x00000023       0x18 c:/_ndsdev/devkitpro/devkitarm/bin/../lib/gcc/arm-eabi/4.6.1/thumb/crti.o
 .ARM.attributes
                0x0000003b       0x32 c:/_ndsdev/devkitpro/devkitarm/bin/../lib/gcc/arm-eabi/4.6.1/thumb/crtbegin.o
 .ARM.attributes
                0x0000006d       0x16 soundbank_bin.o
 .ARM.attributes
                0x00000083       0x16 down.o
 .ARM.attributes
                0x00000099       0x16 up.o
 .ARM.attributes
                0x000000af       0x29 main.o
 .ARM.attributes
                0x000000d8       0x29 croutine.o
 .ARM.attributes
                0x00000101       0x29 heap.o
 .ARM.attributes
                0x0000012a       0x29 list.o
 .ARM.attributes
                0x00000153       0x29 port.o
 .ARM.attributes
                0x0000017c       0x29 portISR.o
 .ARM.attributes
                0x000001a5       0x29 queue.o
 .ARM.attributes
                0x000001ce       0x29 tasks.o
 .ARM.attributes
                0x000001f7       0x29 virtual_io.o
 .ARM.attributes
                0x00000220       0x18 assemfunc.o
 .ARM.attributes
                0x00000238       0x27 c:/_ndsdev/devkitPro/PAlib/lib\libpa9.a(PA.o)
 .ARM.attributes
                0x0000025f       0x27 c:/_ndsdev/devkitPro/PAlib/lib\libpa9.a(PA_BgEasy.o)
 .ARM.attributes
                0x00000286       0x27 c:/_ndsdev/devkitPro/PAlib/lib\libpa9.a(PA_BgLargeMap.o)
 .ARM.attributes
                0x000002ad       0x27 c:/_ndsdev/devkitPro/PAlib/lib\libpa9.a(PA_BgTiles.o)
 .ARM.attributes
                0x000002d4       0x27 c:/_ndsdev/devkitPro/PAlib/lib\libpa9.a(PA_Error.o)
 .ARM.attributes
                0x000002fb       0x27 c:/_ndsdev/devkitPro/PAlib/lib\libpa9.a(PA_Inits.o)
 .ARM.attributes
                0x00000322       0x27 c:/_ndsdev/devkitPro/PAlib/lib\libpa9.a(PA_Interrupt.o)
 .ARM.attributes
                0x00000349       0x27 c:/_ndsdev/devkitPro/PAlib/lib\libpa9.a(PA_Keys.o)
 .ARM.attributes
                0x00000370       0x27 c:/_ndsdev/devkitPro/PAlib/lib\libpa9.a(PA_Math.o)
 .ARM.attributes
                0x00000397       0x27 c:/_ndsdev/devkitPro/PAlib/lib\libpa9.a(PA_Palette.o)
 .ARM.attributes
                0x000003be       0x27 c:/_ndsdev/devkitPro/PAlib/lib\libpa9.a(PA_RTC.o)
 .ARM.attributes
                0x000003e5       0x27 c:/_ndsdev/devkitPro/PAlib/lib\libpa9.a(PA_Reco.o)
 .ARM.attributes
                0x0000040c       0x27 c:/_ndsdev/devkitPro/PAlib/lib\libpa9.a(PA_Sprite.o)
 .ARM.attributes
                0x00000433       0x27 c:/_ndsdev/devkitPro/PAlib/lib\libpa9.a(PA_SpriteAnim.o)
 .ARM.attributes
                0x0000045a       0x27 c:/_ndsdev/devkitPro/PAlib/lib\libpa9.a(PA_Stuff.o)
 .ARM.attributes
                0x00000481       0x27 c:/_ndsdev/devkitPro/PAlib/lib\libpa9.a(PA_Text.o)
 .ARM.attributes
                0x000004a8       0x27 c:/_ndsdev/devkitPro/PAlib/lib\libpa9.a(PA_TextBits.o)
 .ARM.attributes
                0x000004cf       0x27 c:/_ndsdev/devkitPro/PAlib/lib\libpa9.a(PA_TiledFont.o)
 .ARM.attributes
                0x000004f6       0x27 c:/_ndsdev/devkitPro/PAlib/lib\libpa9.a(PA_BmpFont0.o)
 .ARM.attributes
                0x0000051d       0x27 c:/_ndsdev/devkitPro/PAlib/lib\libpa9.a(PA_BmpFont1.o)
 .ARM.attributes
                0x00000544       0x27 c:/_ndsdev/devkitPro/PAlib/lib\libpa9.a(PA_BmpFont2.o)
 .ARM.attributes
                0x0000056b       0x27 c:/_ndsdev/devkitPro/PAlib/lib\libpa9.a(PA_BmpFont3.o)
 .ARM.attributes
                0x00000592       0x27 c:/_ndsdev/devkitPro/PAlib/lib\libpa9.a(PA_BmpFont4.o)
 .ARM.attributes
                0x000005b9       0x14 c:/_ndsdev/devkitPro/PAlib/lib\libpa9.a(PA_TiledFont_Map.bin.o)
 .ARM.attributes
                0x000005cd       0x14 c:/_ndsdev/devkitPro/PAlib/lib\libpa9.a(PA_TiledFont_Pal.bin.o)
 .ARM.attributes
                0x000005e1       0x14 c:/_ndsdev/devkitPro/PAlib/lib\libpa9.a(PA_TiledFont_Tiles.bin.o)
 .ARM.attributes
                0x000005f5       0x14 c:/_ndsdev/devkitPro/PAlib/lib\libpa9.a(PA_BmpFont0_Map.bin.o)
 .ARM.attributes
                0x00000609       0x14 c:/_ndsdev/devkitPro/PAlib/lib\libpa9.a(PA_BmpFont0_Sizes.bin.o)
 .ARM.attributes
                0x0000061d       0x14 c:/_ndsdev/devkitPro/PAlib/lib\libpa9.a(PA_BmpFont0_Tiles.bin.o)
 .ARM.attributes
                0x00000631       0x14 c:/_ndsdev/devkitPro/PAlib/lib\libpa9.a(PA_BmpFont1_Map.bin.o)
 .ARM.attributes
                0x00000645       0x14 c:/_ndsdev/devkitPro/PAlib/lib\libpa9.a(PA_BmpFont1_Sizes.bin.o)
 .ARM.attributes
                0x00000659       0x14 c:/_ndsdev/devkitPro/PAlib/lib\libpa9.a(PA_BmpFont1_Tiles.bin.o)
 .ARM.attributes
                0x0000066d       0x14 c:/_ndsdev/devkitPro/PAlib/lib\libpa9.a(PA_BmpFont2_Map.bin.o)
 .ARM.attributes
                0x00000681       0x14 c:/_ndsdev/devkitPro/PAlib/lib\libpa9.a(PA_BmpFont2_Sizes.bin.o)
 .ARM.attributes
                0x00000695       0x14 c:/_ndsdev/devkitPro/PAlib/lib\libpa9.a(PA_BmpFont2_Tiles.bin.o)
 .ARM.attributes
                0x000006a9       0x14 c:/_ndsdev/devkitPro/PAlib/lib\libpa9.a(PA_BmpFont3_Map.bin.o)
 .ARM.attributes
                0x000006bd       0x14 c:/_ndsdev/devkitPro/PAlib/lib\libpa9.a(PA_BmpFont3_Sizes.bin.o)
 .ARM.attributes
                0x000006d1       0x14 c:/_ndsdev/devkitPro/PAlib/lib\libpa9.a(PA_BmpFont3_Tiles.bin.o)
 .ARM.attributes
                0x000006e5       0x14 c:/_ndsdev/devkitPro/PAlib/lib\libpa9.a(PA_BmpFont4_Map.bin.o)
 .ARM.attributes
                0x000006f9       0x14 c:/_ndsdev/devkitPro/PAlib/lib\libpa9.a(PA_BmpFont4_Sizes.bin.o)
 .ARM.attributes
                0x0000070d       0x14 c:/_ndsdev/devkitPro/PAlib/lib\libpa9.a(PA_BmpFont4_Tiles.bin.o)
 .ARM.attributes
                0x00000721       0x27 c:/_ndsdev/devkitPro/PAlib/lib\libpa9.a(PA_Fifo.o)
 .ARM.attributes
                0x00000748       0x27 c:/_ndsdev/devkitPro/PAlib/lib\libpa9.a(PA_NewBg.o)
 .ARM.attributes
                0x0000076f       0x27 c:/_ndsdev/devkitPro/PAlib/lib\libpa9.a(PA_PaletteEx.o)
 .ARM.attributes
                0x00000796       0x27 c:/_ndsdev/devkitPro/PAlib/lib\libpa9.a(PA_Text8bit.o)
 .ARM.attributes
                0x000007bd       0x27 c:/_ndsdev/devkitPro/PAlib/lib\libpa9.a(PA_16c.o)
 .ARM.attributes
                0x000007e4       0x27 c:/_ndsdev/devkitPro/PAlib/lib\libpa9.a(PA_BgRot.o)
 .ARM.attributes
                0x0000080b       0x27 c:/_ndsdev/devkitPro/PAlib/lib\libpa9.a(PA_Draw.o)
 .ARM.attributes
                0x00000832       0x27 c:/_ndsdev/devkitPro/PAlib/lib\libpa9.a(PA_Keyboard.o)
 .ARM.attributes
                0x00000859       0x27 c:/_ndsdev/devkitPro/PAlib/lib\libpa9.a(keyboard.map.o)
 .ARM.attributes
                0x00000880       0x27 c:/_ndsdev/devkitPro/PAlib/lib\libpa9.a(keyboard.pal.o)
 .ARM.attributes
                0x000008a7       0x27 c:/_ndsdev/devkitPro/PAlib/lib\libpa9.a(keyboard.raw.o)
 .ARM.attributes
                0x000008ce       0x29 c:/_ndsdev/devkitPro/libnds/lib\libnds9.a(background.o)
 .ARM.attributes
                0x000008f7       0x29 c:/_ndsdev/devkitPro/libnds/lib\libnds9.a(decompress.o)
 .ARM.attributes
                0x00000920       0x29 c:/_ndsdev/devkitPro/libnds/lib\libnds9.a(keys.o)
 .ARM.attributes
                0x00000949       0x29 c:/_ndsdev/devkitPro/libnds/lib\libnds9.a(system.o)
 .ARM.attributes
                0x00000972       0x29 c:/_ndsdev/devkitPro/libnds/lib\libnds9.a(touch.o)
 .ARM.attributes
                0x0000099b       0x29 c:/_ndsdev/devkitPro/libnds/lib\libnds9.a(trig.o)
 .ARM.attributes
                0x000009c4       0x29 c:/_ndsdev/devkitPro/libnds/lib\libnds9.a(video.o)
 .ARM.attributes
                0x000009ed       0x29 c:/_ndsdev/devkitPro/libnds/lib\libnds9.a(initSystem.o)
 .ARM.attributes
                0x00000a16       0x29 c:/_ndsdev/devkitPro/libnds/lib\libnds9.a(fifosystem.o)
 .ARM.attributes
                0x00000a3f       0x29 c:/_ndsdev/devkitPro/libnds/lib\libnds9.a(interrupts.o)
 .ARM.attributes
                0x00000a68       0x29 c:/_ndsdev/devkitPro/libnds/lib\libnds9.a(libnds_exit.o)
 .ARM.attributes
                0x00000a91       0x29 c:/_ndsdev/devkitPro/libnds/lib\libnds9.a(syscalls.o)
 .ARM.attributes
                0x00000aba       0x1d c:/_ndsdev/devkitPro/libnds/lib\libnds9.a(dcache.o)
 .ARM.attributes
                0x00000ad7       0x23 c:/_ndsdev/devkitPro/libnds/lib\libnds9.a(mpu_setup.o)
 .ARM.attributes
                0x00000afa       0x1d c:/_ndsdev/devkitPro/libnds/lib\libnds9.a(biosCalls.o)
 .ARM.attributes
                0x00000b17       0x1d c:/_ndsdev/devkitPro/libnds/lib\libnds9.a(interruptDispatcher.o)
 .ARM.attributes
                0x00000b34       0x23 c:/_ndsdev/devkitPro/libnds/lib\libnds9.a(swiSoftReset.o)
 .ARM.attributes
                0x00000b57       0x19 c:/_ndsdev/devkitPro/libnds/lib\libmm9.a(mm_comms.o)
 .ARM.attributes
                0x00000b70       0x1b c:/_ndsdev/devkitPro/libnds/lib\libmm9.a(mm_main9.o)
 .ARM.attributes
                0x00000b8b       0x19 c:/_ndsdev/devkitPro/libnds/lib\libmm9.a(mm_memory.o)
 .ARM.attributes
                0x00000ba4       0x19 c:/_ndsdev/devkitPro/libnds/lib\libmm9.a(mm_soundbank.o)
 .ARM.attributes
                0x00000bbd       0x1b c:/_ndsdev/devkitPro/libnds/lib\libmm9.a(mm_flusher.o)
 .ARM.attributes
                0x00000bd8       0x1a c:/_ndsdev/devkitpro/devkitarm/bin/../lib/gcc/arm-eabi/4.6.1/thumb\libgcc.a(_udivsi3.o)
 .ARM.attributes
                0x00000bf2       0x1a c:/_ndsdev/devkitpro/devkitarm/bin/../lib/gcc/arm-eabi/4.6.1/thumb\libgcc.a(_divsi3.o)
 .ARM.attributes
                0x00000c0c       0x18 c:/_ndsdev/devkitpro/devkitarm/bin/../lib/gcc/arm-eabi/4.6.1/thumb\libgcc.a(_dvmd_tls.o)
 .ARM.attributes
                0x00000c24       0x1a c:/_ndsdev/devkitpro/devkitarm/bin/../lib/gcc/arm-eabi/4.6.1/thumb\libgcc.a(_arm_addsubdf3.o)
 .ARM.attributes
                0x00000c3e       0x1a c:/_ndsdev/devkitpro/devkitarm/bin/../lib/gcc/arm-eabi/4.6.1/thumb\libgcc.a(_arm_muldivdf3.o)
 .ARM.attributes
                0x00000c58       0x1a c:/_ndsdev/devkitpro/devkitarm/bin/../lib/gcc/arm-eabi/4.6.1/thumb\libgcc.a(_arm_cmpdf2.o)
 .ARM.attributes
                0x00000c72       0x1a c:/_ndsdev/devkitpro/devkitarm/bin/../lib/gcc/arm-eabi/4.6.1/thumb\libgcc.a(_arm_fixdfsi.o)
 .ARM.attributes
                0x00000c8c       0x32 c:/_ndsdev/devkitpro/devkitarm/bin/../lib/gcc/arm-eabi/4.6.1/thumb\libgcc.a(_muldi3.o)
 .ARM.attributes
                0x00000cbe       0x32 c:/_ndsdev/devkitpro/devkitarm/bin/../lib/gcc/arm-eabi/4.6.1/../../../../arm-eabi/lib/thumb\libg.a(lib_a-bsearch.o)
 .ARM.attributes
                0x00000cf0       0x32 c:/_ndsdev/devkitpro/devkitarm/bin/../lib/gcc/arm-eabi/4.6.1/../../../../arm-eabi/lib/thumb\libg.a(lib_a-fclose.o)
 .ARM.attributes
                0x00000d22       0x32 c:/_ndsdev/devkitpro/devkitarm/bin/../lib/gcc/arm-eabi/4.6.1/../../../../arm-eabi/lib/thumb\libg.a(lib_a-fflush.o)
 .ARM.attributes
                0x00000d54       0x32 c:/_ndsdev/devkitpro/devkitarm/bin/../lib/gcc/arm-eabi/4.6.1/../../../../arm-eabi/lib/thumb\libg.a(lib_a-findfp.o)
 .ARM.attributes
                0x00000d86       0x32 c:/_ndsdev/devkitpro/devkitarm/bin/../lib/gcc/arm-eabi/4.6.1/../../../../arm-eabi/lib/thumb\libg.a(lib_a-fopen.o)
 .ARM.attributes
                0x00000db8       0x32 c:/_ndsdev/devkitpro/devkitarm/bin/../lib/gcc/arm-eabi/4.6.1/../../../../arm-eabi/lib/thumb\libg.a(lib_a-fread.o)
 .ARM.attributes
                0x00000dea       0x32 c:/_ndsdev/devkitpro/devkitarm/bin/../lib/gcc/arm-eabi/4.6.1/../../../../arm-eabi/lib/thumb\libg.a(lib_a-freer.o)
 .ARM.attributes
                0x00000e1c       0x32 c:/_ndsdev/devkitpro/devkitarm/bin/../lib/gcc/arm-eabi/4.6.1/../../../../arm-eabi/lib/thumb\libg.a(lib_a-fseek.o)
 .ARM.attributes
                0x00000e4e       0x32 c:/_ndsdev/devkitpro/devkitarm/bin/../lib/gcc/arm-eabi/4.6.1/../../../../arm-eabi/lib/thumb\libg.a(lib_a-fwalk.o)
 .ARM.attributes
                0x00000e80       0x32 c:/_ndsdev/devkitpro/devkitarm/bin/../lib/gcc/arm-eabi/4.6.1/../../../../arm-eabi/lib/thumb\libg.a(lib_a-gmtime.o)
 .ARM.attributes
                0x00000eb2       0x32 c:/_ndsdev/devkitpro/devkitarm/bin/../lib/gcc/arm-eabi/4.6.1/../../../../arm-eabi/lib/thumb\libg.a(lib_a-gmtime_r.o)
 .ARM.attributes
                0x00000ee4       0x32 c:/_ndsdev/devkitpro/devkitarm/bin/../lib/gcc/arm-eabi/4.6.1/../../../../arm-eabi/lib/thumb\libg.a(lib_a-impure.o)
 .ARM.attributes
                0x00000f16       0x32 c:/_ndsdev/devkitpro/devkitarm/bin/../lib/gcc/arm-eabi/4.6.1/../../../../arm-eabi/lib/thumb\libg.a(lib_a-init.o)
 .ARM.attributes
                0x00000f48       0x32 c:/_ndsdev/devkitpro/devkitarm/bin/../lib/gcc/arm-eabi/4.6.1/../../../../arm-eabi/lib/thumb\libg.a(lib_a-locale.o)
 .ARM.attributes
                0x00000f7a       0x32 c:/_ndsdev/devkitpro/devkitarm/bin/../lib/gcc/arm-eabi/4.6.1/../../../../arm-eabi/lib/thumb\libg.a(lib_a-makebuf.o)
 .ARM.attributes
                0x00000fac       0x32 c:/_ndsdev/devkitpro/devkitarm/bin/../lib/gcc/arm-eabi/4.6.1/../../../../arm-eabi/lib/thumb\libg.a(lib_a-malloc.o)
 .ARM.attributes
                0x00000fde       0x32 c:/_ndsdev/devkitpro/devkitarm/bin/../lib/gcc/arm-eabi/4.6.1/../../../../arm-eabi/lib/thumb\libg.a(lib_a-mallocr.o)
 .ARM.attributes
                0x00001010       0x32 c:/_ndsdev/devkitpro/devkitarm/bin/../lib/gcc/arm-eabi/4.6.1/../../../../arm-eabi/lib/thumb\libg.a(lib_a-mbtowc_r.o)
 .ARM.attributes
                0x00001042       0x32 c:/_ndsdev/devkitpro/devkitarm/bin/../lib/gcc/arm-eabi/4.6.1/../../../../arm-eabi/lib/thumb\libg.a(lib_a-memcpy.o)
 .ARM.attributes
                0x00001074       0x32 c:/_ndsdev/devkitpro/devkitarm/bin/../lib/gcc/arm-eabi/4.6.1/../../../../arm-eabi/lib/thumb\libg.a(lib_a-memset.o)
 .ARM.attributes
                0x000010a6       0x32 c:/_ndsdev/devkitpro/devkitarm/bin/../lib/gcc/arm-eabi/4.6.1/../../../../arm-eabi/lib/thumb\libg.a(lib_a-mktm_r.o)
 .ARM.attributes
                0x000010d8       0x32 c:/_ndsdev/devkitpro/devkitarm/bin/../lib/gcc/arm-eabi/4.6.1/../../../../arm-eabi/lib/thumb\libg.a(lib_a-mlock.o)
 .ARM.attributes
                0x0000110a       0x32 c:/_ndsdev/devkitpro/devkitarm/bin/../lib/gcc/arm-eabi/4.6.1/../../../../arm-eabi/lib/thumb\libg.a(lib_a-refill.o)
 .ARM.attributes
                0x0000113c       0x32 c:/_ndsdev/devkitpro/devkitarm/bin/../lib/gcc/arm-eabi/4.6.1/../../../../arm-eabi/lib/thumb\libg.a(lib_a-sprintf.o)
 .ARM.attributes
                0x0000116e       0x32 c:/_ndsdev/devkitpro/devkitarm/bin/../lib/gcc/arm-eabi/4.6.1/../../../../arm-eabi/lib/thumb\libg.a(lib_a-stdio.o)
 .ARM.attributes
                0x000011a0       0x32 c:/_ndsdev/devkitpro/devkitarm/bin/../lib/gcc/arm-eabi/4.6.1/../../../../arm-eabi/lib/thumb\libg.a(lib_a-strcasecmp.o)
 .ARM.attributes
                0x000011d2       0x32 c:/_ndsdev/devkitpro/devkitarm/bin/../lib/gcc/arm-eabi/4.6.1/../../../../arm-eabi/lib/thumb\libg.a(lib_a-strcat.o)
 .ARM.attributes
                0x00001204       0x32 c:/_ndsdev/devkitpro/devkitarm/bin/../lib/gcc/arm-eabi/4.6.1/../../../../arm-eabi/lib/thumb\libg.a(lib_a-strchr.o)
 .ARM.attributes
                0x00001236       0x32 c:/_ndsdev/devkitpro/devkitarm/bin/../lib/gcc/arm-eabi/4.6.1/../../../../arm-eabi/lib/thumb\libg.a(lib_a-strcmp.o)
 .ARM.attributes
                0x00001268       0x32 c:/_ndsdev/devkitpro/devkitarm/bin/../lib/gcc/arm-eabi/4.6.1/../../../../arm-eabi/lib/thumb\libg.a(lib_a-strcpy.o)
 .ARM.attributes
                0x0000129a       0x32 c:/_ndsdev/devkitpro/devkitarm/bin/../lib/gcc/arm-eabi/4.6.1/../../../../arm-eabi/lib/thumb\libg.a(lib_a-strlcpy.o)
 .ARM.attributes
                0x000012cc       0x32 c:/_ndsdev/devkitpro/devkitarm/bin/../lib/gcc/arm-eabi/4.6.1/../../../../arm-eabi/lib/thumb\libg.a(lib_a-strlen.o)
 .ARM.attributes
                0x000012fe       0x32 c:/_ndsdev/devkitpro/devkitarm/bin/../lib/gcc/arm-eabi/4.6.1/../../../../arm-eabi/lib/thumb\libg.a(lib_a-strncasecmp.o)
 .ARM.attributes
                0x00001330       0x32 c:/_ndsdev/devkitpro/devkitarm/bin/../lib/gcc/arm-eabi/4.6.1/../../../../arm-eabi/lib/thumb\libg.a(lib_a-strncmp.o)
 .ARM.attributes
                0x00001362       0x32 c:/_ndsdev/devkitpro/devkitarm/bin/../lib/gcc/arm-eabi/4.6.1/../../../../arm-eabi/lib/thumb\libg.a(lib_a-strncpy.o)
 .ARM.attributes
                0x00001394       0x32 c:/_ndsdev/devkitpro/devkitarm/bin/../lib/gcc/arm-eabi/4.6.1/../../../../arm-eabi/lib/thumb\libg.a(lib_a-strtol.o)
 .ARM.attributes
                0x000013c6       0x32 c:/_ndsdev/devkitpro/devkitarm/bin/../lib/gcc/arm-eabi/4.6.1/../../../../arm-eabi/lib/thumb\libg.a(lib_a-svfprintf.o)
 .ARM.attributes
                0x000013f8       0x32 c:/_ndsdev/devkitpro/devkitarm/bin/../lib/gcc/arm-eabi/4.6.1/../../../../arm-eabi/lib/thumb\libg.a(lib_a-sysstat.o)
 .ARM.attributes
                0x0000142a       0x32 c:/_ndsdev/devkitpro/devkitarm/bin/../lib/gcc/arm-eabi/4.6.1/../../../../arm-eabi/lib/thumb\libg.a(lib_a-time.o)
 .ARM.attributes
                0x0000145c       0x32 c:/_ndsdev/devkitpro/devkitarm/bin/../lib/gcc/arm-eabi/4.6.1/../../../../arm-eabi/lib/thumb\libg.a(lib_a-tzlock.o)
 .ARM.attributes
                0x0000148e       0x32 c:/_ndsdev/devkitpro/devkitarm/bin/../lib/gcc/arm-eabi/4.6.1/../../../../arm-eabi/lib/thumb\libg.a(lib_a-tzvars.o)
 .ARM.attributes
                0x000014c0       0x32 c:/_ndsdev/devkitpro/devkitarm/bin/../lib/gcc/arm-eabi/4.6.1/../../../../arm-eabi/lib/thumb\libg.a(lib_a-wcrtomb.o)
 .ARM.attributes
                0x000014f2       0x32 c:/_ndsdev/devkitpro/devkitarm/bin/../lib/gcc/arm-eabi/4.6.1/../../../../arm-eabi/lib/thumb\libg.a(lib_a-wcsrtombs.o)
 .ARM.attributes
                0x00001524       0x32 c:/_ndsdev/devkitpro/devkitarm/bin/../lib/gcc/arm-eabi/4.6.1/../../../../arm-eabi/lib/thumb\libg.a(lib_a-wctomb_r.o)
 .ARM.attributes
                0x00001556       0x32 c:/_ndsdev/devkitpro/devkitarm/bin/../lib/gcc/arm-eabi/4.6.1/../../../../arm-eabi/lib/thumb\libg.a(lib_a-ctype_.o)
 .ARM.attributes
                0x00001588       0x32 c:/_ndsdev/devkitpro/devkitarm/bin/../lib/gcc/arm-eabi/4.6.1/../../../../arm-eabi/lib/thumb\libg.a(lib_a-dtoa.o)
 .ARM.attributes
                0x000015ba       0x32 c:/_ndsdev/devkitpro/devkitarm/bin/../lib/gcc/arm-eabi/4.6.1/../../../../arm-eabi/lib/thumb\libg.a(lib_a-flags.o)
 .ARM.attributes
                0x000015ec       0x32 c:/_ndsdev/devkitpro/devkitarm/bin/../lib/gcc/arm-eabi/4.6.1/../../../../arm-eabi/lib/thumb\libg.a(lib_a-getenv_r.o)
 .ARM.attributes
                0x0000161e       0x32 c:/_ndsdev/devkitpro/devkitarm/bin/../lib/gcc/arm-eabi/4.6.1/../../../../arm-eabi/lib/thumb\libg.a(lib_a-gettzinfo.o)
 .ARM.attributes
                0x00001650       0x32 c:/_ndsdev/devkitpro/devkitarm/bin/../lib/gcc/arm-eabi/4.6.1/../../../../arm-eabi/lib/thumb\libg.a(lib_a-memchr.o)
 .ARM.attributes
                0x00001682       0x32 c:/_ndsdev/devkitpro/devkitarm/bin/../lib/gcc/arm-eabi/4.6.1/../../../../arm-eabi/lib/thumb\libg.a(lib_a-mprec.o)
 .ARM.attributes
                0x000016b4       0x32 c:/_ndsdev/devkitpro/devkitarm/bin/../lib/gcc/arm-eabi/4.6.1/../../../../arm-eabi/lib/thumb\libg.a(lib_a-s_fpclassify.o)
 .ARM.attributes
                0x000016e6       0x32 c:/_ndsdev/devkitpro/devkitarm/bin/../lib/gcc/arm-eabi/4.6.1/../../../../arm-eabi/lib/thumb\libg.a(lib_a-svfiprintf.o)
 .ARM.attributes
                0x00001718       0x32 c:/_ndsdev/devkitpro/devkitarm/bin/../lib/gcc/arm-eabi/4.6.1/../../../../arm-eabi/lib/thumb\libg.a(lib_a-wcsnrtombs.o)
 .ARM.attributes
                0x0000174a       0x32 c:/_ndsdev/devkitpro/devkitarm/bin/../lib/gcc/arm-eabi/4.6.1/../../../../arm-eabi/lib/thumb\libg.a(lib_a-callocr.o)
 .ARM.attributes
                0x0000177c       0x32 c:/_ndsdev/devkitpro/devkitarm/bin/../lib/gcc/arm-eabi/4.6.1/../../../../arm-eabi/lib/thumb\libg.a(lib_a-environ.o)
 .ARM.attributes
                0x000017ae       0x32 c:/_ndsdev/devkitpro/devkitarm/bin/../lib/gcc/arm-eabi/4.6.1/../../../../arm-eabi/lib/thumb\libg.a(lib_a-envlock.o)
 .ARM.attributes
                0x000017e0       0x32 c:/_ndsdev/devkitpro/devkitarm/bin/../lib/gcc/arm-eabi/4.6.1/../../../../arm-eabi/lib/thumb\libg.a(lib_a-memmove.o)
 .ARM.attributes
                0x00001812       0x32 c:/_ndsdev/devkitpro/devkitarm/bin/../lib/gcc/arm-eabi/4.6.1/../../../../arm-eabi/lib/thumb\libg.a(lib_a-reallocr.o)
 .ARM.attributes
                0x00001844       0x32 c:/_ndsdev/devkitpro/devkitarm/bin/../lib/gcc/arm-eabi/4.6.1/../../../../arm-eabi/lib/thumb\libsysbase.a(close.o)
 .ARM.attributes
                0x00001876       0x32 c:/_ndsdev/devkitpro/devkitarm/bin/../lib/gcc/arm-eabi/4.6.1/../../../../arm-eabi/lib/thumb\libsysbase.a(fstat.o)
 .ARM.attributes
                0x000018a8       0x32 c:/_ndsdev/devkitpro/devkitarm/bin/../lib/gcc/arm-eabi/4.6.1/../../../../arm-eabi/lib/thumb\libsysbase.a(isatty.o)
 .ARM.attributes
                0x000018da       0x32 c:/_ndsdev/devkitpro/devkitarm/bin/../lib/gcc/arm-eabi/4.6.1/../../../../arm-eabi/lib/thumb\libsysbase.a(lseek.o)
 .ARM.attributes
                0x0000190c       0x32 c:/_ndsdev/devkitpro/devkitarm/bin/../lib/gcc/arm-eabi/4.6.1/../../../../arm-eabi/lib/thumb\libsysbase.a(open.o)
 .ARM.attributes
                0x0000193e       0x32 c:/_ndsdev/devkitpro/devkitarm/bin/../lib/gcc/arm-eabi/4.6.1/../../../../arm-eabi/lib/thumb\libsysbase.a(read.o)
 .ARM.attributes
                0x00001970       0x32 c:/_ndsdev/devkitpro/devkitarm/bin/../lib/gcc/arm-eabi/4.6.1/../../../../arm-eabi/lib/thumb\libsysbase.a(sbrk.o)
 .ARM.attributes
                0x000019a2       0x32 c:/_ndsdev/devkitpro/devkitarm/bin/../lib/gcc/arm-eabi/4.6.1/../../../../arm-eabi/lib/thumb\libsysbase.a(stat.o)
 .ARM.attributes
                0x000019d4       0x32 c:/_ndsdev/devkitpro/devkitarm/bin/../lib/gcc/arm-eabi/4.6.1/../../../../arm-eabi/lib/thumb\libsysbase.a(times.o)
 .ARM.attributes
                0x00001a06       0x32 c:/_ndsdev/devkitpro/devkitarm/bin/../lib/gcc/arm-eabi/4.6.1/../../../../arm-eabi/lib/thumb\libsysbase.a(write.o)
 .ARM.attributes
                0x00001a38       0x32 c:/_ndsdev/devkitpro/devkitarm/bin/../lib/gcc/arm-eabi/4.6.1/../../../../arm-eabi/lib/thumb\libsysbase.a(malloc_vars.o)
 .ARM.attributes
                0x00001a6a       0x32 c:/_ndsdev/devkitpro/devkitarm/bin/../lib/gcc/arm-eabi/4.6.1/../../../../arm-eabi/lib/thumb\libsysbase.a(build_argv.o)
 .ARM.attributes
                0x00001a9c       0x32 c:/_ndsdev/devkitpro/devkitarm/bin/../lib/gcc/arm-eabi/4.6.1/../../../../arm-eabi/lib/thumb\libsysbase.a(syscall_support.o)
 .ARM.attributes
                0x00001ace       0x32 c:/_ndsdev/devkitpro/devkitarm/bin/../lib/gcc/arm-eabi/4.6.1/../../../../arm-eabi/lib/thumb\libsysbase.a(handle_manager.o)
 .ARM.attributes
                0x00001b00       0x32 c:/_ndsdev/devkitpro/devkitarm/bin/../lib/gcc/arm-eabi/4.6.1/../../../../arm-eabi/lib/thumb\libsysbase.a(dirent.o)
 .ARM.attributes
                0x00001b32       0x32 c:/_ndsdev/devkitpro/devkitarm/bin/../lib/gcc/arm-eabi/4.6.1/../../../../arm-eabi/lib/thumb\libsysbase.a(iosupport.o)
 .ARM.attributes
                0x00001b64       0x1a c:/_ndsdev/devkitpro/devkitarm/bin/../lib/gcc/arm-eabi/4.6.1/thumb\libgcc.a(_aeabi_uldivmod.o)
 .ARM.attributes
                0x00001b7e       0x32 c:/_ndsdev/devkitpro/devkitarm/bin/../lib/gcc/arm-eabi/4.6.1/thumb\libgcc.a(bpabi.o)
 .ARM.attributes
                0x00001bb0       0x32 c:/_ndsdev/devkitpro/devkitarm/bin/../lib/gcc/arm-eabi/4.6.1/thumb\libgcc.a(_divdi3.o)
 .ARM.attributes
                0x00001be2       0x32 c:/_ndsdev/devkitpro/devkitarm/bin/../lib/gcc/arm-eabi/4.6.1/thumb\libgcc.a(_udivdi3.o)
 .ARM.attributes
                0x00001c14       0x1a c:/_ndsdev/devkitpro/devkitarm/bin/../lib/gcc/arm-eabi/4.6.1/thumb\libgcc.a(_clzsi2.o)
 .ARM.attributes
                0x00001c2e       0x32 c:/_ndsdev/devkitpro/devkitarm/bin/../lib/gcc/arm-eabi/4.6.1/../../../../arm-eabi/lib/thumb\libg.a(lib_a-errno.o)
 .ARM.attributes
                0x00001c60       0x32 c:/_ndsdev/devkitpro/devkitarm/bin/../lib/gcc/arm-eabi/4.6.1/../../../../arm-eabi/lib/thumb\libg.a(lib_a-strnlen.o)
 .ARM.attributes
                0x00001c92       0x32 c:/_ndsdev/devkitpro/devkitarm/bin/../lib/gcc/arm-eabi/4.6.1/thumb/crtend.o
 .ARM.attributes
                0x00001cc4       0x18 c:/_ndsdev/devkitpro/devkitarm/bin/../lib/gcc/arm-eabi/4.6.1/thumb/crtn.o

.debug
 *(.debug)

.line
 *(.line)

.debug_srcinfo
 *(.debug_srcinfo)

.debug_sfnames
 *(.debug_sfnames)

.debug_aranges  0x00000000      0x688
 *(.debug_aranges)
 .debug_aranges
                0x00000000       0x28 main.o
 .debug_aranges
                0x00000028       0x20 croutine.o
 .debug_aranges
                0x00000048       0x20 heap.o
 .debug_aranges
                0x00000068       0x20 list.o
 .debug_aranges
                0x00000088       0x20 port.o
 .debug_aranges
                0x000000a8       0x20 portISR.o
 .debug_aranges
                0x000000c8       0x20 queue.o
 .debug_aranges
                0x000000e8       0x20 tasks.o
 .debug_aranges
                0x00000108       0x20 virtual_io.o
 .debug_aranges
                0x00000128       0x20 assemfunc.o
 .debug_aranges
                0x00000148       0x20 c:/_ndsdev/devkitPro/PAlib/lib\libpa9.a(PA.o)
 .debug_aranges
                0x00000168       0x20 c:/_ndsdev/devkitPro/PAlib/lib\libpa9.a(PA_BgEasy.o)
 .debug_aranges
                0x00000188       0x20 c:/_ndsdev/devkitPro/PAlib/lib\libpa9.a(PA_BgLargeMap.o)
 .debug_aranges
                0x000001a8       0x20 c:/_ndsdev/devkitPro/PAlib/lib\libpa9.a(PA_BgTiles.o)
 .debug_aranges
                0x000001c8       0x20 c:/_ndsdev/devkitPro/PAlib/lib\libpa9.a(PA_Error.o)
 .debug_aranges
                0x000001e8       0x20 c:/_ndsdev/devkitPro/PAlib/lib\libpa9.a(PA_Inits.o)
 .debug_aranges
                0x00000208       0x20 c:/_ndsdev/devkitPro/PAlib/lib\libpa9.a(PA_Interrupt.o)
 .debug_aranges
                0x00000228       0x20 c:/_ndsdev/devkitPro/PAlib/lib\libpa9.a(PA_Keys.o)
 .debug_aranges
                0x00000248       0x20 c:/_ndsdev/devkitPro/PAlib/lib\libpa9.a(PA_Math.o)
 .debug_aranges
                0x00000268       0x20 c:/_ndsdev/devkitPro/PAlib/lib\libpa9.a(PA_Palette.o)
 .debug_aranges
                0x00000288       0x20 c:/_ndsdev/devkitPro/PAlib/lib\libpa9.a(PA_RTC.o)
 .debug_aranges
                0x000002a8       0x20 c:/_ndsdev/devkitPro/PAlib/lib\libpa9.a(PA_Reco.o)
 .debug_aranges
                0x000002c8       0x20 c:/_ndsdev/devkitPro/PAlib/lib\libpa9.a(PA_Sprite.o)
 .debug_aranges
                0x000002e8       0x20 c:/_ndsdev/devkitPro/PAlib/lib\libpa9.a(PA_SpriteAnim.o)
 .debug_aranges
                0x00000308       0x20 c:/_ndsdev/devkitPro/PAlib/lib\libpa9.a(PA_Stuff.o)
 .debug_aranges
                0x00000328       0x20 c:/_ndsdev/devkitPro/PAlib/lib\libpa9.a(PA_Text.o)
 .debug_aranges
                0x00000348       0x20 c:/_ndsdev/devkitPro/PAlib/lib\libpa9.a(PA_TextBits.o)
 .debug_aranges
                0x00000368       0x20 c:/_ndsdev/devkitPro/PAlib/lib\libpa9.a(PA_Fifo.o)
 .debug_aranges
                0x00000388       0x20 c:/_ndsdev/devkitPro/PAlib/lib\libpa9.a(PA_NewBg.o)
 .debug_aranges
                0x000003a8       0x20 c:/_ndsdev/devkitPro/PAlib/lib\libpa9.a(PA_PaletteEx.o)
 .debug_aranges
                0x000003c8       0x20 c:/_ndsdev/devkitPro/PAlib/lib\libpa9.a(PA_Text8bit.o)
 .debug_aranges
                0x000003e8       0x20 c:/_ndsdev/devkitPro/PAlib/lib\libpa9.a(PA_16c.o)
 .debug_aranges
                0x00000408       0x20 c:/_ndsdev/devkitPro/PAlib/lib\libpa9.a(PA_BgRot.o)
 .debug_aranges
                0x00000428       0x20 c:/_ndsdev/devkitPro/PAlib/lib\libpa9.a(PA_Draw.o)
 .debug_aranges
                0x00000448       0x20 c:/_ndsdev/devkitPro/PAlib/lib\libpa9.a(PA_Keyboard.o)
 .debug_aranges
                0x00000468       0x20 c:/_ndsdev/devkitPro/libnds/lib\libnds9.a(background.o)
 .debug_aranges
                0x00000488       0x20 c:/_ndsdev/devkitPro/libnds/lib\libnds9.a(decompress.o)
 .debug_aranges
                0x000004a8       0x20 c:/_ndsdev/devkitPro/libnds/lib\libnds9.a(keys.o)
 .debug_aranges
                0x000004c8       0x20 c:/_ndsdev/devkitPro/libnds/lib\libnds9.a(system.o)
 .debug_aranges
                0x000004e8       0x20 c:/_ndsdev/devkitPro/libnds/lib\libnds9.a(touch.o)
 .debug_aranges
                0x00000508       0x20 c:/_ndsdev/devkitPro/libnds/lib\libnds9.a(trig.o)
 .debug_aranges
                0x00000528       0x20 c:/_ndsdev/devkitPro/libnds/lib\libnds9.a(video.o)
 .debug_aranges
                0x00000548       0x20 c:/_ndsdev/devkitPro/libnds/lib\libnds9.a(initSystem.o)
 .debug_aranges
                0x00000568       0x20 c:/_ndsdev/devkitPro/libnds/lib\libnds9.a(fifosystem.o)
 .debug_aranges
                0x00000588       0x20 c:/_ndsdev/devkitPro/libnds/lib\libnds9.a(interrupts.o)
 .debug_aranges
                0x000005a8       0x20 c:/_ndsdev/devkitPro/libnds/lib\libnds9.a(libnds_exit.o)
 .debug_aranges
                0x000005c8       0x20 c:/_ndsdev/devkitPro/libnds/lib\libnds9.a(syscalls.o)
 .debug_aranges
                0x000005e8       0x20 c:/_ndsdev/devkitPro/libnds/lib\libnds9.a(dcache.o)
 .debug_aranges
                0x00000608       0x20 c:/_ndsdev/devkitPro/libnds/lib\libnds9.a(mpu_setup.o)
 .debug_aranges
                0x00000628       0x20 c:/_ndsdev/devkitPro/libnds/lib\libnds9.a(biosCalls.o)
 .debug_aranges
                0x00000648       0x20 c:/_ndsdev/devkitPro/libnds/lib\libnds9.a(interruptDispatcher.o)
 .debug_aranges
                0x00000668       0x20 c:/_ndsdev/devkitPro/libnds/lib\libnds9.a(swiSoftReset.o)

.debug_pubnames
                0x00000000     0x1072
 *(.debug_pubnames)
 .debug_pubnames
                0x00000000       0xfe c:/_ndsdev/devkitPro/PAlib/lib\libpa9.a(PA.o)
 .debug_pubnames
                0x000000fe       0x68 c:/_ndsdev/devkitPro/PAlib/lib\libpa9.a(PA_BgEasy.o)
 .debug_pubnames
                0x00000166       0xdf c:/_ndsdev/devkitPro/PAlib/lib\libpa9.a(PA_BgLargeMap.o)
 .debug_pubnames
                0x00000245      0x12e c:/_ndsdev/devkitPro/PAlib/lib\libpa9.a(PA_BgTiles.o)
 .debug_pubnames
                0x00000373       0x2e c:/_ndsdev/devkitPro/PAlib/lib\libpa9.a(PA_Error.o)
 .debug_pubnames
                0x000003a1       0x39 c:/_ndsdev/devkitPro/PAlib/lib\libpa9.a(PA_Inits.o)
 .debug_pubnames
                0x000003da       0xa4 c:/_ndsdev/devkitPro/PAlib/lib\libpa9.a(PA_Interrupt.o)
 .debug_pubnames
                0x0000047e       0x47 c:/_ndsdev/devkitPro/PAlib/lib\libpa9.a(PA_Keys.o)
 .debug_pubnames
                0x000004c5       0x40 c:/_ndsdev/devkitPro/PAlib/lib\libpa9.a(PA_Math.o)
 .debug_pubnames
                0x00000505       0x76 c:/_ndsdev/devkitPro/PAlib/lib\libpa9.a(PA_Palette.o)
 .debug_pubnames
                0x0000057b       0x54 c:/_ndsdev/devkitPro/PAlib/lib\libpa9.a(PA_RTC.o)
 .debug_pubnames
                0x000005cf       0xd1 c:/_ndsdev/devkitPro/PAlib/lib\libpa9.a(PA_Reco.o)
 .debug_pubnames
                0x000006a0      0x1e9 c:/_ndsdev/devkitPro/PAlib/lib\libpa9.a(PA_Sprite.o)
 .debug_pubnames
                0x00000889       0x44 c:/_ndsdev/devkitPro/PAlib/lib\libpa9.a(PA_SpriteAnim.o)
 .debug_pubnames
                0x000008cd       0x34 c:/_ndsdev/devkitPro/PAlib/lib\libpa9.a(PA_Stuff.o)
 .debug_pubnames
                0x00000901      0x11c c:/_ndsdev/devkitPro/PAlib/lib\libpa9.a(PA_Text.o)
 .debug_pubnames
                0x00000a1d       0xc4 c:/_ndsdev/devkitPro/PAlib/lib\libpa9.a(PA_TextBits.o)
 .debug_pubnames
                0x00000ae1       0x23 c:/_ndsdev/devkitPro/PAlib/lib\libpa9.a(PA_TiledFont.o)
 .debug_pubnames
                0x00000b04       0x22 c:/_ndsdev/devkitPro/PAlib/lib\libpa9.a(PA_BmpFont0.o)
 .debug_pubnames
                0x00000b26       0x22 c:/_ndsdev/devkitPro/PAlib/lib\libpa9.a(PA_BmpFont1.o)
 .debug_pubnames
                0x00000b48       0x22 c:/_ndsdev/devkitPro/PAlib/lib\libpa9.a(PA_BmpFont2.o)
 .debug_pubnames
                0x00000b6a       0x22 c:/_ndsdev/devkitPro/PAlib/lib\libpa9.a(PA_BmpFont3.o)
 .debug_pubnames
                0x00000b8c       0x22 c:/_ndsdev/devkitPro/PAlib/lib\libpa9.a(PA_BmpFont4.o)
 .debug_pubnames
                0x00000bae       0x38 c:/_ndsdev/devkitPro/PAlib/lib\libpa9.a(PA_Fifo.o)
 .debug_pubnames
                0x00000be6       0x73 c:/_ndsdev/devkitPro/PAlib/lib\libpa9.a(PA_NewBg.o)
 .debug_pubnames
                0x00000c59       0x88 c:/_ndsdev/devkitPro/PAlib/lib\libpa9.a(PA_PaletteEx.o)
 .debug_pubnames
                0x00000ce1       0xb4 c:/_ndsdev/devkitPro/PAlib/lib\libpa9.a(PA_Text8bit.o)
 .debug_pubnames
                0x00000d95       0xb0 c:/_ndsdev/devkitPro/PAlib/lib\libpa9.a(PA_16c.o)
 .debug_pubnames
                0x00000e45       0x55 c:/_ndsdev/devkitPro/PAlib/lib\libpa9.a(PA_BgRot.o)
 .debug_pubnames
                0x00000e9a       0xa9 c:/_ndsdev/devkitPro/PAlib/lib\libpa9.a(PA_Draw.o)
 .debug_pubnames
                0x00000f43       0xc0 c:/_ndsdev/devkitPro/PAlib/lib\libpa9.a(PA_Keyboard.o)
 .debug_pubnames
                0x00001003       0x23 c:/_ndsdev/devkitPro/PAlib/lib\libpa9.a(keyboard.map.o)
 .debug_pubnames
                0x00001026       0x27 c:/_ndsdev/devkitPro/PAlib/lib\libpa9.a(keyboard.pal.o)
 .debug_pubnames
                0x0000104d       0x25 c:/_ndsdev/devkitPro/PAlib/lib\libpa9.a(keyboard.raw.o)

.debug_info     0x00000000    0x4ab1b
 *(.debug_info)
 .debug_info    0x00000000     0x7c84 main.o
 .debug_info    0x00007c84      0x4f2 croutine.o
 .debug_info    0x00008176       0xdc heap.o
 .debug_info    0x00008252      0x29b list.o
 .debug_info    0x000084ed      0x748 port.o
 .debug_info    0x00008c35       0xc3 portISR.o
 .debug_info    0x00008cf8      0x79c queue.o
 .debug_info    0x00009494     0x1068 tasks.o
 .debug_info    0x0000a4fc     0x11fd virtual_io.o
 .debug_info    0x0000b6f9       0xb3 assemfunc.o
 .debug_info    0x0000b7ac     0x2481 c:/_ndsdev/devkitPro/PAlib/lib\libpa9.a(PA.o)
 .debug_info    0x0000dc2d     0x240e c:/_ndsdev/devkitPro/PAlib/lib\libpa9.a(PA_BgEasy.o)
 .debug_info    0x0001003b     0x2d35 c:/_ndsdev/devkitPro/PAlib/lib\libpa9.a(PA_BgLargeMap.o)
 .debug_info    0x00012d70     0x25f9 c:/_ndsdev/devkitPro/PAlib/lib\libpa9.a(PA_BgTiles.o)
 .debug_info    0x00015369     0x1ec0 c:/_ndsdev/devkitPro/PAlib/lib\libpa9.a(PA_Error.o)
 .debug_info    0x00017229     0x27ab c:/_ndsdev/devkitPro/PAlib/lib\libpa9.a(PA_Inits.o)
 .debug_info    0x000199d4     0x20b0 c:/_ndsdev/devkitPro/PAlib/lib\libpa9.a(PA_Interrupt.o)
 .debug_info    0x0001ba84     0x2131 c:/_ndsdev/devkitPro/PAlib/lib\libpa9.a(PA_Keys.o)
 .debug_info    0x0001dbb5     0x20be c:/_ndsdev/devkitPro/PAlib/lib\libpa9.a(PA_Math.o)
 .debug_info    0x0001fc73     0x2476 c:/_ndsdev/devkitPro/PAlib/lib\libpa9.a(PA_Palette.o)
 .debug_info    0x000220e9     0x22dd c:/_ndsdev/devkitPro/PAlib/lib\libpa9.a(PA_RTC.o)
 .debug_info    0x000243c6     0x2417 c:/_ndsdev/devkitPro/PAlib/lib\libpa9.a(PA_Reco.o)
 .debug_info    0x000267dd     0x275a c:/_ndsdev/devkitPro/PAlib/lib\libpa9.a(PA_Sprite.o)
 .debug_info    0x00028f37     0x218a c:/_ndsdev/devkitPro/PAlib/lib\libpa9.a(PA_SpriteAnim.o)
 .debug_info    0x0002b0c1     0x2186 c:/_ndsdev/devkitPro/PAlib/lib\libpa9.a(PA_Stuff.o)
 .debug_info    0x0002d247     0x24a8 c:/_ndsdev/devkitPro/PAlib/lib\libpa9.a(PA_Text.o)
 .debug_info    0x0002f6ef     0x2430 c:/_ndsdev/devkitPro/PAlib/lib\libpa9.a(PA_TextBits.o)
 .debug_info    0x00031b1f      0x1c6 c:/_ndsdev/devkitPro/PAlib/lib\libpa9.a(PA_TiledFont.o)
 .debug_info    0x00031ce5      0x1c6 c:/_ndsdev/devkitPro/PAlib/lib\libpa9.a(PA_BmpFont0.o)
 .debug_info    0x00031eab      0x1c6 c:/_ndsdev/devkitPro/PAlib/lib\libpa9.a(PA_BmpFont1.o)
 .debug_info    0x00032071      0x1c6 c:/_ndsdev/devkitPro/PAlib/lib\libpa9.a(PA_BmpFont2.o)
 .debug_info    0x00032237      0x1c6 c:/_ndsdev/devkitPro/PAlib/lib\libpa9.a(PA_BmpFont3.o)
 .debug_info    0x000323fd      0x1c6 c:/_ndsdev/devkitPro/PAlib/lib\libpa9.a(PA_BmpFont4.o)
 .debug_info    0x000325c3     0x20fa c:/_ndsdev/devkitPro/PAlib/lib\libpa9.a(PA_Fifo.o)
 .debug_info    0x000346bd     0x28a8 c:/_ndsdev/devkitPro/PAlib/lib\libpa9.a(PA_NewBg.o)
 .debug_info    0x00036f65     0x2370 c:/_ndsdev/devkitPro/PAlib/lib\libpa9.a(PA_PaletteEx.o)
 .debug_info    0x000392d5     0x349e c:/_ndsdev/devkitPro/PAlib/lib\libpa9.a(PA_Text8bit.o)
 .debug_info    0x0003c773     0x2770 c:/_ndsdev/devkitPro/PAlib/lib\libpa9.a(PA_16c.o)
 .debug_info    0x0003eee3     0x2051 c:/_ndsdev/devkitPro/PAlib/lib\libpa9.a(PA_BgRot.o)
 .debug_info    0x00040f34     0x21fe c:/_ndsdev/devkitPro/PAlib/lib\libpa9.a(PA_Draw.o)
 .debug_info    0x00043132     0x24f4 c:/_ndsdev/devkitPro/PAlib/lib\libpa9.a(PA_Keyboard.o)
 .debug_info    0x00045626       0x54 c:/_ndsdev/devkitPro/PAlib/lib\libpa9.a(keyboard.map.o)
 .debug_info    0x0004567a       0x53 c:/_ndsdev/devkitPro/PAlib/lib\libpa9.a(keyboard.pal.o)
 .debug_info    0x000456cd       0x54 c:/_ndsdev/devkitPro/PAlib/lib\libpa9.a(keyboard.raw.o)
 .debug_info    0x00045721      0x8f0 c:/_ndsdev/devkitPro/libnds/lib\libnds9.a(background.o)
 .debug_info    0x00046011      0x316 c:/_ndsdev/devkitPro/libnds/lib\libnds9.a(decompress.o)
 .debug_info    0x00046327      0x3d0 c:/_ndsdev/devkitPro/libnds/lib\libnds9.a(keys.o)
 .debug_info    0x000466f7      0x6db c:/_ndsdev/devkitPro/libnds/lib\libnds9.a(system.o)
 .debug_info    0x00046dd2      0x2cd c:/_ndsdev/devkitPro/libnds/lib\libnds9.a(touch.o)
 .debug_info    0x0004709f      0x4c4 c:/_ndsdev/devkitPro/libnds/lib\libnds9.a(trig.o)
 .debug_info    0x00047563      0x70f c:/_ndsdev/devkitPro/libnds/lib\libnds9.a(video.o)
 .debug_info    0x00047c72      0xeb7 c:/_ndsdev/devkitPro/libnds/lib\libnds9.a(initSystem.o)
 .debug_info    0x00048b29     0x11c9 c:/_ndsdev/devkitPro/libnds/lib\libnds9.a(fifosystem.o)
 .debug_info    0x00049cf2      0x5c9 c:/_ndsdev/devkitPro/libnds/lib\libnds9.a(interrupts.o)
 .debug_info    0x0004a2bb      0x2a6 c:/_ndsdev/devkitPro/libnds/lib\libnds9.a(libnds_exit.o)
 .debug_info    0x0004a561      0x1f2 c:/_ndsdev/devkitPro/libnds/lib\libnds9.a(syscalls.o)
 .debug_info    0x0004a753       0xba c:/_ndsdev/devkitPro/libnds/lib\libnds9.a(dcache.o)
 .debug_info    0x0004a80d       0xc4 c:/_ndsdev/devkitPro/libnds/lib\libnds9.a(mpu_setup.o)
 .debug_info    0x0004a8d1       0xbf c:/_ndsdev/devkitPro/libnds/lib\libnds9.a(biosCalls.o)
 .debug_info    0x0004a990       0xc9 c:/_ndsdev/devkitPro/libnds/lib\libnds9.a(interruptDispatcher.o)
 .debug_info    0x0004aa59       0xc2 c:/_ndsdev/devkitPro/libnds/lib\libnds9.a(swiSoftReset.o)

.debug_abbrev   0x00000000     0x7470
 *(.debug_abbrev)
 .debug_abbrev  0x00000000      0x54b main.o
 .debug_abbrev  0x0000054b      0x1eb croutine.o
 .debug_abbrev  0x00000736       0x97 heap.o
 .debug_abbrev  0x000007cd       0xe9 list.o
 .debug_abbrev  0x000008b6      0x1aa port.o
 .debug_abbrev  0x00000a60       0x7b portISR.o
 .debug_abbrev  0x00000adb      0x1c4 queue.o
 .debug_abbrev  0x00000c9f      0x2d9 tasks.o
 .debug_abbrev  0x00000f78      0x39f virtual_io.o
 .debug_abbrev  0x00001317       0x14 assemfunc.o
 .debug_abbrev  0x0000132b      0x27d c:/_ndsdev/devkitPro/PAlib/lib\libpa9.a(PA.o)
 .debug_abbrev  0x000015a8      0x325 c:/_ndsdev/devkitPro/PAlib/lib\libpa9.a(PA_BgEasy.o)
 .debug_abbrev  0x000018cd      0x340 c:/_ndsdev/devkitPro/PAlib/lib\libpa9.a(PA_BgLargeMap.o)
 .debug_abbrev  0x00001c0d      0x314 c:/_ndsdev/devkitPro/PAlib/lib\libpa9.a(PA_BgTiles.o)
 .debug_abbrev  0x00001f21      0x1e6 c:/_ndsdev/devkitPro/PAlib/lib\libpa9.a(PA_Error.o)
 .debug_abbrev  0x00002107      0x316 c:/_ndsdev/devkitPro/PAlib/lib\libpa9.a(PA_Inits.o)
 .debug_abbrev  0x0000241d      0x23f c:/_ndsdev/devkitPro/PAlib/lib\libpa9.a(PA_Interrupt.o)
 .debug_abbrev  0x0000265c      0x224 c:/_ndsdev/devkitPro/PAlib/lib\libpa9.a(PA_Keys.o)
 .debug_abbrev  0x00002880      0x292 c:/_ndsdev/devkitPro/PAlib/lib\libpa9.a(PA_Math.o)
 .debug_abbrev  0x00002b12      0x2ba c:/_ndsdev/devkitPro/PAlib/lib\libpa9.a(PA_Palette.o)
 .debug_abbrev  0x00002dcc      0x239 c:/_ndsdev/devkitPro/PAlib/lib\libpa9.a(PA_RTC.o)
 .debug_abbrev  0x00003005      0x30a c:/_ndsdev/devkitPro/PAlib/lib\libpa9.a(PA_Reco.o)
 .debug_abbrev  0x0000330f      0x3b1 c:/_ndsdev/devkitPro/PAlib/lib\libpa9.a(PA_Sprite.o)
 .debug_abbrev  0x000036c0      0x2ca c:/_ndsdev/devkitPro/PAlib/lib\libpa9.a(PA_SpriteAnim.o)
 .debug_abbrev  0x0000398a      0x248 c:/_ndsdev/devkitPro/PAlib/lib\libpa9.a(PA_Stuff.o)
 .debug_abbrev  0x00003bd2      0x363 c:/_ndsdev/devkitPro/PAlib/lib\libpa9.a(PA_Text.o)
 .debug_abbrev  0x00003f35      0x2b0 c:/_ndsdev/devkitPro/PAlib/lib\libpa9.a(PA_TextBits.o)
 .debug_abbrev  0x000041e5       0xcf c:/_ndsdev/devkitPro/PAlib/lib\libpa9.a(PA_TiledFont.o)
 .debug_abbrev  0x000042b4       0xcf c:/_ndsdev/devkitPro/PAlib/lib\libpa9.a(PA_BmpFont0.o)
 .debug_abbrev  0x00004383       0xcf c:/_ndsdev/devkitPro/PAlib/lib\libpa9.a(PA_BmpFont1.o)
 .debug_abbrev  0x00004452       0xcf c:/_ndsdev/devkitPro/PAlib/lib\libpa9.a(PA_BmpFont2.o)
 .debug_abbrev  0x00004521       0xcf c:/_ndsdev/devkitPro/PAlib/lib\libpa9.a(PA_BmpFont3.o)
 .debug_abbrev  0x000045f0       0xcf c:/_ndsdev/devkitPro/PAlib/lib\libpa9.a(PA_BmpFont4.o)
 .debug_abbrev  0x000046bf      0x211 c:/_ndsdev/devkitPro/PAlib/lib\libpa9.a(PA_Fifo.o)
 .debug_abbrev  0x000048d0      0x350 c:/_ndsdev/devkitPro/PAlib/lib\libpa9.a(PA_NewBg.o)
 .debug_abbrev  0x00004c20      0x29b c:/_ndsdev/devkitPro/PAlib/lib\libpa9.a(PA_PaletteEx.o)
 .debug_abbrev  0x00004ebb      0x34b c:/_ndsdev/devkitPro/PAlib/lib\libpa9.a(PA_Text8bit.o)
 .debug_abbrev  0x00005206      0x374 c:/_ndsdev/devkitPro/PAlib/lib\libpa9.a(PA_16c.o)
 .debug_abbrev  0x0000557a      0x252 c:/_ndsdev/devkitPro/PAlib/lib\libpa9.a(PA_BgRot.o)
 .debug_abbrev  0x000057cc      0x270 c:/_ndsdev/devkitPro/PAlib/lib\libpa9.a(PA_Draw.o)
 .debug_abbrev  0x00005a3c      0x33d c:/_ndsdev/devkitPro/PAlib/lib\libpa9.a(PA_Keyboard.o)
 .debug_abbrev  0x00005d79       0x50 c:/_ndsdev/devkitPro/PAlib/lib\libpa9.a(keyboard.map.o)
 .debug_abbrev  0x00005dc9       0x50 c:/_ndsdev/devkitPro/PAlib/lib\libpa9.a(keyboard.pal.o)
 .debug_abbrev  0x00005e19       0x50 c:/_ndsdev/devkitPro/PAlib/lib\libpa9.a(keyboard.raw.o)
 .debug_abbrev  0x00005e69      0x278 c:/_ndsdev/devkitPro/libnds/lib\libnds9.a(background.o)
 .debug_abbrev  0x000060e1      0x143 c:/_ndsdev/devkitPro/libnds/lib\libnds9.a(decompress.o)
 .debug_abbrev  0x00006224      0x176 c:/_ndsdev/devkitPro/libnds/lib\libnds9.a(keys.o)
 .debug_abbrev  0x0000639a      0x19a c:/_ndsdev/devkitPro/libnds/lib\libnds9.a(system.o)
 .debug_abbrev  0x00006534      0x11e c:/_ndsdev/devkitPro/libnds/lib\libnds9.a(touch.o)
 .debug_abbrev  0x00006652      0x1ac c:/_ndsdev/devkitPro/libnds/lib\libnds9.a(trig.o)
 .debug_abbrev  0x000067fe      0x1fa c:/_ndsdev/devkitPro/libnds/lib\libnds9.a(video.o)
 .debug_abbrev  0x000069f8      0x242 c:/_ndsdev/devkitPro/libnds/lib\libnds9.a(initSystem.o)
 .debug_abbrev  0x00006c3a      0x3c8 c:/_ndsdev/devkitPro/libnds/lib\libnds9.a(fifosystem.o)
 .debug_abbrev  0x00007002      0x21e c:/_ndsdev/devkitPro/libnds/lib\libnds9.a(interrupts.o)
 .debug_abbrev  0x00007220      0x131 c:/_ndsdev/devkitPro/libnds/lib\libnds9.a(libnds_exit.o)
 .debug_abbrev  0x00007351       0xbb c:/_ndsdev/devkitPro/libnds/lib\libnds9.a(syscalls.o)
 .debug_abbrev  0x0000740c       0x14 c:/_ndsdev/devkitPro/libnds/lib\libnds9.a(dcache.o)
 .debug_abbrev  0x00007420       0x14 c:/_ndsdev/devkitPro/libnds/lib\libnds9.a(mpu_setup.o)
 .debug_abbrev  0x00007434       0x14 c:/_ndsdev/devkitPro/libnds/lib\libnds9.a(biosCalls.o)
 .debug_abbrev  0x00007448       0x14 c:/_ndsdev/devkitPro/libnds/lib\libnds9.a(interruptDispatcher.o)
 .debug_abbrev  0x0000745c       0x14 c:/_ndsdev/devkitPro/libnds/lib\libnds9.a(swiSoftReset.o)

.debug_line     0x00000000     0xee5a
 *(.debug_line)
 .debug_line    0x00000000     0x23de main.o
 .debug_line    0x000023de      0x1ca croutine.o
 .debug_line    0x000025a8       0xdb heap.o
 .debug_line    0x00002683      0x117 list.o
 .debug_line    0x0000279a      0x202 port.o
 .debug_line    0x0000299c       0x91 portISR.o
 .debug_line    0x00002a2d      0x358 queue.o
 .debug_line    0x00002d85      0x5ee tasks.o
 .debug_line    0x00003373      0x3c1 virtual_io.o
 .debug_line    0x00003734       0xb2 assemfunc.o
 .debug_line    0x000037e6      0x41c c:/_ndsdev/devkitPro/PAlib/lib\libpa9.a(PA.o)
 .debug_line    0x00003c02      0x4eb c:/_ndsdev/devkitPro/PAlib/lib\libpa9.a(PA_BgEasy.o)
 .debug_line    0x000040ed      0xcaf c:/_ndsdev/devkitPro/PAlib/lib\libpa9.a(PA_BgLargeMap.o)
 .debug_line    0x00004d9c      0x6df c:/_ndsdev/devkitPro/PAlib/lib\libpa9.a(PA_BgTiles.o)
 .debug_line    0x0000547b      0x390 c:/_ndsdev/devkitPro/PAlib/lib\libpa9.a(PA_Error.o)
 .debug_line    0x0000580b      0x4e5 c:/_ndsdev/devkitPro/PAlib/lib\libpa9.a(PA_Inits.o)
 .debug_line    0x00005cf0      0x3f2 c:/_ndsdev/devkitPro/PAlib/lib\libpa9.a(PA_Interrupt.o)
 .debug_line    0x000060e2      0x40f c:/_ndsdev/devkitPro/PAlib/lib\libpa9.a(PA_Keys.o)
 .debug_line    0x000064f1      0x45d c:/_ndsdev/devkitPro/PAlib/lib\libpa9.a(PA_Math.o)
 .debug_line    0x0000694e      0x5ca c:/_ndsdev/devkitPro/PAlib/lib\libpa9.a(PA_Palette.o)
 .debug_line    0x00006f18      0x40d c:/_ndsdev/devkitPro/PAlib/lib\libpa9.a(PA_RTC.o)
 .debug_line    0x00007325      0x567 c:/_ndsdev/devkitPro/PAlib/lib\libpa9.a(PA_Reco.o)
 .debug_line    0x0000788c      0x74e c:/_ndsdev/devkitPro/PAlib/lib\libpa9.a(PA_Sprite.o)
 .debug_line    0x00007fda      0x522 c:/_ndsdev/devkitPro/PAlib/lib\libpa9.a(PA_SpriteAnim.o)
 .debug_line    0x000084fc      0x401 c:/_ndsdev/devkitPro/PAlib/lib\libpa9.a(PA_Stuff.o)
 .debug_line    0x000088fd      0x73b c:/_ndsdev/devkitPro/PAlib/lib\libpa9.a(PA_Text.o)
 .debug_line    0x00009038      0x532 c:/_ndsdev/devkitPro/PAlib/lib\libpa9.a(PA_TextBits.o)
 .debug_line    0x0000956a       0xee c:/_ndsdev/devkitPro/PAlib/lib\libpa9.a(PA_TiledFont.o)
 .debug_line    0x00009658       0xee c:/_ndsdev/devkitPro/PAlib/lib\libpa9.a(PA_BmpFont0.o)
 .debug_line    0x00009746       0xee c:/_ndsdev/devkitPro/PAlib/lib\libpa9.a(PA_BmpFont1.o)
 .debug_line    0x00009834       0xee c:/_ndsdev/devkitPro/PAlib/lib\libpa9.a(PA_BmpFont2.o)
 .debug_line    0x00009922       0xee c:/_ndsdev/devkitPro/PAlib/lib\libpa9.a(PA_BmpFont3.o)
 .debug_line    0x00009a10       0xee c:/_ndsdev/devkitPro/PAlib/lib\libpa9.a(PA_BmpFont4.o)
 .debug_line    0x00009afe      0x42d c:/_ndsdev/devkitPro/PAlib/lib\libpa9.a(PA_Fifo.o)
 .debug_line    0x00009f2b      0x6b1 c:/_ndsdev/devkitPro/PAlib/lib\libpa9.a(PA_NewBg.o)
 .debug_line    0x0000a5dc      0x4b2 c:/_ndsdev/devkitPro/PAlib/lib\libpa9.a(PA_PaletteEx.o)
 .debug_line    0x0000aa8e      0xa84 c:/_ndsdev/devkitPro/PAlib/lib\libpa9.a(PA_Text8bit.o)
 .debug_line    0x0000b512      0x5d8 c:/_ndsdev/devkitPro/PAlib/lib\libpa9.a(PA_16c.o)
 .debug_line    0x0000baea      0x422 c:/_ndsdev/devkitPro/PAlib/lib\libpa9.a(PA_BgRot.o)
 .debug_line    0x0000bf0c      0x50e c:/_ndsdev/devkitPro/PAlib/lib\libpa9.a(PA_Draw.o)
 .debug_line    0x0000c41a      0x64d c:/_ndsdev/devkitPro/PAlib/lib\libpa9.a(PA_Keyboard.o)
 .debug_line    0x0000ca67       0x55 c:/_ndsdev/devkitPro/PAlib/lib\libpa9.a(keyboard.map.o)
 .debug_line    0x0000cabc       0x55 c:/_ndsdev/devkitPro/PAlib/lib\libpa9.a(keyboard.pal.o)
 .debug_line    0x0000cb11       0x55 c:/_ndsdev/devkitPro/PAlib/lib\libpa9.a(keyboard.raw.o)
 .debug_line    0x0000cb66      0x2af c:/_ndsdev/devkitPro/libnds/lib\libnds9.a(background.o)
 .debug_line    0x0000ce15      0x1c6 c:/_ndsdev/devkitPro/libnds/lib\libnds9.a(decompress.o)
 .debug_line    0x0000cfdb      0x242 c:/_ndsdev/devkitPro/libnds/lib\libnds9.a(keys.o)
 .debug_line    0x0000d21d      0x25c c:/_ndsdev/devkitPro/libnds/lib\libnds9.a(system.o)
 .debug_line    0x0000d479      0x21e c:/_ndsdev/devkitPro/libnds/lib\libnds9.a(touch.o)
 .debug_line    0x0000d697      0x23d c:/_ndsdev/devkitPro/libnds/lib\libnds9.a(trig.o)
 .debug_line    0x0000d8d4      0x23c c:/_ndsdev/devkitPro/libnds/lib\libnds9.a(video.o)
 .debug_line    0x0000db10      0x355 c:/_ndsdev/devkitPro/libnds/lib\libnds9.a(initSystem.o)
 .debug_line    0x0000de65      0x719 c:/_ndsdev/devkitPro/libnds/lib\libnds9.a(fifosystem.o)
 .debug_line    0x0000e57e      0x238 c:/_ndsdev/devkitPro/libnds/lib\libnds9.a(interrupts.o)
 .debug_line    0x0000e7b6      0x1ca c:/_ndsdev/devkitPro/libnds/lib\libnds9.a(libnds_exit.o)
 .debug_line    0x0000e980      0x141 c:/_ndsdev/devkitPro/libnds/lib\libnds9.a(syscalls.o)
 .debug_line    0x0000eac1       0xa2 c:/_ndsdev/devkitPro/libnds/lib\libnds9.a(dcache.o)
 .debug_line    0x0000eb63       0xe1 c:/_ndsdev/devkitPro/libnds/lib\libnds9.a(mpu_setup.o)
 .debug_line    0x0000ec44       0xc3 c:/_ndsdev/devkitPro/libnds/lib\libnds9.a(biosCalls.o)
 .debug_line    0x0000ed07       0xc2 c:/_ndsdev/devkitPro/libnds/lib\libnds9.a(interruptDispatcher.o)
 .debug_line    0x0000edc9       0x91 c:/_ndsdev/devkitPro/libnds/lib\libnds9.a(swiSoftReset.o)

.debug_frame    0x00000000     0x22a8
 *(.debug_frame)
 .debug_frame   0x00000000      0x398 main.o
 .debug_frame   0x00000398       0x90 croutine.o
 .debug_frame   0x00000428       0x40 heap.o
 .debug_frame   0x00000468       0x70 list.o
 .debug_frame   0x000004d8       0x48 port.o
 .debug_frame   0x00000520       0x68 portISR.o
 .debug_frame   0x00000588      0x188 queue.o
 .debug_frame   0x00000710      0x364 tasks.o
 .debug_frame   0x00000a74      0x128 virtual_io.o
 .debug_frame   0x00000b9c       0x54 c:/_ndsdev/devkitPro/PAlib/lib\libpa9.a(PA.o)
 .debug_frame   0x00000bf0       0xa4 c:/_ndsdev/devkitPro/PAlib/lib\libpa9.a(PA_BgEasy.o)
 .debug_frame   0x00000c94      0x18c c:/_ndsdev/devkitPro/PAlib/lib\libpa9.a(PA_BgLargeMap.o)
 .debug_frame   0x00000e20      0x124 c:/_ndsdev/devkitPro/PAlib/lib\libpa9.a(PA_BgTiles.o)
 .debug_frame   0x00000f44       0x48 c:/_ndsdev/devkitPro/PAlib/lib\libpa9.a(PA_Error.o)
 .debug_frame   0x00000f8c       0x54 c:/_ndsdev/devkitPro/PAlib/lib\libpa9.a(PA_Inits.o)
 .debug_frame   0x00000fe0       0x44 c:/_ndsdev/devkitPro/PAlib/lib\libpa9.a(PA_Interrupt.o)
 .debug_frame   0x00001024       0x5c c:/_ndsdev/devkitPro/PAlib/lib\libpa9.a(PA_Keys.o)
 .debug_frame   0x00001080       0x3c c:/_ndsdev/devkitPro/PAlib/lib\libpa9.a(PA_Math.o)
 .debug_frame   0x000010bc       0x70 c:/_ndsdev/devkitPro/PAlib/lib\libpa9.a(PA_Palette.o)
 .debug_frame   0x0000112c       0x44 c:/_ndsdev/devkitPro/PAlib/lib\libpa9.a(PA_RTC.o)
 .debug_frame   0x00001170       0x84 c:/_ndsdev/devkitPro/PAlib/lib\libpa9.a(PA_Reco.o)
 .debug_frame   0x000011f4      0x144 c:/_ndsdev/devkitPro/PAlib/lib\libpa9.a(PA_Sprite.o)
 .debug_frame   0x00001338       0x68 c:/_ndsdev/devkitPro/PAlib/lib\libpa9.a(PA_SpriteAnim.o)
 .debug_frame   0x000013a0       0x54 c:/_ndsdev/devkitPro/PAlib/lib\libpa9.a(PA_Stuff.o)
 .debug_frame   0x000013f4       0xe0 c:/_ndsdev/devkitPro/PAlib/lib\libpa9.a(PA_Text.o)
 .debug_frame   0x000014d4       0x64 c:/_ndsdev/devkitPro/PAlib/lib\libpa9.a(PA_TextBits.o)
 .debug_frame   0x00001538       0x44 c:/_ndsdev/devkitPro/PAlib/lib\libpa9.a(PA_Fifo.o)
 .debug_frame   0x0000157c       0xc8 c:/_ndsdev/devkitPro/PAlib/lib\libpa9.a(PA_NewBg.o)
 .debug_frame   0x00001644       0xa8 c:/_ndsdev/devkitPro/PAlib/lib\libpa9.a(PA_PaletteEx.o)
 .debug_frame   0x000016ec      0x150 c:/_ndsdev/devkitPro/PAlib/lib\libpa9.a(PA_Text8bit.o)
 .debug_frame   0x0000183c       0xe8 c:/_ndsdev/devkitPro/PAlib/lib\libpa9.a(PA_16c.o)
 .debug_frame   0x00001924       0x3c c:/_ndsdev/devkitPro/PAlib/lib\libpa9.a(PA_BgRot.o)
 .debug_frame   0x00001960       0x3c c:/_ndsdev/devkitPro/PAlib/lib\libpa9.a(PA_Draw.o)
 .debug_frame   0x0000199c       0xe0 c:/_ndsdev/devkitPro/PAlib/lib\libpa9.a(PA_Keyboard.o)
 .debug_frame   0x00001a7c       0xa4 c:/_ndsdev/devkitPro/libnds/lib\libnds9.a(background.o)
 .debug_frame   0x00001b20       0x64 c:/_ndsdev/devkitPro/libnds/lib\libnds9.a(decompress.o)
 .debug_frame   0x00001b84       0x8c c:/_ndsdev/devkitPro/libnds/lib\libnds9.a(keys.o)
 .debug_frame   0x00001c10       0xb8 c:/_ndsdev/devkitPro/libnds/lib\libnds9.a(system.o)
 .debug_frame   0x00001cc8       0x44 c:/_ndsdev/devkitPro/libnds/lib\libnds9.a(touch.o)
 .debug_frame   0x00001d0c       0xf4 c:/_ndsdev/devkitPro/libnds/lib\libnds9.a(trig.o)
 .debug_frame   0x00001e00       0xc4 c:/_ndsdev/devkitPro/libnds/lib\libnds9.a(video.o)
 .debug_frame   0x00001ec4       0x28 c:/_ndsdev/devkitPro/libnds/lib\libnds9.a(initSystem.o)
 .debug_frame   0x00001eec      0x2a4 c:/_ndsdev/devkitPro/libnds/lib\libnds9.a(fifosystem.o)
 .debug_frame   0x00002190       0xb8 c:/_ndsdev/devkitPro/libnds/lib\libnds9.a(interrupts.o)
 .debug_frame   0x00002248       0x38 c:/_ndsdev/devkitPro/libnds/lib\libnds9.a(libnds_exit.o)
 .debug_frame   0x00002280       0x28 c:/_ndsdev/devkitPro/libnds/lib\libnds9.a(syscalls.o)

.debug_str      0x00000000     0x696a
 *(.debug_str)
 .debug_str     0x00000000     0x157c main.o
                               0x1721 (size before relaxing)
 .debug_str     0x0000157c      0x37c croutine.o
                                0x3dd (size before relaxing)
 .debug_str     0x000018f8       0x7b heap.o
                                0x110 (size before relaxing)
 .debug_str     0x00001973       0xdb list.o
                                0x20e (size before relaxing)
 .debug_str     0x00001a4e      0x1ed port.o
                                0x569 (size before relaxing)
 .debug_str     0x00001c3b       0xad portISR.o
                                0x100 (size before relaxing)
 .debug_str     0x00001ce8      0x340 queue.o
                                0x498 (size before relaxing)
 .debug_str     0x00002028      0x722 tasks.o
                                0x985 (size before relaxing)
 .debug_str     0x0000274a      0x8ee virtual_io.o
                                0xd83 (size before relaxing)
 .debug_str     0x00003038      0x322 c:/_ndsdev/devkitPro/PAlib/lib\libpa9.a(PA.o)
                               0x1156 (size before relaxing)
 .debug_str     0x0000335a       0x9e c:/_ndsdev/devkitPro/PAlib/lib\libpa9.a(PA_BgEasy.o)
                                0xd74 (size before relaxing)
 .debug_str     0x000033f8      0x181 c:/_ndsdev/devkitPro/PAlib/lib\libpa9.a(PA_BgLargeMap.o)
                                0xe09 (size before relaxing)
 .debug_str     0x00003579      0x140 c:/_ndsdev/devkitPro/PAlib/lib\libpa9.a(PA_BgTiles.o)
                                0xfe6 (size before relaxing)
 .debug_str     0x000036b9       0x5d c:/_ndsdev/devkitPro/PAlib/lib\libpa9.a(PA_Error.o)
                                0xcb5 (size before relaxing)
 .debug_str     0x00003716      0x532 c:/_ndsdev/devkitPro/PAlib/lib\libpa9.a(PA_Inits.o)
                               0x1707 (size before relaxing)
 .debug_str     0x00003c48       0x63 c:/_ndsdev/devkitPro/PAlib/lib\libpa9.a(PA_Interrupt.o)
                                0xdf9 (size before relaxing)
 .debug_str     0x00003cab       0x67 c:/_ndsdev/devkitPro/PAlib/lib\libpa9.a(PA_Keys.o)
                                0xe45 (size before relaxing)
 .debug_str     0x00003d12       0x8f c:/_ndsdev/devkitPro/PAlib/lib\libpa9.a(PA_Math.o)
                                0xda7 (size before relaxing)
 .debug_str     0x00003da1      0x359 c:/_ndsdev/devkitPro/PAlib/lib\libpa9.a(PA_Palette.o)
                               0x10d0 (size before relaxing)
 .debug_str     0x000040fa      0x1c2 c:/_ndsdev/devkitPro/PAlib/lib\libpa9.a(PA_RTC.o)
                                0xf4f (size before relaxing)
 .debug_str     0x000042bc      0x14b c:/_ndsdev/devkitPro/PAlib/lib\libpa9.a(PA_Reco.o)
                                0xea8 (size before relaxing)
 .debug_str     0x00004407      0x1b9 c:/_ndsdev/devkitPro/PAlib/lib\libpa9.a(PA_Sprite.o)
                                0xfdb (size before relaxing)
 .debug_str     0x000045c0       0x6e c:/_ndsdev/devkitPro/PAlib/lib\libpa9.a(PA_SpriteAnim.o)
                                0xd5b (size before relaxing)
 .debug_str     0x0000462e      0x17a c:/_ndsdev/devkitPro/PAlib/lib\libpa9.a(PA_Stuff.o)
                                0xe11 (size before relaxing)
 .debug_str     0x000047a8      0x137 c:/_ndsdev/devkitPro/PAlib/lib\libpa9.a(PA_Text.o)
                                0xf3f (size before relaxing)
 .debug_str     0x000048df      0x1e6 c:/_ndsdev/devkitPro/PAlib/lib\libpa9.a(PA_TextBits.o)
                                0xf39 (size before relaxing)
 .debug_str     0x00004ac5       0xa3 c:/_ndsdev/devkitPro/PAlib/lib\libpa9.a(PA_TiledFont.o)
                                0x16f (size before relaxing)
 .debug_str     0x00004b68       0x43 c:/_ndsdev/devkitPro/PAlib/lib\libpa9.a(PA_BmpFont0.o)
                                0x16d (size before relaxing)
 .debug_str     0x00004bab       0x43 c:/_ndsdev/devkitPro/PAlib/lib\libpa9.a(PA_BmpFont1.o)
                                0x16d (size before relaxing)
 .debug_str     0x00004bee       0x43 c:/_ndsdev/devkitPro/PAlib/lib\libpa9.a(PA_BmpFont2.o)
                                0x16d (size before relaxing)
 .debug_str     0x00004c31       0x43 c:/_ndsdev/devkitPro/PAlib/lib\libpa9.a(PA_BmpFont3.o)
                                0x16d (size before relaxing)
 .debug_str     0x00004c74       0x43 c:/_ndsdev/devkitPro/PAlib/lib\libpa9.a(PA_BmpFont4.o)
                                0x16d (size before relaxing)
 .debug_str     0x00004cb7      0x11e c:/_ndsdev/devkitPro/PAlib/lib\libpa9.a(PA_Fifo.o)
                                0xe45 (size before relaxing)
 .debug_str     0x00004dd5      0x101 c:/_ndsdev/devkitPro/PAlib/lib\libpa9.a(PA_NewBg.o)
                                0xeee (size before relaxing)
 .debug_str     0x00004ed6      0x26f c:/_ndsdev/devkitPro/PAlib/lib\libpa9.a(PA_PaletteEx.o)
                               0x11b1 (size before relaxing)
 .debug_str     0x00005145      0x119 c:/_ndsdev/devkitPro/PAlib/lib\libpa9.a(PA_Text8bit.o)
                                0xf2f (size before relaxing)
 .debug_str     0x0000525e       0xe1 c:/_ndsdev/devkitPro/PAlib/lib\libpa9.a(PA_16c.o)
                                0xf67 (size before relaxing)
 .debug_str     0x0000533f       0x59 c:/_ndsdev/devkitPro/PAlib/lib\libpa9.a(PA_BgRot.o)
                                0xdd6 (size before relaxing)
 .debug_str     0x00005398      0x15f c:/_ndsdev/devkitPro/PAlib/lib\libpa9.a(PA_Draw.o)
                                0xe94 (size before relaxing)
 .debug_str     0x000054f7      0x115 c:/_ndsdev/devkitPro/PAlib/lib\libpa9.a(PA_Keyboard.o)
                                0xeba (size before relaxing)
 .debug_str     0x0000560c       0x35 c:/_ndsdev/devkitPro/PAlib/lib\libpa9.a(keyboard.map.o)
                                 0x61 (size before relaxing)
 .debug_str     0x00005641       0x35 c:/_ndsdev/devkitPro/PAlib/lib\libpa9.a(keyboard.pal.o)
                                 0x65 (size before relaxing)
 .debug_str     0x00005676       0x35 c:/_ndsdev/devkitPro/PAlib/lib\libpa9.a(keyboard.raw.o)
                                 0x5e (size before relaxing)
 .debug_str     0x000056ab      0x2c5 c:/_ndsdev/devkitPro/libnds/lib\libnds9.a(background.o)
                                0x66e (size before relaxing)
 .debug_str     0x00005970      0x125 c:/_ndsdev/devkitPro/libnds/lib\libnds9.a(decompress.o)
                                0x213 (size before relaxing)
 .debug_str     0x00005a95      0x16a c:/_ndsdev/devkitPro/libnds/lib\libnds9.a(keys.o)
                                0x2da (size before relaxing)
 .debug_str     0x00005bff      0x23c c:/_ndsdev/devkitPro/libnds/lib\libnds9.a(system.o)
                                0x506 (size before relaxing)
 .debug_str     0x00005e3b       0x70 c:/_ndsdev/devkitPro/libnds/lib\libnds9.a(touch.o)
                                0x1f6 (size before relaxing)
 .debug_str     0x00005eab       0xe3 c:/_ndsdev/devkitPro/libnds/lib\libnds9.a(trig.o)
                                0x1d1 (size before relaxing)
 .debug_str     0x00005f8e      0x1cc c:/_ndsdev/devkitPro/libnds/lib\libnds9.a(video.o)
                                0xb35 (size before relaxing)
 .debug_str     0x0000615a       0xb3 c:/_ndsdev/devkitPro/libnds/lib\libnds9.a(initSystem.o)
                                0x94f (size before relaxing)
 .debug_str     0x0000620d      0x528 c:/_ndsdev/devkitPro/libnds/lib\libnds9.a(fifosystem.o)
                                0x740 (size before relaxing)
 .debug_str     0x00006735      0x126 c:/_ndsdev/devkitPro/libnds/lib\libnds9.a(interrupts.o)
                                0x379 (size before relaxing)
 .debug_str     0x0000685b       0x86 c:/_ndsdev/devkitPro/libnds/lib\libnds9.a(libnds_exit.o)
                                0x296 (size before relaxing)
 .debug_str     0x000068e1       0x89 c:/_ndsdev/devkitPro/libnds/lib\libnds9.a(syscalls.o)
                                0x1bb (size before relaxing)

.debug_loc      0x00000000    0x1299c
 *(.debug_loc)
 .debug_loc     0x00000000     0x4da7 main.o
 .debug_loc     0x00004da7      0x2aa croutine.o
 .debug_loc     0x00005051       0xa5 heap.o
 .debug_loc     0x000050f6       0x88 list.o
 .debug_loc     0x0000517e      0x19b port.o
 .debug_loc     0x00005319       0x60 portISR.o
 .debug_loc     0x00005379      0x80e queue.o
 .debug_loc     0x00005b87      0xea4 tasks.o
 .debug_loc     0x00006a2b      0x4fb virtual_io.o
 .debug_loc     0x00006f26       0xa0 c:/_ndsdev/devkitPro/PAlib/lib\libpa9.a(PA.o)
 .debug_loc     0x00006fc6      0x57d c:/_ndsdev/devkitPro/PAlib/lib\libpa9.a(PA_BgEasy.o)
 .debug_loc     0x00007543     0x1617 c:/_ndsdev/devkitPro/PAlib/lib\libpa9.a(PA_BgLargeMap.o)
 .debug_loc     0x00008b5a      0x88e c:/_ndsdev/devkitPro/PAlib/lib\libpa9.a(PA_BgTiles.o)
 .debug_loc     0x000093e8       0xe2 c:/_ndsdev/devkitPro/PAlib/lib\libpa9.a(PA_Error.o)
 .debug_loc     0x000094ca      0x17d c:/_ndsdev/devkitPro/PAlib/lib\libpa9.a(PA_Inits.o)
 .debug_loc     0x00009647       0x68 c:/_ndsdev/devkitPro/PAlib/lib\libpa9.a(PA_Interrupt.o)
 .debug_loc     0x000096af       0xb3 c:/_ndsdev/devkitPro/PAlib/lib\libpa9.a(PA_Keys.o)
 .debug_loc     0x00009762      0x2f0 c:/_ndsdev/devkitPro/PAlib/lib\libpa9.a(PA_Math.o)
 .debug_loc     0x00009a52      0x3cd c:/_ndsdev/devkitPro/PAlib/lib\libpa9.a(PA_Palette.o)
 .debug_loc     0x00009e1f       0xa1 c:/_ndsdev/devkitPro/PAlib/lib\libpa9.a(PA_RTC.o)
 .debug_loc     0x00009ec0      0x896 c:/_ndsdev/devkitPro/PAlib/lib\libpa9.a(PA_Reco.o)
 .debug_loc     0x0000a756      0x87a c:/_ndsdev/devkitPro/PAlib/lib\libpa9.a(PA_Sprite.o)
 .debug_loc     0x0000afd0      0x346 c:/_ndsdev/devkitPro/PAlib/lib\libpa9.a(PA_SpriteAnim.o)
 .debug_loc     0x0000b316      0x150 c:/_ndsdev/devkitPro/PAlib/lib\libpa9.a(PA_Stuff.o)
 .debug_loc     0x0000b466      0xaea c:/_ndsdev/devkitPro/PAlib/lib\libpa9.a(PA_Text.o)
 .debug_loc     0x0000bf50      0x739 c:/_ndsdev/devkitPro/PAlib/lib\libpa9.a(PA_TextBits.o)
 .debug_loc     0x0000c689       0x7d c:/_ndsdev/devkitPro/PAlib/lib\libpa9.a(PA_Fifo.o)
 .debug_loc     0x0000c706      0x922 c:/_ndsdev/devkitPro/PAlib/lib\libpa9.a(PA_NewBg.o)
 .debug_loc     0x0000d028      0x2fe c:/_ndsdev/devkitPro/PAlib/lib\libpa9.a(PA_PaletteEx.o)
 .debug_loc     0x0000d326     0x1c67 c:/_ndsdev/devkitPro/PAlib/lib\libpa9.a(PA_Text8bit.o)
 .debug_loc     0x0000ef8d      0x7c6 c:/_ndsdev/devkitPro/PAlib/lib\libpa9.a(PA_16c.o)
 .debug_loc     0x0000f753      0x223 c:/_ndsdev/devkitPro/PAlib/lib\libpa9.a(PA_BgRot.o)
 .debug_loc     0x0000f976      0x3e6 c:/_ndsdev/devkitPro/PAlib/lib\libpa9.a(PA_Draw.o)
 .debug_loc     0x0000fd5c      0x5f3 c:/_ndsdev/devkitPro/PAlib/lib\libpa9.a(PA_Keyboard.o)
 .debug_loc     0x0001034f      0x379 c:/_ndsdev/devkitPro/libnds/lib\libnds9.a(background.o)
 .debug_loc     0x000106c8      0x1f7 c:/_ndsdev/devkitPro/libnds/lib\libnds9.a(decompress.o)
 .debug_loc     0x000108bf       0x20 c:/_ndsdev/devkitPro/libnds/lib\libnds9.a(keys.o)
 .debug_loc     0x000108df      0x1ba c:/_ndsdev/devkitPro/libnds/lib\libnds9.a(system.o)
 .debug_loc     0x00010a99      0x115 c:/_ndsdev/devkitPro/libnds/lib\libnds9.a(touch.o)
 .debug_loc     0x00010bae      0x6d3 c:/_ndsdev/devkitPro/libnds/lib\libnds9.a(trig.o)
 .debug_loc     0x00011281      0x1ed c:/_ndsdev/devkitPro/libnds/lib\libnds9.a(video.o)
 .debug_loc     0x0001146e       0x64 c:/_ndsdev/devkitPro/libnds/lib\libnds9.a(initSystem.o)
 .debug_loc     0x000114d2     0x11b6 c:/_ndsdev/devkitPro/libnds/lib\libnds9.a(fifosystem.o)
 .debug_loc     0x00012688      0x220 c:/_ndsdev/devkitPro/libnds/lib\libnds9.a(interrupts.o)
 .debug_loc     0x000128a8       0x5c c:/_ndsdev/devkitPro/libnds/lib\libnds9.a(libnds_exit.o)
 .debug_loc     0x00012904       0x98 c:/_ndsdev/devkitPro/libnds/lib\libnds9.a(syscalls.o)

.debug_macinfo
 *(.debug_macinfo)

.debug_weaknames
 *(.debug_weaknames)

.debug_funcnames
 *(.debug_funcnames)

.debug_typenames
 *(.debug_typenames)

.debug_varnames
 *(.debug_varnames)

.stack          0x00080000        0x0
                0x00080000                _stack = .
 *(.stack)
LOAD c:/_ndsdev/devkitpro/devkitarm/bin/../lib/gcc/arm-eabi/4.6.1/../../../../arm-eabi/lib/thumb/ds_arm9_crt0.o
LOAD c:/_ndsdev/devkitpro/devkitarm/bin/../lib/gcc/arm-eabi/4.6.1/thumb/crti.o
LOAD c:/_ndsdev/devkitpro/devkitarm/bin/../lib/gcc/arm-eabi/4.6.1/thumb/crtbegin.o
LOAD soundbank_bin.o
LOAD down.o
LOAD up.o
LOAD main.o
LOAD croutine.o
LOAD heap.o
LOAD list.o
LOAD port.o
LOAD portISR.o
LOAD queue.o
LOAD tasks.o
LOAD virtual_io.o
LOAD assemfunc.o
LOAD c:/_ndsdev/devkitPro/PAlib/lib\libpa9.a
LOAD c:/_ndsdev/devkitPro/libnds/lib\libfilesystem.a
LOAD c:/_ndsdev/devkitPro/libnds/lib\libfat.a
LOAD c:/_ndsdev/devkitPro/libnds/lib\libnds9.a
LOAD c:/_ndsdev/devkitPro/libnds/lib\libdswifi9.a
LOAD c:/_ndsdev/devkitPro/libnds/lib\libmm9.a
START GROUP
LOAD c:/_ndsdev/devkitpro/devkitarm/bin/../lib/gcc/arm-eabi/4.6.1/thumb\libgcc.a
LOAD c:/_ndsdev/devkitpro/devkitarm/bin/../lib/gcc/arm-eabi/4.6.1/../../../../arm-eabi/lib/thumb\libg.a
LOAD c:/_ndsdev/devkitpro/devkitarm/bin/../lib/gcc/arm-eabi/4.6.1/../../../../arm-eabi/lib/thumb\libc.a
LOAD c:/_ndsdev/devkitpro/devkitarm/bin/../lib/gcc/arm-eabi/4.6.1/../../../../arm-eabi/lib/thumb\libsysbase.a
END GROUP
LOAD c:/_ndsdev/devkitpro/devkitarm/bin/../lib/gcc/arm-eabi/4.6.1/thumb/crtend.o
LOAD c:/_ndsdev/devkitpro/devkitarm/bin/../lib/gcc/arm-eabi/4.6.1/thumb/crtn.o
OUTPUT(d:/workspace/_ndsdev/_test/PARTOS_CProjectwithMaxmod_MD/PARTOS_CProjectwithMaxmod_MD.elf elf32-littlearm)

.debug_ranges   0x00000000     0x5138
 .debug_ranges  0x00000000     0x2570 main.o
 .debug_ranges  0x00002570       0x88 croutine.o
 .debug_ranges  0x000025f8      0x210 tasks.o
 .debug_ranges  0x00002808      0x100 virtual_io.o
 .debug_ranges  0x00002908      0x108 c:/_ndsdev/devkitPro/PAlib/lib\libpa9.a(PA_BgEasy.o)
 .debug_ranges  0x00002a10      0x750 c:/_ndsdev/devkitPro/PAlib/lib\libpa9.a(PA_BgLargeMap.o)
 .debug_ranges  0x00003160      0x100 c:/_ndsdev/devkitPro/PAlib/lib\libpa9.a(PA_BgTiles.o)
 .debug_ranges  0x00003260       0xd8 c:/_ndsdev/devkitPro/PAlib/lib\libpa9.a(PA_Inits.o)
 .debug_ranges  0x00003338      0x120 c:/_ndsdev/devkitPro/PAlib/lib\libpa9.a(PA_Math.o)
 .debug_ranges  0x00003458       0xd0 c:/_ndsdev/devkitPro/PAlib/lib\libpa9.a(PA_Palette.o)
 .debug_ranges  0x00003528       0xc0 c:/_ndsdev/devkitPro/PAlib/lib\libpa9.a(PA_Reco.o)
 .debug_ranges  0x000035e8      0x148 c:/_ndsdev/devkitPro/PAlib/lib\libpa9.a(PA_Sprite.o)
 .debug_ranges  0x00003730      0x140 c:/_ndsdev/devkitPro/PAlib/lib\libpa9.a(PA_SpriteAnim.o)
 .debug_ranges  0x00003870       0x48 c:/_ndsdev/devkitPro/PAlib/lib\libpa9.a(PA_Text.o)
 .debug_ranges  0x000038b8       0x28 c:/_ndsdev/devkitPro/PAlib/lib\libpa9.a(PA_TextBits.o)
 .debug_ranges  0x000038e0      0x250 c:/_ndsdev/devkitPro/PAlib/lib\libpa9.a(PA_NewBg.o)
 .debug_ranges  0x00003b30       0x78 c:/_ndsdev/devkitPro/PAlib/lib\libpa9.a(PA_PaletteEx.o)
 .debug_ranges  0x00003ba8      0xce0 c:/_ndsdev/devkitPro/PAlib/lib\libpa9.a(PA_Text8bit.o)
 .debug_ranges  0x00004888       0x58 c:/_ndsdev/devkitPro/PAlib/lib\libpa9.a(PA_16c.o)
 .debug_ranges  0x000048e0       0x20 c:/_ndsdev/devkitPro/PAlib/lib\libpa9.a(PA_BgRot.o)
 .debug_ranges  0x00004900       0x28 c:/_ndsdev/devkitPro/PAlib/lib\libpa9.a(PA_Draw.o)
 .debug_ranges  0x00004928      0x168 c:/_ndsdev/devkitPro/PAlib/lib\libpa9.a(PA_Keyboard.o)
 .debug_ranges  0x00004a90       0x88 c:/_ndsdev/devkitPro/libnds/lib\libnds9.a(background.o)
 .debug_ranges  0x00004b18       0x18 c:/_ndsdev/devkitPro/libnds/lib\libnds9.a(touch.o)
 .debug_ranges  0x00004b30       0x80 c:/_ndsdev/devkitPro/libnds/lib\libnds9.a(trig.o)
 .debug_ranges  0x00004bb0       0x78 c:/_ndsdev/devkitPro/libnds/lib\libnds9.a(video.o)
 .debug_ranges  0x00004c28      0x4b0 c:/_ndsdev/devkitPro/libnds/lib\libnds9.a(fifosystem.o)
 .debug_ranges  0x000050d8       0x60 c:/_ndsdev/devkitPro/libnds/lib\libnds9.a(interrupts.o)

.debug_pubtypes
                0x00000000     0x51cb
 .debug_pubtypes
                0x00000000      0x382 c:/_ndsdev/devkitPro/PAlib/lib\libpa9.a(PA.o)
 .debug_pubtypes
                0x00000382      0x311 c:/_ndsdev/devkitPro/PAlib/lib\libpa9.a(PA_BgEasy.o)
 .debug_pubtypes
                0x00000693      0x311 c:/_ndsdev/devkitPro/PAlib/lib\libpa9.a(PA_BgLargeMap.o)
 .debug_pubtypes
                0x000009a4      0x33f c:/_ndsdev/devkitPro/PAlib/lib\libpa9.a(PA_BgTiles.o)
 .debug_pubtypes
                0x00000ce3      0x308 c:/_ndsdev/devkitPro/PAlib/lib\libpa9.a(PA_Error.o)
 .debug_pubtypes
                0x00000feb      0x343 c:/_ndsdev/devkitPro/PAlib/lib\libpa9.a(PA_Inits.o)
 .debug_pubtypes
                0x0000132e      0x327 c:/_ndsdev/devkitPro/PAlib/lib\libpa9.a(PA_Interrupt.o)
 .debug_pubtypes
                0x00001655      0x350 c:/_ndsdev/devkitPro/PAlib/lib\libpa9.a(PA_Keys.o)
 .debug_pubtypes
                0x000019a5      0x331 c:/_ndsdev/devkitPro/PAlib/lib\libpa9.a(PA_Math.o)
 .debug_pubtypes
                0x00001cd6      0x365 c:/_ndsdev/devkitPro/PAlib/lib\libpa9.a(PA_Palette.o)
 .debug_pubtypes
                0x0000203b      0x349 c:/_ndsdev/devkitPro/PAlib/lib\libpa9.a(PA_RTC.o)
 .debug_pubtypes
                0x00002384      0x341 c:/_ndsdev/devkitPro/PAlib/lib\libpa9.a(PA_Reco.o)
 .debug_pubtypes
                0x000026c5      0x33d c:/_ndsdev/devkitPro/PAlib/lib\libpa9.a(PA_Sprite.o)
 .debug_pubtypes
                0x00002a02      0x31b c:/_ndsdev/devkitPro/PAlib/lib\libpa9.a(PA_SpriteAnim.o)
 .debug_pubtypes
                0x00002d1d      0x3bd c:/_ndsdev/devkitPro/PAlib/lib\libpa9.a(PA_Stuff.o)
 .debug_pubtypes
                0x000030da      0x359 c:/_ndsdev/devkitPro/PAlib/lib\libpa9.a(PA_Text.o)
 .debug_pubtypes
                0x00003433      0x316 c:/_ndsdev/devkitPro/PAlib/lib\libpa9.a(PA_TextBits.o)
 .debug_pubtypes
                0x00003749       0x2d c:/_ndsdev/devkitPro/PAlib/lib\libpa9.a(PA_TiledFont.o)
 .debug_pubtypes
                0x00003776       0x2d c:/_ndsdev/devkitPro/PAlib/lib\libpa9.a(PA_BmpFont0.o)
 .debug_pubtypes
                0x000037a3       0x2d c:/_ndsdev/devkitPro/PAlib/lib\libpa9.a(PA_BmpFont1.o)
 .debug_pubtypes
                0x000037d0       0x2d c:/_ndsdev/devkitPro/PAlib/lib\libpa9.a(PA_BmpFont2.o)
 .debug_pubtypes
                0x000037fd       0x2d c:/_ndsdev/devkitPro/PAlib/lib\libpa9.a(PA_BmpFont3.o)
 .debug_pubtypes
                0x0000382a       0x2d c:/_ndsdev/devkitPro/PAlib/lib\libpa9.a(PA_BmpFont4.o)
 .debug_pubtypes
                0x00003857      0x32d c:/_ndsdev/devkitPro/PAlib/lib\libpa9.a(PA_Fifo.o)
 .debug_pubtypes
                0x00003b84      0x341 c:/_ndsdev/devkitPro/PAlib/lib\libpa9.a(PA_NewBg.o)
 .debug_pubtypes
                0x00003ec5      0x360 c:/_ndsdev/devkitPro/PAlib/lib\libpa9.a(PA_PaletteEx.o)
 .debug_pubtypes
                0x00004225      0x323 c:/_ndsdev/devkitPro/PAlib/lib\libpa9.a(PA_Text8bit.o)
 .debug_pubtypes
                0x00004548      0x32b c:/_ndsdev/devkitPro/PAlib/lib\libpa9.a(PA_16c.o)
 .debug_pubtypes
                0x00004873      0x314 c:/_ndsdev/devkitPro/PAlib/lib\libpa9.a(PA_BgRot.o)
 .debug_pubtypes
                0x00004b87      0x327 c:/_ndsdev/devkitPro/PAlib/lib\libpa9.a(PA_Draw.o)
 .debug_pubtypes
                0x00004eae      0x31d c:/_ndsdev/devkitPro/PAlib/lib\libpa9.a(PA_Keyboard.o)
