Archive member included because of file (symbol)

c:/_ndsdev/devkitPro/PAlib/lib\libpa9.a(PA.o)
                              cs_api.o (PA_CheckLid)
c:/_ndsdev/devkitPro/PAlib/lib\libpa9.a(PA_BgEasy.o)
                              cs_api.o (PA_EasyBgScrollY)
c:/_ndsdev/devkitPro/PAlib/lib\libpa9.a(PA_BgLargeMap.o)
                              c:/_ndsdev/devkitPro/PAlib/lib\libpa9.a(PA_BgEasy.o) (PA_InfLargeScrollXN)
c:/_ndsdev/devkitPro/PAlib/lib\libpa9.a(PA_BgTiles.o)
                              c:/_ndsdev/devkitPro/PAlib/lib\libpa9.a(PA_BgEasy.o) (PA_BgInfo)
c:/_ndsdev/devkitPro/PAlib/lib\libpa9.a(PA_Error.o)
                              c:/_ndsdev/devkitPro/PAlib/lib\libpa9.a(PA_BgTiles.o) (PA_Error)
c:/_ndsdev/devkitPro/PAlib/lib\libpa9.a(PA_Inits.o)
                              c:/_ndsdev/devkitPro/PAlib/lib\libpa9.a(PA_Error.o) (PA_Init2D)
c:/_ndsdev/devkitPro/PAlib/lib\libpa9.a(PA_Interrupt.o)
                              c:/_ndsdev/devkitPro/PAlib/lib\libpa9.a(PA_Inits.o) (PA_VBLCountersReset)
c:/_ndsdev/devkitPro/PAlib/lib\libpa9.a(PA_Keys.o)
                              c:/_ndsdev/devkitPro/PAlib/lib\libpa9.a(PA_Interrupt.o) (PA_UpdatePad)
c:/_ndsdev/devkitPro/PAlib/lib\libpa9.a(PA_Math.o)
                              game.o (RandomValue)
c:/_ndsdev/devkitPro/PAlib/lib\libpa9.a(PA_NewBg.o)
                              cs_api.o (PA_LoadBackground)
c:/_ndsdev/devkitPro/PAlib/lib\libpa9.a(PA_Palette.o)
                              cs_api.o (PA_LoadSpriteExtPal)
c:/_ndsdev/devkitPro/PAlib/lib\libpa9.a(PA_RTC.o)
                              c:/_ndsdev/devkitPro/PAlib/lib\libpa9.a(PA_Inits.o) (PA_UpdateUserInfo)
c:/_ndsdev/devkitPro/PAlib/lib\libpa9.a(PA_Reco.o)
                              c:/_ndsdev/devkitPro/PAlib/lib\libpa9.a(PA_Inits.o) (PA_UseGraffiti)
c:/_ndsdev/devkitPro/PAlib/lib\libpa9.a(PA_Sprite.o)
                              cs_api.o (PA_ResetSpriteSysScreen)
c:/_ndsdev/devkitPro/PAlib/lib\libpa9.a(PA_SpriteAnim.o)
                              cs_api.o (PA_StartSpriteAnimEx)
c:/_ndsdev/devkitPro/PAlib/lib\libpa9.a(PA_Stuff.o)
                              c:/_ndsdev/devkitPro/PAlib/lib\libpa9.a(PA_BgTiles.o) (PA_SetVideoMode)
c:/_ndsdev/devkitPro/PAlib/lib\libpa9.a(PA_Text.o)
                              c:/_ndsdev/devkitPro/PAlib/lib\libpa9.a(PA_Inits.o) (PA_textpal)
c:/_ndsdev/devkitPro/PAlib/lib\libpa9.a(PA_Text8bit.o)
                              c:/_ndsdev/devkitPro/PAlib/lib\libpa9.a(PA_NewBg.o) (bit8_tiles)
c:/_ndsdev/devkitPro/PAlib/lib\libpa9.a(PA_TextBits.o)
                              c:/_ndsdev/devkitPro/PAlib/lib\libpa9.a(PA_Text8bit.o) (PA_LetterPos)
c:/_ndsdev/devkitPro/PAlib/lib\libpa9.a(PA_TiledFont.o)
                              c:/_ndsdev/devkitPro/PAlib/lib\libpa9.a(PA_Text.o) (PA_TiledFont)
c:/_ndsdev/devkitPro/PAlib/lib\libpa9.a(PA_BmpFont0.o)
                              c:/_ndsdev/devkitPro/PAlib/lib\libpa9.a(PA_Inits.o) (PA_BmpFont0)
c:/_ndsdev/devkitPro/PAlib/lib\libpa9.a(PA_BmpFont1.o)
                              c:/_ndsdev/devkitPro/PAlib/lib\libpa9.a(PA_Inits.o) (PA_BmpFont1)
c:/_ndsdev/devkitPro/PAlib/lib\libpa9.a(PA_BmpFont2.o)
                              c:/_ndsdev/devkitPro/PAlib/lib\libpa9.a(PA_Inits.o) (PA_BmpFont2)
c:/_ndsdev/devkitPro/PAlib/lib\libpa9.a(PA_BmpFont3.o)
                              c:/_ndsdev/devkitPro/PAlib/lib\libpa9.a(PA_Inits.o) (PA_BmpFont3)
c:/_ndsdev/devkitPro/PAlib/lib\libpa9.a(PA_BmpFont4.o)
                              c:/_ndsdev/devkitPro/PAlib/lib\libpa9.a(PA_Inits.o) (PA_BmpFont4)
c:/_ndsdev/devkitPro/PAlib/lib\libpa9.a(PA_TiledFont_Map.bin.o)
                              c:/_ndsdev/devkitPro/PAlib/lib\libpa9.a(PA_Inits.o) (PA_TiledFont_Map)
c:/_ndsdev/devkitPro/PAlib/lib\libpa9.a(PA_TiledFont_Pal.bin.o)
                              c:/_ndsdev/devkitPro/PAlib/lib\libpa9.a(PA_Inits.o) (PA_TiledFont_Pal)
c:/_ndsdev/devkitPro/PAlib/lib\libpa9.a(PA_TiledFont_Tiles.bin.o)
                              c:/_ndsdev/devkitPro/PAlib/lib\libpa9.a(PA_Inits.o) (PA_TiledFont_Tiles)
c:/_ndsdev/devkitPro/PAlib/lib\libpa9.a(PA_BmpFont0_Map.bin.o)
                              c:/_ndsdev/devkitPro/PAlib/lib\libpa9.a(PA_TextBits.o) (PA_BmpFont0_Map)
c:/_ndsdev/devkitPro/PAlib/lib\libpa9.a(PA_BmpFont0_Sizes.bin.o)
                              c:/_ndsdev/devkitPro/PAlib/lib\libpa9.a(PA_TextBits.o) (PA_BmpFont0_Sizes)
c:/_ndsdev/devkitPro/PAlib/lib\libpa9.a(PA_BmpFont0_Tiles.bin.o)
                              c:/_ndsdev/devkitPro/PAlib/lib\libpa9.a(PA_Inits.o) (PA_BmpFont0_Tiles_size)
c:/_ndsdev/devkitPro/PAlib/lib\libpa9.a(PA_BmpFont1_Map.bin.o)
                              c:/_ndsdev/devkitPro/PAlib/lib\libpa9.a(PA_TextBits.o) (PA_BmpFont1_Map)
c:/_ndsdev/devkitPro/PAlib/lib\libpa9.a(PA_BmpFont1_Sizes.bin.o)
                              c:/_ndsdev/devkitPro/PAlib/lib\libpa9.a(PA_TextBits.o) (PA_BmpFont1_Sizes)
c:/_ndsdev/devkitPro/PAlib/lib\libpa9.a(PA_BmpFont1_Tiles.bin.o)
                              c:/_ndsdev/devkitPro/PAlib/lib\libpa9.a(PA_Inits.o) (PA_BmpFont1_Tiles_size)
c:/_ndsdev/devkitPro/PAlib/lib\libpa9.a(PA_BmpFont2_Map.bin.o)
                              c:/_ndsdev/devkitPro/PAlib/lib\libpa9.a(PA_TextBits.o) (PA_BmpFont2_Map)
c:/_ndsdev/devkitPro/PAlib/lib\libpa9.a(PA_BmpFont2_Sizes.bin.o)
                              c:/_ndsdev/devkitPro/PAlib/lib\libpa9.a(PA_TextBits.o) (PA_BmpFont2_Sizes)
c:/_ndsdev/devkitPro/PAlib/lib\libpa9.a(PA_BmpFont2_Tiles.bin.o)
                              c:/_ndsdev/devkitPro/PAlib/lib\libpa9.a(PA_Inits.o) (PA_BmpFont2_Tiles_size)
c:/_ndsdev/devkitPro/PAlib/lib\libpa9.a(PA_BmpFont3_Map.bin.o)
                              c:/_ndsdev/devkitPro/PAlib/lib\libpa9.a(PA_TextBits.o) (PA_BmpFont3_Map)
c:/_ndsdev/devkitPro/PAlib/lib\libpa9.a(PA_BmpFont3_Sizes.bin.o)
                              c:/_ndsdev/devkitPro/PAlib/lib\libpa9.a(PA_TextBits.o) (PA_BmpFont3_Sizes)
c:/_ndsdev/devkitPro/PAlib/lib\libpa9.a(PA_BmpFont3_Tiles.bin.o)
                              c:/_ndsdev/devkitPro/PAlib/lib\libpa9.a(PA_Inits.o) (PA_BmpFont3_Tiles_size)
c:/_ndsdev/devkitPro/PAlib/lib\libpa9.a(PA_BmpFont4_Map.bin.o)
                              c:/_ndsdev/devkitPro/PAlib/lib\libpa9.a(PA_TextBits.o) (PA_BmpFont4_Map)
c:/_ndsdev/devkitPro/PAlib/lib\libpa9.a(PA_BmpFont4_Sizes.bin.o)
                              c:/_ndsdev/devkitPro/PAlib/lib\libpa9.a(PA_TextBits.o) (PA_BmpFont4_Sizes)
c:/_ndsdev/devkitPro/PAlib/lib\libpa9.a(PA_BmpFont4_Tiles.bin.o)
                              c:/_ndsdev/devkitPro/PAlib/lib\libpa9.a(PA_Inits.o) (PA_BmpFont4_Tiles_size)
c:/_ndsdev/devkitPro/PAlib/lib\libpa9.a(PA_16c.o)
                              c:/_ndsdev/devkitPro/PAlib/lib\libpa9.a(PA_NewBg.o) (c16_tiles)
c:/_ndsdev/devkitPro/PAlib/lib\libpa9.a(PA_BgRot.o)
                              c:/_ndsdev/devkitPro/PAlib/lib\libpa9.a(PA_NewBg.o) (PA_LoadRotBgMap)
c:/_ndsdev/devkitPro/PAlib/lib\libpa9.a(PA_Draw.o)
                              c:/_ndsdev/devkitPro/PAlib/lib\libpa9.a(PA_Text8bit.o) (PA_DrawBg)
c:/_ndsdev/devkitPro/PAlib/lib\libpa9.a(PA_Fifo.o)
                              c:/_ndsdev/devkitPro/PAlib/lib\libpa9.a(PA_Inits.o) (PA_InitFifo)
c:/_ndsdev/devkitPro/PAlib/lib\libpa9.a(PA_Keyboard.o)
                              c:/_ndsdev/devkitPro/PAlib/lib\libpa9.a(PA_NewBg.o) (PA_Keyboard_Struct)
c:/_ndsdev/devkitPro/PAlib/lib\libpa9.a(PA_PaletteEx.o)
                              c:/_ndsdev/devkitPro/PAlib/lib\libpa9.a(PA_Text.o) (PA_SetBgPalNCol)
c:/_ndsdev/devkitPro/PAlib/lib\libpa9.a(keyboard.map.o)
                              c:/_ndsdev/devkitPro/PAlib/lib\libpa9.a(PA_Keyboard.o) (keyboard_Map)
c:/_ndsdev/devkitPro/PAlib/lib\libpa9.a(keyboard.pal.o)
                              c:/_ndsdev/devkitPro/PAlib/lib\libpa9.a(PA_Keyboard.o) (keyboard_Palette)
c:/_ndsdev/devkitPro/PAlib/lib\libpa9.a(keyboard.raw.o)
                              c:/_ndsdev/devkitPro/PAlib/lib\libpa9.a(PA_Keyboard.o) (keyboard_Tiles)
c:/_ndsdev/devkitPro/libnds/lib\libnds9.a(background.o)
                              virtual_io.o (bgInit_call)
c:/_ndsdev/devkitPro/libnds/lib\libnds9.a(decompress.o)
                              virtual_io.o (decompress)
c:/_ndsdev/devkitPro/libnds/lib\libnds9.a(keys.o)
                              c:/_ndsdev/devkitPro/PAlib/lib\libpa9.a(PA_Keys.o) (scanKeys)
c:/_ndsdev/devkitPro/libnds/lib\libnds9.a(system.o)
                              c:/_ndsdev/devkitPro/PAlib/lib\libpa9.a(PA_Inits.o) (powerOn)
c:/_ndsdev/devkitPro/libnds/lib\libnds9.a(touch.o)
                              virtual_io.o (touchRead)
c:/_ndsdev/devkitPro/libnds/lib\libnds9.a(trig.o)
                              c:/_ndsdev/devkitPro/libnds/lib\libnds9.a(background.o) (sinLerp)
c:/_ndsdev/devkitPro/libnds/lib\libnds9.a(video.o)
                              c:/_ndsdev/devkitPro/PAlib/lib\libpa9.a(PA_Inits.o) (vramSetMainBanks)
c:/_ndsdev/devkitPro/libnds/lib\libnds9.a(initSystem.o)
                              c:/_ndsdev/devkitpro/devkitarm/bin/../lib/gcc/arm-eabi/4.6.1/../../../../arm-eabi/lib/thumb/ds_arm9_crt0.o (initSystem)
c:/_ndsdev/devkitPro/libnds/lib\libnds9.a(fifosystem.o)
                              c:/_ndsdev/devkitPro/PAlib/lib\libpa9.a(PA.o) (fifoSendValue32)
c:/_ndsdev/devkitPro/libnds/lib\libnds9.a(interrupts.o)
                              port.o (irqSet)
c:/_ndsdev/devkitPro/libnds/lib\libnds9.a(libnds_exit.o)
                              c:/_ndsdev/devkitpro/devkitarm/bin/../lib/gcc/arm-eabi/4.6.1/../../../../arm-eabi/lib/thumb/ds_arm9_crt0.o (__libnds_exit)
c:/_ndsdev/devkitPro/libnds/lib\libnds9.a(syscalls.o)
                              c:/_ndsdev/devkitPro/libnds/lib\libnds9.a(decompress.o) (swiDecompressLZSSVram)
c:/_ndsdev/devkitPro/libnds/lib\libnds9.a(dcache.o)
                              c:/_ndsdev/devkitPro/PAlib/lib\libpa9.a(PA_BgTiles.o) (DC_FlushRange)
c:/_ndsdev/devkitPro/libnds/lib\libnds9.a(mpu_setup.o)
                              c:/_ndsdev/devkitpro/devkitarm/bin/../lib/gcc/arm-eabi/4.6.1/../../../../arm-eabi/lib/thumb/ds_arm9_crt0.o (__libnds_mpu_setup)
c:/_ndsdev/devkitPro/libnds/lib\libnds9.a(biosCalls.o)
                              c:/_ndsdev/devkitPro/PAlib/lib\libpa9.a(PA.o) (swiDelay)
c:/_ndsdev/devkitPro/libnds/lib\libnds9.a(interruptDispatcher.o)
                              c:/_ndsdev/devkitPro/libnds/lib\libnds9.a(interrupts.o) (IntrMain)
c:/_ndsdev/devkitPro/libnds/lib\libnds9.a(swiSoftReset.o)
                              c:/_ndsdev/devkitPro/libnds/lib\libnds9.a(fifosystem.o) (swiSoftReset)
c:/_ndsdev/devkitpro/devkitarm/bin/../lib/gcc/arm-eabi/4.6.1/thumb\libgcc.a(_udivsi3.o)
                              game.o (__aeabi_uidivmod)
c:/_ndsdev/devkitpro/devkitarm/bin/../lib/gcc/arm-eabi/4.6.1/thumb\libgcc.a(_divsi3.o)
                              c:/_ndsdev/devkitPro/PAlib/lib\libpa9.a(PA_Keys.o) (__aeabi_idiv)
c:/_ndsdev/devkitpro/devkitarm/bin/../lib/gcc/arm-eabi/4.6.1/thumb\libgcc.a(_dvmd_tls.o)
                              c:/_ndsdev/devkitpro/devkitarm/bin/../lib/gcc/arm-eabi/4.6.1/thumb\libgcc.a(_udivsi3.o) (__aeabi_idiv0)
c:/_ndsdev/devkitpro/devkitarm/bin/../lib/gcc/arm-eabi/4.6.1/thumb\libgcc.a(_arm_addsubdf3.o)
                              c:/_ndsdev/devkitPro/PAlib/lib\libpa9.a(PA_Text.o) (__aeabi_dsub)
c:/_ndsdev/devkitpro/devkitarm/bin/../lib/gcc/arm-eabi/4.6.1/thumb\libgcc.a(_arm_muldivdf3.o)
                              c:/_ndsdev/devkitPro/PAlib/lib\libpa9.a(PA_Text.o) (__aeabi_dmul)
c:/_ndsdev/devkitpro/devkitarm/bin/../lib/gcc/arm-eabi/4.6.1/thumb\libgcc.a(_arm_cmpdf2.o)
                              c:/_ndsdev/devkitPro/PAlib/lib\libpa9.a(PA_Text.o) (__aeabi_dcmplt)
c:/_ndsdev/devkitpro/devkitarm/bin/../lib/gcc/arm-eabi/4.6.1/thumb\libgcc.a(_arm_fixdfsi.o)
                              c:/_ndsdev/devkitPro/PAlib/lib\libpa9.a(PA_Text.o) (__aeabi_d2iz)
c:/_ndsdev/devkitpro/devkitarm/bin/../lib/gcc/arm-eabi/4.6.1/thumb\libgcc.a(_muldi3.o)
                              game.o (__aeabi_lmul)
c:/_ndsdev/devkitpro/devkitarm/bin/../lib/gcc/arm-eabi/4.6.1/../../../../arm-eabi/lib/thumb\libg.a(lib_a-bsearch.o)
                              c:/_ndsdev/devkitPro/libnds/lib\libnds9.a(trig.o) (bsearch)
c:/_ndsdev/devkitpro/devkitarm/bin/../lib/gcc/arm-eabi/4.6.1/../../../../arm-eabi/lib/thumb\libg.a(lib_a-gmtime.o)
                              c:/_ndsdev/devkitPro/PAlib/lib\libpa9.a(PA_RTC.o) (gmtime)
c:/_ndsdev/devkitpro/devkitarm/bin/../lib/gcc/arm-eabi/4.6.1/../../../../arm-eabi/lib/thumb\libg.a(lib_a-gmtime_r.o)
                              c:/_ndsdev/devkitpro/devkitarm/bin/../lib/gcc/arm-eabi/4.6.1/../../../../arm-eabi/lib/thumb\libg.a(lib_a-gmtime.o) (gmtime_r)
c:/_ndsdev/devkitpro/devkitarm/bin/../lib/gcc/arm-eabi/4.6.1/../../../../arm-eabi/lib/thumb\libg.a(lib_a-impure.o)
                              c:/_ndsdev/devkitpro/devkitarm/bin/../lib/gcc/arm-eabi/4.6.1/../../../../arm-eabi/lib/thumb\libg.a(lib_a-gmtime.o) (_impure_ptr)
c:/_ndsdev/devkitpro/devkitarm/bin/../lib/gcc/arm-eabi/4.6.1/../../../../arm-eabi/lib/thumb\libg.a(lib_a-init.o)
                              c:/_ndsdev/devkitpro/devkitarm/bin/../lib/gcc/arm-eabi/4.6.1/../../../../arm-eabi/lib/thumb/ds_arm9_crt0.o (__libc_init_array)
c:/_ndsdev/devkitpro/devkitarm/bin/../lib/gcc/arm-eabi/4.6.1/../../../../arm-eabi/lib/thumb\libg.a(lib_a-locale.o)
                              c:/_ndsdev/devkitPro/PAlib/lib\libpa9.a(PA_Inits.o) (setlocale)
c:/_ndsdev/devkitpro/devkitarm/bin/../lib/gcc/arm-eabi/4.6.1/../../../../arm-eabi/lib/thumb\libg.a(lib_a-malloc.o)
                              heap.o (malloc)
c:/_ndsdev/devkitpro/devkitarm/bin/../lib/gcc/arm-eabi/4.6.1/../../../../arm-eabi/lib/thumb\libg.a(lib_a-mallocr.o)
                              c:/_ndsdev/devkitpro/devkitarm/bin/../lib/gcc/arm-eabi/4.6.1/../../../../arm-eabi/lib/thumb\libg.a(lib_a-malloc.o) (_malloc_r)
c:/_ndsdev/devkitpro/devkitarm/bin/../lib/gcc/arm-eabi/4.6.1/../../../../arm-eabi/lib/thumb\libg.a(lib_a-mbtowc_r.o)
                              c:/_ndsdev/devkitpro/devkitarm/bin/../lib/gcc/arm-eabi/4.6.1/../../../../arm-eabi/lib/thumb\libg.a(lib_a-locale.o) (__utf8_mbtowc)
c:/_ndsdev/devkitpro/devkitarm/bin/../lib/gcc/arm-eabi/4.6.1/../../../../arm-eabi/lib/thumb\libg.a(lib_a-memcpy.o)
                              queue.o (memcpy)
c:/_ndsdev/devkitpro/devkitarm/bin/../lib/gcc/arm-eabi/4.6.1/../../../../arm-eabi/lib/thumb\libg.a(lib_a-memset.o)
                              tasks.o (memset)
c:/_ndsdev/devkitpro/devkitarm/bin/../lib/gcc/arm-eabi/4.6.1/../../../../arm-eabi/lib/thumb\libg.a(lib_a-mktm_r.o)
                              c:/_ndsdev/devkitpro/devkitarm/bin/../lib/gcc/arm-eabi/4.6.1/../../../../arm-eabi/lib/thumb\libg.a(lib_a-gmtime_r.o) (_mktm_r)
c:/_ndsdev/devkitpro/devkitarm/bin/../lib/gcc/arm-eabi/4.6.1/../../../../arm-eabi/lib/thumb\libg.a(lib_a-mlock.o)
                              c:/_ndsdev/devkitpro/devkitarm/bin/../lib/gcc/arm-eabi/4.6.1/../../../../arm-eabi/lib/thumb\libg.a(lib_a-mallocr.o) (__malloc_lock)
c:/_ndsdev/devkitpro/devkitarm/bin/../lib/gcc/arm-eabi/4.6.1/../../../../arm-eabi/lib/thumb\libg.a(lib_a-sprintf.o)
                              tasks.o (sprintf)
c:/_ndsdev/devkitpro/devkitarm/bin/../lib/gcc/arm-eabi/4.6.1/../../../../arm-eabi/lib/thumb\libg.a(lib_a-strcasecmp.o)
                              c:/_ndsdev/devkitPro/PAlib/lib\libpa9.a(PA_Stuff.o) (strcasecmp)
c:/_ndsdev/devkitpro/devkitarm/bin/../lib/gcc/arm-eabi/4.6.1/../../../../arm-eabi/lib/thumb\libg.a(lib_a-strcat.o)
                              tasks.o (strcat)
c:/_ndsdev/devkitpro/devkitarm/bin/../lib/gcc/arm-eabi/4.6.1/../../../../arm-eabi/lib/thumb\libg.a(lib_a-strchr.o)
                              c:/_ndsdev/devkitpro/devkitarm/bin/../lib/gcc/arm-eabi/4.6.1/../../../../arm-eabi/lib/thumb\libg.a(lib_a-locale.o) (strchr)
c:/_ndsdev/devkitpro/devkitarm/bin/../lib/gcc/arm-eabi/4.6.1/../../../../arm-eabi/lib/thumb\libg.a(lib_a-strcmp.o)
                              c:/_ndsdev/devkitPro/PAlib/lib\libpa9.a(PA_Stuff.o) (strcmp)
c:/_ndsdev/devkitpro/devkitarm/bin/../lib/gcc/arm-eabi/4.6.1/../../../../arm-eabi/lib/thumb\libg.a(lib_a-strcpy.o)
                              c:/_ndsdev/devkitPro/PAlib/lib\libpa9.a(PA_Stuff.o) (strcpy)
c:/_ndsdev/devkitpro/devkitarm/bin/../lib/gcc/arm-eabi/4.6.1/../../../../arm-eabi/lib/thumb\libg.a(lib_a-strlcpy.o)
                              c:/_ndsdev/devkitpro/devkitarm/bin/../lib/gcc/arm-eabi/4.6.1/../../../../arm-eabi/lib/thumb\libg.a(lib_a-locale.o) (strlcpy)
c:/_ndsdev/devkitpro/devkitarm/bin/../lib/gcc/arm-eabi/4.6.1/../../../../arm-eabi/lib/thumb\libg.a(lib_a-strlen.o)
                              tasks.o (strlen)
c:/_ndsdev/devkitpro/devkitarm/bin/../lib/gcc/arm-eabi/4.6.1/../../../../arm-eabi/lib/thumb\libg.a(lib_a-strncasecmp.o)
                              c:/_ndsdev/devkitpro/devkitarm/bin/../lib/gcc/arm-eabi/4.6.1/../../../../arm-eabi/lib/thumb\libg.a(lib_a-locale.o) (strncasecmp)
c:/_ndsdev/devkitpro/devkitarm/bin/../lib/gcc/arm-eabi/4.6.1/../../../../arm-eabi/lib/thumb\libg.a(lib_a-strncmp.o)
                              c:/_ndsdev/devkitpro/devkitarm/bin/../lib/gcc/arm-eabi/4.6.1/../../../../arm-eabi/lib/thumb\libg.a(lib_a-locale.o) (strncmp)
c:/_ndsdev/devkitpro/devkitarm/bin/../lib/gcc/arm-eabi/4.6.1/../../../../arm-eabi/lib/thumb\libg.a(lib_a-strncpy.o)
                              tasks.o (strncpy)
c:/_ndsdev/devkitpro/devkitarm/bin/../lib/gcc/arm-eabi/4.6.1/../../../../arm-eabi/lib/thumb\libg.a(lib_a-strtol.o)
                              c:/_ndsdev/devkitpro/devkitarm/bin/../lib/gcc/arm-eabi/4.6.1/../../../../arm-eabi/lib/thumb\libg.a(lib_a-locale.o) (_strtol_r)
c:/_ndsdev/devkitpro/devkitarm/bin/../lib/gcc/arm-eabi/4.6.1/../../../../arm-eabi/lib/thumb\libg.a(lib_a-svfprintf.o)
                              c:/_ndsdev/devkitpro/devkitarm/bin/../lib/gcc/arm-eabi/4.6.1/../../../../arm-eabi/lib/thumb\libg.a(lib_a-sprintf.o) (_svfprintf_r)
c:/_ndsdev/devkitpro/devkitarm/bin/../lib/gcc/arm-eabi/4.6.1/../../../../arm-eabi/lib/thumb\libg.a(lib_a-sysstat.o)
                              c:/_ndsdev/devkitPro/PAlib/lib\libpa9.a(PA_Stuff.o) (stat)
c:/_ndsdev/devkitpro/devkitarm/bin/../lib/gcc/arm-eabi/4.6.1/../../../../arm-eabi/lib/thumb\libg.a(lib_a-time.o)
                              c:/_ndsdev/devkitPro/PAlib/lib\libpa9.a(PA_RTC.o) (time)
c:/_ndsdev/devkitpro/devkitarm/bin/../lib/gcc/arm-eabi/4.6.1/../../../../arm-eabi/lib/thumb\libg.a(lib_a-tzlock.o)
                              c:/_ndsdev/devkitpro/devkitarm/bin/../lib/gcc/arm-eabi/4.6.1/../../../../arm-eabi/lib/thumb\libg.a(lib_a-mktm_r.o) (__tz_lock)
c:/_ndsdev/devkitpro/devkitarm/bin/../lib/gcc/arm-eabi/4.6.1/../../../../arm-eabi/lib/thumb\libg.a(lib_a-tzvars.o)
                              c:/_ndsdev/devkitpro/devkitarm/bin/../lib/gcc/arm-eabi/4.6.1/../../../../arm-eabi/lib/thumb\libg.a(lib_a-mktm_r.o) (_daylight)
c:/_ndsdev/devkitpro/devkitarm/bin/../lib/gcc/arm-eabi/4.6.1/../../../../arm-eabi/lib/thumb\libg.a(lib_a-wcrtomb.o)
                              c:/_ndsdev/devkitpro/devkitarm/bin/../lib/gcc/arm-eabi/4.6.1/../../../../arm-eabi/lib/thumb\libg.a(lib_a-svfprintf.o) (_wcrtomb_r)
c:/_ndsdev/devkitpro/devkitarm/bin/../lib/gcc/arm-eabi/4.6.1/../../../../arm-eabi/lib/thumb\libg.a(lib_a-wcsrtombs.o)
                              c:/_ndsdev/devkitpro/devkitarm/bin/../lib/gcc/arm-eabi/4.6.1/../../../../arm-eabi/lib/thumb\libg.a(lib_a-svfprintf.o) (_wcsrtombs_r)
c:/_ndsdev/devkitpro/devkitarm/bin/../lib/gcc/arm-eabi/4.6.1/../../../../arm-eabi/lib/thumb\libg.a(lib_a-wctomb_r.o)
                              c:/_ndsdev/devkitpro/devkitarm/bin/../lib/gcc/arm-eabi/4.6.1/../../../../arm-eabi/lib/thumb\libg.a(lib_a-locale.o) (__utf8_wctomb)
c:/_ndsdev/devkitpro/devkitarm/bin/../lib/gcc/arm-eabi/4.6.1/../../../../arm-eabi/lib/thumb\libg.a(lib_a-ctype_.o)
                              c:/_ndsdev/devkitpro/devkitarm/bin/../lib/gcc/arm-eabi/4.6.1/../../../../arm-eabi/lib/thumb\libg.a(lib_a-locale.o) (__set_ctype)
c:/_ndsdev/devkitpro/devkitarm/bin/../lib/gcc/arm-eabi/4.6.1/../../../../arm-eabi/lib/thumb\libg.a(lib_a-dtoa.o)
                              c:/_ndsdev/devkitpro/devkitarm/bin/../lib/gcc/arm-eabi/4.6.1/../../../../arm-eabi/lib/thumb\libg.a(lib_a-svfprintf.o) (_dtoa_r)
c:/_ndsdev/devkitpro/devkitarm/bin/../lib/gcc/arm-eabi/4.6.1/../../../../arm-eabi/lib/thumb\libg.a(lib_a-freer.o)
                              c:/_ndsdev/devkitpro/devkitarm/bin/../lib/gcc/arm-eabi/4.6.1/../../../../arm-eabi/lib/thumb\libg.a(lib_a-malloc.o) (_free_r)
c:/_ndsdev/devkitpro/devkitarm/bin/../lib/gcc/arm-eabi/4.6.1/../../../../arm-eabi/lib/thumb\libg.a(lib_a-getenv_r.o)
                              c:/_ndsdev/devkitpro/devkitarm/bin/../lib/gcc/arm-eabi/4.6.1/../../../../arm-eabi/lib/thumb\libg.a(lib_a-locale.o) (_getenv_r)
c:/_ndsdev/devkitpro/devkitarm/bin/../lib/gcc/arm-eabi/4.6.1/../../../../arm-eabi/lib/thumb\libg.a(lib_a-gettzinfo.o)
                              c:/_ndsdev/devkitpro/devkitarm/bin/../lib/gcc/arm-eabi/4.6.1/../../../../arm-eabi/lib/thumb\libg.a(lib_a-mktm_r.o) (__gettzinfo)
c:/_ndsdev/devkitpro/devkitarm/bin/../lib/gcc/arm-eabi/4.6.1/../../../../arm-eabi/lib/thumb\libg.a(lib_a-memchr.o)
                              c:/_ndsdev/devkitpro/devkitarm/bin/../lib/gcc/arm-eabi/4.6.1/../../../../arm-eabi/lib/thumb\libg.a(lib_a-svfprintf.o) (memchr)
c:/_ndsdev/devkitpro/devkitarm/bin/../lib/gcc/arm-eabi/4.6.1/../../../../arm-eabi/lib/thumb\libg.a(lib_a-mprec.o)
                              c:/_ndsdev/devkitpro/devkitarm/bin/../lib/gcc/arm-eabi/4.6.1/../../../../arm-eabi/lib/thumb\libg.a(lib_a-dtoa.o) (_Balloc)
c:/_ndsdev/devkitpro/devkitarm/bin/../lib/gcc/arm-eabi/4.6.1/../../../../arm-eabi/lib/thumb\libg.a(lib_a-s_fpclassify.o)
                              c:/_ndsdev/devkitpro/devkitarm/bin/../lib/gcc/arm-eabi/4.6.1/../../../../arm-eabi/lib/thumb\libg.a(lib_a-svfprintf.o) (__fpclassifyd)
c:/_ndsdev/devkitpro/devkitarm/bin/../lib/gcc/arm-eabi/4.6.1/../../../../arm-eabi/lib/thumb\libg.a(lib_a-svfiprintf.o)
                              c:/_ndsdev/devkitpro/devkitarm/bin/../lib/gcc/arm-eabi/4.6.1/../../../../arm-eabi/lib/thumb\libg.a(lib_a-svfprintf.o) (__ssprint_r)
c:/_ndsdev/devkitpro/devkitarm/bin/../lib/gcc/arm-eabi/4.6.1/../../../../arm-eabi/lib/thumb\libg.a(lib_a-wcsnrtombs.o)
                              c:/_ndsdev/devkitpro/devkitarm/bin/../lib/gcc/arm-eabi/4.6.1/../../../../arm-eabi/lib/thumb\libg.a(lib_a-wcsrtombs.o) (_wcsnrtombs_r)
c:/_ndsdev/devkitpro/devkitarm/bin/../lib/gcc/arm-eabi/4.6.1/../../../../arm-eabi/lib/thumb\libg.a(lib_a-callocr.o)
                              c:/_ndsdev/devkitpro/devkitarm/bin/../lib/gcc/arm-eabi/4.6.1/../../../../arm-eabi/lib/thumb\libg.a(lib_a-mprec.o) (_calloc_r)
c:/_ndsdev/devkitpro/devkitarm/bin/../lib/gcc/arm-eabi/4.6.1/../../../../arm-eabi/lib/thumb\libg.a(lib_a-environ.o)
                              c:/_ndsdev/devkitpro/devkitarm/bin/../lib/gcc/arm-eabi/4.6.1/../../../../arm-eabi/lib/thumb\libg.a(lib_a-getenv_r.o) (environ)
c:/_ndsdev/devkitpro/devkitarm/bin/../lib/gcc/arm-eabi/4.6.1/../../../../arm-eabi/lib/thumb\libg.a(lib_a-envlock.o)
                              c:/_ndsdev/devkitpro/devkitarm/bin/../lib/gcc/arm-eabi/4.6.1/../../../../arm-eabi/lib/thumb\libg.a(lib_a-getenv_r.o) (__env_lock)
c:/_ndsdev/devkitpro/devkitarm/bin/../lib/gcc/arm-eabi/4.6.1/../../../../arm-eabi/lib/thumb\libg.a(lib_a-memmove.o)
                              c:/_ndsdev/devkitpro/devkitarm/bin/../lib/gcc/arm-eabi/4.6.1/../../../../arm-eabi/lib/thumb\libg.a(lib_a-svfiprintf.o) (memmove)
c:/_ndsdev/devkitpro/devkitarm/bin/../lib/gcc/arm-eabi/4.6.1/../../../../arm-eabi/lib/thumb\libg.a(lib_a-reallocr.o)
                              c:/_ndsdev/devkitpro/devkitarm/bin/../lib/gcc/arm-eabi/4.6.1/../../../../arm-eabi/lib/thumb\libg.a(lib_a-svfiprintf.o) (_realloc_r)
c:/_ndsdev/devkitpro/devkitarm/bin/../lib/gcc/arm-eabi/4.6.1/../../../../arm-eabi/lib/thumb\libsysbase.a(sbrk.o)
                              c:/_ndsdev/devkitpro/devkitarm/bin/../lib/gcc/arm-eabi/4.6.1/../../../../arm-eabi/lib/thumb\libg.a(lib_a-mallocr.o) (_sbrk_r)
c:/_ndsdev/devkitpro/devkitarm/bin/../lib/gcc/arm-eabi/4.6.1/../../../../arm-eabi/lib/thumb\libsysbase.a(stat.o)
                              c:/_ndsdev/devkitpro/devkitarm/bin/../lib/gcc/arm-eabi/4.6.1/../../../../arm-eabi/lib/thumb\libg.a(lib_a-sysstat.o) (_stat_r)
c:/_ndsdev/devkitpro/devkitarm/bin/../lib/gcc/arm-eabi/4.6.1/../../../../arm-eabi/lib/thumb\libsysbase.a(times.o)
                              c:/_ndsdev/devkitpro/devkitarm/bin/../lib/gcc/arm-eabi/4.6.1/../../../../arm-eabi/lib/thumb\libg.a(lib_a-time.o) (_gettimeofday_r)
c:/_ndsdev/devkitpro/devkitarm/bin/../lib/gcc/arm-eabi/4.6.1/../../../../arm-eabi/lib/thumb\libsysbase.a(malloc_vars.o)
                              c:/_ndsdev/devkitpro/devkitarm/bin/../lib/gcc/arm-eabi/4.6.1/../../../../arm-eabi/lib/thumb/ds_arm9_crt0.o (fake_heap_start)
c:/_ndsdev/devkitpro/devkitarm/bin/../lib/gcc/arm-eabi/4.6.1/../../../../arm-eabi/lib/thumb\libsysbase.a(build_argv.o)
                              c:/_ndsdev/devkitpro/devkitarm/bin/../lib/gcc/arm-eabi/4.6.1/../../../../arm-eabi/lib/thumb/ds_arm9_crt0.o (build_argv)
c:/_ndsdev/devkitpro/devkitarm/bin/../lib/gcc/arm-eabi/4.6.1/../../../../arm-eabi/lib/thumb\libsysbase.a(syscall_support.o)
                              c:/_ndsdev/devkitPro/libnds/lib\libnds9.a(initSystem.o) (__syscalls)
c:/_ndsdev/devkitpro/devkitarm/bin/../lib/gcc/arm-eabi/4.6.1/../../../../arm-eabi/lib/thumb\libsysbase.a(dirent.o)
                              c:/_ndsdev/devkitPro/PAlib/lib\libpa9.a(PA_Stuff.o) (opendir)
c:/_ndsdev/devkitpro/devkitarm/bin/../lib/gcc/arm-eabi/4.6.1/../../../../arm-eabi/lib/thumb\libsysbase.a(iosupport.o)
                              c:/_ndsdev/devkitpro/devkitarm/bin/../lib/gcc/arm-eabi/4.6.1/../../../../arm-eabi/lib/thumb\libsysbase.a(stat.o) (FindDevice)
c:/_ndsdev/devkitpro/devkitarm/bin/../lib/gcc/arm-eabi/4.6.1/thumb\libgcc.a(_aeabi_uldivmod.o)
                              c:/_ndsdev/devkitpro/devkitarm/bin/../lib/gcc/arm-eabi/4.6.1/../../../../arm-eabi/lib/thumb\libg.a(lib_a-svfprintf.o) (__aeabi_uldivmod)
c:/_ndsdev/devkitpro/devkitarm/bin/../lib/gcc/arm-eabi/4.6.1/thumb\libgcc.a(bpabi.o)
                              c:/_ndsdev/devkitpro/devkitarm/bin/../lib/gcc/arm-eabi/4.6.1/thumb\libgcc.a(_aeabi_uldivmod.o) (__gnu_uldivmod_helper)
c:/_ndsdev/devkitpro/devkitarm/bin/../lib/gcc/arm-eabi/4.6.1/thumb\libgcc.a(_divdi3.o)
                              c:/_ndsdev/devkitpro/devkitarm/bin/../lib/gcc/arm-eabi/4.6.1/thumb\libgcc.a(bpabi.o) (__divdi3)
c:/_ndsdev/devkitpro/devkitarm/bin/../lib/gcc/arm-eabi/4.6.1/thumb\libgcc.a(_udivdi3.o)
                              c:/_ndsdev/devkitpro/devkitarm/bin/../lib/gcc/arm-eabi/4.6.1/thumb\libgcc.a(bpabi.o) (__udivdi3)
c:/_ndsdev/devkitpro/devkitarm/bin/../lib/gcc/arm-eabi/4.6.1/thumb\libgcc.a(_clzsi2.o)
                              c:/_ndsdev/devkitpro/devkitarm/bin/../lib/gcc/arm-eabi/4.6.1/thumb\libgcc.a(_divdi3.o) (__clzsi2)
c:/_ndsdev/devkitpro/devkitarm/bin/../lib/gcc/arm-eabi/4.6.1/../../../../arm-eabi/lib/thumb\libg.a(lib_a-errno.o)
                              c:/_ndsdev/devkitpro/devkitarm/bin/../lib/gcc/arm-eabi/4.6.1/../../../../arm-eabi/lib/thumb\libsysbase.a(times.o) (__errno)
c:/_ndsdev/devkitpro/devkitarm/bin/../lib/gcc/arm-eabi/4.6.1/../../../../arm-eabi/lib/thumb\libg.a(lib_a-strnlen.o)
                              c:/_ndsdev/devkitpro/devkitarm/bin/../lib/gcc/arm-eabi/4.6.1/../../../../arm-eabi/lib/thumb\libsysbase.a(dirent.o) (strnlen)

Allocating common symbols
Common symbol       size              file

PA_ScreenSpace      0x2               c:/_ndsdev/devkitPro/PAlib/lib\libpa9.a(PA.o)
PA_Reco             0xc               c:/_ndsdev/devkitPro/PAlib/lib\libpa9.a(PA_Reco.o)
fifo_datamsg_data   0x40              c:/_ndsdev/devkitPro/libnds/lib\libnds9.a(fifosystem.o)
PA_Draw16           0x8               c:/_ndsdev/devkitPro/PAlib/lib\libpa9.a(PA_16c.o)
PA_RTC              0x8               c:/_ndsdev/devkitPro/PAlib/lib\libpa9.a(PA_RTC.o)
free_mem            0x2000            c:/_ndsdev/devkitPro/PAlib/lib\libpa9.a(PA_Sprite.o)
PadPointer          0x4               c:/_ndsdev/devkitPro/PAlib/lib\libpa9.a(PA.o)
__dsimode           0x1               c:/_ndsdev/devkitPro/libnds/lib\libnds9.a(initSystem.o)
bgState             0x140             c:/_ndsdev/devkitPro/libnds/lib\libnds9.a(background.o)
fifo_buffer         0x800             c:/_ndsdev/devkitPro/libnds/lib\libnds9.a(fifosystem.o)
PA_texttiles        0x8               c:/_ndsdev/devkitPro/PAlib/lib\libpa9.a(PA_Text.o)
n_free_mem          0x4               c:/_ndsdev/devkitPro/PAlib/lib\libpa9.a(PA_Sprite.o)
PA_SpritePrio       0x100             c:/_ndsdev/devkitPro/PAlib/lib\libpa9.a(PA_Sprite.o)
PA_LetterPos        0x3004            c:/_ndsdev/devkitPro/PAlib/lib\libpa9.a(PA_TextBits.o)
bgIsTextLut         0x8               c:/_ndsdev/devkitPro/libnds/lib\libnds9.a(background.o)
PA_olddowntime      0x4               c:/_ndsdev/devkitPro/PAlib/lib\libpa9.a(PA_Draw.o)
PA_Keyboard_Struct  0x12              c:/_ndsdev/devkitPro/PAlib/lib\libpa9.a(PA_Keyboard.o)
PA_VBLCounter       0x40              c:/_ndsdev/devkitPro/PAlib/lib\libpa9.a(PA_Interrupt.o)
PA_parallaxY        0x20              c:/_ndsdev/devkitPro/PAlib/lib\libpa9.a(PA_BgTiles.o)
used_mem            0x800             c:/_ndsdev/devkitPro/PAlib/lib\libpa9.a(PA_Sprite.o)
fifo_value32_func   0x40              c:/_ndsdev/devkitPro/libnds/lib\libnds9.a(fifosystem.o)
fifo_address_func   0x40              c:/_ndsdev/devkitPro/libnds/lib\libnds9.a(fifosystem.o)
PA_parallaxX        0x20              c:/_ndsdev/devkitPro/PAlib/lib\libpa9.a(PA_BgTiles.o)
PA_DrawBg32         0x8               c:/_ndsdev/devkitPro/PAlib/lib\libpa9.a(PA_Draw.o)
pa_checklid         0x1               c:/_ndsdev/devkitPro/PAlib/lib\libpa9.a(PA.o)
PA_RecoInfo         0x18              c:/_ndsdev/devkitPro/PAlib/lib\libpa9.a(PA_Reco.o)
spriteanims         0x2400            c:/_ndsdev/devkitPro/PAlib/lib\libpa9.a(PA_Sprite.o)
PA_SpriteAnimP      0x2000            c:/_ndsdev/devkitPro/PAlib/lib\libpa9.a(PA_Sprite.o)
PA_IPC              0x198             c:/_ndsdev/devkitPro/PAlib/lib\libpa9.a(PA.o)
Pad                 0x27              c:/_ndsdev/devkitPro/PAlib/lib\libpa9.a(PA.o)
PA_TextBox          0x8               c:/_ndsdev/devkitPro/PAlib/lib\libpa9.a(PA_Text.o)
PAbgtext            0x2               c:/_ndsdev/devkitPro/PAlib/lib\libpa9.a(PA_Text.o)
tempsize            0x2               c:/_ndsdev/devkitPro/PAlib/lib\libpa9.a(PA_BgTiles.o)
pa_printx           0x8               c:/_ndsdev/devkitPro/PAlib/lib\libpa9.a(PA_Text.o)
pa_bittextpoliceheight
                    0xa               c:/_ndsdev/devkitPro/PAlib/lib\libpa9.a(PA_TextBits.o)
Stylus              0x1c              c:/_ndsdev/devkitPro/PAlib/lib\libpa9.a(PA.o)
PA_first            0x200             c:/_ndsdev/devkitPro/PAlib/lib\libpa9.a(PA_Sprite.o)
pa_bittextsizes     0xa               c:/_ndsdev/devkitPro/PAlib/lib\libpa9.a(PA_TextBits.o)
fifo_value32_data   0x40              c:/_ndsdev/devkitPro/libnds/lib\libnds9.a(fifosystem.o)
charblocks          0x8c              c:/_ndsdev/devkitPro/PAlib/lib\libpa9.a(PA_BgTiles.o)
PA_next             0x100             c:/_ndsdev/devkitPro/PAlib/lib\libpa9.a(PA_Sprite.o)
PA_bgmap            0x20              c:/_ndsdev/devkitPro/PAlib/lib\libpa9.a(PA.o)
PA_GifInfo          0x14              c:/_ndsdev/devkitPro/PAlib/lib\libpa9.a(PA.o)
fifo_value32_queue  0x40              c:/_ndsdev/devkitPro/libnds/lib\libnds9.a(fifosystem.o)
PA_StylusPos        0x9c40            c:/_ndsdev/devkitPro/PAlib/lib\libpa9.a(PA_Reco.o)
fifo_data_queue     0x40              c:/_ndsdev/devkitPro/libnds/lib\libnds9.a(fifosystem.o)
rotbg_size          0x8               c:/_ndsdev/devkitPro/PAlib/lib\libpa9.a(PA_BgRot.o)
PA_VBLCounterOn     0x10              c:/_ndsdev/devkitPro/PAlib/lib\libpa9.a(PA_Interrupt.o)
pa_printy           0x8               c:/_ndsdev/devkitPro/PAlib/lib\libpa9.a(PA_Text.o)
PA_DrawBg           0x8               c:/_ndsdev/devkitPro/PAlib/lib\libpa9.a(PA_Draw.o)
PA_oldx             0x4               c:/_ndsdev/devkitPro/PAlib/lib\libpa9.a(PA_Draw.o)
textcol             0x4               c:/_ndsdev/devkitPro/PAlib/lib\libpa9.a(PA_Text.o)
PA_drawsize         0x2               c:/_ndsdev/devkitPro/PAlib/lib\libpa9.a(PA_Draw.o)
obj_per_gfx         0x800             c:/_ndsdev/devkitPro/PAlib/lib\libpa9.a(PA_Sprite.o)
PA_CustomShape      0xd48             c:/_ndsdev/devkitPro/PAlib/lib\libpa9.a(PA_Reco.o)
PA_RecoShape        0x10              c:/_ndsdev/devkitPro/PAlib/lib\libpa9.a(PA_Reco.o)
pa_printscroll      0x4               c:/_ndsdev/devkitPro/PAlib/lib\libpa9.a(PA_Text.o)
PA_oldy             0x4               c:/_ndsdev/devkitPro/PAlib/lib\libpa9.a(PA_Draw.o)
PA_MovedSprite      0x10              c:/_ndsdev/devkitPro/PAlib/lib\libpa9.a(PA.o)
PA_BgInfo           0x220             c:/_ndsdev/devkitPro/PAlib/lib\libpa9.a(PA_BgTiles.o)
tempvar             0x2               c:/_ndsdev/devkitPro/PAlib/lib\libpa9.a(PA_Draw.o)
punixTime           0x4               c:/_ndsdev/devkitpro/devkitarm/bin/../lib/gcc/arm-eabi/4.6.1/../../../../arm-eabi/lib/thumb\libsysbase.a(times.o)
fifo_address_data   0x40              c:/_ndsdev/devkitPro/libnds/lib\libnds9.a(fifosystem.o)
_PA_LidDown         0x1               c:/_ndsdev/devkitPro/PAlib/lib\libpa9.a(PA_Keys.o)
PA_temppal          0x200             c:/_ndsdev/devkitPro/PAlib/lib\libpa9.a(PA_Draw.o)
PA_UserInfo         0x52              c:/_ndsdev/devkitPro/PAlib/lib\libpa9.a(PA_RTC.o)
scrollpos           0xe0              c:/_ndsdev/devkitPro/PAlib/lib\libpa9.a(PA_BgTiles.o)
PA_obj              0x800             c:/_ndsdev/devkitPro/PAlib/lib\libpa9.a(PA_Sprite.o)
DualSpriteX         0x100             c:/_ndsdev/devkitPro/PAlib/lib\libpa9.a(PA_Sprite.o)
PA_textpal          0x8               c:/_ndsdev/devkitPro/PAlib/lib\libpa9.a(PA_Text.o)
PA_nBit             0x2               c:/_ndsdev/devkitPro/PAlib/lib\libpa9.a(PA_Draw.o)
fifo_datamsg_func   0x40              c:/_ndsdev/devkitPro/libnds/lib\libnds9.a(fifosystem.o)
PA_Draw1632         0x8               c:/_ndsdev/devkitPro/PAlib/lib\libpa9.a(PA_16c.o)
pa_obj_created      0x100             c:/_ndsdev/devkitPro/PAlib/lib\libpa9.a(PA_Sprite.o)
fifo_address_queue  0x40              c:/_ndsdev/devkitPro/libnds/lib\libnds9.a(fifosystem.o)
PA_textmap          0x8               c:/_ndsdev/devkitPro/PAlib/lib\libpa9.a(PA_Text.o)
PA_ExtPal           0x4               c:/_ndsdev/devkitPro/PAlib/lib\libpa9.a(PA_Palette.o)

Memory Configuration

Name             Origin             Length             Attributes
rom              0x08000000         0x02000000
ewram            0x02000000         0x003ff000
dtcm             0x0b000000         0x00004000
vectors          0x01000000         0x00000100
itcm             0x01000100         0x00007f00
*default*        0x00000000         0xffffffff

Linker script and memory map

                0x01000000                __vectors_start = ORIGIN (vectors)
                0x01000100                __itcm_start = ORIGIN (itcm)
                0x023ff000                __ewram_end = (ORIGIN (ewram) + 0x3ff000)
                0x023ff000                __eheap_end = (ORIGIN (ewram) + 0x3ff000)
                0x0b000000                __dtcm_start = ORIGIN (dtcm)
                0x0b004000                __dtcm_top = (ORIGIN (dtcm) + 0x4000)
                0x0b003ff8                __irq_flags = (__dtcm_top - 0x8)
                0x0b003ffc                __irq_vector = (__dtcm_top - 0x4)
                0x0b003f00                __sp_svc = (__dtcm_top - 0x100)
                0x0b003e00                __sp_irq = (__sp_svc - 0x100)
                0x0b003d00                __sp_usr = (__sp_irq - 0x100)

.init           0x02000000      0x23c
                0x02000000                __text_start = .
 *(.init)
 .init          0x02000000      0x230 c:/_ndsdev/devkitpro/devkitarm/bin/../lib/gcc/arm-eabi/4.6.1/../../../../arm-eabi/lib/thumb/ds_arm9_crt0.o
                0x02000000                _start
 .init          0x02000230        0x4 c:/_ndsdev/devkitpro/devkitarm/bin/../lib/gcc/arm-eabi/4.6.1/thumb/crti.o
                0x02000230                _init
 .init          0x02000234        0x8 c:/_ndsdev/devkitpro/devkitarm/bin/../lib/gcc/arm-eabi/4.6.1/thumb/crtn.o
                0x0200023c                . = ALIGN (0x4)

.plt
 *(.plt)

.text           0x02000240    0x141c0
 *(EXCLUDE_FILE(*.itcm*) .text)
 .text          0x02000240        0x0 c:/_ndsdev/devkitpro/devkitarm/bin/../lib/gcc/arm-eabi/4.6.1/../../../../arm-eabi/lib/thumb/ds_arm9_crt0.o
 .text          0x02000240        0x0 c:/_ndsdev/devkitpro/devkitarm/bin/../lib/gcc/arm-eabi/4.6.1/thumb/crti.o
 .text          0x02000240       0x6c c:/_ndsdev/devkitpro/devkitarm/bin/../lib/gcc/arm-eabi/4.6.1/thumb/crtbegin.o
 .text          0x020002ac        0x0 Town_Map.o
 .text          0x020002ac        0x0 Town_Pal.o
 .text          0x020002ac        0x0 Town_Tiles.o
 .text          0x020002ac        0x0 bg_main_down_Map.o
 .text          0x020002ac        0x0 bg_main_down_Pal.o
 .text          0x020002ac        0x0 bg_main_down_Tiles.o
 .text          0x020002ac        0x0 bg_main_up_Map.o
 .text          0x020002ac        0x0 bg_main_up_Pal.o
 .text          0x020002ac        0x0 bg_main_up_Tiles.o
 .text          0x020002ac        0x0 bg_menu_Map.o
 .text          0x020002ac        0x0 bg_menu_Pal.o
 .text          0x020002ac        0x0 bg_menu_Tiles.o
 .text          0x020002ac        0x0 bg_stage1_init_Map.o
 .text          0x020002ac        0x0 bg_stage1_init_Pal.o
 .text          0x020002ac        0x0 bg_stage1_init_Tiles.o
 .text          0x020002ac        0x0 bg_stage2_init_Map.o
 .text          0x020002ac        0x0 bg_stage2_init_Pal.o
 .text          0x020002ac        0x0 bg_stage2_init_Tiles.o
 .text          0x020002ac        0x0 bg_stage3_init_Map.o
 .text          0x020002ac        0x0 bg_stage3_init_Pal.o
 .text          0x020002ac        0x0 bg_stage3_init_Tiles.o
 .text          0x020002ac        0x0 gameover_Map.o
 .text          0x020002ac        0x0 gameover_Pal.o
 .text          0x020002ac        0x0 gameover_Tiles.o
 .text          0x020002ac        0x0 hpminus_Pal.o
 .text          0x020002ac        0x0 hpminus_Sprite.o
 .text          0x020002ac        0x0 monster_Pal.o
 .text          0x020002ac        0x0 monster_Sprite.o
 .text          0x020002ac        0x0 princess_Pal.o
 .text          0x020002ac        0x0 princess_Sprite.o
 .text          0x020002ac        0x0 som_Pal.o
 .text          0x020002ac        0x0 som_Sprite.o
 .text          0x020002ac        0x0 sprite1_Pal.o
 .text          0x020002ac        0x0 sprite1_Sprite.o
 .text          0x020002ac        0x0 stage1_Map.o
 .text          0x020002ac        0x0 stage1_Pal.o
 .text          0x020002ac        0x0 stage1_Tiles.o
 .text          0x020002ac        0x0 stage2_Map.o
 .text          0x020002ac        0x0 stage2_Pal.o
 .text          0x020002ac        0x0 stage2_Tiles.o
 .text          0x020002ac        0x0 water_Pal.o
 .text          0x020002ac        0x0 water_Sprite.o
 .text          0x020002ac        0x0 soundbank_bin.o
 .text          0x020002ac        0x0 down.o
 .text          0x020002ac        0x0 up.o
 .text          0x020002ac       0x7c crystal.o
                0x020002ac                crystal::~crystal()
                0x020002ac                crystal::~crystal()
                0x020002b8                crystal::~crystal()
                0x020002d0                crystal::crystal()
                0x020002d0                crystal::crystal()
                0x020002e4                crystal::move(int, int)
                0x02000324                crystal::destory()
 .text          0x02000328       0xac crystal_Ball.o
                0x02000328                crystal_Ball::~crystal_Ball()
                0x02000328                crystal_Ball::~crystal_Ball()
                0x02000334                crystal_Ball::~crystal_Ball()
                0x0200034c                crystal_Ball::crystal_Ball()
                0x0200034c                crystal_Ball::crystal_Ball()
                0x02000368                crystal_Ball::move(int, int)
                0x020003ac                crystal_Ball::ball_setting(int, int)
 .text          0x020003d4      0x684 cs_api.o
                0x020003d4                sprite_print(void*, void*, int, int)
                0x02000438                sprite_print2(void*, void*, int, int)
                0x020004a8                sprite_print_dual(void*, void*, int, int, int, int)
                0x0200063c                sprite_print_dual2(void*, void*, int, int, int, int)
                0x020007d4                dualback_print(PA_BgStruct const*)
                0x0200080c                move_sprite(unsigned char, int, int)
                0x02000834                dual_move(unsigned char, int, int)
                0x0200090c                press_key_move()
                0x020009d0                touch_key_move()
                0x020009f8                A_press_key()
                0x02000a04                UnLoad_Screen()
                0x02000a28                wait(int)
 .text          0x02000a58      0x578 game.o
                0x02000a58                init_singleplay()
                0x02000aa0                singleplay_start()
 .text          0x02000fd0       0xe8 hero.o
                0x02000fd0                hero::hero()
                0x02000fd0                hero::hero()
                0x02000ff4                hero::~hero()
                0x02000ff4                hero::~hero()
                0x02000ff8                hero::move()
 .text          0x020010b8       0x74 main.o
 .text          0x0200112c       0x94 menu.o
                0x0200112c                ret_next()
                0x02001158                sel_menu()
 .text          0x020011c0       0xb8 monster.o
                0x020011c0                monster::~monster()
                0x020011c0                monster::~monster()
                0x020011cc                monster::~monster()
                0x020011e4                monster::monster()
                0x020011e4                monster::monster()
                0x020011fc                monster::monster_setting(int, int, int)
                0x02001224                monster::move(int)
 .text          0x02001278       0x8c princess.o
                0x02001278                princess::~princess()
                0x02001278                princess::~princess()
                0x02001284                princess::~princess()
                0x0200129c                princess::princess()
                0x0200129c                princess::princess()
                0x020012c8                princess::move(int)
 .text          0x02001304       0xb4 water.o
                0x02001304                water::~water()
                0x02001304                water::~water()
                0x02001310                water::~water()
                0x02001328                water::water()
                0x02001328                water::water()
                0x0200133c                water::water_setting(int, int)
                0x02001364                water::move(int)
 .text          0x020013b8      0x264 croutine.o
                0x020013b8                xCoRoutineCreate
                0x02001470                vCoRoutineAddToDelayedList
                0x020014b4                vCoRoutineSchedule
                0x020015e4                xCoRoutineRemoveFromEventList
 .text          0x0200161c       0x30 heap.o
                0x0200161c                pvPortMalloc
                0x02001634                vPortFree
 .text          0x0200164c       0x98 list.o
                0x0200164c                vListInitialise
                0x02001664                vListInitialiseItem
                0x0200166c                vListInsertEnd
                0x02001688                vListInsert
                0x020016c0                vListRemove
 .text          0x020016e4       0xd4 port.o
                0x020016e4                pxPortInitialiseStack
                0x0200177c                xPortStartScheduler
                0x020017b4                vPortEndScheduler
 .text          0x020017b8       0x40 portISR.o
                0x020017b8                vPortISRStartFirstTask
                0x020017c0                vPortYieldProcessor
                0x020017c0                vPortEnterCritical
                0x020017d4                vPortExitCritical
 .text          0x020017f8      0x4e4 queue.o
                0x0200191c                xQueueCreate
                0x02001980                xQueueGenericSend
                0x02001a8c                xQueueCreateMutex
                0x02001ad0                xQueueGenericSendFromISR
                0x02001b14                xQueueGenericReceive
                0x02001c58                xQueueReceiveFromISR
                0x02001c9c                uxQueueMessagesWaiting
                0x02001cb0                uxQueueMessagesWaitingFromISR
                0x02001cb4                vQueueDelete
                0x02001cc8                xQueueIsQueueEmptyFromISR
                0x02001cd0                xQueueIsQueueFullFromISR
 .text          0x02001cdc      0xb40 tasks.o
                0x02001d7c                xTaskGenericCreate
                0x02001f18                vTaskDelete
                0x02001f80                uxTaskPriorityGet
                0x02001fa0                vTaskPrioritySet
                0x02002038                vTaskSuspend
                0x02002088                xTaskIsTaskSuspended
                0x020020b0                vTaskResume
                0x02002110                xTaskResumeFromISR
                0x02002180                vTaskStartScheduler
                0x020021c0                vTaskEndScheduler
                0x020021d8                vTaskSuspendAll
                0x020021e8                xTaskGetTickCount
                0x02002200                uxTaskGetNumberOfTasks
                0x0200220c                vTaskStartTrace
                0x02002230                ulTaskEndTrace
                0x0200224c                vTaskIncrementTick
                0x020022d4                xTaskResumeAll
                0x020023a0                vTaskList
                0x020024bc                vTaskDelay
                0x02002510                vTaskDelayUntil
                0x02002578                vTaskSwitchContext
                0x0200261c                vTaskPlaceOnEventList
                0x02002678                xTaskRemoveFromEventList
                0x020026e8                vTaskSetTimeOutState
                0x020026f8                xTaskCheckForTimeOut
                0x02002754                vTaskMissedYield
                0x02002760                xTaskGetCurrentTaskHandle
                0x0200276c                vTaskPriorityInherit
                0x020027d4                vTaskPriorityDisinherit
 .text          0x0200281c      0x400 virtual_io.o
                0x02002a2c                init_virtual_io
                0x02002aac                readb_virtual_io
                0x02002b00                writeb_virtual_io
                0x02002c04                close_virtual_io
 .text          0x02002c1c        0x0 Town.o
 .text          0x02002c1c        0x0 bg_main_down.o
 .text          0x02002c1c        0x0 bg_main_up.o
 .text          0x02002c1c        0x0 bg_menu.o
 .text          0x02002c1c        0x0 bg_stage1_init.o
 .text          0x02002c1c        0x0 bg_stage2_init.o
 .text          0x02002c1c        0x0 bg_stage3_init.o
 .text          0x02002c1c        0x0 gameover.o
 .text          0x02002c1c        0x0 stage1.o
 .text          0x02002c1c        0x0 stage2.o
 *fill*         0x02002c1c        0x4 ff
 .text          0x02002c20       0xf0 assemfunc.o
                0x02002c20                vPortDisableInterruptsFromThumb
                0x02002c38                vPortEnableInterruptsFromThumb
                0x02002c50                portRESTORE_CONTEXT_FIRST
                0x02002c68                portRESTORE_CONTEXT
                0x02002ca0                vPreemptiveTick
 .text          0x02002d10       0xbc c:/_ndsdev/devkitPro/PAlib/lib\libpa9.a(PA.o)
                0x02002d10                PA_SetBrightness
                0x02002d50                PA_Nothing
                0x02002d54                PA_CheckLid
 .text          0x02002dcc      0x338 c:/_ndsdev/devkitPro/PAlib/lib\libpa9.a(PA_BgEasy.o)
                0x02002dcc                PA_EasyBgScrollX
                0x02002e58                PA_EasyBgScrollY
                0x02002ee4                PA_StoreEasyBgInfos
                0x02002f20                PA_EasyBgLoadEx
 .text          0x02003104      0xccc c:/_ndsdev/devkitPro/PAlib/lib\libpa9.a(PA_BgLargeMap.o)
                0x02003104                PA_LargeScrollXN
                0x020032c0                PA_LargeScrollYN
                0x02003470                PA_InfLargeScrollXN
                0x02003654                PA_InfLargeScrollYN
                0x0200383c                PA_UpdateTileEngineX
                0x02003978                PA_UpdateTileEngineY
                0x02003ab0                PA_InfTilesScrollX
                0x02003b40                PA_InfTilesScrollY
                0x02003bd0                PA_InitLargeBg
 .text          0x02003dd0      0x6f0 c:/_ndsdev/devkitPro/PAlib/lib\libpa9.a(PA_BgTiles.o)
                0x02003dd0                PA_ReLoadBgTiles
                0x02003e18                PA_InitBg
                0x02003f00                PA_DeleteTiles
                0x02003f94                PA_LoadBgTilesEx
                0x020041a4                PA_DeleteMap
                0x02004220                PA_LoadBgMap
                0x0200439c                PA_ResetBgSysScreen
                0x020044b0                PA_ResetBgSys
 .text          0x020044c0       0x84 c:/_ndsdev/devkitPro/PAlib/lib\libpa9.a(PA_Error.o)
                0x020044c0                PA_Error
                0x020044e0                _PA_Assert
 .text          0x02004544      0x278 c:/_ndsdev/devkitPro/PAlib/lib\libpa9.a(PA_Inits.o)
                0x02004544                PA_Init2D
                0x020045a0                PA_Init
 .text          0x020047bc       0x78 c:/_ndsdev/devkitPro/PAlib/lib\libpa9.a(PA_Interrupt.o)
                0x020047bc                PA_VBLCountersReset
                0x020047dc                PA_vblFunc
 .text          0x02004834      0x2e0 c:/_ndsdev/devkitPro/PAlib/lib\libpa9.a(PA_Keys.o)
                0x02004834                PA_UpdatePad
                0x02004a4c                PA_UpdateStylus
 .text          0x02004b14      0x158 c:/_ndsdev/devkitPro/PAlib/lib\libpa9.a(PA_Math.o)
                0x02004b14                PA_AdjustAngle
 .text          0x02004c6c      0x824 c:/_ndsdev/devkitPro/PAlib/lib\libpa9.a(PA_NewBg.o)
                0x02004c6c                PA_LoadBackground
                0x02005168                PA_LoadText
                0x0200529c                PA_LoadKeyboard
                0x020053f0                PA_AddBitmapFont
                0x02005440                PA_Add16cFont
 .text          0x02005490      0x244 c:/_ndsdev/devkitPro/PAlib/lib\libpa9.a(PA_Palette.o)
                0x02005490                PA_LoadSpriteExtPal
                0x02005548                PA_InitSpriteExtPal
                0x020055a0                PA_LoadBgPalN
                0x02005670                PA_InitBgExtPal
 .text          0x020056d4       0xc4 c:/_ndsdev/devkitPro/PAlib/lib\libpa9.a(PA_RTC.o)
                0x020056d4                PA_UpdateUserInfo
                0x02005758                PA_UpdateRTC
 .text          0x02005798      0x4e4 c:/_ndsdev/devkitPro/PAlib/lib\libpa9.a(PA_Reco.o)
                0x02005798                PA_StylusLine
                0x020058f8                PA_AnalyzeShape
                0x02005bf8                PA_CheckLetter
 .text          0x02005c7c      0x7dc c:/_ndsdev/devkitPro/PAlib/lib\libpa9.a(PA_Sprite.o)
                0x02005c7c                PA_InitSpriteExtPrio
                0x02005cb0                PA_ResetSpriteSysScreen
                0x02005e04                PA_ResetSpriteSys
                0x02005e20                PA_CreateGfx
                0x02005f7c                PA_DeleteGfx
                0x02006118                PA_DeleteSprite
                0x0200626c                PA_InitSpriteDraw
                0x020062cc                PA_UpdateOAM
                0x02006420                PA_UpdateSpriteVBL
 .text          0x02006458      0x3d8 c:/_ndsdev/devkitPro/PAlib/lib\libpa9.a(PA_SpriteAnim.o)
                0x02006458                PA_UpdateSpriteAnims
                0x02006670                PA_StartSpriteAnimEx
 .text          0x02006830      0x1b4 c:/_ndsdev/devkitPro/PAlib/lib\libpa9.a(PA_Stuff.o)
                0x02006830                PA_SetVideoMode
                0x02006854                PA_Locate
 *fill*         0x020069e4        0x4 ff
 .text          0x020069e8      0xa98 c:/_ndsdev/devkitPro/PAlib/lib\libpa9.a(PA_Text.o)
                0x020069e8                PA_CreateTextPal
                0x02006a94                PA_LoadDefaultText
                0x02006b5c                PA_OutputSimpleText
                0x02006c38                PA_OutputText
                0x020073d8                PA_ClearTextBg
 .text          0x02007480     0x1230 c:/_ndsdev/devkitPro/PAlib/lib\libpa9.a(PA_Text8bit.o)
                0x02007480                NoLetter
                0x02007484                Letter
                0x02007874                RotLetter2
                0x02007cb8                RotLetter
                0x02008100                TranspLetter
                0x02008524                pa_8bitTextDecompress
                0x0200859c                PA_8bitText
                0x0200864c                PA_CenterSmartText
 .text          0x020086b0      0x428 c:/_ndsdev/devkitPro/PAlib/lib\libpa9.a(PA_TextBits.o)
                0x020086b0                PA_DoAlign
                0x02008804                PA_DoLetterPos
 .text          0x02008ad8        0x0 c:/_ndsdev/devkitPro/PAlib/lib\libpa9.a(PA_TiledFont.o)
 .text          0x02008ad8        0x0 c:/_ndsdev/devkitPro/PAlib/lib\libpa9.a(PA_BmpFont0.o)
 .text          0x02008ad8        0x0 c:/_ndsdev/devkitPro/PAlib/lib\libpa9.a(PA_BmpFont1.o)
 .text          0x02008ad8        0x0 c:/_ndsdev/devkitPro/PAlib/lib\libpa9.a(PA_BmpFont2.o)
 .text          0x02008ad8        0x0 c:/_ndsdev/devkitPro/PAlib/lib\libpa9.a(PA_BmpFont3.o)
 .text          0x02008ad8        0x0 c:/_ndsdev/devkitPro/PAlib/lib\libpa9.a(PA_BmpFont4.o)
 .text          0x02008ad8        0x0 c:/_ndsdev/devkitPro/PAlib/lib\libpa9.a(PA_TiledFont_Map.bin.o)
 .text          0x02008ad8        0x0 c:/_ndsdev/devkitPro/PAlib/lib\libpa9.a(PA_TiledFont_Pal.bin.o)
 .text          0x02008ad8        0x0 c:/_ndsdev/devkitPro/PAlib/lib\libpa9.a(PA_TiledFont_Tiles.bin.o)
 .text          0x02008ad8        0x0 c:/_ndsdev/devkitPro/PAlib/lib\libpa9.a(PA_BmpFont0_Map.bin.o)
 .text          0x02008ad8        0x0 c:/_ndsdev/devkitPro/PAlib/lib\libpa9.a(PA_BmpFont0_Sizes.bin.o)
 .text          0x02008ad8        0x0 c:/_ndsdev/devkitPro/PAlib/lib\libpa9.a(PA_BmpFont0_Tiles.bin.o)
 .text          0x02008ad8        0x0 c:/_ndsdev/devkitPro/PAlib/lib\libpa9.a(PA_BmpFont1_Map.bin.o)
 .text          0x02008ad8        0x0 c:/_ndsdev/devkitPro/PAlib/lib\libpa9.a(PA_BmpFont1_Sizes.bin.o)
 .text          0x02008ad8        0x0 c:/_ndsdev/devkitPro/PAlib/lib\libpa9.a(PA_BmpFont1_Tiles.bin.o)
 .text          0x02008ad8        0x0 c:/_ndsdev/devkitPro/PAlib/lib\libpa9.a(PA_BmpFont2_Map.bin.o)
 .text          0x02008ad8        0x0 c:/_ndsdev/devkitPro/PAlib/lib\libpa9.a(PA_BmpFont2_Sizes.bin.o)
 .text          0x02008ad8        0x0 c:/_ndsdev/devkitPro/PAlib/lib\libpa9.a(PA_BmpFont2_Tiles.bin.o)
 .text          0x02008ad8        0x0 c:/_ndsdev/devkitPro/PAlib/lib\libpa9.a(PA_BmpFont3_Map.bin.o)
 .text          0x02008ad8        0x0 c:/_ndsdev/devkitPro/PAlib/lib\libpa9.a(PA_BmpFont3_Sizes.bin.o)
 .text          0x02008ad8        0x0 c:/_ndsdev/devkitPro/PAlib/lib\libpa9.a(PA_BmpFont3_Tiles.bin.o)
 .text          0x02008ad8        0x0 c:/_ndsdev/devkitPro/PAlib/lib\libpa9.a(PA_BmpFont4_Map.bin.o)
 .text          0x02008ad8        0x0 c:/_ndsdev/devkitPro/PAlib/lib\libpa9.a(PA_BmpFont4_Sizes.bin.o)
 .text          0x02008ad8        0x0 c:/_ndsdev/devkitPro/PAlib/lib\libpa9.a(PA_BmpFont4_Tiles.bin.o)
 .text          0x02008ad8      0x6d0 c:/_ndsdev/devkitPro/PAlib/lib\libpa9.a(PA_16c.o)
                0x02008ad8                PA_16c8X8Color
                0x02008c30                PA_Init16cBgEx
                0x02008dd0                pa_16cTextDecompress
                0x02008e5c                PA_16cText
                0x02008fe0                PA_16cErase
                0x02009018                PA_16cClearZone
 .text          0x020091a8      0x188 c:/_ndsdev/devkitPro/PAlib/lib\libpa9.a(PA_BgRot.o)
                0x020091a8                PA_LoadRotBgMap
 .text          0x02009330      0x2b4 c:/_ndsdev/devkitPro/PAlib/lib\libpa9.a(PA_Draw.o)
                0x02009330                PA_LoadBmpToBuffer
 .text          0x020095e4       0x50 c:/_ndsdev/devkitPro/PAlib/lib\libpa9.a(PA_Fifo.o)
                0x020095e4                PA_FifoMsgHandler
                0x02009620                PA_InitFifo
 .text          0x02009634      0x604 c:/_ndsdev/devkitPro/PAlib/lib\libpa9.a(PA_Keyboard.o)
                0x02009634                PA_ReloadKeyboardCol
                0x02009714                PA_LoadDefaultKeyboard
                0x02009870                PA_ChangeKeyboardType
                0x020099f0                PA_SetLetterPal
                0x02009b10                PA_CheckKeyboard
 .text          0x02009c38      0x1e8 c:/_ndsdev/devkitPro/PAlib/lib\libpa9.a(PA_PaletteEx.o)
                0x02009c38                PA_CreatePalBright
                0x02009cfc                PA_CreatePalTransition
                0x02009d64                PA_SetBgPalNCol
                0x02009db4                PA_SetSpritePalCol
                0x02009dfc                PA_3DSetSpritePalCol
 .text          0x02009e20        0x0 c:/_ndsdev/devkitPro/PAlib/lib\libpa9.a(keyboard.map.o)
 .text          0x02009e20        0x0 c:/_ndsdev/devkitPro/PAlib/lib\libpa9.a(keyboard.pal.o)
 .text          0x02009e20        0x0 c:/_ndsdev/devkitPro/PAlib/lib\libpa9.a(keyboard.raw.o)
 .text          0x02009e20      0x314 c:/_ndsdev/devkitPro/libnds/lib\libnds9.a(background.o)
                0x02009e20                bgIsText
                0x02009e2c                checkIfText
                0x02009e8c                bgUpdate
                0x02009f9c                bgInit_call
                0x0200a060                bgInitSub_call
 .text          0x0200a134       0x84 c:/_ndsdev/devkitPro/libnds/lib\libnds9.a(decompress.o)
                0x0200a134                getHeader
                0x0200a138                readByte
                0x0200a13c                decompress
                0x0200a17c                decompressStream
 .text          0x0200a1b8       0xf4 c:/_ndsdev/devkitPro/libnds/lib\libnds9.a(keys.o)
                0x0200a1b8                scanKeys
                0x0200a224                keysHeld
                0x0200a230                keysDown
                0x0200a240                keysDownRepeat
                0x0200a250                keysSetRepeat
                0x0200a268                keysUp
                0x0200a278                keysCurrent
 .text          0x0200a2ac       0xf0 c:/_ndsdev/devkitPro/libnds/lib\libnds9.a(system.o)
                0x0200a2ac                systemMsgHandler
                0x0200a2f0                systemSleep
                0x0200a308                powerValueHandler
                0x0200a318                powerOn
                0x0200a344                powerOff
                0x0200a36c                ledBlink
                0x0200a37c                getBatteryLevel
 .text          0x0200a39c       0x4c c:/_ndsdev/devkitPro/libnds/lib\libnds9.a(touch.o)
                0x0200a39c                touchRead
                0x0200a3c4                touchReadXY
 .text          0x0200a3e8      0x248 c:/_ndsdev/devkitPro/libnds/lib\libnds9.a(trig.o)
                0x0200a3e8                asinComp
                0x0200a40c                sinLutLookup
                0x0200a448                sinLerp
                0x0200a480                cosLerp
                0x0200a494                tanLutLookup
                0x0200a4cc                tanLerp
                0x0200a57c                asinLerp
                0x0200a5f8                acosLerp
                0x0200a60c                atanComp
 .text          0x0200a630      0x1f8 c:/_ndsdev/devkitPro/libnds/lib\libnds9.a(video.o)
                0x0200a630                vramSetPrimaryBanks
                0x0200a674                vramSetMainBanks
                0x0200a6b8                vramSetBanks_EFG
                0x0200a6f0                vramRestorePrimaryBanks
                0x0200a6fc                vramRestoreMainBanks
                0x0200a708                vramRestoreBanks_EFG
                0x0200a714                setBrightness
                0x0200a754                vramDefault
 .text          0x0200a828      0x19c c:/_ndsdev/devkitPro/libnds/lib\libnds9.a(initSystem.o)
                0x0200a828                initSystem
 .text          0x0200a9c4      0xc8c c:/_ndsdev/devkitPro/libnds/lib\libnds9.a(fifosystem.o)
                0x0200ac24                fifoSendAddress
                0x0200ac50                fifoSendValue32
                0x0200ac90                fifoSendDatamsg
                0x0200ad00                fifoGetAddress
                0x0200ad74                fifoSetAddressHandler
                0x0200ade8                fifoGetValue32
                0x0200ae5c                fifoSetValue32Handler
                0x0200aed0                fifoGetDatamsg
                0x0200b378                fifoSetDatamsgHandler
                0x0200b410                fifoCheckAddress
                0x0200b434                fifoCheckDatamsg
                0x0200b458                fifoCheckValue32
                0x0200b47c                fifoInit
 .text          0x0200b650      0x1f4 c:/_ndsdev/devkitPro/libnds/lib\libnds9.a(interrupts.o)
                0x0200b650                irqDummy
                0x0200b654                irqSet
                0x0200b6c4                irqInit
                0x0200b710                irqInitHandler
                0x0200b740                irqEnable
                0x0200b7a4                irqDisable
                0x0200b808                irqClear
 .text          0x0200b844       0x40 c:/_ndsdev/devkitPro/libnds/lib\libnds9.a(libnds_exit.o)
                0x0200b844                systemErrorExit
                0x0200b848                __libnds_exit
 .text          0x0200b884       0x1c c:/_ndsdev/devkitPro/libnds/lib\libnds9.a(syscalls.o)
                0x0200b884                swiDecompressLZSSVram
 .text          0x0200b8a0       0x70 c:/_ndsdev/devkitPro/libnds/lib\libnds9.a(dcache.o)
                0x0200b8a0                DC_FlushAll
                0x0200b8cc                DC_FlushRange
                0x0200b8e8                DC_InvalidateAll
                0x0200b8f4                DC_InvalidateRange
 .text          0x0200b910      0x1b4 c:/_ndsdev/devkitPro/libnds/lib\libnds9.a(mpu_setup.o)
                0x0200b910                __libnds_mpu_setup
                0x0200ba50                memCached
                0x0200ba68                memUncached
 *fill*         0x0200bac4        0xc ff
 .text          0x0200bad0       0x70 c:/_ndsdev/devkitPro/libnds/lib\libnds9.a(biosCalls.o)
                0x0200bad0                swiDelay
                0x0200bad4                swiIntrWait
                0x0200bad8                swiWaitForVBlank
                0x0200badc                swiSleep
                0x0200bae0                swiChangeSoundBias
                0x0200bae4                swiDivide
                0x0200bae8                swiRemainder
                0x0200baee                swiDivMod
                0x0200bafa                swiCopy
                0x0200bafe                swiFastCopy
                0x0200bb02                swiSqrt
                0x0200bb06                swiCRC16
                0x0200bb0a                swiIsDebugger
                0x0200bb0e                swiUnpackBits
                0x0200bb12                swiDecompressLZSSWram
                0x0200bb16                swiDecompressLZSSVramNTR
                0x0200bb1a                swiDecompressLZSSVramTWL
                0x0200bb1e                swiDecompressHuffman
                0x0200bb22                swiDecompressRLEWram
                0x0200bb26                swiDecompressRLEVram
                0x0200bb2a                swiWaitForIRQ
                0x0200bb2e                swiDecodeDelta8
                0x0200bb32                swiDecodeDelta16
                0x0200bb36                swiSetHaltCR
 .text          0x0200bb40        0x0 c:/_ndsdev/devkitPro/libnds/lib\libnds9.a(interruptDispatcher.o)
 .text          0x0200bb40       0x30 c:/_ndsdev/devkitPro/libnds/lib\libnds9.a(swiSoftReset.o)
                0x0200bb40                swiSoftReset
 .text          0x0200bb70      0x11c c:/_ndsdev/devkitpro/devkitarm/bin/../lib/gcc/arm-eabi/4.6.1/thumb\libgcc.a(_udivsi3.o)
                0x0200bb70                __aeabi_uidiv
                0x0200bb70                __udivsi3
                0x0200bc6c                __aeabi_uidivmod
 .text          0x0200bc8c      0x150 c:/_ndsdev/devkitpro/devkitarm/bin/../lib/gcc/arm-eabi/4.6.1/thumb\libgcc.a(_divsi3.o)
                0x0200bc8c                __divsi3
                0x0200bc8c                __aeabi_idiv
                0x0200bdbc                __aeabi_idivmod
 .text          0x0200bddc        0x4 c:/_ndsdev/devkitpro/devkitarm/bin/../lib/gcc/arm-eabi/4.6.1/thumb\libgcc.a(_dvmd_tls.o)
                0x0200bddc                __aeabi_idiv0
                0x0200bddc                __aeabi_ldiv0
 .text          0x0200bde0      0x41c c:/_ndsdev/devkitpro/devkitarm/bin/../lib/gcc/arm-eabi/4.6.1/thumb\libgcc.a(_arm_addsubdf3.o)
                0x0200bde0                __aeabi_drsub
                0x0200bde8                __aeabi_dsub
                0x0200bde8                __subdf3
                0x0200bdec                __aeabi_dadd
                0x0200bdec                __adddf3
                0x0200c0fc                __floatunsidf
                0x0200c0fc                __aeabi_ui2d
                0x0200c120                __floatsidf
                0x0200c120                __aeabi_i2d
                0x0200c148                __aeabi_f2d
                0x0200c148                __extendsfdf2
                0x0200c188                __floatundidf
                0x0200c188                __aeabi_ul2d
                0x0200c19c                __floatdidf
                0x0200c19c                __aeabi_l2d
 .text          0x0200c1fc      0x49c c:/_ndsdev/devkitpro/devkitarm/bin/../lib/gcc/arm-eabi/4.6.1/thumb\libgcc.a(_arm_muldivdf3.o)
                0x0200c1fc                __aeabi_dmul
                0x0200c1fc                __muldf3
                0x0200c48c                __divdf3
                0x0200c48c                __aeabi_ddiv
 .text          0x0200c698      0x144 c:/_ndsdev/devkitpro/devkitarm/bin/../lib/gcc/arm-eabi/4.6.1/thumb\libgcc.a(_arm_cmpdf2.o)
                0x0200c698                __gtdf2
                0x0200c698                __gedf2
                0x0200c6a0                __ltdf2
                0x0200c6a0                __ledf2
                0x0200c6a8                __nedf2
                0x0200c6a8                __eqdf2
                0x0200c6a8                __cmpdf2
                0x0200c730                __aeabi_cdrcmple
                0x0200c74c                __aeabi_cdcmpeq
                0x0200c74c                __aeabi_cdcmple
                0x0200c764                __aeabi_dcmpeq
                0x0200c77c                __aeabi_dcmplt
                0x0200c794                __aeabi_dcmple
                0x0200c7ac                __aeabi_dcmpge
                0x0200c7c4                __aeabi_dcmpgt
 .text          0x0200c7dc       0x5c c:/_ndsdev/devkitpro/devkitarm/bin/../lib/gcc/arm-eabi/4.6.1/thumb\libgcc.a(_arm_fixdfsi.o)
                0x0200c7dc                __aeabi_d2iz
                0x0200c7dc                __fixdfsi
 .text          0x0200c838       0x4c c:/_ndsdev/devkitpro/devkitarm/bin/../lib/gcc/arm-eabi/4.6.1/thumb\libgcc.a(_muldi3.o)
                0x0200c838                __muldi3
                0x0200c838                __aeabi_lmul
 .text          0x0200c884       0x64 c:/_ndsdev/devkitpro/devkitarm/bin/../lib/gcc/arm-eabi/4.6.1/../../../../arm-eabi/lib/thumb\libg.a(lib_a-bsearch.o)
                0x0200c884                bsearch
 .text          0x0200c8e8       0x18 c:/_ndsdev/devkitpro/devkitarm/bin/../lib/gcc/arm-eabi/4.6.1/../../../../arm-eabi/lib/thumb\libg.a(lib_a-gmtime.o)
                0x0200c8e8                gmtime
 .text          0x0200c900       0x10 c:/_ndsdev/devkitpro/devkitarm/bin/../lib/gcc/arm-eabi/4.6.1/../../../../arm-eabi/lib/thumb\libg.a(lib_a-gmtime_r.o)
                0x0200c900                gmtime_r
 .text          0x0200c910        0x0 c:/_ndsdev/devkitpro/devkitarm/bin/../lib/gcc/arm-eabi/4.6.1/../../../../arm-eabi/lib/thumb\libg.a(lib_a-impure.o)
 .text          0x0200c910       0x50 c:/_ndsdev/devkitpro/devkitarm/bin/../lib/gcc/arm-eabi/4.6.1/../../../../arm-eabi/lib/thumb\libg.a(lib_a-init.o)
                0x0200c910                __libc_init_array
 .text          0x0200c960      0x938 c:/_ndsdev/devkitpro/devkitarm/bin/../lib/gcc/arm-eabi/4.6.1/../../../../arm-eabi/lib/thumb\libg.a(lib_a-locale.o)
                0x0200d01c                _setlocale_r
                0x0200d238                __locale_charset
                0x0200d240                __locale_mb_cur_max
                0x0200d24c                __locale_msgcharset
                0x0200d258                __locale_cjk_lang
                0x0200d264                _localeconv_r
                0x0200d270                setlocale
                0x0200d28c                localeconv
 .text          0x0200d298       0x30 c:/_ndsdev/devkitpro/devkitarm/bin/../lib/gcc/arm-eabi/4.6.1/../../../../arm-eabi/lib/thumb\libg.a(lib_a-malloc.o)
                0x0200d298                malloc
                0x0200d2b0                free
 .text          0x0200d2c8      0x514 c:/_ndsdev/devkitpro/devkitarm/bin/../lib/gcc/arm-eabi/4.6.1/../../../../arm-eabi/lib/thumb\libg.a(lib_a-mallocr.o)
                0x0200d2c8                _malloc_r
 .text          0x0200d7dc      0x5f8 c:/_ndsdev/devkitpro/devkitarm/bin/../lib/gcc/arm-eabi/4.6.1/../../../../arm-eabi/lib/thumb\libg.a(lib_a-mbtowc_r.o)
                0x0200d7dc                __utf8_mbtowc
                0x0200daa4                _mbtowc_r
                0x0200dae0                __ascii_mbtowc
                0x0200db0c                __sjis_mbtowc
                0x0200dbc8                __eucjp_mbtowc
                0x0200dca8                __jis_mbtowc
 .text          0x0200ddd4       0x80 c:/_ndsdev/devkitpro/devkitarm/bin/../lib/gcc/arm-eabi/4.6.1/../../../../arm-eabi/lib/thumb\libg.a(lib_a-memcpy.o)
                0x0200ddd4                memcpy
 .text          0x0200de54       0x98 c:/_ndsdev/devkitpro/devkitarm/bin/../lib/gcc/arm-eabi/4.6.1/../../../../arm-eabi/lib/thumb\libg.a(lib_a-memset.o)
                0x0200de54                memset
 .text          0x0200deec      0x488 c:/_ndsdev/devkitpro/devkitarm/bin/../lib/gcc/arm-eabi/4.6.1/../../../../arm-eabi/lib/thumb\libg.a(lib_a-mktm_r.o)
                0x0200deec                __tzcalc_limits
                0x0200e084                _mktm_r
 .text          0x0200e374        0x8 c:/_ndsdev/devkitpro/devkitarm/bin/../lib/gcc/arm-eabi/4.6.1/../../../../arm-eabi/lib/thumb\libg.a(lib_a-mlock.o)
                0x0200e374                __malloc_lock
                0x0200e378                __malloc_unlock
 .text          0x0200e37c       0x84 c:/_ndsdev/devkitpro/devkitarm/bin/../lib/gcc/arm-eabi/4.6.1/../../../../arm-eabi/lib/thumb\libg.a(lib_a-sprintf.o)
                0x0200e37c                _sprintf_r
                0x0200e3bc                sprintf
 .text          0x0200e400       0x50 c:/_ndsdev/devkitpro/devkitarm/bin/../lib/gcc/arm-eabi/4.6.1/../../../../arm-eabi/lib/thumb\libg.a(lib_a-strcasecmp.o)
                0x0200e400                strcasecmp
 .text          0x0200e450       0x58 c:/_ndsdev/devkitpro/devkitarm/bin/../lib/gcc/arm-eabi/4.6.1/../../../../arm-eabi/lib/thumb\libg.a(lib_a-strcat.o)
                0x0200e450                strcat
 .text          0x0200e4a8       0xe4 c:/_ndsdev/devkitpro/devkitarm/bin/../lib/gcc/arm-eabi/4.6.1/../../../../arm-eabi/lib/thumb\libg.a(lib_a-strchr.o)
                0x0200e4a8                strchr
 .text          0x0200e58c       0x14 c:/_ndsdev/devkitpro/devkitarm/bin/../lib/gcc/arm-eabi/4.6.1/../../../../arm-eabi/lib/thumb\libg.a(lib_a-strcmp.o)
                0x0200e58c                strcmp
 .text          0x0200e5a0       0x10 c:/_ndsdev/devkitpro/devkitarm/bin/../lib/gcc/arm-eabi/4.6.1/../../../../arm-eabi/lib/thumb\libg.a(lib_a-strcpy.o)
                0x0200e5a0                strcpy
 .text          0x0200e5b0       0x4c c:/_ndsdev/devkitpro/devkitarm/bin/../lib/gcc/arm-eabi/4.6.1/../../../../arm-eabi/lib/thumb\libg.a(lib_a-strlcpy.o)
                0x0200e5b0                strlcpy
 .text          0x0200e5fc       0x10 c:/_ndsdev/devkitpro/devkitarm/bin/../lib/gcc/arm-eabi/4.6.1/../../../../arm-eabi/lib/thumb\libg.a(lib_a-strlen.o)
                0x0200e5fc                strlen
 .text          0x0200e60c       0x60 c:/_ndsdev/devkitpro/devkitarm/bin/../lib/gcc/arm-eabi/4.6.1/../../../../arm-eabi/lib/thumb\libg.a(lib_a-strncasecmp.o)
                0x0200e60c                strncasecmp
 .text          0x0200e66c       0xc0 c:/_ndsdev/devkitpro/devkitarm/bin/../lib/gcc/arm-eabi/4.6.1/../../../../arm-eabi/lib/thumb\libg.a(lib_a-strncmp.o)
                0x0200e66c                strncmp
 .text          0x0200e72c       0x78 c:/_ndsdev/devkitpro/devkitarm/bin/../lib/gcc/arm-eabi/4.6.1/../../../../arm-eabi/lib/thumb\libg.a(lib_a-strncpy.o)
                0x0200e72c                strncpy
 .text          0x0200e7a4      0x184 c:/_ndsdev/devkitpro/devkitarm/bin/../lib/gcc/arm-eabi/4.6.1/../../../../arm-eabi/lib/thumb\libg.a(lib_a-strtol.o)
                0x0200e7a4                _strtol_r
                0x0200e908                strtol
 .text          0x0200e928     0x16f8 c:/_ndsdev/devkitpro/devkitarm/bin/../lib/gcc/arm-eabi/4.6.1/../../../../arm-eabi/lib/thumb\libg.a(lib_a-svfprintf.o)
                0x0200e928                _svfprintf_r
 .text          0x02010020       0x1c c:/_ndsdev/devkitpro/devkitarm/bin/../lib/gcc/arm-eabi/4.6.1/../../../../arm-eabi/lib/thumb\libg.a(lib_a-sysstat.o)
                0x02010020                stat
 .text          0x0201003c       0x30 c:/_ndsdev/devkitpro/devkitarm/bin/../lib/gcc/arm-eabi/4.6.1/../../../../arm-eabi/lib/thumb\libg.a(lib_a-time.o)
                0x0201003c                time
 .text          0x0201006c        0x8 c:/_ndsdev/devkitpro/devkitarm/bin/../lib/gcc/arm-eabi/4.6.1/../../../../arm-eabi/lib/thumb\libg.a(lib_a-tzlock.o)
                0x0201006c                __tz_lock
                0x02010070                __tz_unlock
 .text          0x02010074        0x0 c:/_ndsdev/devkitpro/devkitarm/bin/../lib/gcc/arm-eabi/4.6.1/../../../../arm-eabi/lib/thumb\libg.a(lib_a-tzvars.o)
 .text          0x02010074       0xdc c:/_ndsdev/devkitpro/devkitarm/bin/../lib/gcc/arm-eabi/4.6.1/../../../../arm-eabi/lib/thumb\libg.a(lib_a-wcrtomb.o)
                0x02010074                _wcrtomb_r
                0x020100d8                wcrtomb
 .text          0x02010150       0x40 c:/_ndsdev/devkitpro/devkitarm/bin/../lib/gcc/arm-eabi/4.6.1/../../../../arm-eabi/lib/thumb\libg.a(lib_a-wcsrtombs.o)
                0x02010150                _wcsrtombs_r
                0x02010168                wcsrtombs
 .text          0x02010190      0x27c c:/_ndsdev/devkitpro/devkitarm/bin/../lib/gcc/arm-eabi/4.6.1/../../../../arm-eabi/lib/thumb\libg.a(lib_a-wctomb_r.o)
                0x02010190                __utf8_wctomb
                0x02010250                _wctomb_r
                0x02010288                __ascii_wctomb
                0x020102a8                __sjis_wctomb
                0x02010314                __eucjp_wctomb
                0x02010390                __jis_wctomb
 .text          0x0201040c       0x10 c:/_ndsdev/devkitpro/devkitarm/bin/../lib/gcc/arm-eabi/4.6.1/../../../../arm-eabi/lib/thumb\libg.a(lib_a-ctype_.o)
                0x0201040c                __set_ctype
 *fill*         0x0201041c        0x4 ff
 .text          0x02010420     0x1010 c:/_ndsdev/devkitpro/devkitarm/bin/../lib/gcc/arm-eabi/4.6.1/../../../../arm-eabi/lib/thumb\libg.a(lib_a-dtoa.o)
                0x0201057c                _dtoa_r
 .text          0x02011430      0x248 c:/_ndsdev/devkitpro/devkitarm/bin/../lib/gcc/arm-eabi/4.6.1/../../../../arm-eabi/lib/thumb\libg.a(lib_a-freer.o)
                0x02011430                _malloc_trim_r
                0x020114dc                _free_r
 .text          0x02011678       0xa8 c:/_ndsdev/devkitpro/devkitarm/bin/../lib/gcc/arm-eabi/4.6.1/../../../../arm-eabi/lib/thumb\libg.a(lib_a-getenv_r.o)
                0x02011678                _findenv_r
                0x02011710                _getenv_r
 .text          0x02011720        0x8 c:/_ndsdev/devkitpro/devkitarm/bin/../lib/gcc/arm-eabi/4.6.1/../../../../arm-eabi/lib/thumb\libg.a(lib_a-gettzinfo.o)
                0x02011720                __gettzinfo
 .text          0x02011728       0x94 c:/_ndsdev/devkitpro/devkitarm/bin/../lib/gcc/arm-eabi/4.6.1/../../../../arm-eabi/lib/thumb\libg.a(lib_a-memchr.o)
                0x02011728                memchr
 *fill*         0x020117bc        0x4 ff
 .text          0x020117c0      0x988 c:/_ndsdev/devkitpro/devkitarm/bin/../lib/gcc/arm-eabi/4.6.1/../../../../arm-eabi/lib/thumb\libg.a(lib_a-mprec.o)
                0x020117c0                _Balloc
                0x02011814                _Bfree
                0x0201182c                __multadd
                0x020118c0                __s2b
                0x02011954                __hi0bits
                0x0201198c                __lo0bits
                0x020119ec                __i2b
                0x02011a04                __multiply
                0x02011b74                __pow5mult
                0x02011c24                __lshift
                0x02011cf4                __mcmp
                0x02011d30                __mdiff
                0x02011e1c                __ulp
                0x02011e64                __b2d
                0x02011f20                __d2b
                0x02011ff0                __ratio
                0x0201205c                _mprec_log10
                0x0201209c                __copybits
                0x020120e4                __any_on
 .text          0x02012148       0x90 c:/_ndsdev/devkitpro/devkitarm/bin/../lib/gcc/arm-eabi/4.6.1/../../../../arm-eabi/lib/thumb\libg.a(lib_a-s_fpclassify.o)
                0x02012148                __fpclassifyd
 .text          0x020121d8      0xd9c c:/_ndsdev/devkitpro/devkitarm/bin/../lib/gcc/arm-eabi/4.6.1/../../../../arm-eabi/lib/thumb\libg.a(lib_a-svfiprintf.o)
                0x020121d8                __ssprint_r
                0x02012308                _svfiprintf_r
 .text          0x02012f74      0x13c c:/_ndsdev/devkitpro/devkitarm/bin/../lib/gcc/arm-eabi/4.6.1/../../../../arm-eabi/lib/thumb\libg.a(lib_a-wcsnrtombs.o)
                0x02012f74                _wcsnrtombs_r
                0x02013080                wcsnrtombs
 .text          0x020130b0       0x64 c:/_ndsdev/devkitpro/devkitarm/bin/../lib/gcc/arm-eabi/4.6.1/../../../../arm-eabi/lib/thumb\libg.a(lib_a-callocr.o)
                0x020130b0                _calloc_r
 .text          0x02013114        0x0 c:/_ndsdev/devkitpro/devkitarm/bin/../lib/gcc/arm-eabi/4.6.1/../../../../arm-eabi/lib/thumb\libg.a(lib_a-environ.o)
 .text          0x02013114        0x8 c:/_ndsdev/devkitpro/devkitarm/bin/../lib/gcc/arm-eabi/4.6.1/../../../../arm-eabi/lib/thumb\libg.a(lib_a-envlock.o)
                0x02013114                __env_lock
                0x02013118                __env_unlock
 .text          0x0201311c       0xa8 c:/_ndsdev/devkitpro/devkitarm/bin/../lib/gcc/arm-eabi/4.6.1/../../../../arm-eabi/lib/thumb\libg.a(lib_a-memmove.o)
                0x0201311c                memmove
 .text          0x020131c4      0x3c4 c:/_ndsdev/devkitpro/devkitarm/bin/../lib/gcc/arm-eabi/4.6.1/../../../../arm-eabi/lib/thumb\libg.a(lib_a-reallocr.o)
                0x020131c4                _realloc_r
 .text          0x02013588       0x54 c:/_ndsdev/devkitpro/devkitarm/bin/../lib/gcc/arm-eabi/4.6.1/../../../../arm-eabi/lib/thumb\libsysbase.a(sbrk.o)
                0x02013588                _sbrk_r
 .text          0x020135dc       0x40 c:/_ndsdev/devkitpro/devkitarm/bin/../lib/gcc/arm-eabi/4.6.1/../../../../arm-eabi/lib/thumb\libsysbase.a(stat.o)
                0x020135dc                _stat_r
 .text          0x0201361c       0x48 c:/_ndsdev/devkitpro/devkitarm/bin/../lib/gcc/arm-eabi/4.6.1/../../../../arm-eabi/lib/thumb\libsysbase.a(times.o)
                0x0201361c                _times
                0x02013630                _times_r
                0x02013638                _gettimeofday_r
 .text          0x02013664        0x0 c:/_ndsdev/devkitpro/devkitarm/bin/../lib/gcc/arm-eabi/4.6.1/../../../../arm-eabi/lib/thumb\libsysbase.a(malloc_vars.o)
 .text          0x02013664       0x48 c:/_ndsdev/devkitpro/devkitarm/bin/../lib/gcc/arm-eabi/4.6.1/../../../../arm-eabi/lib/thumb\libsysbase.a(build_argv.o)
                0x02013664                build_argv
 .text          0x020136ac        0x0 c:/_ndsdev/devkitpro/devkitarm/bin/../lib/gcc/arm-eabi/4.6.1/../../../../arm-eabi/lib/thumb\libsysbase.a(syscall_support.o)
 .text          0x020136ac      0x350 c:/_ndsdev/devkitpro/devkitarm/bin/../lib/gcc/arm-eabi/4.6.1/../../../../arm-eabi/lib/thumb\libsysbase.a(dirent.o)
                0x020136f0                opendir
                0x02013794                closedir
                0x020137f4                readdir
                0x020138a4                readdir_r
                0x02013934                rewinddir
                0x02013970                seekdir
                0x020139e4                telldir
 .text          0x020139fc      0x144 c:/_ndsdev/devkitpro/devkitarm/bin/../lib/gcc/arm-eabi/4.6.1/../../../../arm-eabi/lib/thumb\libsysbase.a(iosupport.o)
                0x020139fc                setDefaultDevice
                0x02013a10                FindDevice
                0x02013a80                RemoveDevice
                0x02013aa4                AddDevice
                0x02013b20                GetDeviceOpTab
 .text          0x02013b40       0x3c c:/_ndsdev/devkitpro/devkitarm/bin/../lib/gcc/arm-eabi/4.6.1/thumb\libgcc.a(_aeabi_uldivmod.o)
                0x02013b40                __aeabi_uldivmod
 .text          0x02013b7c       0x74 c:/_ndsdev/devkitpro/devkitarm/bin/../lib/gcc/arm-eabi/4.6.1/thumb\libgcc.a(bpabi.o)
                0x02013b7c                __gnu_ldivmod_helper
                0x02013bb8                __gnu_uldivmod_helper
 .text          0x02013bf0      0x3c8 c:/_ndsdev/devkitpro/devkitarm/bin/../lib/gcc/arm-eabi/4.6.1/thumb\libgcc.a(_divdi3.o)
                0x02013bf0                __divdi3
 .text          0x02013fb8      0x370 c:/_ndsdev/devkitpro/devkitarm/bin/../lib/gcc/arm-eabi/4.6.1/thumb\libgcc.a(_udivdi3.o)
                0x02013fb8                __udivdi3
 .text          0x02014328       0x48 c:/_ndsdev/devkitpro/devkitarm/bin/../lib/gcc/arm-eabi/4.6.1/thumb\libgcc.a(_clzsi2.o)
                0x02014328                __clzsi2
 .text          0x02014370        0xc c:/_ndsdev/devkitpro/devkitarm/bin/../lib/gcc/arm-eabi/4.6.1/../../../../arm-eabi/lib/thumb\libg.a(lib_a-errno.o)
                0x02014370                __errno
 .text          0x0201437c       0x30 c:/_ndsdev/devkitpro/devkitarm/bin/../lib/gcc/arm-eabi/4.6.1/../../../../arm-eabi/lib/thumb\libg.a(lib_a-strnlen.o)
                0x0201437c                strnlen
 .text          0x020143ac        0x0 c:/_ndsdev/devkitpro/devkitarm/bin/../lib/gcc/arm-eabi/4.6.1/thumb/crtend.o
 .text          0x020143ac        0x0 c:/_ndsdev/devkitpro/devkitarm/bin/../lib/gcc/arm-eabi/4.6.1/thumb/crtn.o
 *(.text.*)
 .text.startup  0x020143ac       0x18 game.o
 .text.startup  0x020143c4       0x2c main.o
                0x020143c4                main
 .text.startup.stub
                0x020143f0       0x10 linker stubs
 *(.stub)
 *(.gnu.warning)
 *(.gnu.linkonce.t*)
 *(.glue_7)
 .glue_7        0x00000000        0x0 linker stubs
 *(.glue_7t)
 .glue_7t       0x00000000        0x0 linker stubs
                0x02014400                . = ALIGN (0x4)

.vfp11_veneer   0x02014400        0x0
 .vfp11_veneer  0x00000000        0x0 linker stubs

.v4_bx          0x02014400        0x0
 .v4_bx         0x00000000        0x0 linker stubs

.fini           0x02014400        0xc
 *(.fini)
 .fini          0x02014400        0x4 c:/_ndsdev/devkitpro/devkitarm/bin/../lib/gcc/arm-eabi/4.6.1/thumb/crti.o
                0x02014400                _fini
 .fini          0x02014404        0x8 c:/_ndsdev/devkitpro/devkitarm/bin/../lib/gcc/arm-eabi/4.6.1/thumb/crtn.o
                0x0201440c                __text_end = .

.rodata         0x02014410    0xb1608
 *(.rodata)
 .rodata        0x02014410    0x10004 Town_Map.o
                0x02014410                Town_Map
                0x02024410                Town_Map_size
                0x02024410                Town_Map_end
 .rodata        0x02024414      0x204 Town_Pal.o
                0x02024414                Town_Pal
                0x02024614                Town_Pal_size
                0x02024614                Town_Pal_end
 .rodata        0x02024618    0x1bf84 Town_Tiles.o
                0x02024618                Town_Tiles
                0x02040598                Town_Tiles_end
                0x02040598                Town_Tiles_size
 .rodata        0x0204059c      0x604 bg_main_down_Map.o
                0x0204059c                bg_main_down_Map
                0x02040b9c                bg_main_down_Map_size
                0x02040b9c                bg_main_down_Map_end
 .rodata        0x02040ba0      0x204 bg_main_down_Pal.o
                0x02040ba0                bg_main_down_Pal
                0x02040da0                bg_main_down_Pal_end
                0x02040da0                bg_main_down_Pal_size
 .rodata        0x02040da4     0x2584 bg_main_down_Tiles.o
                0x02040da4                bg_main_down_Tiles
                0x02043324                bg_main_down_Tiles_size
                0x02043324                bg_main_down_Tiles_end
 .rodata        0x02043328      0x604 bg_main_up_Map.o
                0x02043328                bg_main_up_Map
                0x02043928                bg_main_up_Map_end
                0x02043928                bg_main_up_Map_size
 .rodata        0x0204392c      0x204 bg_main_up_Pal.o
                0x0204392c                bg_main_up_Pal
                0x02043b2c                bg_main_up_Pal_size
                0x02043b2c                bg_main_up_Pal_end
 .rodata        0x02043b30     0x36c4 bg_main_up_Tiles.o
                0x02043b30                bg_main_up_Tiles
                0x020471f0                bg_main_up_Tiles_end
                0x020471f0                bg_main_up_Tiles_size
 .rodata        0x020471f4      0x604 bg_menu_Map.o
                0x020471f4                bg_menu_Map
                0x020477f4                bg_menu_Map_end
                0x020477f4                bg_menu_Map_size
 .rodata        0x020477f8      0x204 bg_menu_Pal.o
                0x020477f8                bg_menu_Pal
                0x020479f8                bg_menu_Pal_end
                0x020479f8                bg_menu_Pal_size
 .rodata        0x020479fc     0x3104 bg_menu_Tiles.o
                0x020479fc                bg_menu_Tiles
                0x0204aafc                bg_menu_Tiles_size
                0x0204aafc                bg_menu_Tiles_end
 .rodata        0x0204ab00      0x604 bg_stage1_init_Map.o
                0x0204ab00                bg_stage1_init_Map
                0x0204b100                bg_stage1_init_Map_size
                0x0204b100                bg_stage1_init_Map_end
 .rodata        0x0204b104      0x204 bg_stage1_init_Pal.o
                0x0204b104                bg_stage1_init_Pal
                0x0204b304                bg_stage1_init_Pal_size
                0x0204b304                bg_stage1_init_Pal_end
 .rodata        0x0204b308     0x19c4 bg_stage1_init_Tiles.o
                0x0204b308                bg_stage1_init_Tiles
                0x0204ccc8                bg_stage1_init_Tiles_size
                0x0204ccc8                bg_stage1_init_Tiles_end
 .rodata        0x0204cccc      0x604 bg_stage2_init_Map.o
                0x0204cccc                bg_stage2_init_Map
                0x0204d2cc                bg_stage2_init_Map_size
                0x0204d2cc                bg_stage2_init_Map_end
 .rodata        0x0204d2d0      0x204 bg_stage2_init_Pal.o
                0x0204d2d0                bg_stage2_init_Pal
                0x0204d4d0                bg_stage2_init_Pal_end
                0x0204d4d0                bg_stage2_init_Pal_size
 .rodata        0x0204d4d4     0x1804 bg_stage2_init_Tiles.o
                0x0204d4d4                bg_stage2_init_Tiles
                0x0204ecd4                bg_stage2_init_Tiles_size
                0x0204ecd4                bg_stage2_init_Tiles_end
 .rodata        0x0204ecd8      0x604 bg_stage3_init_Map.o
                0x0204ecd8                bg_stage3_init_Map
                0x0204f2d8                bg_stage3_init_Map_end
                0x0204f2d8                bg_stage3_init_Map_size
 .rodata        0x0204f2dc      0x204 bg_stage3_init_Pal.o
                0x0204f2dc                bg_stage3_init_Pal
                0x0204f4dc                bg_stage3_init_Pal_end
                0x0204f4dc                bg_stage3_init_Pal_size
 .rodata        0x0204f4e0     0x1744 bg_stage3_init_Tiles.o
                0x0204f4e0                bg_stage3_init_Tiles
                0x02050c20                bg_stage3_init_Tiles_size
                0x02050c20                bg_stage3_init_Tiles_end
 .rodata        0x02050c24      0x604 gameover_Map.o
                0x02050c24                gameover_Map
                0x02051224                gameover_Map_size
                0x02051224                gameover_Map_end
 .rodata        0x02051228      0x204 gameover_Pal.o
                0x02051228                gameover_Pal
                0x02051428                gameover_Pal_end
                0x02051428                gameover_Pal_size
 .rodata        0x0205142c     0xba04 gameover_Tiles.o
                0x0205142c                gameover_Tiles
                0x0205ce2c                gameover_Tiles_end
                0x0205ce2c                gameover_Tiles_size
 .rodata        0x0205ce30      0x204 hpminus_Pal.o
                0x0205ce30                hpminus_Pal
                0x0205d030                hpminus_Pal_size
                0x0205d030                hpminus_Pal_end
 .rodata        0x0205d034      0x104 hpminus_Sprite.o
                0x0205d034                hpminus_Sprite
                0x0205d134                hpminus_Sprite_size
                0x0205d134                hpminus_Sprite_end
 .rodata        0x0205d138      0x204 monster_Pal.o
                0x0205d138                monster_Pal
                0x0205d338                monster_Pal_size
                0x0205d338                monster_Pal_end
 .rodata        0x0205d33c      0x404 monster_Sprite.o
                0x0205d33c                monster_Sprite
                0x0205d73c                monster_Sprite_end
                0x0205d73c                monster_Sprite_size
 .rodata        0x0205d740      0x204 princess_Pal.o
                0x0205d740                princess_Pal
                0x0205d940                princess_Pal_size
                0x0205d940                princess_Pal_end
 .rodata        0x0205d944      0x204 princess_Sprite.o
                0x0205d944                princess_Sprite
                0x0205db44                princess_Sprite_end
                0x0205db44                princess_Sprite_size
 .rodata        0x0205db48      0x204 som_Pal.o
                0x0205db48                som_Pal
                0x0205dd48                som_Pal_size
                0x0205dd48                som_Pal_end
 .rodata        0x0205dd4c     0x1804 som_Sprite.o
                0x0205dd4c                som_Sprite
                0x0205f54c                som_Sprite_end
                0x0205f54c                som_Sprite_size
 .rodata        0x0205f550      0x204 sprite1_Pal.o
                0x0205f550                sprite1_Pal
                0x0205f750                sprite1_Pal_end
                0x0205f750                sprite1_Pal_size
 .rodata        0x0205f754     0x1004 sprite1_Sprite.o
                0x0205f754                sprite1_Sprite
                0x02060754                sprite1_Sprite_size
                0x02060754                sprite1_Sprite_end
 .rodata        0x02060758     0x1904 stage1_Map.o
                0x02060758                stage1_Map
                0x02062058                stage1_Map_end
                0x02062058                stage1_Map_size
 .rodata        0x0206205c      0x204 stage1_Pal.o
                0x0206205c                stage1_Pal
                0x0206225c                stage1_Pal_end
                0x0206225c                stage1_Pal_size
 .rodata        0x02062260    0x19004 stage1_Tiles.o
                0x02062260                stage1_Tiles
                0x0207b260                stage1_Tiles_end
                0x0207b260                stage1_Tiles_size
 .rodata        0x0207b264     0x1904 stage2_Map.o
                0x0207b264                stage2_Map
                0x0207cb64                stage2_Map_size
                0x0207cb64                stage2_Map_end
 .rodata        0x0207cb68      0x204 stage2_Pal.o
                0x0207cb68                stage2_Pal
                0x0207cd68                stage2_Pal_size
                0x0207cd68                stage2_Pal_end
 .rodata        0x0207cd6c    0x18704 stage2_Tiles.o
                0x0207cd6c                stage2_Tiles
                0x0209546c                stage2_Tiles_end
                0x0209546c                stage2_Tiles_size
 .rodata        0x02095470      0x204 water_Pal.o
                0x02095470                water_Pal
                0x02095670                water_Pal_end
                0x02095670                water_Pal_size
 .rodata        0x02095674      0x104 water_Sprite.o
                0x02095674                water_Sprite
                0x02095774                water_Sprite_size
                0x02095774                water_Sprite_end
 .rodata        0x02095778    0x1cb3c soundbank_bin.o
                0x02095778                soundbank_bin
                0x020b22b0                soundbank_bin_size
                0x020b22b0                soundbank_bin_end
 .rodata        0x020b22b4     0x2f30 down.o
                0x020b22b4                downBitmap
 .rodata        0x020b51e4     0x2e7c up.o
                0x020b51e4                upBitmap
 .rodata        0x020b8060       0x10 crystal.o
                0x020b8060                vtable for crystal
 .rodata        0x020b8070       0x10 crystal_Ball.o
                0x020b8070                vtable for crystal_Ball
 .rodata        0x020b8080       0x10 monster.o
                0x020b8080                vtable for monster
 .rodata        0x020b8090       0x10 princess.o
                0x020b8090                vtable for princess
 .rodata        0x020b80a0       0x10 water.o
                0x020b80a0                vtable for water
 .rodata        0x020b80b0      0x224 virtual_io.o
 .rodata        0x020b82d4       0x20 Town.o
                0x020b82d4                Town
 .rodata        0x020b82f4       0x20 bg_main_down.o
                0x020b82f4                bg_main_down
 .rodata        0x020b8314       0x20 bg_main_up.o
                0x020b8314                bg_main_up
 .rodata        0x020b8334       0x20 bg_menu.o
                0x020b8334                bg_menu
 .rodata        0x020b8354       0x20 bg_stage1_init.o
                0x020b8354                bg_stage1_init
 .rodata        0x020b8374       0x20 bg_stage2_init.o
                0x020b8374                bg_stage2_init
 .rodata        0x020b8394       0x20 bg_stage3_init.o
                0x020b8394                bg_stage3_init
 .rodata        0x020b83b4       0x20 gameover.o
                0x020b83b4                gameover
 .rodata        0x020b83d4       0x20 stage1.o
                0x020b83d4                stage1
 .rodata        0x020b83f4       0x20 stage2.o
                0x020b83f4                stage2
 .rodata        0x020b8414       0x40 c:/_ndsdev/devkitPro/PAlib/lib\libpa9.a(PA_Inits.o)
                0x020b8414                winfades
 .rodata        0x020b8454      0x400 c:/_ndsdev/devkitPro/PAlib/lib\libpa9.a(PA_Math.o)
                0x020b8454                PA_SIN
 .rodata        0x020b8854       0x30 c:/_ndsdev/devkitPro/PAlib/lib\libpa9.a(PA_Sprite.o)
                0x020b8854                PA_obj_sizes
                0x020b886c                PA_size
 .rodata        0x020b8884       0x20 c:/_ndsdev/devkitPro/PAlib/lib\libpa9.a(PA_TiledFont.o)
                0x020b8884                PA_TiledFont
 .rodata        0x020b88a4       0x20 c:/_ndsdev/devkitPro/PAlib/lib\libpa9.a(PA_BmpFont0.o)
                0x020b88a4                PA_BmpFont0
 .rodata        0x020b88c4       0x20 c:/_ndsdev/devkitPro/PAlib/lib\libpa9.a(PA_BmpFont1.o)
                0x020b88c4                PA_BmpFont1
 .rodata        0x020b88e4       0x20 c:/_ndsdev/devkitPro/PAlib/lib\libpa9.a(PA_BmpFont2.o)
                0x020b88e4                PA_BmpFont2
 .rodata        0x020b8904       0x20 c:/_ndsdev/devkitPro/PAlib/lib\libpa9.a(PA_BmpFont3.o)
                0x020b8904                PA_BmpFont3
 .rodata        0x020b8924       0x20 c:/_ndsdev/devkitPro/PAlib/lib\libpa9.a(PA_BmpFont4.o)
                0x020b8924                PA_BmpFont4
 .rodata        0x020b8944      0x604 c:/_ndsdev/devkitPro/PAlib/lib\libpa9.a(PA_TiledFont_Map.bin.o)
                0x020b8944                PA_TiledFont_Map
                0x020b8f44                PA_TiledFont_Map_size
                0x020b8f44                PA_TiledFont_Map_end
 .rodata        0x020b8f48      0x204 c:/_ndsdev/devkitPro/PAlib/lib\libpa9.a(PA_TiledFont_Pal.bin.o)
                0x020b8f48                PA_TiledFont_Pal
                0x020b9148                PA_TiledFont_Pal_end
                0x020b9148                PA_TiledFont_Pal_size
 .rodata        0x020b914c     0x33c4 c:/_ndsdev/devkitPro/PAlib/lib\libpa9.a(PA_TiledFont_Tiles.bin.o)
                0x020b914c                PA_TiledFont_Tiles
                0x020bc50c                PA_TiledFont_Tiles_size
                0x020bc50c                PA_TiledFont_Tiles_end
 .rodata        0x020bc510      0x204 c:/_ndsdev/devkitPro/PAlib/lib\libpa9.a(PA_BmpFont0_Map.bin.o)
                0x020bc510                PA_BmpFont0_Map
                0x020bc710                PA_BmpFont0_Map_end
                0x020bc710                PA_BmpFont0_Map_size
 .rodata        0x020bc714      0x104 c:/_ndsdev/devkitPro/PAlib/lib\libpa9.a(PA_BmpFont0_Sizes.bin.o)
                0x020bc714                PA_BmpFont0_Sizes
                0x020bc814                PA_BmpFont0_Sizes_size
                0x020bc814                PA_BmpFont0_Sizes_end
 .rodata        0x020bc818      0x324 c:/_ndsdev/devkitPro/PAlib/lib\libpa9.a(PA_BmpFont0_Tiles.bin.o)
                0x020bc818                PA_BmpFont0_Tiles
                0x020bcb38                PA_BmpFont0_Tiles_size
                0x020bcb38                PA_BmpFont0_Tiles_end
 .rodata        0x020bcb3c      0x204 c:/_ndsdev/devkitPro/PAlib/lib\libpa9.a(PA_BmpFont1_Map.bin.o)
                0x020bcb3c                PA_BmpFont1_Map
                0x020bcd3c                PA_BmpFont1_Map_end
                0x020bcd3c                PA_BmpFont1_Map_size
 .rodata        0x020bcd40      0x104 c:/_ndsdev/devkitPro/PAlib/lib\libpa9.a(PA_BmpFont1_Sizes.bin.o)
                0x020bcd40                PA_BmpFont1_Sizes
                0x020bce40                PA_BmpFont1_Sizes_size
                0x020bce40                PA_BmpFont1_Sizes_end
 .rodata        0x020bce44      0x34c c:/_ndsdev/devkitPro/PAlib/lib\libpa9.a(PA_BmpFont1_Tiles.bin.o)
                0x020bce44                PA_BmpFont1_Tiles
                0x020bd18c                PA_BmpFont1_Tiles_end
                0x020bd18c                PA_BmpFont1_Tiles_size
 .rodata        0x020bd190      0x804 c:/_ndsdev/devkitPro/PAlib/lib\libpa9.a(PA_BmpFont2_Map.bin.o)
                0x020bd190                PA_BmpFont2_Map
                0x020bd990                PA_BmpFont2_Map_size
                0x020bd990                PA_BmpFont2_Map_end
 .rodata        0x020bd994      0x104 c:/_ndsdev/devkitPro/PAlib/lib\libpa9.a(PA_BmpFont2_Sizes.bin.o)
                0x020bd994                PA_BmpFont2_Sizes
                0x020bda94                PA_BmpFont2_Sizes_end
                0x020bda94                PA_BmpFont2_Sizes_size
 .rodata        0x020bda98      0x39c c:/_ndsdev/devkitPro/PAlib/lib\libpa9.a(PA_BmpFont2_Tiles.bin.o)
                0x020bda98                PA_BmpFont2_Tiles
                0x020bde30                PA_BmpFont2_Tiles_size
                0x020bde30                PA_BmpFont2_Tiles_end
 .rodata        0x020bde34      0x804 c:/_ndsdev/devkitPro/PAlib/lib\libpa9.a(PA_BmpFont3_Map.bin.o)
                0x020bde34                PA_BmpFont3_Map
                0x020be634                PA_BmpFont3_Map_end
                0x020be634                PA_BmpFont3_Map_size
 .rodata        0x020be638      0x104 c:/_ndsdev/devkitPro/PAlib/lib\libpa9.a(PA_BmpFont3_Sizes.bin.o)
                0x020be638                PA_BmpFont3_Sizes
                0x020be738                PA_BmpFont3_Sizes_end
                0x020be738                PA_BmpFont3_Sizes_size
 .rodata        0x020be73c      0x624 c:/_ndsdev/devkitPro/PAlib/lib\libpa9.a(PA_BmpFont3_Tiles.bin.o)
                0x020be73c                PA_BmpFont3_Tiles
                0x020bed5c                PA_BmpFont3_Tiles_end
                0x020bed5c                PA_BmpFont3_Tiles_size
 .rodata        0x020bed60      0x804 c:/_ndsdev/devkitPro/PAlib/lib\libpa9.a(PA_BmpFont4_Map.bin.o)
                0x020bed60                PA_BmpFont4_Map
                0x020bf560                PA_BmpFont4_Map_size
                0x020bf560                PA_BmpFont4_Map_end
 .rodata        0x020bf564      0x104 c:/_ndsdev/devkitPro/PAlib/lib\libpa9.a(PA_BmpFont4_Sizes.bin.o)
                0x020bf564                PA_BmpFont4_Sizes
                0x020bf664                PA_BmpFont4_Sizes_end
                0x020bf664                PA_BmpFont4_Sizes_size
 .rodata        0x020bf668      0x834 c:/_ndsdev/devkitPro/PAlib/lib\libpa9.a(PA_BmpFont4_Tiles.bin.o)
                0x020bf668                PA_BmpFont4_Tiles
                0x020bfe98                PA_BmpFont4_Tiles_size
                0x020bfe98                PA_BmpFont4_Tiles_end
 .rodata        0x020bfe9c       0xf0 c:/_ndsdev/devkitPro/PAlib/lib\libpa9.a(PA_Keyboard.o)
                0x020bfe9c                PA_Keyboard
 .rodata        0x020bff8c     0x2000 c:/_ndsdev/devkitPro/PAlib/lib\libpa9.a(keyboard.map.o)
                0x020bff8c                keyboard_Map
 .rodata        0x020c1f8c       0x20 c:/_ndsdev/devkitPro/PAlib/lib\libpa9.a(keyboard.pal.o)
                0x020c1f8c                keyboard_Palette
 .rodata        0x020c1fac     0x28a0 c:/_ndsdev/devkitPro/PAlib/lib\libpa9.a(keyboard.raw.o)
                0x020c1fac                keyboard_Tiles
 .rodata        0x020c484c       0x14 c:/_ndsdev/devkitPro/libnds/lib\libnds9.a(decompress.o)
 .rodata        0x020c4860      0x308 c:/_ndsdev/devkitPro/libnds/lib\libnds9.a(trig.o)
                0x020c4860                SIN_LUT
                0x020c4964                TAN_LUT
 .rodata        0x020c4b68        0x4 c:/_ndsdev/devkitpro/devkitarm/bin/../lib/gcc/arm-eabi/4.6.1/../../../../arm-eabi/lib/thumb\libg.a(lib_a-impure.o)
                0x020c4b68                _global_impure_ptr
 .rodata        0x020c4b6c       0xf0 c:/_ndsdev/devkitpro/devkitarm/bin/../lib/gcc/arm-eabi/4.6.1/../../../../arm-eabi/lib/thumb\libg.a(lib_a-locale.o)
 .rodata        0x020c4c5c       0xa8 c:/_ndsdev/devkitpro/devkitarm/bin/../lib/gcc/arm-eabi/4.6.1/../../../../arm-eabi/lib/thumb\libg.a(lib_a-mbtowc_r.o)
 .rodata        0x020c4d04       0x68 c:/_ndsdev/devkitpro/devkitarm/bin/../lib/gcc/arm-eabi/4.6.1/../../../../arm-eabi/lib/thumb\libg.a(lib_a-mktm_r.o)
 .rodata        0x020c4d6c      0x184 c:/_ndsdev/devkitpro/devkitarm/bin/../lib/gcc/arm-eabi/4.6.1/../../../../arm-eabi/lib/thumb\libg.a(lib_a-svfprintf.o)
 .rodata        0x020c4ef0      0x104 c:/_ndsdev/devkitpro/devkitarm/bin/../lib/gcc/arm-eabi/4.6.1/../../../../arm-eabi/lib/thumb\libg.a(lib_a-ctype_.o)
                0x020c4ef0                _ctype_
 *fill*         0x020c4ff4        0x4 ff
 .rodata        0x020c4ff8      0x128 c:/_ndsdev/devkitpro/devkitarm/bin/../lib/gcc/arm-eabi/4.6.1/../../../../arm-eabi/lib/thumb\libg.a(lib_a-mprec.o)
                0x020c5008                __mprec_tens
                0x020c50d0                __mprec_tinytens
                0x020c50f8                __mprec_bigtens
 .rodata        0x020c5120      0x184 c:/_ndsdev/devkitpro/devkitarm/bin/../lib/gcc/arm-eabi/4.6.1/../../../../arm-eabi/lib/thumb\libg.a(lib_a-svfiprintf.o)
 .rodata        0x020c52a4       0x64 c:/_ndsdev/devkitpro/devkitarm/bin/../lib/gcc/arm-eabi/4.6.1/../../../../arm-eabi/lib/thumb\libsysbase.a(iosupport.o)
                0x020c52a4                dotab_stdnull
 *all.rodata*(*)
 *(.roda)
 *(.rodata.*)
 .rodata.str1.4
                0x020c5308       0x33 game.o
                                 0x34 (size before relaxing)
 *fill*         0x020c533b        0x1 ff
 .rodata.str1.4
                0x020c533c        0xa main.o
                                  0xc (size before relaxing)
 *fill*         0x020c5346        0x2 ff
 .rodata.str1.4
                0x020c5348       0x1f tasks.o
                                 0x20 (size before relaxing)
 *fill*         0x020c5367        0x1 ff
 .rodata.str1.4
                0x020c5368        0xd virtual_io.o
                                 0x10 (size before relaxing)
 *fill*         0x020c5375        0x3 ff
 .rodata.str1.4
                0x020c5378      0x18b c:/_ndsdev/devkitPro/PAlib/lib\libpa9.a(PA_BgTiles.o)
                                0x190 (size before relaxing)
 *fill*         0x020c5503        0x1 ff
 .rodata.str1.4
                0x020c5504       0x26 c:/_ndsdev/devkitPro/PAlib/lib\libpa9.a(PA_Error.o)
                                 0x28 (size before relaxing)
 *fill*         0x020c552a        0x2 ff
 .rodata.str1.4
                0x020c552c        0x2 c:/_ndsdev/devkitPro/PAlib/lib\libpa9.a(PA_Inits.o)
                                  0x4 (size before relaxing)
 *fill*         0x020c552e        0x2 ff
 .rodata.str1.4
                0x020c5530      0x128 c:/_ndsdev/devkitPro/PAlib/lib\libpa9.a(PA_NewBg.o)
 .rodata.str1.4
                0x020c5658      0x234 c:/_ndsdev/devkitPro/PAlib/lib\libpa9.a(PA_Sprite.o)
 .rodata.str1.4
                0x020c588c        0xa c:/_ndsdev/devkitPro/PAlib/lib\libpa9.a(PA_Stuff.o)
                                  0xc (size before relaxing)
 .rodata.str1.4
                0x00000000        0x4 c:/_ndsdev/devkitpro/devkitarm/bin/../lib/gcc/arm-eabi/4.6.1/../../../../arm-eabi/lib/thumb\libg.a(lib_a-impure.o)
 *fill*         0x020c5896        0x2 ff
 .rodata.str1.4
                0x020c5898      0x120 c:/_ndsdev/devkitpro/devkitarm/bin/../lib/gcc/arm-eabi/4.6.1/../../../../arm-eabi/lib/thumb\libg.a(lib_a-locale.o)
                                0x130 (size before relaxing)
 .rodata.str1.4
                0x020c59b8       0x42 c:/_ndsdev/devkitpro/devkitarm/bin/../lib/gcc/arm-eabi/4.6.1/../../../../arm-eabi/lib/thumb\libg.a(lib_a-svfprintf.o)
                                 0x44 (size before relaxing)
 *fill*         0x020c59fa        0x2 ff
 .rodata.str1.4
                0x020c59fc        0x4 c:/_ndsdev/devkitpro/devkitarm/bin/../lib/gcc/arm-eabi/4.6.1/../../../../arm-eabi/lib/thumb\libg.a(lib_a-tzvars.o)
 .rodata.str1.4
                0x020c5a00       0x10 c:/_ndsdev/devkitpro/devkitarm/bin/../lib/gcc/arm-eabi/4.6.1/../../../../arm-eabi/lib/thumb\libg.a(lib_a-dtoa.o)
                                 0x14 (size before relaxing)
 .rodata.str1.4
                0x00000000       0x30 c:/_ndsdev/devkitpro/devkitarm/bin/../lib/gcc/arm-eabi/4.6.1/../../../../arm-eabi/lib/thumb\libg.a(lib_a-svfiprintf.o)
 .rodata.str1.4
                0x020c5a10        0x8 c:/_ndsdev/devkitpro/devkitarm/bin/../lib/gcc/arm-eabi/4.6.1/../../../../arm-eabi/lib/thumb\libsysbase.a(iosupport.o)
 *(.gnu.linkonce.r*)
                0x020c5a18                . = ALIGN (0x4)

.ARM.extab
 *(.ARM.extab* .gnu.linkonce.armextab.*)
                0x020c5a18                __exidx_start = .

ARM.exidx
 *(.ARM.exidx* .gnu.linkonce.armexidx.*)
                0x020c5a18                __exidx_end = .
                0x020c5a18                . = ALIGN (0x4)
                0x020c5a18                PROVIDE (__preinit_array_start, .)

.preinit_array
 *(.preinit_array)
                0x020c5a18                PROVIDE (__preinit_array_end, .)
                0x020c5a18                PROVIDE (__init_array_start, .)

.init_array     0x020c5a18        0x8
 *(SORT(.init_array.*))
 *(.init_array)
 .init_array    0x020c5a18        0x4 c:/_ndsdev/devkitpro/devkitarm/bin/../lib/gcc/arm-eabi/4.6.1/thumb/crtbegin.o
 .init_array    0x020c5a1c        0x4 game.o
                0x020c5a20                PROVIDE (__init_array_end, .)
                0x020c5a20                PROVIDE (__fini_array_start, .)

.fini_array     0x020c5a20        0x4
 *(.fini_array)
 .fini_array    0x020c5a20        0x4 c:/_ndsdev/devkitpro/devkitarm/bin/../lib/gcc/arm-eabi/4.6.1/thumb/crtbegin.o
 *(SORT(.fini_array.*))
                0x020c5a24                PROVIDE (__fini_array_end, .)

.ctors          0x020c5a24        0x0
 *crtbegin.o(.ctors)
 *(EXCLUDE_FILE(*crtend.o) .ctors)
 *(SORT(.ctors.*))
 *(.ctors)
                0x020c5a24                . = ALIGN (0x4)

.dtors          0x020c5a24        0x0
 *crtbegin.o(.dtors)
 *(EXCLUDE_FILE(*crtend.o) .dtors)
 *(SORT(.dtors.*))
 *(.dtors)
                0x020c5a24                . = ALIGN (0x4)

.eh_frame       0x020c5a24        0x4
 *(.eh_frame)
 .eh_frame      0x020c5a24        0x0 c:/_ndsdev/devkitpro/devkitarm/bin/../lib/gcc/arm-eabi/4.6.1/thumb/crtbegin.o
 .eh_frame      0x020c5a24        0x4 c:/_ndsdev/devkitpro/devkitarm/bin/../lib/gcc/arm-eabi/4.6.1/thumb/crtend.o
                0x020c5a28                . = ALIGN (0x4)

.gcc_except_table
                0x020c5a28        0x0
 *(.gcc_except_table)
                0x020c5a28                . = ALIGN (0x4)

.jcr            0x020c5a28        0x4
 *(.jcr)
 .jcr           0x020c5a28        0x0 c:/_ndsdev/devkitpro/devkitarm/bin/../lib/gcc/arm-eabi/4.6.1/thumb/crtbegin.o
 .jcr           0x020c5a28        0x4 c:/_ndsdev/devkitpro/devkitarm/bin/../lib/gcc/arm-eabi/4.6.1/thumb/crtend.o

.got
 *(.got.plt)
 *(.got)
 *(.rel.got)

.ewram          0x020c5a2c        0x0
                0x020c5a2c                __ewram_start = ABSOLUTE (.)
 *(.ewram)
 *ewram.*(.text)
                0x020c5a2c                . = ALIGN (0x4)

.data           0x020c5a2c      0xe2c
                0x020c5a2c                __data_start = ABSOLUTE (.)
 *(.data)
 .data          0x020c5a2c        0x0 c:/_ndsdev/devkitpro/devkitarm/bin/../lib/gcc/arm-eabi/4.6.1/../../../../arm-eabi/lib/thumb/ds_arm9_crt0.o
 .data          0x020c5a2c        0x0 c:/_ndsdev/devkitpro/devkitarm/bin/../lib/gcc/arm-eabi/4.6.1/thumb/crti.o
 .data          0x020c5a2c        0x4 c:/_ndsdev/devkitpro/devkitarm/bin/../lib/gcc/arm-eabi/4.6.1/thumb/crtbegin.o
                0x020c5a2c                __dso_handle
 .data          0x020c5a30        0x0 Town_Map.o
 .data          0x020c5a30        0x0 Town_Pal.o
 .data          0x020c5a30        0x0 Town_Tiles.o
 .data          0x020c5a30        0x0 bg_main_down_Map.o
 .data          0x020c5a30        0x0 bg_main_down_Pal.o
 .data          0x020c5a30        0x0 bg_main_down_Tiles.o
 .data          0x020c5a30        0x0 bg_main_up_Map.o
 .data          0x020c5a30        0x0 bg_main_up_Pal.o
 .data          0x020c5a30        0x0 bg_main_up_Tiles.o
 .data          0x020c5a30        0x0 bg_menu_Map.o
 .data          0x020c5a30        0x0 bg_menu_Pal.o
 .data          0x020c5a30        0x0 bg_menu_Tiles.o
 .data          0x020c5a30        0x0 bg_stage1_init_Map.o
 .data          0x020c5a30        0x0 bg_stage1_init_Pal.o
 .data          0x020c5a30        0x0 bg_stage1_init_Tiles.o
 .data          0x020c5a30        0x0 bg_stage2_init_Map.o
 .data          0x020c5a30        0x0 bg_stage2_init_Pal.o
 .data          0x020c5a30        0x0 bg_stage2_init_Tiles.o
 .data          0x020c5a30        0x0 bg_stage3_init_Map.o
 .data          0x020c5a30        0x0 bg_stage3_init_Pal.o
 .data          0x020c5a30        0x0 bg_stage3_init_Tiles.o
 .data          0x020c5a30        0x0 gameover_Map.o
 .data          0x020c5a30        0x0 gameover_Pal.o
 .data          0x020c5a30        0x0 gameover_Tiles.o
 .data          0x020c5a30        0x0 hpminus_Pal.o
 .data          0x020c5a30        0x0 hpminus_Sprite.o
 .data          0x020c5a30        0x0 monster_Pal.o
 .data          0x020c5a30        0x0 monster_Sprite.o
 .data          0x020c5a30        0x0 princess_Pal.o
 .data          0x020c5a30        0x0 princess_Sprite.o
 .data          0x020c5a30        0x0 som_Pal.o
 .data          0x020c5a30        0x0 som_Sprite.o
 .data          0x020c5a30        0x0 sprite1_Pal.o
 .data          0x020c5a30        0x0 sprite1_Sprite.o
 .data          0x020c5a30        0x0 stage1_Map.o
 .data          0x020c5a30        0x0 stage1_Pal.o
 .data          0x020c5a30        0x0 stage1_Tiles.o
 .data          0x020c5a30        0x0 stage2_Map.o
 .data          0x020c5a30        0x0 stage2_Pal.o
 .data          0x020c5a30        0x0 stage2_Tiles.o
 .data          0x020c5a30        0x0 water_Pal.o
 .data          0x020c5a30        0x0 water_Sprite.o
 .data          0x020c5a30        0x0 soundbank_bin.o
 .data          0x020c5a30        0x0 down.o
 .data          0x020c5a30        0x0 up.o
 .data          0x020c5a30        0x0 crystal.o
 .data          0x020c5a30        0x0 crystal_Ball.o
 .data          0x020c5a30        0x0 cs_api.o
 .data          0x020c5a30        0x8 game.o
                0x020c5a30                y
                0x020c5a34                x
 .data          0x020c5a38        0x0 hero.o
 .data          0x020c5a38        0x0 main.o
 .data          0x020c5a38        0x0 menu.o
 .data          0x020c5a38        0x0 monster.o
 .data          0x020c5a38        0x0 princess.o
 .data          0x020c5a38        0x0 water.o
 .data          0x020c5a38        0x0 croutine.o
 .data          0x020c5a38        0x0 heap.o
 .data          0x020c5a38        0x0 list.o
 .data          0x020c5a38        0x0 port.o
 .data          0x020c5a38        0x4 portISR.o
                0x020c5a38                ulCriticalNesting
 .data          0x020c5a3c        0x0 queue.o
 .data          0x020c5a3c        0x4 tasks.o
 .data          0x020c5a40       0x20 virtual_io.o
                0x020c5a40                virtual_io_resister
 .data          0x020c5a60        0x0 Town.o
 .data          0x020c5a60        0x0 bg_main_down.o
 .data          0x020c5a60        0x0 bg_main_up.o
 .data          0x020c5a60        0x0 bg_menu.o
 .data          0x020c5a60        0x0 bg_stage1_init.o
 .data          0x020c5a60        0x0 bg_stage2_init.o
 .data          0x020c5a60        0x0 bg_stage3_init.o
 .data          0x020c5a60        0x0 gameover.o
 .data          0x020c5a60        0x0 stage1.o
 .data          0x020c5a60        0x0 stage2.o
 .data          0x020c5a60        0x0 assemfunc.o
 .data          0x020c5a60        0x0 c:/_ndsdev/devkitPro/PAlib/lib\libpa9.a(PA.o)
 .data          0x020c5a60        0x0 c:/_ndsdev/devkitPro/PAlib/lib\libpa9.a(PA_BgEasy.o)
 .data          0x020c5a60        0x0 c:/_ndsdev/devkitPro/PAlib/lib\libpa9.a(PA_BgLargeMap.o)
 .data          0x020c5a60       0x10 c:/_ndsdev/devkitPro/PAlib/lib\libpa9.a(PA_BgTiles.o)
                0x020c5a60                charsetstart
                0x020c5a64                bg_place
                0x020c5a68                bg_sizes
 .data          0x020c5a70        0x0 c:/_ndsdev/devkitPro/PAlib/lib\libpa9.a(PA_Error.o)
 .data          0x020c5a70        0x0 c:/_ndsdev/devkitPro/PAlib/lib\libpa9.a(PA_Inits.o)
 .data          0x020c5a70       0x14 c:/_ndsdev/devkitPro/PAlib/lib\libpa9.a(PA_Interrupt.o)
                0x020c5a70                SpriteVBL
                0x020c5a74                MotionVBL
                0x020c5a78                GHPadVBL
                0x020c5a7c                PaddleVBL
                0x020c5a80                CustomVBL
 .data          0x020c5a84        0x0 c:/_ndsdev/devkitPro/PAlib/lib\libpa9.a(PA_Keys.o)
 .data          0x020c5a84        0x4 c:/_ndsdev/devkitPro/PAlib/lib\libpa9.a(PA_Math.o)
                0x020c5a84                RandomValue
 .data          0x020c5a88        0x0 c:/_ndsdev/devkitPro/PAlib/lib\libpa9.a(PA_NewBg.o)
 .data          0x020c5a88        0x0 c:/_ndsdev/devkitPro/PAlib/lib\libpa9.a(PA_Palette.o)
 .data          0x020c5a88        0x0 c:/_ndsdev/devkitPro/PAlib/lib\libpa9.a(PA_RTC.o)
 .data          0x020c5a88      0x204 c:/_ndsdev/devkitPro/PAlib/lib\libpa9.a(PA_Reco.o)
                0x020c5a88                PA_UseGraffiti
                0x020c5a8c                PA_Graffiti
 .data          0x020c5c8c        0x4 c:/_ndsdev/devkitPro/PAlib/lib\libpa9.a(PA_Sprite.o)
                0x020c5c8c                VBLSpriteAnims
 .data          0x020c5c90        0x0 c:/_ndsdev/devkitPro/PAlib/lib\libpa9.a(PA_SpriteAnim.o)
 .data          0x020c5c90        0x0 c:/_ndsdev/devkitPro/PAlib/lib\libpa9.a(PA_Stuff.o)
 .data          0x020c5c90        0x0 c:/_ndsdev/devkitPro/PAlib/lib\libpa9.a(PA_Text.o)
 .data          0x020c5c90       0x3c c:/_ndsdev/devkitPro/PAlib/lib\libpa9.a(PA_Text8bit.o)
                0x020c5c90                bit8_tiles
                0x020c5cb8                letters
 .data          0x020c5ccc       0x7c c:/_ndsdev/devkitPro/PAlib/lib\libpa9.a(PA_TextBits.o)
                0x020c5ccc                textinfo
                0x020c5cd0                pa_bittextdefaultsize
                0x020c5cf8                bittext_maps
                0x020c5d20                bittext_tiles_blank
 .data          0x020c5d48        0x0 c:/_ndsdev/devkitPro/PAlib/lib\libpa9.a(PA_TiledFont.o)
 .data          0x020c5d48        0x0 c:/_ndsdev/devkitPro/PAlib/lib\libpa9.a(PA_BmpFont0.o)
 .data          0x020c5d48        0x0 c:/_ndsdev/devkitPro/PAlib/lib\libpa9.a(PA_BmpFont1.o)
 .data          0x020c5d48        0x0 c:/_ndsdev/devkitPro/PAlib/lib\libpa9.a(PA_BmpFont2.o)
 .data          0x020c5d48        0x0 c:/_ndsdev/devkitPro/PAlib/lib\libpa9.a(PA_BmpFont3.o)
 .data          0x020c5d48        0x0 c:/_ndsdev/devkitPro/PAlib/lib\libpa9.a(PA_BmpFont4.o)
 .data          0x020c5d48        0x0 c:/_ndsdev/devkitPro/PAlib/lib\libpa9.a(PA_TiledFont_Map.bin.o)
 .data          0x020c5d48        0x0 c:/_ndsdev/devkitPro/PAlib/lib\libpa9.a(PA_TiledFont_Pal.bin.o)
 .data          0x020c5d48        0x0 c:/_ndsdev/devkitPro/PAlib/lib\libpa9.a(PA_TiledFont_Tiles.bin.o)
 .data          0x020c5d48        0x0 c:/_ndsdev/devkitPro/PAlib/lib\libpa9.a(PA_BmpFont0_Map.bin.o)
 .data          0x020c5d48        0x0 c:/_ndsdev/devkitPro/PAlib/lib\libpa9.a(PA_BmpFont0_Sizes.bin.o)
 .data          0x020c5d48        0x0 c:/_ndsdev/devkitPro/PAlib/lib\libpa9.a(PA_BmpFont0_Tiles.bin.o)
 .data          0x020c5d48        0x0 c:/_ndsdev/devkitPro/PAlib/lib\libpa9.a(PA_BmpFont1_Map.bin.o)
 .data          0x020c5d48        0x0 c:/_ndsdev/devkitPro/PAlib/lib\libpa9.a(PA_BmpFont1_Sizes.bin.o)
 .data          0x020c5d48        0x0 c:/_ndsdev/devkitPro/PAlib/lib\libpa9.a(PA_BmpFont1_Tiles.bin.o)
 .data          0x020c5d48        0x0 c:/_ndsdev/devkitPro/PAlib/lib\libpa9.a(PA_BmpFont2_Map.bin.o)
 .data          0x020c5d48        0x0 c:/_ndsdev/devkitPro/PAlib/lib\libpa9.a(PA_BmpFont2_Sizes.bin.o)
 .data          0x020c5d48        0x0 c:/_ndsdev/devkitPro/PAlib/lib\libpa9.a(PA_BmpFont2_Tiles.bin.o)
 .data          0x020c5d48        0x0 c:/_ndsdev/devkitPro/PAlib/lib\libpa9.a(PA_BmpFont3_Map.bin.o)
 .data          0x020c5d48        0x0 c:/_ndsdev/devkitPro/PAlib/lib\libpa9.a(PA_BmpFont3_Sizes.bin.o)
 .data          0x020c5d48        0x0 c:/_ndsdev/devkitPro/PAlib/lib\libpa9.a(PA_BmpFont3_Tiles.bin.o)
 .data          0x020c5d48        0x0 c:/_ndsdev/devkitPro/PAlib/lib\libpa9.a(PA_BmpFont4_Map.bin.o)
 .data          0x020c5d48        0x0 c:/_ndsdev/devkitPro/PAlib/lib\libpa9.a(PA_BmpFont4_Sizes.bin.o)
 .data          0x020c5d48        0x0 c:/_ndsdev/devkitPro/PAlib/lib\libpa9.a(PA_BmpFont4_Tiles.bin.o)
 .data          0x020c5d48       0x28 c:/_ndsdev/devkitPro/PAlib/lib\libpa9.a(PA_16c.o)
                0x020c5d48                c16_tiles
 .data          0x020c5d70        0xc c:/_ndsdev/devkitPro/PAlib/lib\libpa9.a(PA_BgRot.o)
                0x020c5d70                rotbg_place
                0x020c5d74                rotbg_sizes
 .data          0x020c5d7c        0x0 c:/_ndsdev/devkitPro/PAlib/lib\libpa9.a(PA_Draw.o)
 .data          0x020c5d7c        0x0 c:/_ndsdev/devkitPro/PAlib/lib\libpa9.a(PA_Fifo.o)
 .data          0x020c5d7c        0x0 c:/_ndsdev/devkitPro/PAlib/lib\libpa9.a(PA_Keyboard.o)
 .data          0x020c5d7c        0x0 c:/_ndsdev/devkitPro/PAlib/lib\libpa9.a(PA_PaletteEx.o)
 .data          0x020c5d7c        0x0 c:/_ndsdev/devkitPro/PAlib/lib\libpa9.a(keyboard.map.o)
 .data          0x020c5d7c        0x0 c:/_ndsdev/devkitPro/PAlib/lib\libpa9.a(keyboard.pal.o)
 .data          0x020c5d7c        0x0 c:/_ndsdev/devkitPro/PAlib/lib\libpa9.a(keyboard.raw.o)
 .data          0x020c5d7c       0x60 c:/_ndsdev/devkitPro/libnds/lib\libnds9.a(background.o)
                0x020c5d7c                bgScrollTable
                0x020c5d9c                bgTransform
                0x020c5dbc                bgControl
 .data          0x020c5ddc        0xc c:/_ndsdev/devkitPro/libnds/lib\libnds9.a(decompress.o)
                0x020c5ddc                decomStream
 .data          0x020c5de8        0x3 c:/_ndsdev/devkitPro/libnds/lib\libnds9.a(keys.o)
 .data          0x020c5deb        0x0 c:/_ndsdev/devkitPro/libnds/lib\libnds9.a(system.o)
 .data          0x020c5deb        0x0 c:/_ndsdev/devkitPro/libnds/lib\libnds9.a(touch.o)
 .data          0x020c5deb        0x0 c:/_ndsdev/devkitPro/libnds/lib\libnds9.a(trig.o)
 .data          0x020c5deb        0x0 c:/_ndsdev/devkitPro/libnds/lib\libnds9.a(video.o)
 .data          0x020c5deb        0x0 c:/_ndsdev/devkitPro/libnds/lib\libnds9.a(initSystem.o)
 *fill*         0x020c5deb        0x1 ff
 .data          0x020c5dec       0x10 c:/_ndsdev/devkitPro/libnds/lib\libnds9.a(fifosystem.o)
                0x020c5dec                fifo_freewords
                0x020c5df0                fifo_buffer_free
                0x020c5df4                fifo_send_queue
                0x020c5df8                fifo_receive_queue
 .data          0x020c5dfc        0x0 c:/_ndsdev/devkitPro/libnds/lib\libnds9.a(interrupts.o)
 .data          0x020c5dfc        0x0 c:/_ndsdev/devkitPro/libnds/lib\libnds9.a(libnds_exit.o)
 .data          0x020c5dfc        0x0 c:/_ndsdev/devkitPro/libnds/lib\libnds9.a(syscalls.o)
 .data          0x020c5dfc        0x0 c:/_ndsdev/devkitPro/libnds/lib\libnds9.a(dcache.o)
 .data          0x020c5dfc        0x0 c:/_ndsdev/devkitPro/libnds/lib\libnds9.a(mpu_setup.o)
 .data          0x020c5dfc        0x0 c:/_ndsdev/devkitPro/libnds/lib\libnds9.a(biosCalls.o)
 .data          0x020c5dfc        0x0 c:/_ndsdev/devkitPro/libnds/lib\libnds9.a(interruptDispatcher.o)
 .data          0x020c5dfc        0x0 c:/_ndsdev/devkitPro/libnds/lib\libnds9.a(swiSoftReset.o)
 .data          0x020c5dfc        0x0 c:/_ndsdev/devkitpro/devkitarm/bin/../lib/gcc/arm-eabi/4.6.1/thumb\libgcc.a(_udivsi3.o)
 .data          0x020c5dfc        0x0 c:/_ndsdev/devkitpro/devkitarm/bin/../lib/gcc/arm-eabi/4.6.1/thumb\libgcc.a(_divsi3.o)
 .data          0x020c5dfc        0x0 c:/_ndsdev/devkitpro/devkitarm/bin/../lib/gcc/arm-eabi/4.6.1/thumb\libgcc.a(_dvmd_tls.o)
 .data          0x020c5dfc        0x0 c:/_ndsdev/devkitpro/devkitarm/bin/../lib/gcc/arm-eabi/4.6.1/thumb\libgcc.a(_arm_addsubdf3.o)
 .data          0x020c5dfc        0x0 c:/_ndsdev/devkitpro/devkitarm/bin/../lib/gcc/arm-eabi/4.6.1/thumb\libgcc.a(_arm_muldivdf3.o)
 .data          0x020c5dfc        0x0 c:/_ndsdev/devkitpro/devkitarm/bin/../lib/gcc/arm-eabi/4.6.1/thumb\libgcc.a(_arm_cmpdf2.o)
 .data          0x020c5dfc        0x0 c:/_ndsdev/devkitpro/devkitarm/bin/../lib/gcc/arm-eabi/4.6.1/thumb\libgcc.a(_arm_fixdfsi.o)
 .data          0x020c5dfc        0x0 c:/_ndsdev/devkitpro/devkitarm/bin/../lib/gcc/arm-eabi/4.6.1/thumb\libgcc.a(_muldi3.o)
 .data          0x020c5dfc        0x0 c:/_ndsdev/devkitpro/devkitarm/bin/../lib/gcc/arm-eabi/4.6.1/../../../../arm-eabi/lib/thumb\libg.a(lib_a-bsearch.o)
 .data          0x020c5dfc        0x0 c:/_ndsdev/devkitpro/devkitarm/bin/../lib/gcc/arm-eabi/4.6.1/../../../../arm-eabi/lib/thumb\libg.a(lib_a-gmtime.o)
 .data          0x020c5dfc        0x0 c:/_ndsdev/devkitpro/devkitarm/bin/../lib/gcc/arm-eabi/4.6.1/../../../../arm-eabi/lib/thumb\libg.a(lib_a-gmtime_r.o)
 *fill*         0x020c5dfc        0x4 ff
 .data          0x020c5e00      0x430 c:/_ndsdev/devkitpro/devkitarm/bin/../lib/gcc/arm-eabi/4.6.1/../../../../arm-eabi/lib/thumb\libg.a(lib_a-impure.o)
                0x020c5e00                _impure_ptr
 .data          0x020c6230        0x0 c:/_ndsdev/devkitpro/devkitarm/bin/../lib/gcc/arm-eabi/4.6.1/../../../../arm-eabi/lib/thumb\libg.a(lib_a-init.o)
 .data          0x020c6230      0x17c c:/_ndsdev/devkitpro/devkitarm/bin/../lib/gcc/arm-eabi/4.6.1/../../../../arm-eabi/lib/thumb\libg.a(lib_a-locale.o)
                0x020c6230                __default_locale
                0x020c6350                __mb_cur_max
 .data          0x020c63ac        0x0 c:/_ndsdev/devkitpro/devkitarm/bin/../lib/gcc/arm-eabi/4.6.1/../../../../arm-eabi/lib/thumb\libg.a(lib_a-malloc.o)
 .data          0x020c63ac      0x410 c:/_ndsdev/devkitpro/devkitarm/bin/../lib/gcc/arm-eabi/4.6.1/../../../../arm-eabi/lib/thumb\libg.a(lib_a-mallocr.o)
                0x020c63ac                __malloc_av_
                0x020c67b4                __malloc_sbrk_base
                0x020c67b8                __malloc_trim_threshold
 .data          0x020c67bc        0x4 c:/_ndsdev/devkitpro/devkitarm/bin/../lib/gcc/arm-eabi/4.6.1/../../../../arm-eabi/lib/thumb\libg.a(lib_a-mbtowc_r.o)
                0x020c67bc                __mbtowc
 .data          0x020c67c0        0x0 c:/_ndsdev/devkitpro/devkitarm/bin/../lib/gcc/arm-eabi/4.6.1/../../../../arm-eabi/lib/thumb\libg.a(lib_a-memcpy.o)
 .data          0x020c67c0        0x0 c:/_ndsdev/devkitpro/devkitarm/bin/../lib/gcc/arm-eabi/4.6.1/../../../../arm-eabi/lib/thumb\libg.a(lib_a-memset.o)
 .data          0x020c67c0        0x0 c:/_ndsdev/devkitpro/devkitarm/bin/../lib/gcc/arm-eabi/4.6.1/../../../../arm-eabi/lib/thumb\libg.a(lib_a-mktm_r.o)
 .data          0x020c67c0        0x0 c:/_ndsdev/devkitpro/devkitarm/bin/../lib/gcc/arm-eabi/4.6.1/../../../../arm-eabi/lib/thumb\libg.a(lib_a-mlock.o)
 .data          0x020c67c0        0x0 c:/_ndsdev/devkitpro/devkitarm/bin/../lib/gcc/arm-eabi/4.6.1/../../../../arm-eabi/lib/thumb\libg.a(lib_a-sprintf.o)
 .data          0x020c67c0        0x0 c:/_ndsdev/devkitpro/devkitarm/bin/../lib/gcc/arm-eabi/4.6.1/../../../../arm-eabi/lib/thumb\libg.a(lib_a-strcasecmp.o)
 .data          0x020c67c0        0x0 c:/_ndsdev/devkitpro/devkitarm/bin/../lib/gcc/arm-eabi/4.6.1/../../../../arm-eabi/lib/thumb\libg.a(lib_a-strcat.o)
 .data          0x020c67c0        0x0 c:/_ndsdev/devkitpro/devkitarm/bin/../lib/gcc/arm-eabi/4.6.1/../../../../arm-eabi/lib/thumb\libg.a(lib_a-strchr.o)
 .data          0x020c67c0        0x0 c:/_ndsdev/devkitpro/devkitarm/bin/../lib/gcc/arm-eabi/4.6.1/../../../../arm-eabi/lib/thumb\libg.a(lib_a-strcmp.o)
 .data          0x020c67c0        0x0 c:/_ndsdev/devkitpro/devkitarm/bin/../lib/gcc/arm-eabi/4.6.1/../../../../arm-eabi/lib/thumb\libg.a(lib_a-strcpy.o)
 .data          0x020c67c0        0x0 c:/_ndsdev/devkitpro/devkitarm/bin/../lib/gcc/arm-eabi/4.6.1/../../../../arm-eabi/lib/thumb\libg.a(lib_a-strlcpy.o)
 .data          0x020c67c0        0x0 c:/_ndsdev/devkitpro/devkitarm/bin/../lib/gcc/arm-eabi/4.6.1/../../../../arm-eabi/lib/thumb\libg.a(lib_a-strlen.o)
 .data          0x020c67c0        0x0 c:/_ndsdev/devkitpro/devkitarm/bin/../lib/gcc/arm-eabi/4.6.1/../../../../arm-eabi/lib/thumb\libg.a(lib_a-strncasecmp.o)
 .data          0x020c67c0        0x0 c:/_ndsdev/devkitpro/devkitarm/bin/../lib/gcc/arm-eabi/4.6.1/../../../../arm-eabi/lib/thumb\libg.a(lib_a-strncmp.o)
 .data          0x020c67c0        0x0 c:/_ndsdev/devkitpro/devkitarm/bin/../lib/gcc/arm-eabi/4.6.1/../../../../arm-eabi/lib/thumb\libg.a(lib_a-strncpy.o)
 .data          0x020c67c0        0x0 c:/_ndsdev/devkitpro/devkitarm/bin/../lib/gcc/arm-eabi/4.6.1/../../../../arm-eabi/lib/thumb\libg.a(lib_a-strtol.o)
 .data          0x020c67c0        0x0 c:/_ndsdev/devkitpro/devkitarm/bin/../lib/gcc/arm-eabi/4.6.1/../../../../arm-eabi/lib/thumb\libg.a(lib_a-svfprintf.o)
 .data          0x020c67c0        0x0 c:/_ndsdev/devkitpro/devkitarm/bin/../lib/gcc/arm-eabi/4.6.1/../../../../arm-eabi/lib/thumb\libg.a(lib_a-sysstat.o)
 .data          0x020c67c0        0x0 c:/_ndsdev/devkitpro/devkitarm/bin/../lib/gcc/arm-eabi/4.6.1/../../../../arm-eabi/lib/thumb\libg.a(lib_a-time.o)
 .data          0x020c67c0        0x0 c:/_ndsdev/devkitpro/devkitarm/bin/../lib/gcc/arm-eabi/4.6.1/../../../../arm-eabi/lib/thumb\libg.a(lib_a-tzlock.o)
 .data          0x020c67c0        0x8 c:/_ndsdev/devkitpro/devkitarm/bin/../lib/gcc/arm-eabi/4.6.1/../../../../arm-eabi/lib/thumb\libg.a(lib_a-tzvars.o)
                0x020c67c0                _tzname
 .data          0x020c67c8        0x0 c:/_ndsdev/devkitpro/devkitarm/bin/../lib/gcc/arm-eabi/4.6.1/../../../../arm-eabi/lib/thumb\libg.a(lib_a-wcrtomb.o)
 .data          0x020c67c8        0x0 c:/_ndsdev/devkitpro/devkitarm/bin/../lib/gcc/arm-eabi/4.6.1/../../../../arm-eabi/lib/thumb\libg.a(lib_a-wcsrtombs.o)
 .data          0x020c67c8        0x4 c:/_ndsdev/devkitpro/devkitarm/bin/../lib/gcc/arm-eabi/4.6.1/../../../../arm-eabi/lib/thumb\libg.a(lib_a-wctomb_r.o)
                0x020c67c8                __wctomb
 .data          0x020c67cc        0x4 c:/_ndsdev/devkitpro/devkitarm/bin/../lib/gcc/arm-eabi/4.6.1/../../../../arm-eabi/lib/thumb\libg.a(lib_a-ctype_.o)
                0x020c67cc                __ctype_ptr__
 .data          0x020c67d0        0x0 c:/_ndsdev/devkitpro/devkitarm/bin/../lib/gcc/arm-eabi/4.6.1/../../../../arm-eabi/lib/thumb\libg.a(lib_a-dtoa.o)
 .data          0x020c67d0        0x0 c:/_ndsdev/devkitpro/devkitarm/bin/../lib/gcc/arm-eabi/4.6.1/../../../../arm-eabi/lib/thumb\libg.a(lib_a-freer.o)
 .data          0x020c67d0        0x0 c:/_ndsdev/devkitpro/devkitarm/bin/../lib/gcc/arm-eabi/4.6.1/../../../../arm-eabi/lib/thumb\libg.a(lib_a-getenv_r.o)
 .data          0x020c67d0       0x40 c:/_ndsdev/devkitpro/devkitarm/bin/../lib/gcc/arm-eabi/4.6.1/../../../../arm-eabi/lib/thumb\libg.a(lib_a-gettzinfo.o)
 .data          0x020c6810        0x0 c:/_ndsdev/devkitpro/devkitarm/bin/../lib/gcc/arm-eabi/4.6.1/../../../../arm-eabi/lib/thumb\libg.a(lib_a-memchr.o)
 .data          0x020c6810        0x0 c:/_ndsdev/devkitpro/devkitarm/bin/../lib/gcc/arm-eabi/4.6.1/../../../../arm-eabi/lib/thumb\libg.a(lib_a-mprec.o)
 .data          0x020c6810        0x0 c:/_ndsdev/devkitpro/devkitarm/bin/../lib/gcc/arm-eabi/4.6.1/../../../../arm-eabi/lib/thumb\libg.a(lib_a-s_fpclassify.o)
 .data          0x020c6810        0x0 c:/_ndsdev/devkitpro/devkitarm/bin/../lib/gcc/arm-eabi/4.6.1/../../../../arm-eabi/lib/thumb\libg.a(lib_a-svfiprintf.o)
 .data          0x020c6810        0x0 c:/_ndsdev/devkitpro/devkitarm/bin/../lib/gcc/arm-eabi/4.6.1/../../../../arm-eabi/lib/thumb\libg.a(lib_a-wcsnrtombs.o)
 .data          0x020c6810        0x0 c:/_ndsdev/devkitpro/devkitarm/bin/../lib/gcc/arm-eabi/4.6.1/../../../../arm-eabi/lib/thumb\libg.a(lib_a-callocr.o)
 .data          0x020c6810        0x4 c:/_ndsdev/devkitpro/devkitarm/bin/../lib/gcc/arm-eabi/4.6.1/../../../../arm-eabi/lib/thumb\libg.a(lib_a-environ.o)
                0x020c6810                environ
 .data          0x020c6814        0x0 c:/_ndsdev/devkitpro/devkitarm/bin/../lib/gcc/arm-eabi/4.6.1/../../../../arm-eabi/lib/thumb\libg.a(lib_a-envlock.o)
 .data          0x020c6814        0x0 c:/_ndsdev/devkitpro/devkitarm/bin/../lib/gcc/arm-eabi/4.6.1/../../../../arm-eabi/lib/thumb\libg.a(lib_a-memmove.o)
 .data          0x020c6814        0x0 c:/_ndsdev/devkitpro/devkitarm/bin/../lib/gcc/arm-eabi/4.6.1/../../../../arm-eabi/lib/thumb\libg.a(lib_a-reallocr.o)
 .data          0x020c6814        0x0 c:/_ndsdev/devkitpro/devkitarm/bin/../lib/gcc/arm-eabi/4.6.1/../../../../arm-eabi/lib/thumb\libsysbase.a(sbrk.o)
 .data          0x020c6814        0x0 c:/_ndsdev/devkitpro/devkitarm/bin/../lib/gcc/arm-eabi/4.6.1/../../../../arm-eabi/lib/thumb\libsysbase.a(stat.o)
 .data          0x020c6814        0x0 c:/_ndsdev/devkitpro/devkitarm/bin/../lib/gcc/arm-eabi/4.6.1/../../../../arm-eabi/lib/thumb\libsysbase.a(times.o)
 .data          0x020c6814        0x0 c:/_ndsdev/devkitpro/devkitarm/bin/../lib/gcc/arm-eabi/4.6.1/../../../../arm-eabi/lib/thumb\libsysbase.a(malloc_vars.o)
 .data          0x020c6814        0x0 c:/_ndsdev/devkitpro/devkitarm/bin/../lib/gcc/arm-eabi/4.6.1/../../../../arm-eabi/lib/thumb\libsysbase.a(build_argv.o)
 .data          0x020c6814        0x0 c:/_ndsdev/devkitpro/devkitarm/bin/../lib/gcc/arm-eabi/4.6.1/../../../../arm-eabi/lib/thumb\libsysbase.a(syscall_support.o)
 .data          0x020c6814        0x0 c:/_ndsdev/devkitpro/devkitarm/bin/../lib/gcc/arm-eabi/4.6.1/../../../../arm-eabi/lib/thumb\libsysbase.a(dirent.o)
 .data          0x020c6814       0x44 c:/_ndsdev/devkitpro/devkitarm/bin/../lib/gcc/arm-eabi/4.6.1/../../../../arm-eabi/lib/thumb\libsysbase.a(iosupport.o)
                0x020c6818                devoptab_list
 .data          0x020c6858        0x0 c:/_ndsdev/devkitpro/devkitarm/bin/../lib/gcc/arm-eabi/4.6.1/thumb\libgcc.a(_aeabi_uldivmod.o)
 .data          0x020c6858        0x0 c:/_ndsdev/devkitpro/devkitarm/bin/../lib/gcc/arm-eabi/4.6.1/thumb\libgcc.a(bpabi.o)
 .data          0x020c6858        0x0 c:/_ndsdev/devkitpro/devkitarm/bin/../lib/gcc/arm-eabi/4.6.1/thumb\libgcc.a(_divdi3.o)
 .data          0x020c6858        0x0 c:/_ndsdev/devkitpro/devkitarm/bin/../lib/gcc/arm-eabi/4.6.1/thumb\libgcc.a(_udivdi3.o)
 .data          0x020c6858        0x0 c:/_ndsdev/devkitpro/devkitarm/bin/../lib/gcc/arm-eabi/4.6.1/thumb\libgcc.a(_clzsi2.o)
 .data          0x020c6858        0x0 c:/_ndsdev/devkitpro/devkitarm/bin/../lib/gcc/arm-eabi/4.6.1/../../../../arm-eabi/lib/thumb\libg.a(lib_a-errno.o)
 .data          0x020c6858        0x0 c:/_ndsdev/devkitpro/devkitarm/bin/../lib/gcc/arm-eabi/4.6.1/../../../../arm-eabi/lib/thumb\libg.a(lib_a-strnlen.o)
 .data          0x020c6858        0x0 c:/_ndsdev/devkitpro/devkitarm/bin/../lib/gcc/arm-eabi/4.6.1/thumb/crtend.o
 .data          0x020c6858        0x0 c:/_ndsdev/devkitpro/devkitarm/bin/../lib/gcc/arm-eabi/4.6.1/thumb/crtn.o
 *(.data.*)
 *(.gnu.linkonce.d*)
                0x020c6858                . = ALIGN (0x4)
                0x020c6858                __data_end = ABSOLUTE (.)
                0x020c6858                __dtcm_lma = .
                0x020c6858                __bss_vma = .

.dtcm           0x0b000000        0x0 load address 0x020c6858
 *(.dtcm)
 *(.dtcm.*)
                0x0b000000                . = ALIGN (0x4)
                0x0b000000                __dtcm_end = ABSOLUTE (.)
                0x020c6858                __itcm_lma = (__dtcm_lma + SIZEOF (.dtcm))

.itcm           0x01000100      0x194 load address 0x020c6858
 *(.itcm)
 .itcm          0x01000100       0xc8 c:/_ndsdev/devkitPro/libnds/lib\libnds9.a(interrupts.o)
                0x01000100                irqTable
 .itcm          0x010001c8       0xcc c:/_ndsdev/devkitPro/libnds/lib\libnds9.a(interruptDispatcher.o)
                0x010001c8                IntrMain
 *itcm.*(.text)
                0x01000294                . = ALIGN (0x4)
                0x01000294                __itcm_end = ABSOLUTE (.)
                0x020c69ec                __vectors_lma = (__itcm_lma + SIZEOF (.itcm))

.vectors        0x01000000        0x0 load address 0x020c69ec
 *(.vectors)
 *vectors.*(.text)
                0x01000000                . = ALIGN (0x4)
                0x01000000                __vectors_end = ABSOLUTE (.)

.sbss           0x0b000000        0x0
                0x0b000000                __sbss_start = ABSOLUTE (.)
                0x0b000000                __sbss_start__ = ABSOLUTE (.)
 *(.sbss)
                0x0b000000                . = ALIGN (0x4)
                0x0b000000                __sbss_end = ABSOLUTE (.)

.bss            0x020c6858    0x175e4
                0x020c6858                __bss_start = ABSOLUTE (.)
                0x020c6858                __bss_start__ = ABSOLUTE (.)
 *(.dynbss)
 *(.gnu.linkonce.b*)
 *(.bss*)
 .bss           0x020c6858        0x0 c:/_ndsdev/devkitpro/devkitarm/bin/../lib/gcc/arm-eabi/4.6.1/../../../../arm-eabi/lib/thumb/ds_arm9_crt0.o
 .bss           0x020c6858        0x0 c:/_ndsdev/devkitpro/devkitarm/bin/../lib/gcc/arm-eabi/4.6.1/thumb/crti.o
 .bss           0x020c6858       0x1c c:/_ndsdev/devkitpro/devkitarm/bin/../lib/gcc/arm-eabi/4.6.1/thumb/crtbegin.o
 .bss           0x020c6874        0x0 Town_Map.o
 .bss           0x020c6874        0x0 Town_Pal.o
 .bss           0x020c6874        0x0 Town_Tiles.o
 .bss           0x020c6874        0x0 bg_main_down_Map.o
 .bss           0x020c6874        0x0 bg_main_down_Pal.o
 .bss           0x020c6874        0x0 bg_main_down_Tiles.o
 .bss           0x020c6874        0x0 bg_main_up_Map.o
 .bss           0x020c6874        0x0 bg_main_up_Pal.o
 .bss           0x020c6874        0x0 bg_main_up_Tiles.o
 .bss           0x020c6874        0x0 bg_menu_Map.o
 .bss           0x020c6874        0x0 bg_menu_Pal.o
 .bss           0x020c6874        0x0 bg_menu_Tiles.o
 .bss           0x020c6874        0x0 bg_stage1_init_Map.o
 .bss           0x020c6874        0x0 bg_stage1_init_Pal.o
 .bss           0x020c6874        0x0 bg_stage1_init_Tiles.o
 .bss           0x020c6874        0x0 bg_stage2_init_Map.o
 .bss           0x020c6874        0x0 bg_stage2_init_Pal.o
 .bss           0x020c6874        0x0 bg_stage2_init_Tiles.o
 .bss           0x020c6874        0x0 bg_stage3_init_Map.o
 .bss           0x020c6874        0x0 bg_stage3_init_Pal.o
 .bss           0x020c6874        0x0 bg_stage3_init_Tiles.o
 .bss           0x020c6874        0x0 gameover_Map.o
 .bss           0x020c6874        0x0 gameover_Pal.o
 .bss           0x020c6874        0x0 gameover_Tiles.o
 .bss           0x020c6874        0x0 hpminus_Pal.o
 .bss           0x020c6874        0x0 hpminus_Sprite.o
 .bss           0x020c6874        0x0 monster_Pal.o
 .bss           0x020c6874        0x0 monster_Sprite.o
 .bss           0x020c6874        0x0 princess_Pal.o
 .bss           0x020c6874        0x0 princess_Sprite.o
 .bss           0x020c6874        0x0 som_Pal.o
 .bss           0x020c6874        0x0 som_Sprite.o
 .bss           0x020c6874        0x0 sprite1_Pal.o
 .bss           0x020c6874        0x0 sprite1_Sprite.o
 .bss           0x020c6874        0x0 stage1_Map.o
 .bss           0x020c6874        0x0 stage1_Pal.o
 .bss           0x020c6874        0x0 stage1_Tiles.o
 .bss           0x020c6874        0x0 stage2_Map.o
 .bss           0x020c6874        0x0 stage2_Pal.o
 .bss           0x020c6874        0x0 stage2_Tiles.o
 .bss           0x020c6874        0x0 water_Pal.o
 .bss           0x020c6874        0x0 water_Sprite.o
 .bss           0x020c6874        0x0 soundbank_bin.o
 .bss           0x020c6874        0x0 down.o
 .bss           0x020c6874        0x0 up.o
 .bss           0x020c6874        0x0 crystal.o
 .bss           0x020c6874        0x0 crystal_Ball.o
 .bss           0x020c6874        0x4 cs_api.o
 .bss           0x020c6878       0x1c game.o
                0x020c6888                coordi
                0x020c688c                water_cnt
                0x020c6890                move_cnt
 .bss           0x020c6894        0x0 hero.o
 .bss           0x020c6894        0x0 main.o
 .bss           0x020c6894        0x0 menu.o
 .bss           0x020c6894        0x0 monster.o
 .bss           0x020c6894        0x0 princess.o
 .bss           0x020c6894        0x0 water.o
 .bss           0x020c6894       0x80 croutine.o
                0x020c6894                pxCurrentCoRoutine
 .bss           0x020c6914        0x0 heap.o
 .bss           0x020c6914        0x0 list.o
 .bss           0x020c6914        0x0 port.o
 .bss           0x020c6914        0x0 portISR.o
 .bss           0x020c6914        0x0 queue.o
 .bss           0x020c6914      0x144 tasks.o
                0x020c694c                pxCurrentTCB
 .bss           0x020c6a58        0x0 virtual_io.o
 .bss           0x020c6a58        0x0 Town.o
 .bss           0x020c6a58        0x0 bg_main_down.o
 .bss           0x020c6a58        0x0 bg_main_up.o
 .bss           0x020c6a58        0x0 bg_menu.o
 .bss           0x020c6a58        0x0 bg_stage1_init.o
 .bss           0x020c6a58        0x0 bg_stage2_init.o
 .bss           0x020c6a58        0x0 bg_stage3_init.o
 .bss           0x020c6a58        0x0 gameover.o
 .bss           0x020c6a58        0x0 stage1.o
 .bss           0x020c6a58        0x0 stage2.o
 .bss           0x020c6a58        0x0 assemfunc.o
 .bss           0x020c6a58        0x4 c:/_ndsdev/devkitPro/PAlib/lib\libpa9.a(PA.o)
                0x020c6a58                pa_giftotexcolor
                0x020c6a5a                PA_Screen
                0x020c6a5b                PA_MoveSpriteType
 .bss           0x020c6a5c        0x0 c:/_ndsdev/devkitPro/PAlib/lib\libpa9.a(PA_BgEasy.o)
 .bss           0x020c6a5c        0x0 c:/_ndsdev/devkitPro/PAlib/lib\libpa9.a(PA_BgLargeMap.o)
 .bss           0x020c6a5c        0x0 c:/_ndsdev/devkitPro/PAlib/lib\libpa9.a(PA_BgTiles.o)
 .bss           0x020c6a5c        0x0 c:/_ndsdev/devkitPro/PAlib/lib\libpa9.a(PA_Error.o)
 .bss           0x020c6a5c        0x0 c:/_ndsdev/devkitPro/PAlib/lib\libpa9.a(PA_Inits.o)
 .bss           0x020c6a5c        0x0 c:/_ndsdev/devkitPro/PAlib/lib\libpa9.a(PA_Interrupt.o)
 .bss           0x020c6a5c        0x0 c:/_ndsdev/devkitPro/PAlib/lib\libpa9.a(PA_Keys.o)
 .bss           0x020c6a5c        0x0 c:/_ndsdev/devkitPro/PAlib/lib\libpa9.a(PA_Math.o)
 .bss           0x020c6a5c        0x0 c:/_ndsdev/devkitPro/PAlib/lib\libpa9.a(PA_NewBg.o)
 .bss           0x020c6a5c        0x0 c:/_ndsdev/devkitPro/PAlib/lib\libpa9.a(PA_Palette.o)
 .bss           0x020c6a5c        0x0 c:/_ndsdev/devkitPro/PAlib/lib\libpa9.a(PA_RTC.o)
 .bss           0x020c6a5c        0x1 c:/_ndsdev/devkitPro/PAlib/lib\libpa9.a(PA_Reco.o)
                0x020c6a5c                PA_CustomReco
 *fill*         0x020c6a5d        0x3 00
 .bss           0x020c6a60        0xc c:/_ndsdev/devkitPro/PAlib/lib\libpa9.a(PA_Sprite.o)
                0x020c6a60                PA_SpriteExtPrio
                0x020c6a64                FirstGfx
                0x020c6a68                nspriteanims
 .bss           0x020c6a6c        0x0 c:/_ndsdev/devkitPro/PAlib/lib\libpa9.a(PA_SpriteAnim.o)
 .bss           0x020c6a6c        0x0 c:/_ndsdev/devkitPro/PAlib/lib\libpa9.a(PA_Stuff.o)
 .bss           0x020c6a6c        0x8 c:/_ndsdev/devkitPro/PAlib/lib\libpa9.a(PA_Text.o)
                0x020c6a6c                PAtext_pal
                0x020c6a70                PA_font
 .bss           0x020c6a74        0x0 c:/_ndsdev/devkitPro/PAlib/lib\libpa9.a(PA_Text8bit.o)
 .bss           0x020c6a74        0x0 c:/_ndsdev/devkitPro/PAlib/lib\libpa9.a(PA_TextBits.o)
 .bss           0x020c6a74        0x0 c:/_ndsdev/devkitPro/PAlib/lib\libpa9.a(PA_TiledFont.o)
 .bss           0x020c6a74        0x0 c:/_ndsdev/devkitPro/PAlib/lib\libpa9.a(PA_BmpFont0.o)
 .bss           0x020c6a74        0x0 c:/_ndsdev/devkitPro/PAlib/lib\libpa9.a(PA_BmpFont1.o)
 .bss           0x020c6a74        0x0 c:/_ndsdev/devkitPro/PAlib/lib\libpa9.a(PA_BmpFont2.o)
 .bss           0x020c6a74        0x0 c:/_ndsdev/devkitPro/PAlib/lib\libpa9.a(PA_BmpFont3.o)
 .bss           0x020c6a74        0x0 c:/_ndsdev/devkitPro/PAlib/lib\libpa9.a(PA_BmpFont4.o)
 .bss           0x020c6a74        0x0 c:/_ndsdev/devkitPro/PAlib/lib\libpa9.a(PA_TiledFont_Map.bin.o)
 .bss           0x020c6a74        0x0 c:/_ndsdev/devkitPro/PAlib/lib\libpa9.a(PA_TiledFont_Pal.bin.o)
 .bss           0x020c6a74        0x0 c:/_ndsdev/devkitPro/PAlib/lib\libpa9.a(PA_TiledFont_Tiles.bin.o)
 .bss           0x020c6a74        0x0 c:/_ndsdev/devkitPro/PAlib/lib\libpa9.a(PA_BmpFont0_Map.bin.o)
 .bss           0x020c6a74        0x0 c:/_ndsdev/devkitPro/PAlib/lib\libpa9.a(PA_BmpFont0_Sizes.bin.o)
 .bss           0x020c6a74        0x0 c:/_ndsdev/devkitPro/PAlib/lib\libpa9.a(PA_BmpFont0_Tiles.bin.o)
 .bss           0x020c6a74        0x0 c:/_ndsdev/devkitPro/PAlib/lib\libpa9.a(PA_BmpFont1_Map.bin.o)
 .bss           0x020c6a74        0x0 c:/_ndsdev/devkitPro/PAlib/lib\libpa9.a(PA_BmpFont1_Sizes.bin.o)
 .bss           0x020c6a74        0x0 c:/_ndsdev/devkitPro/PAlib/lib\libpa9.a(PA_BmpFont1_Tiles.bin.o)
 .bss           0x020c6a74        0x0 c:/_ndsdev/devkitPro/PAlib/lib\libpa9.a(PA_BmpFont2_Map.bin.o)
 .bss           0x020c6a74        0x0 c:/_ndsdev/devkitPro/PAlib/lib\libpa9.a(PA_BmpFont2_Sizes.bin.o)
 .bss           0x020c6a74        0x0 c:/_ndsdev/devkitPro/PAlib/lib\libpa9.a(PA_BmpFont2_Tiles.bin.o)
 .bss           0x020c6a74        0x0 c:/_ndsdev/devkitPro/PAlib/lib\libpa9.a(PA_BmpFont3_Map.bin.o)
 .bss           0x020c6a74        0x0 c:/_ndsdev/devkitPro/PAlib/lib\libpa9.a(PA_BmpFont3_Sizes.bin.o)
 .bss           0x020c6a74        0x0 c:/_ndsdev/devkitPro/PAlib/lib\libpa9.a(PA_BmpFont3_Tiles.bin.o)
 .bss           0x020c6a74        0x0 c:/_ndsdev/devkitPro/PAlib/lib\libpa9.a(PA_BmpFont4_Map.bin.o)
 .bss           0x020c6a74        0x0 c:/_ndsdev/devkitPro/PAlib/lib\libpa9.a(PA_BmpFont4_Sizes.bin.o)
 .bss           0x020c6a74        0x0 c:/_ndsdev/devkitPro/PAlib/lib\libpa9.a(PA_BmpFont4_Tiles.bin.o)
 .bss           0x020c6a74        0x0 c:/_ndsdev/devkitPro/PAlib/lib\libpa9.a(PA_16c.o)
 .bss           0x020c6a74        0x0 c:/_ndsdev/devkitPro/PAlib/lib\libpa9.a(PA_BgRot.o)
 .bss           0x020c6a74        0x0 c:/_ndsdev/devkitPro/PAlib/lib\libpa9.a(PA_Draw.o)
 .bss           0x020c6a74        0x0 c:/_ndsdev/devkitPro/PAlib/lib\libpa9.a(PA_Fifo.o)
 .bss           0x020c6a74        0x1 c:/_ndsdev/devkitPro/PAlib/lib\libpa9.a(PA_Keyboard.o)
                0x020c6a74                keyb_screen
 .bss           0x020c6a75        0x0 c:/_ndsdev/devkitPro/PAlib/lib\libpa9.a(PA_PaletteEx.o)
 .bss           0x020c6a75        0x0 c:/_ndsdev/devkitPro/PAlib/lib\libpa9.a(keyboard.map.o)
 .bss           0x020c6a75        0x0 c:/_ndsdev/devkitPro/PAlib/lib\libpa9.a(keyboard.pal.o)
 .bss           0x020c6a75        0x0 c:/_ndsdev/devkitPro/PAlib/lib\libpa9.a(keyboard.raw.o)
 .bss           0x020c6a75        0x0 c:/_ndsdev/devkitPro/libnds/lib\libnds9.a(background.o)
 .bss           0x020c6a75        0x0 c:/_ndsdev/devkitPro/libnds/lib\libnds9.a(decompress.o)
 *fill*         0x020c6a75        0x1 00
 .bss           0x020c6a76        0x6 c:/_ndsdev/devkitPro/libnds/lib\libnds9.a(keys.o)
 .bss           0x020c6a7c        0x0 c:/_ndsdev/devkitPro/libnds/lib\libnds9.a(system.o)
 .bss           0x020c6a7c        0x0 c:/_ndsdev/devkitPro/libnds/lib\libnds9.a(touch.o)
 .bss           0x020c6a7c        0x0 c:/_ndsdev/devkitPro/libnds/lib\libnds9.a(trig.o)
 .bss           0x020c6a7c        0x0 c:/_ndsdev/devkitPro/libnds/lib\libnds9.a(video.o)
 .bss           0x020c6a7c        0x0 c:/_ndsdev/devkitPro/libnds/lib\libnds9.a(initSystem.o)
 .bss           0x020c6a7c        0x8 c:/_ndsdev/devkitPro/libnds/lib\libnds9.a(fifosystem.o)
                0x020c6a80                processing
 .bss           0x020c6a84        0x0 c:/_ndsdev/devkitPro/libnds/lib\libnds9.a(interrupts.o)
 .bss           0x020c6a84        0x0 c:/_ndsdev/devkitPro/libnds/lib\libnds9.a(libnds_exit.o)
 .bss           0x020c6a84        0x0 c:/_ndsdev/devkitPro/libnds/lib\libnds9.a(syscalls.o)
 .bss           0x020c6a84        0x0 c:/_ndsdev/devkitPro/libnds/lib\libnds9.a(dcache.o)
 .bss           0x020c6a84        0x0 c:/_ndsdev/devkitPro/libnds/lib\libnds9.a(mpu_setup.o)
 .bss           0x020c6a84        0x0 c:/_ndsdev/devkitPro/libnds/lib\libnds9.a(biosCalls.o)
 .bss           0x020c6a84        0x0 c:/_ndsdev/devkitPro/libnds/lib\libnds9.a(interruptDispatcher.o)
 .bss           0x020c6a84        0x0 c:/_ndsdev/devkitPro/libnds/lib\libnds9.a(swiSoftReset.o)
 .bss           0x020c6a84        0x0 c:/_ndsdev/devkitpro/devkitarm/bin/../lib/gcc/arm-eabi/4.6.1/thumb\libgcc.a(_udivsi3.o)
 .bss           0x020c6a84        0x0 c:/_ndsdev/devkitpro/devkitarm/bin/../lib/gcc/arm-eabi/4.6.1/thumb\libgcc.a(_divsi3.o)
 .bss           0x020c6a84        0x0 c:/_ndsdev/devkitpro/devkitarm/bin/../lib/gcc/arm-eabi/4.6.1/thumb\libgcc.a(_dvmd_tls.o)
 .bss           0x020c6a84        0x0 c:/_ndsdev/devkitpro/devkitarm/bin/../lib/gcc/arm-eabi/4.6.1/thumb\libgcc.a(_arm_addsubdf3.o)
 .bss           0x020c6a84        0x0 c:/_ndsdev/devkitpro/devkitarm/bin/../lib/gcc/arm-eabi/4.6.1/thumb\libgcc.a(_arm_muldivdf3.o)
 .bss           0x020c6a84        0x0 c:/_ndsdev/devkitpro/devkitarm/bin/../lib/gcc/arm-eabi/4.6.1/thumb\libgcc.a(_arm_cmpdf2.o)
 .bss           0x020c6a84        0x0 c:/_ndsdev/devkitpro/devkitarm/bin/../lib/gcc/arm-eabi/4.6.1/thumb\libgcc.a(_arm_fixdfsi.o)
 .bss           0x020c6a84        0x0 c:/_ndsdev/devkitpro/devkitarm/bin/../lib/gcc/arm-eabi/4.6.1/thumb\libgcc.a(_muldi3.o)
 .bss           0x020c6a84        0x0 c:/_ndsdev/devkitpro/devkitarm/bin/../lib/gcc/arm-eabi/4.6.1/../../../../arm-eabi/lib/thumb\libg.a(lib_a-bsearch.o)
 .bss           0x020c6a84        0x0 c:/_ndsdev/devkitpro/devkitarm/bin/../lib/gcc/arm-eabi/4.6.1/../../../../arm-eabi/lib/thumb\libg.a(lib_a-gmtime.o)
 .bss           0x020c6a84        0x0 c:/_ndsdev/devkitpro/devkitarm/bin/../lib/gcc/arm-eabi/4.6.1/../../../../arm-eabi/lib/thumb\libg.a(lib_a-gmtime_r.o)
 .bss           0x020c6a84        0x0 c:/_ndsdev/devkitpro/devkitarm/bin/../lib/gcc/arm-eabi/4.6.1/../../../../arm-eabi/lib/thumb\libg.a(lib_a-impure.o)
 .bss           0x020c6a84        0x0 c:/_ndsdev/devkitpro/devkitarm/bin/../lib/gcc/arm-eabi/4.6.1/../../../../arm-eabi/lib/thumb\libg.a(lib_a-init.o)
 .bss           0x020c6a84      0x2b8 c:/_ndsdev/devkitpro/devkitarm/bin/../lib/gcc/arm-eabi/4.6.1/../../../../arm-eabi/lib/thumb\libg.a(lib_a-locale.o)
                0x020c6d30                _PathLocale
                0x020c6d34                __mlocale_changed
                0x020c6d38                __nlocale_changed
 .bss           0x020c6d3c        0x0 c:/_ndsdev/devkitpro/devkitarm/bin/../lib/gcc/arm-eabi/4.6.1/../../../../arm-eabi/lib/thumb\libg.a(lib_a-malloc.o)
 .bss           0x020c6d3c       0x34 c:/_ndsdev/devkitpro/devkitarm/bin/../lib/gcc/arm-eabi/4.6.1/../../../../arm-eabi/lib/thumb\libg.a(lib_a-mallocr.o)
                0x020c6d3c                __malloc_top_pad
                0x020c6d40                __malloc_current_mallinfo
                0x020c6d68                __malloc_max_sbrked_mem
                0x020c6d6c                __malloc_max_total_mem
 .bss           0x020c6d70        0x0 c:/_ndsdev/devkitpro/devkitarm/bin/../lib/gcc/arm-eabi/4.6.1/../../../../arm-eabi/lib/thumb\libg.a(lib_a-mbtowc_r.o)
 .bss           0x020c6d70        0x0 c:/_ndsdev/devkitpro/devkitarm/bin/../lib/gcc/arm-eabi/4.6.1/../../../../arm-eabi/lib/thumb\libg.a(lib_a-memcpy.o)
 .bss           0x020c6d70        0x0 c:/_ndsdev/devkitpro/devkitarm/bin/../lib/gcc/arm-eabi/4.6.1/../../../../arm-eabi/lib/thumb\libg.a(lib_a-memset.o)
 .bss           0x020c6d70        0x0 c:/_ndsdev/devkitpro/devkitarm/bin/../lib/gcc/arm-eabi/4.6.1/../../../../arm-eabi/lib/thumb\libg.a(lib_a-mktm_r.o)
 .bss           0x020c6d70        0x0 c:/_ndsdev/devkitpro/devkitarm/bin/../lib/gcc/arm-eabi/4.6.1/../../../../arm-eabi/lib/thumb\libg.a(lib_a-mlock.o)
 .bss           0x020c6d70        0x0 c:/_ndsdev/devkitpro/devkitarm/bin/../lib/gcc/arm-eabi/4.6.1/../../../../arm-eabi/lib/thumb\libg.a(lib_a-sprintf.o)
 .bss           0x020c6d70        0x0 c:/_ndsdev/devkitpro/devkitarm/bin/../lib/gcc/arm-eabi/4.6.1/../../../../arm-eabi/lib/thumb\libg.a(lib_a-strcasecmp.o)
 .bss           0x020c6d70        0x0 c:/_ndsdev/devkitpro/devkitarm/bin/../lib/gcc/arm-eabi/4.6.1/../../../../arm-eabi/lib/thumb\libg.a(lib_a-strcat.o)
 .bss           0x020c6d70        0x0 c:/_ndsdev/devkitpro/devkitarm/bin/../lib/gcc/arm-eabi/4.6.1/../../../../arm-eabi/lib/thumb\libg.a(lib_a-strchr.o)
 .bss           0x020c6d70        0x0 c:/_ndsdev/devkitpro/devkitarm/bin/../lib/gcc/arm-eabi/4.6.1/../../../../arm-eabi/lib/thumb\libg.a(lib_a-strcmp.o)
 .bss           0x020c6d70        0x0 c:/_ndsdev/devkitpro/devkitarm/bin/../lib/gcc/arm-eabi/4.6.1/../../../../arm-eabi/lib/thumb\libg.a(lib_a-strcpy.o)
 .bss           0x020c6d70        0x0 c:/_ndsdev/devkitpro/devkitarm/bin/../lib/gcc/arm-eabi/4.6.1/../../../../arm-eabi/lib/thumb\libg.a(lib_a-strlcpy.o)
 .bss           0x020c6d70        0x0 c:/_ndsdev/devkitpro/devkitarm/bin/../lib/gcc/arm-eabi/4.6.1/../../../../arm-eabi/lib/thumb\libg.a(lib_a-strlen.o)
 .bss           0x020c6d70        0x0 c:/_ndsdev/devkitpro/devkitarm/bin/../lib/gcc/arm-eabi/4.6.1/../../../../arm-eabi/lib/thumb\libg.a(lib_a-strncasecmp.o)
 .bss           0x020c6d70        0x0 c:/_ndsdev/devkitpro/devkitarm/bin/../lib/gcc/arm-eabi/4.6.1/../../../../arm-eabi/lib/thumb\libg.a(lib_a-strncmp.o)
 .bss           0x020c6d70        0x0 c:/_ndsdev/devkitpro/devkitarm/bin/../lib/gcc/arm-eabi/4.6.1/../../../../arm-eabi/lib/thumb\libg.a(lib_a-strncpy.o)
 .bss           0x020c6d70        0x0 c:/_ndsdev/devkitpro/devkitarm/bin/../lib/gcc/arm-eabi/4.6.1/../../../../arm-eabi/lib/thumb\libg.a(lib_a-strtol.o)
 .bss           0x020c6d70        0x0 c:/_ndsdev/devkitpro/devkitarm/bin/../lib/gcc/arm-eabi/4.6.1/../../../../arm-eabi/lib/thumb\libg.a(lib_a-svfprintf.o)
 .bss           0x020c6d70        0x0 c:/_ndsdev/devkitpro/devkitarm/bin/../lib/gcc/arm-eabi/4.6.1/../../../../arm-eabi/lib/thumb\libg.a(lib_a-sysstat.o)
 .bss           0x020c6d70        0x0 c:/_ndsdev/devkitpro/devkitarm/bin/../lib/gcc/arm-eabi/4.6.1/../../../../arm-eabi/lib/thumb\libg.a(lib_a-time.o)
 .bss           0x020c6d70        0x0 c:/_ndsdev/devkitpro/devkitarm/bin/../lib/gcc/arm-eabi/4.6.1/../../../../arm-eabi/lib/thumb\libg.a(lib_a-tzlock.o)
 .bss           0x020c6d70        0x8 c:/_ndsdev/devkitpro/devkitarm/bin/../lib/gcc/arm-eabi/4.6.1/../../../../arm-eabi/lib/thumb\libg.a(lib_a-tzvars.o)
                0x020c6d70                _timezone
                0x020c6d74                _daylight
 .bss           0x020c6d78        0x0 c:/_ndsdev/devkitpro/devkitarm/bin/../lib/gcc/arm-eabi/4.6.1/../../../../arm-eabi/lib/thumb\libg.a(lib_a-wcrtomb.o)
 .bss           0x020c6d78        0x0 c:/_ndsdev/devkitpro/devkitarm/bin/../lib/gcc/arm-eabi/4.6.1/../../../../arm-eabi/lib/thumb\libg.a(lib_a-wcsrtombs.o)
 .bss           0x020c6d78        0x0 c:/_ndsdev/devkitpro/devkitarm/bin/../lib/gcc/arm-eabi/4.6.1/../../../../arm-eabi/lib/thumb\libg.a(lib_a-wctomb_r.o)
 .bss           0x020c6d78        0x0 c:/_ndsdev/devkitpro/devkitarm/bin/../lib/gcc/arm-eabi/4.6.1/../../../../arm-eabi/lib/thumb\libg.a(lib_a-ctype_.o)
 .bss           0x020c6d78        0x0 c:/_ndsdev/devkitpro/devkitarm/bin/../lib/gcc/arm-eabi/4.6.1/../../../../arm-eabi/lib/thumb\libg.a(lib_a-dtoa.o)
 .bss           0x020c6d78        0x0 c:/_ndsdev/devkitpro/devkitarm/bin/../lib/gcc/arm-eabi/4.6.1/../../../../arm-eabi/lib/thumb\libg.a(lib_a-freer.o)
 .bss           0x020c6d78        0x0 c:/_ndsdev/devkitpro/devkitarm/bin/../lib/gcc/arm-eabi/4.6.1/../../../../arm-eabi/lib/thumb\libg.a(lib_a-getenv_r.o)
 .bss           0x020c6d78        0x0 c:/_ndsdev/devkitpro/devkitarm/bin/../lib/gcc/arm-eabi/4.6.1/../../../../arm-eabi/lib/thumb\libg.a(lib_a-gettzinfo.o)
 .bss           0x020c6d78        0x0 c:/_ndsdev/devkitpro/devkitarm/bin/../lib/gcc/arm-eabi/4.6.1/../../../../arm-eabi/lib/thumb\libg.a(lib_a-memchr.o)
 .bss           0x020c6d78        0x0 c:/_ndsdev/devkitpro/devkitarm/bin/../lib/gcc/arm-eabi/4.6.1/../../../../arm-eabi/lib/thumb\libg.a(lib_a-mprec.o)
 .bss           0x020c6d78        0x0 c:/_ndsdev/devkitpro/devkitarm/bin/../lib/gcc/arm-eabi/4.6.1/../../../../arm-eabi/lib/thumb\libg.a(lib_a-s_fpclassify.o)
 .bss           0x020c6d78        0x0 c:/_ndsdev/devkitpro/devkitarm/bin/../lib/gcc/arm-eabi/4.6.1/../../../../arm-eabi/lib/thumb\libg.a(lib_a-svfiprintf.o)
 .bss           0x020c6d78        0x0 c:/_ndsdev/devkitpro/devkitarm/bin/../lib/gcc/arm-eabi/4.6.1/../../../../arm-eabi/lib/thumb\libg.a(lib_a-wcsnrtombs.o)
 .bss           0x020c6d78        0x0 c:/_ndsdev/devkitpro/devkitarm/bin/../lib/gcc/arm-eabi/4.6.1/../../../../arm-eabi/lib/thumb\libg.a(lib_a-callocr.o)
 .bss           0x020c6d78        0x4 c:/_ndsdev/devkitpro/devkitarm/bin/../lib/gcc/arm-eabi/4.6.1/../../../../arm-eabi/lib/thumb\libg.a(lib_a-environ.o)
 .bss           0x020c6d7c        0x0 c:/_ndsdev/devkitpro/devkitarm/bin/../lib/gcc/arm-eabi/4.6.1/../../../../arm-eabi/lib/thumb\libg.a(lib_a-envlock.o)
 .bss           0x020c6d7c        0x0 c:/_ndsdev/devkitpro/devkitarm/bin/../lib/gcc/arm-eabi/4.6.1/../../../../arm-eabi/lib/thumb\libg.a(lib_a-memmove.o)
 .bss           0x020c6d7c        0x0 c:/_ndsdev/devkitpro/devkitarm/bin/../lib/gcc/arm-eabi/4.6.1/../../../../arm-eabi/lib/thumb\libg.a(lib_a-reallocr.o)
 .bss           0x020c6d7c        0x4 c:/_ndsdev/devkitpro/devkitarm/bin/../lib/gcc/arm-eabi/4.6.1/../../../../arm-eabi/lib/thumb\libsysbase.a(sbrk.o)
 .bss           0x020c6d80        0x0 c:/_ndsdev/devkitpro/devkitarm/bin/../lib/gcc/arm-eabi/4.6.1/../../../../arm-eabi/lib/thumb\libsysbase.a(stat.o)
 .bss           0x020c6d80        0x0 c:/_ndsdev/devkitpro/devkitarm/bin/../lib/gcc/arm-eabi/4.6.1/../../../../arm-eabi/lib/thumb\libsysbase.a(times.o)
 .bss           0x020c6d80        0x8 c:/_ndsdev/devkitpro/devkitarm/bin/../lib/gcc/arm-eabi/4.6.1/../../../../arm-eabi/lib/thumb\libsysbase.a(malloc_vars.o)
                0x020c6d80                fake_heap_start
                0x020c6d84                fake_heap_end
 .bss           0x020c6d88        0x0 c:/_ndsdev/devkitpro/devkitarm/bin/../lib/gcc/arm-eabi/4.6.1/../../../../arm-eabi/lib/thumb\libsysbase.a(build_argv.o)
 .bss           0x020c6d88        0x8 c:/_ndsdev/devkitpro/devkitarm/bin/../lib/gcc/arm-eabi/4.6.1/../../../../arm-eabi/lib/thumb\libsysbase.a(syscall_support.o)
                0x020c6d88                __syscalls
 .bss           0x020c6d90        0x0 c:/_ndsdev/devkitpro/devkitarm/bin/../lib/gcc/arm-eabi/4.6.1/../../../../arm-eabi/lib/thumb\libsysbase.a(dirent.o)
 .bss           0x020c6d90        0x0 c:/_ndsdev/devkitpro/devkitarm/bin/../lib/gcc/arm-eabi/4.6.1/../../../../arm-eabi/lib/thumb\libsysbase.a(iosupport.o)
 .bss           0x020c6d90        0x0 c:/_ndsdev/devkitpro/devkitarm/bin/../lib/gcc/arm-eabi/4.6.1/thumb\libgcc.a(_aeabi_uldivmod.o)
 .bss           0x020c6d90        0x0 c:/_ndsdev/devkitpro/devkitarm/bin/../lib/gcc/arm-eabi/4.6.1/thumb\libgcc.a(bpabi.o)
 .bss           0x020c6d90        0x0 c:/_ndsdev/devkitpro/devkitarm/bin/../lib/gcc/arm-eabi/4.6.1/thumb\libgcc.a(_divdi3.o)
 .bss           0x020c6d90        0x0 c:/_ndsdev/devkitpro/devkitarm/bin/../lib/gcc/arm-eabi/4.6.1/thumb\libgcc.a(_udivdi3.o)
 .bss           0x020c6d90        0x0 c:/_ndsdev/devkitpro/devkitarm/bin/../lib/gcc/arm-eabi/4.6.1/thumb\libgcc.a(_clzsi2.o)
 .bss           0x020c6d90        0x0 c:/_ndsdev/devkitpro/devkitarm/bin/../lib/gcc/arm-eabi/4.6.1/../../../../arm-eabi/lib/thumb\libg.a(lib_a-errno.o)
 .bss           0x020c6d90        0x0 c:/_ndsdev/devkitpro/devkitarm/bin/../lib/gcc/arm-eabi/4.6.1/../../../../arm-eabi/lib/thumb\libg.a(lib_a-strnlen.o)
 .bss           0x020c6d90        0x0 c:/_ndsdev/devkitpro/devkitarm/bin/../lib/gcc/arm-eabi/4.6.1/thumb/crtend.o
 .bss           0x020c6d90        0x0 c:/_ndsdev/devkitpro/devkitarm/bin/../lib/gcc/arm-eabi/4.6.1/thumb/crtn.o
 *(COMMON)
 COMMON         0x020c6d90      0x22c c:/_ndsdev/devkitPro/PAlib/lib\libpa9.a(PA.o)
                0x020c6d90                PA_ScreenSpace
                0x020c6d94                PadPointer
                0x020c6d98                pa_checklid
                0x020c6d9c                PA_IPC
                0x020c6f34                Pad
                0x020c6f5c                Stylus
                0x020c6f78                PA_bgmap
                0x020c6f98                PA_GifInfo
                0x020c6fac                PA_MovedSprite
 COMMON         0x020c6fbc      0x3d0 c:/_ndsdev/devkitPro/PAlib/lib\libpa9.a(PA_BgTiles.o)
                0x020c6fbc                PA_parallaxY
                0x020c6fdc                PA_parallaxX
                0x020c6ffc                tempsize
                0x020c7000                charblocks
                0x020c708c                PA_BgInfo
                0x020c72ac                scrollpos
 COMMON         0x020c738c       0x50 c:/_ndsdev/devkitPro/PAlib/lib\libpa9.a(PA_Interrupt.o)
                0x020c738c                PA_VBLCounter
                0x020c73cc                PA_VBLCounterOn
 COMMON         0x020c73dc        0x1 c:/_ndsdev/devkitPro/PAlib/lib\libpa9.a(PA_Keys.o)
                0x020c73dc                _PA_LidDown
 *fill*         0x020c73dd        0x3 00
 COMMON         0x020c73e0        0x4 c:/_ndsdev/devkitPro/PAlib/lib\libpa9.a(PA_Palette.o)
                0x020c73e0                PA_ExtPal
 COMMON         0x020c73e4       0x5a c:/_ndsdev/devkitPro/PAlib/lib\libpa9.a(PA_RTC.o)
                0x020c73e4                PA_RTC
                0x020c73ec                PA_UserInfo
 *fill*         0x020c743e        0x2 00
 COMMON         0x020c7440     0xa9bc c:/_ndsdev/devkitPro/PAlib/lib\libpa9.a(PA_Reco.o)
                0x020c7440                PA_Reco
                0x020c744c                PA_RecoInfo
                0x020c7464                PA_StylusPos
                0x020d10a4                PA_CustomShape
                0x020d1dec                PA_RecoShape
 COMMON         0x020d1dfc     0x8204 c:/_ndsdev/devkitPro/PAlib/lib\libpa9.a(PA_Sprite.o)
                0x020d1dfc                free_mem
                0x020d3dfc                n_free_mem
                0x020d3e00                PA_SpritePrio
                0x020d3f00                used_mem
                0x020d4700                spriteanims
                0x020d6b00                PA_SpriteAnimP
                0x020d8b00                PA_first
                0x020d8d00                PA_next
                0x020d8e00                obj_per_gfx
                0x020d9600                PA_obj
                0x020d9e00                DualSpriteX
                0x020d9f00                pa_obj_created
 COMMON         0x020da000       0x3c c:/_ndsdev/devkitPro/PAlib/lib\libpa9.a(PA_Text.o)
                0x020da000                PA_texttiles
                0x020da008                PA_TextBox
                0x020da010                PAbgtext
                0x020da014                pa_printx
                0x020da01c                pa_printy
                0x020da024                textcol
                0x020da028                pa_printscroll
                0x020da02c                PA_textpal
                0x020da034                PA_textmap
 COMMON         0x020da03c     0x301a c:/_ndsdev/devkitPro/PAlib/lib\libpa9.a(PA_TextBits.o)
                0x020da03c                PA_LetterPos
                0x020dd040                pa_bittextpoliceheight
                0x020dd04c                pa_bittextsizes
 *fill*         0x020dd056        0x2 00
 COMMON         0x020dd058       0x10 c:/_ndsdev/devkitPro/PAlib/lib\libpa9.a(PA_16c.o)
                0x020dd058                PA_Draw16
                0x020dd060                PA_Draw1632
 COMMON         0x020dd068        0x8 c:/_ndsdev/devkitPro/PAlib/lib\libpa9.a(PA_BgRot.o)
                0x020dd068                rotbg_size
 COMMON         0x020dd070      0x226 c:/_ndsdev/devkitPro/PAlib/lib\libpa9.a(PA_Draw.o)
                0x020dd070                PA_olddowntime
                0x020dd074                PA_DrawBg32
                0x020dd07c                PA_DrawBg
                0x020dd084                PA_oldx
                0x020dd088                PA_drawsize
                0x020dd08c                PA_oldy
                0x020dd090                tempvar
                0x020dd094                PA_temppal
                0x020dd294                PA_nBit
 *fill*         0x020dd296        0x2 00
 COMMON         0x020dd298       0x12 c:/_ndsdev/devkitPro/PAlib/lib\libpa9.a(PA_Keyboard.o)
                0x020dd298                PA_Keyboard_Struct
 *fill*         0x020dd2aa        0x2 00
 COMMON         0x020dd2ac      0x148 c:/_ndsdev/devkitPro/libnds/lib\libnds9.a(background.o)
                0x020dd2ac                bgState
                0x020dd3ec                bgIsTextLut
 COMMON         0x020dd3f4        0x1 c:/_ndsdev/devkitPro/libnds/lib\libnds9.a(initSystem.o)
                0x020dd3f4                __dsimode
 *fill*         0x020dd3f5        0x3 00
 COMMON         0x020dd3f8      0xa40 c:/_ndsdev/devkitPro/libnds/lib\libnds9.a(fifosystem.o)
                0x020dd3f8                fifo_datamsg_data
                0x020dd438                fifo_buffer
                0x020ddc38                fifo_value32_func
                0x020ddc78                fifo_address_func
                0x020ddcb8                fifo_value32_data
                0x020ddcf8                fifo_value32_queue
                0x020ddd38                fifo_data_queue
                0x020ddd78                fifo_address_data
                0x020dddb8                fifo_datamsg_func
                0x020dddf8                fifo_address_queue
 COMMON         0x020dde38        0x4 c:/_ndsdev/devkitpro/devkitarm/bin/../lib/gcc/arm-eabi/4.6.1/../../../../arm-eabi/lib/thumb\libsysbase.a(times.o)
                0x020dde38                punixTime
                0x020dde3c                . = ALIGN (0x4)
                0x020dde3c                __bss_end__ = ABSOLUTE (.)
                0x020dde3c                __end__ = ABSOLUTE (.)

.stab
 *(.stab)

.stabstr
 *(.stabstr)

.stab.excl
 *(.stab.excl)

.stab.exclstr
 *(.stab.exclstr)

.stab.index
 *(.stab.index)

.stab.indexstr
 *(.stab.indexstr)

.comment        0x00000000       0x66
 *(.comment)
 .comment       0x00000000       0x22 c:/_ndsdev/devkitpro/devkitarm/bin/../lib/gcc/arm-eabi/4.6.1/thumb/crtbegin.o
                                 0x23 (size before relaxing)
 .comment       0x00000000       0x23 crystal.o
 .comment       0x00000000       0x23 crystal_Ball.o
 .comment       0x00000000       0x23 cs_api.o
 .comment       0x00000000       0x23 game.o
 .comment       0x00000000       0x23 hero.o
 .comment       0x00000000       0x23 main.o
 .comment       0x00000000       0x23 menu.o
 .comment       0x00000000       0x23 monster.o
 .comment       0x00000000       0x23 princess.o
 .comment       0x00000000       0x23 water.o
 .comment       0x00000000       0x23 croutine.o
 .comment       0x00000000       0x23 heap.o
 .comment       0x00000000       0x23 list.o
 .comment       0x00000000       0x23 port.o
 .comment       0x00000000       0x23 portISR.o
 .comment       0x00000000       0x23 queue.o
 .comment       0x00000000       0x23 tasks.o
 .comment       0x00000000       0x23 virtual_io.o
 .comment       0x00000000       0x23 Town.o
 .comment       0x00000000       0x23 bg_main_down.o
 .comment       0x00000000       0x23 bg_main_up.o
 .comment       0x00000000       0x23 bg_menu.o
 .comment       0x00000000       0x23 bg_stage1_init.o
 .comment       0x00000000       0x23 bg_stage2_init.o
 .comment       0x00000000       0x23 bg_stage3_init.o
 .comment       0x00000000       0x23 gameover.o
 .comment       0x00000000       0x23 stage1.o
 .comment       0x00000000       0x23 stage2.o
 .comment       0x00000022       0x22 c:/_ndsdev/devkitPro/PAlib/lib\libpa9.a(PA.o)
                                 0x23 (size before relaxing)
 .comment       0x00000000       0x23 c:/_ndsdev/devkitPro/PAlib/lib\libpa9.a(PA_BgEasy.o)
 .comment       0x00000000       0x23 c:/_ndsdev/devkitPro/PAlib/lib\libpa9.a(PA_BgLargeMap.o)
 .comment       0x00000000       0x23 c:/_ndsdev/devkitPro/PAlib/lib\libpa9.a(PA_BgTiles.o)
 .comment       0x00000000       0x23 c:/_ndsdev/devkitPro/PAlib/lib\libpa9.a(PA_Error.o)
 .comment       0x00000000       0x23 c:/_ndsdev/devkitPro/PAlib/lib\libpa9.a(PA_Inits.o)
 .comment       0x00000000       0x23 c:/_ndsdev/devkitPro/PAlib/lib\libpa9.a(PA_Interrupt.o)
 .comment       0x00000000       0x23 c:/_ndsdev/devkitPro/PAlib/lib\libpa9.a(PA_Keys.o)
 .comment       0x00000000       0x23 c:/_ndsdev/devkitPro/PAlib/lib\libpa9.a(PA_Math.o)
 .comment       0x00000000       0x23 c:/_ndsdev/devkitPro/PAlib/lib\libpa9.a(PA_NewBg.o)
 .comment       0x00000000       0x23 c:/_ndsdev/devkitPro/PAlib/lib\libpa9.a(PA_Palette.o)
 .comment       0x00000000       0x23 c:/_ndsdev/devkitPro/PAlib/lib\libpa9.a(PA_RTC.o)
 .comment       0x00000000       0x23 c:/_ndsdev/devkitPro/PAlib/lib\libpa9.a(PA_Reco.o)
 .comment       0x00000000       0x23 c:/_ndsdev/devkitPro/PAlib/lib\libpa9.a(PA_Sprite.o)
 .comment       0x00000000       0x23 c:/_ndsdev/devkitPro/PAlib/lib\libpa9.a(PA_SpriteAnim.o)
 .comment       0x00000000       0x23 c:/_ndsdev/devkitPro/PAlib/lib\libpa9.a(PA_Stuff.o)
 .comment       0x00000000       0x23 c:/_ndsdev/devkitPro/PAlib/lib\libpa9.a(PA_Text.o)
 .comment       0x00000000       0x23 c:/_ndsdev/devkitPro/PAlib/lib\libpa9.a(PA_Text8bit.o)
 .comment       0x00000000       0x23 c:/_ndsdev/devkitPro/PAlib/lib\libpa9.a(PA_TextBits.o)
 .comment       0x00000000       0x23 c:/_ndsdev/devkitPro/PAlib/lib\libpa9.a(PA_TiledFont.o)
 .comment       0x00000000       0x23 c:/_ndsdev/devkitPro/PAlib/lib\libpa9.a(PA_BmpFont0.o)
 .comment       0x00000000       0x23 c:/_ndsdev/devkitPro/PAlib/lib\libpa9.a(PA_BmpFont1.o)
 .comment       0x00000000       0x23 c:/_ndsdev/devkitPro/PAlib/lib\libpa9.a(PA_BmpFont2.o)
 .comment       0x00000000       0x23 c:/_ndsdev/devkitPro/PAlib/lib\libpa9.a(PA_BmpFont3.o)
 .comment       0x00000000       0x23 c:/_ndsdev/devkitPro/PAlib/lib\libpa9.a(PA_BmpFont4.o)
 .comment       0x00000000       0x23 c:/_ndsdev/devkitPro/PAlib/lib\libpa9.a(PA_16c.o)
 .comment       0x00000000       0x23 c:/_ndsdev/devkitPro/PAlib/lib\libpa9.a(PA_BgRot.o)
 .comment       0x00000000       0x23 c:/_ndsdev/devkitPro/PAlib/lib\libpa9.a(PA_Draw.o)
 .comment       0x00000000       0x23 c:/_ndsdev/devkitPro/PAlib/lib\libpa9.a(PA_Fifo.o)
 .comment       0x00000000       0x23 c:/_ndsdev/devkitPro/PAlib/lib\libpa9.a(PA_Keyboard.o)
 .comment       0x00000000       0x23 c:/_ndsdev/devkitPro/PAlib/lib\libpa9.a(PA_PaletteEx.o)
 .comment       0x00000000       0x23 c:/_ndsdev/devkitPro/PAlib/lib\libpa9.a(keyboard.map.o)
 .comment       0x00000000       0x23 c:/_ndsdev/devkitPro/PAlib/lib\libpa9.a(keyboard.pal.o)
 .comment       0x00000000       0x23 c:/_ndsdev/devkitPro/PAlib/lib\libpa9.a(keyboard.raw.o)
 .comment       0x00000044       0x22 c:/_ndsdev/devkitPro/libnds/lib\libnds9.a(background.o)
                                 0x23 (size before relaxing)
 .comment       0x00000000       0x23 c:/_ndsdev/devkitPro/libnds/lib\libnds9.a(decompress.o)
 .comment       0x00000000       0x23 c:/_ndsdev/devkitPro/libnds/lib\libnds9.a(keys.o)
 .comment       0x00000000       0x23 c:/_ndsdev/devkitPro/libnds/lib\libnds9.a(system.o)
 .comment       0x00000000       0x23 c:/_ndsdev/devkitPro/libnds/lib\libnds9.a(touch.o)
 .comment       0x00000000       0x23 c:/_ndsdev/devkitPro/libnds/lib\libnds9.a(trig.o)
 .comment       0x00000000       0x23 c:/_ndsdev/devkitPro/libnds/lib\libnds9.a(video.o)
 .comment       0x00000000       0x23 c:/_ndsdev/devkitPro/libnds/lib\libnds9.a(initSystem.o)
 .comment       0x00000000       0x23 c:/_ndsdev/devkitPro/libnds/lib\libnds9.a(fifosystem.o)
 .comment       0x00000000       0x23 c:/_ndsdev/devkitPro/libnds/lib\libnds9.a(interrupts.o)
 .comment       0x00000000       0x23 c:/_ndsdev/devkitPro/libnds/lib\libnds9.a(libnds_exit.o)
 .comment       0x00000000       0x23 c:/_ndsdev/devkitPro/libnds/lib\libnds9.a(syscalls.o)
 .comment       0x00000000       0x23 c:/_ndsdev/devkitpro/devkitarm/bin/../lib/gcc/arm-eabi/4.6.1/thumb\libgcc.a(_muldi3.o)
 .comment       0x00000000       0x23 c:/_ndsdev/devkitpro/devkitarm/bin/../lib/gcc/arm-eabi/4.6.1/../../../../arm-eabi/lib/thumb\libg.a(lib_a-bsearch.o)
 .comment       0x00000000       0x23 c:/_ndsdev/devkitpro/devkitarm/bin/../lib/gcc/arm-eabi/4.6.1/../../../../arm-eabi/lib/thumb\libg.a(lib_a-gmtime.o)
 .comment       0x00000000       0x23 c:/_ndsdev/devkitpro/devkitarm/bin/../lib/gcc/arm-eabi/4.6.1/../../../../arm-eabi/lib/thumb\libg.a(lib_a-gmtime_r.o)
 .comment       0x00000000       0x23 c:/_ndsdev/devkitpro/devkitarm/bin/../lib/gcc/arm-eabi/4.6.1/../../../../arm-eabi/lib/thumb\libg.a(lib_a-impure.o)
 .comment       0x00000000       0x23 c:/_ndsdev/devkitpro/devkitarm/bin/../lib/gcc/arm-eabi/4.6.1/../../../../arm-eabi/lib/thumb\libg.a(lib_a-init.o)
 .comment       0x00000000       0x23 c:/_ndsdev/devkitpro/devkitarm/bin/../lib/gcc/arm-eabi/4.6.1/../../../../arm-eabi/lib/thumb\libg.a(lib_a-locale.o)
 .comment       0x00000000       0x23 c:/_ndsdev/devkitpro/devkitarm/bin/../lib/gcc/arm-eabi/4.6.1/../../../../arm-eabi/lib/thumb\libg.a(lib_a-malloc.o)
 .comment       0x00000000       0x23 c:/_ndsdev/devkitpro/devkitarm/bin/../lib/gcc/arm-eabi/4.6.1/../../../../arm-eabi/lib/thumb\libg.a(lib_a-mallocr.o)
 .comment       0x00000000       0x23 c:/_ndsdev/devkitpro/devkitarm/bin/../lib/gcc/arm-eabi/4.6.1/../../../../arm-eabi/lib/thumb\libg.a(lib_a-mbtowc_r.o)
 .comment       0x00000000       0x23 c:/_ndsdev/devkitpro/devkitarm/bin/../lib/gcc/arm-eabi/4.6.1/../../../../arm-eabi/lib/thumb\libg.a(lib_a-memcpy.o)
 .comment       0x00000000       0x23 c:/_ndsdev/devkitpro/devkitarm/bin/../lib/gcc/arm-eabi/4.6.1/../../../../arm-eabi/lib/thumb\libg.a(lib_a-memset.o)
 .comment       0x00000000       0x23 c:/_ndsdev/devkitpro/devkitarm/bin/../lib/gcc/arm-eabi/4.6.1/../../../../arm-eabi/lib/thumb\libg.a(lib_a-mktm_r.o)
 .comment       0x00000000       0x23 c:/_ndsdev/devkitpro/devkitarm/bin/../lib/gcc/arm-eabi/4.6.1/../../../../arm-eabi/lib/thumb\libg.a(lib_a-mlock.o)
 .comment       0x00000000       0x23 c:/_ndsdev/devkitpro/devkitarm/bin/../lib/gcc/arm-eabi/4.6.1/../../../../arm-eabi/lib/thumb\libg.a(lib_a-sprintf.o)
 .comment       0x00000000       0x23 c:/_ndsdev/devkitpro/devkitarm/bin/../lib/gcc/arm-eabi/4.6.1/../../../../arm-eabi/lib/thumb\libg.a(lib_a-strcasecmp.o)
 .comment       0x00000000       0x23 c:/_ndsdev/devkitpro/devkitarm/bin/../lib/gcc/arm-eabi/4.6.1/../../../../arm-eabi/lib/thumb\libg.a(lib_a-strcat.o)
 .comment       0x00000000       0x23 c:/_ndsdev/devkitpro/devkitarm/bin/../lib/gcc/arm-eabi/4.6.1/../../../../arm-eabi/lib/thumb\libg.a(lib_a-strchr.o)
 .comment       0x00000000       0x23 c:/_ndsdev/devkitpro/devkitarm/bin/../lib/gcc/arm-eabi/4.6.1/../../../../arm-eabi/lib/thumb\libg.a(lib_a-strcmp.o)
 .comment       0x00000000       0x23 c:/_ndsdev/devkitpro/devkitarm/bin/../lib/gcc/arm-eabi/4.6.1/../../../../arm-eabi/lib/thumb\libg.a(lib_a-strcpy.o)
 .comment       0x00000000       0x23 c:/_ndsdev/devkitpro/devkitarm/bin/../lib/gcc/arm-eabi/4.6.1/../../../../arm-eabi/lib/thumb\libg.a(lib_a-strlcpy.o)
 .comment       0x00000000       0x23 c:/_ndsdev/devkitpro/devkitarm/bin/../lib/gcc/arm-eabi/4.6.1/../../../../arm-eabi/lib/thumb\libg.a(lib_a-strlen.o)
 .comment       0x00000000       0x23 c:/_ndsdev/devkitpro/devkitarm/bin/../lib/gcc/arm-eabi/4.6.1/../../../../arm-eabi/lib/thumb\libg.a(lib_a-strncasecmp.o)
 .comment       0x00000000       0x23 c:/_ndsdev/devkitpro/devkitarm/bin/../lib/gcc/arm-eabi/4.6.1/../../../../arm-eabi/lib/thumb\libg.a(lib_a-strncmp.o)
 .comment       0x00000000       0x23 c:/_ndsdev/devkitpro/devkitarm/bin/../lib/gcc/arm-eabi/4.6.1/../../../../arm-eabi/lib/thumb\libg.a(lib_a-strncpy.o)
 .comment       0x00000000       0x23 c:/_ndsdev/devkitpro/devkitarm/bin/../lib/gcc/arm-eabi/4.6.1/../../../../arm-eabi/lib/thumb\libg.a(lib_a-strtol.o)
 .comment       0x00000000       0x23 c:/_ndsdev/devkitpro/devkitarm/bin/../lib/gcc/arm-eabi/4.6.1/../../../../arm-eabi/lib/thumb\libg.a(lib_a-svfprintf.o)
 .comment       0x00000000       0x23 c:/_ndsdev/devkitpro/devkitarm/bin/../lib/gcc/arm-eabi/4.6.1/../../../../arm-eabi/lib/thumb\libg.a(lib_a-sysstat.o)
 .comment       0x00000000       0x23 c:/_ndsdev/devkitpro/devkitarm/bin/../lib/gcc/arm-eabi/4.6.1/../../../../arm-eabi/lib/thumb\libg.a(lib_a-time.o)
 .comment       0x00000000       0x23 c:/_ndsdev/devkitpro/devkitarm/bin/../lib/gcc/arm-eabi/4.6.1/../../../../arm-eabi/lib/thumb\libg.a(lib_a-tzlock.o)
 .comment       0x00000000       0x23 c:/_ndsdev/devkitpro/devkitarm/bin/../lib/gcc/arm-eabi/4.6.1/../../../../arm-eabi/lib/thumb\libg.a(lib_a-tzvars.o)
 .comment       0x00000000       0x23 c:/_ndsdev/devkitpro/devkitarm/bin/../lib/gcc/arm-eabi/4.6.1/../../../../arm-eabi/lib/thumb\libg.a(lib_a-wcrtomb.o)
 .comment       0x00000000       0x23 c:/_ndsdev/devkitpro/devkitarm/bin/../lib/gcc/arm-eabi/4.6.1/../../../../arm-eabi/lib/thumb\libg.a(lib_a-wcsrtombs.o)
 .comment       0x00000000       0x23 c:/_ndsdev/devkitpro/devkitarm/bin/../lib/gcc/arm-eabi/4.6.1/../../../../arm-eabi/lib/thumb\libg.a(lib_a-wctomb_r.o)
 .comment       0x00000000       0x23 c:/_ndsdev/devkitpro/devkitarm/bin/../lib/gcc/arm-eabi/4.6.1/../../../../arm-eabi/lib/thumb\libg.a(lib_a-ctype_.o)
 .comment       0x00000000       0x23 c:/_ndsdev/devkitpro/devkitarm/bin/../lib/gcc/arm-eabi/4.6.1/../../../../arm-eabi/lib/thumb\libg.a(lib_a-dtoa.o)
 .comment       0x00000000       0x23 c:/_ndsdev/devkitpro/devkitarm/bin/../lib/gcc/arm-eabi/4.6.1/../../../../arm-eabi/lib/thumb\libg.a(lib_a-freer.o)
 .comment       0x00000000       0x23 c:/_ndsdev/devkitpro/devkitarm/bin/../lib/gcc/arm-eabi/4.6.1/../../../../arm-eabi/lib/thumb\libg.a(lib_a-getenv_r.o)
 .comment       0x00000000       0x23 c:/_ndsdev/devkitpro/devkitarm/bin/../lib/gcc/arm-eabi/4.6.1/../../../../arm-eabi/lib/thumb\libg.a(lib_a-gettzinfo.o)
 .comment       0x00000000       0x23 c:/_ndsdev/devkitpro/devkitarm/bin/../lib/gcc/arm-eabi/4.6.1/../../../../arm-eabi/lib/thumb\libg.a(lib_a-memchr.o)
 .comment       0x00000000       0x23 c:/_ndsdev/devkitpro/devkitarm/bin/../lib/gcc/arm-eabi/4.6.1/../../../../arm-eabi/lib/thumb\libg.a(lib_a-mprec.o)
 .comment       0x00000000       0x23 c:/_ndsdev/devkitpro/devkitarm/bin/../lib/gcc/arm-eabi/4.6.1/../../../../arm-eabi/lib/thumb\libg.a(lib_a-s_fpclassify.o)
 .comment       0x00000000       0x23 c:/_ndsdev/devkitpro/devkitarm/bin/../lib/gcc/arm-eabi/4.6.1/../../../../arm-eabi/lib/thumb\libg.a(lib_a-svfiprintf.o)
 .comment       0x00000000       0x23 c:/_ndsdev/devkitpro/devkitarm/bin/../lib/gcc/arm-eabi/4.6.1/../../../../arm-eabi/lib/thumb\libg.a(lib_a-wcsnrtombs.o)
 .comment       0x00000000       0x23 c:/_ndsdev/devkitpro/devkitarm/bin/../lib/gcc/arm-eabi/4.6.1/../../../../arm-eabi/lib/thumb\libg.a(lib_a-callocr.o)
 .comment       0x00000000       0x23 c:/_ndsdev/devkitpro/devkitarm/bin/../lib/gcc/arm-eabi/4.6.1/../../../../arm-eabi/lib/thumb\libg.a(lib_a-environ.o)
 .comment       0x00000000       0x23 c:/_ndsdev/devkitpro/devkitarm/bin/../lib/gcc/arm-eabi/4.6.1/../../../../arm-eabi/lib/thumb\libg.a(lib_a-envlock.o)
 .comment       0x00000000       0x23 c:/_ndsdev/devkitpro/devkitarm/bin/../lib/gcc/arm-eabi/4.6.1/../../../../arm-eabi/lib/thumb\libg.a(lib_a-memmove.o)
 .comment       0x00000000       0x23 c:/_ndsdev/devkitpro/devkitarm/bin/../lib/gcc/arm-eabi/4.6.1/../../../../arm-eabi/lib/thumb\libg.a(lib_a-reallocr.o)
 .comment       0x00000000       0x23 c:/_ndsdev/devkitpro/devkitarm/bin/../lib/gcc/arm-eabi/4.6.1/../../../../arm-eabi/lib/thumb\libsysbase.a(sbrk.o)
 .comment       0x00000000       0x23 c:/_ndsdev/devkitpro/devkitarm/bin/../lib/gcc/arm-eabi/4.6.1/../../../../arm-eabi/lib/thumb\libsysbase.a(stat.o)
 .comment       0x00000000       0x23 c:/_ndsdev/devkitpro/devkitarm/bin/../lib/gcc/arm-eabi/4.6.1/../../../../arm-eabi/lib/thumb\libsysbase.a(times.o)
 .comment       0x00000000       0x23 c:/_ndsdev/devkitpro/devkitarm/bin/../lib/gcc/arm-eabi/4.6.1/../../../../arm-eabi/lib/thumb\libsysbase.a(malloc_vars.o)
 .comment       0x00000000       0x23 c:/_ndsdev/devkitpro/devkitarm/bin/../lib/gcc/arm-eabi/4.6.1/../../../../arm-eabi/lib/thumb\libsysbase.a(build_argv.o)
 .comment       0x00000000       0x23 c:/_ndsdev/devkitpro/devkitarm/bin/../lib/gcc/arm-eabi/4.6.1/../../../../arm-eabi/lib/thumb\libsysbase.a(syscall_support.o)
 .comment       0x00000000       0x23 c:/_ndsdev/devkitpro/devkitarm/bin/../lib/gcc/arm-eabi/4.6.1/../../../../arm-eabi/lib/thumb\libsysbase.a(dirent.o)
 .comment       0x00000000       0x23 c:/_ndsdev/devkitpro/devkitarm/bin/../lib/gcc/arm-eabi/4.6.1/../../../../arm-eabi/lib/thumb\libsysbase.a(iosupport.o)
 .comment       0x00000000       0x23 c:/_ndsdev/devkitpro/devkitarm/bin/../lib/gcc/arm-eabi/4.6.1/thumb\libgcc.a(bpabi.o)
 .comment       0x00000000       0x23 c:/_ndsdev/devkitpro/devkitarm/bin/../lib/gcc/arm-eabi/4.6.1/thumb\libgcc.a(_divdi3.o)
 .comment       0x00000000       0x23 c:/_ndsdev/devkitpro/devkitarm/bin/../lib/gcc/arm-eabi/4.6.1/thumb\libgcc.a(_udivdi3.o)
 .comment       0x00000000       0x23 c:/_ndsdev/devkitpro/devkitarm/bin/../lib/gcc/arm-eabi/4.6.1/../../../../arm-eabi/lib/thumb\libg.a(lib_a-errno.o)
 .comment       0x00000000       0x23 c:/_ndsdev/devkitpro/devkitarm/bin/../lib/gcc/arm-eabi/4.6.1/../../../../arm-eabi/lib/thumb\libg.a(lib_a-strnlen.o)
 .comment       0x00000000       0x23 c:/_ndsdev/devkitpro/devkitarm/bin/../lib/gcc/arm-eabi/4.6.1/thumb/crtend.o

.ARM.attributes
                0x00000000       0x2d
 .ARM.attributes
                0x00000000       0x23 c:/_ndsdev/devkitpro/devkitarm/bin/../lib/gcc/arm-eabi/4.6.1/../../../../arm-eabi/lib/thumb/ds_arm9_crt0.o
 .ARM.attributes
                0x00000023       0x18 c:/_ndsdev/devkitpro/devkitarm/bin/../lib/gcc/arm-eabi/4.6.1/thumb/crti.o
 .ARM.attributes
                0x0000003b       0x32 c:/_ndsdev/devkitpro/devkitarm/bin/../lib/gcc/arm-eabi/4.6.1/thumb/crtbegin.o
 .ARM.attributes
                0x0000006d       0x16 Town_Map.o
 .ARM.attributes
                0x00000083       0x16 Town_Pal.o
 .ARM.attributes
                0x00000099       0x16 Town_Tiles.o
 .ARM.attributes
                0x000000af       0x16 bg_main_down_Map.o
 .ARM.attributes
                0x000000c5       0x16 bg_main_down_Pal.o
 .ARM.attributes
                0x000000db       0x16 bg_main_down_Tiles.o
 .ARM.attributes
                0x000000f1       0x16 bg_main_up_Map.o
 .ARM.attributes
                0x00000107       0x16 bg_main_up_Pal.o
 .ARM.attributes
                0x0000011d       0x16 bg_main_up_Tiles.o
 .ARM.attributes
                0x00000133       0x16 bg_menu_Map.o
 .ARM.attributes
                0x00000149       0x16 bg_menu_Pal.o
 .ARM.attributes
                0x0000015f       0x16 bg_menu_Tiles.o
 .ARM.attributes
                0x00000175       0x16 bg_stage1_init_Map.o
 .ARM.attributes
                0x0000018b       0x16 bg_stage1_init_Pal.o
 .ARM.attributes
                0x000001a1       0x16 bg_stage1_init_Tiles.o
 .ARM.attributes
                0x000001b7       0x16 bg_stage2_init_Map.o
 .ARM.attributes
                0x000001cd       0x16 bg_stage2_init_Pal.o
 .ARM.attributes
                0x000001e3       0x16 bg_stage2_init_Tiles.o
 .ARM.attributes
                0x000001f9       0x16 bg_stage3_init_Map.o
 .ARM.attributes
                0x0000020f       0x16 bg_stage3_init_Pal.o
 .ARM.attributes
                0x00000225       0x16 bg_stage3_init_Tiles.o
 .ARM.attributes
                0x0000023b       0x16 gameover_Map.o
 .ARM.attributes
                0x00000251       0x16 gameover_Pal.o
 .ARM.attributes
                0x00000267       0x16 gameover_Tiles.o
 .ARM.attributes
                0x0000027d       0x16 hpminus_Pal.o
 .ARM.attributes
                0x00000293       0x16 hpminus_Sprite.o
 .ARM.attributes
                0x000002a9       0x16 monster_Pal.o
 .ARM.attributes
                0x000002bf       0x16 monster_Sprite.o
 .ARM.attributes
                0x000002d5       0x16 princess_Pal.o
 .ARM.attributes
                0x000002eb       0x16 princess_Sprite.o
 .ARM.attributes
                0x00000301       0x16 som_Pal.o
 .ARM.attributes
                0x00000317       0x16 som_Sprite.o
 .ARM.attributes
                0x0000032d       0x16 sprite1_Pal.o
 .ARM.attributes
                0x00000343       0x16 sprite1_Sprite.o
 .ARM.attributes
                0x00000359       0x16 stage1_Map.o
 .ARM.attributes
                0x0000036f       0x16 stage1_Pal.o
 .ARM.attributes
                0x00000385       0x16 stage1_Tiles.o
 .ARM.attributes
                0x0000039b       0x16 stage2_Map.o
 .ARM.attributes
                0x000003b1       0x16 stage2_Pal.o
 .ARM.attributes
                0x000003c7       0x16 stage2_Tiles.o
 .ARM.attributes
                0x000003dd       0x16 water_Pal.o
 .ARM.attributes
                0x000003f3       0x16 water_Sprite.o
 .ARM.attributes
                0x00000409       0x16 soundbank_bin.o
 .ARM.attributes
                0x0000041f       0x16 down.o
 .ARM.attributes
                0x00000435       0x16 up.o
 .ARM.attributes
                0x0000044b       0x29 crystal.o
 .ARM.attributes
                0x00000474       0x29 crystal_Ball.o
 .ARM.attributes
                0x0000049d       0x29 cs_api.o
 .ARM.attributes
                0x000004c6       0x29 game.o
 .ARM.attributes
                0x000004ef       0x29 hero.o
 .ARM.attributes
                0x00000518       0x29 main.o
 .ARM.attributes
                0x00000541       0x29 menu.o
 .ARM.attributes
                0x0000056a       0x29 monster.o
 .ARM.attributes
                0x00000593       0x29 princess.o
 .ARM.attributes
                0x000005bc       0x29 water.o
 .ARM.attributes
                0x000005e5       0x29 croutine.o
 .ARM.attributes
                0x0000060e       0x29 heap.o
 .ARM.attributes
                0x00000637       0x29 list.o
 .ARM.attributes
                0x00000660       0x29 port.o
 .ARM.attributes
                0x00000689       0x29 portISR.o
 .ARM.attributes
                0x000006b2       0x29 queue.o
 .ARM.attributes
                0x000006db       0x29 tasks.o
 .ARM.attributes
                0x00000704       0x29 virtual_io.o
 .ARM.attributes
                0x0000072d       0x29 Town.o
 .ARM.attributes
                0x00000756       0x29 bg_main_down.o
 .ARM.attributes
                0x0000077f       0x29 bg_main_up.o
 .ARM.attributes
                0x000007a8       0x29 bg_menu.o
 .ARM.attributes
                0x000007d1       0x29 bg_stage1_init.o
 .ARM.attributes
                0x000007fa       0x29 bg_stage2_init.o
 .ARM.attributes
                0x00000823       0x29 bg_stage3_init.o
 .ARM.attributes
                0x0000084c       0x29 gameover.o
 .ARM.attributes
                0x00000875       0x29 stage1.o
 .ARM.attributes
                0x0000089e       0x29 stage2.o
 .ARM.attributes
                0x000008c7       0x18 assemfunc.o
 .ARM.attributes
                0x000008df       0x27 c:/_ndsdev/devkitPro/PAlib/lib\libpa9.a(PA.o)
 .ARM.attributes
                0x00000906       0x27 c:/_ndsdev/devkitPro/PAlib/lib\libpa9.a(PA_BgEasy.o)
 .ARM.attributes
                0x0000092d       0x27 c:/_ndsdev/devkitPro/PAlib/lib\libpa9.a(PA_BgLargeMap.o)
 .ARM.attributes
                0x00000954       0x27 c:/_ndsdev/devkitPro/PAlib/lib\libpa9.a(PA_BgTiles.o)
 .ARM.attributes
                0x0000097b       0x27 c:/_ndsdev/devkitPro/PAlib/lib\libpa9.a(PA_Error.o)
 .ARM.attributes
                0x000009a2       0x27 c:/_ndsdev/devkitPro/PAlib/lib\libpa9.a(PA_Inits.o)
 .ARM.attributes
                0x000009c9       0x27 c:/_ndsdev/devkitPro/PAlib/lib\libpa9.a(PA_Interrupt.o)
 .ARM.attributes
                0x000009f0       0x27 c:/_ndsdev/devkitPro/PAlib/lib\libpa9.a(PA_Keys.o)
 .ARM.attributes
                0x00000a17       0x27 c:/_ndsdev/devkitPro/PAlib/lib\libpa9.a(PA_Math.o)
 .ARM.attributes
                0x00000a3e       0x27 c:/_ndsdev/devkitPro/PAlib/lib\libpa9.a(PA_NewBg.o)
 .ARM.attributes
                0x00000a65       0x27 c:/_ndsdev/devkitPro/PAlib/lib\libpa9.a(PA_Palette.o)
 .ARM.attributes
                0x00000a8c       0x27 c:/_ndsdev/devkitPro/PAlib/lib\libpa9.a(PA_RTC.o)
 .ARM.attributes
                0x00000ab3       0x27 c:/_ndsdev/devkitPro/PAlib/lib\libpa9.a(PA_Reco.o)
 .ARM.attributes
                0x00000ada       0x27 c:/_ndsdev/devkitPro/PAlib/lib\libpa9.a(PA_Sprite.o)
 .ARM.attributes
                0x00000b01       0x27 c:/_ndsdev/devkitPro/PAlib/lib\libpa9.a(PA_SpriteAnim.o)
 .ARM.attributes
                0x00000b28       0x27 c:/_ndsdev/devkitPro/PAlib/lib\libpa9.a(PA_Stuff.o)
 .ARM.attributes
                0x00000b4f       0x27 c:/_ndsdev/devkitPro/PAlib/lib\libpa9.a(PA_Text.o)
 .ARM.attributes
                0x00000b76       0x27 c:/_ndsdev/devkitPro/PAlib/lib\libpa9.a(PA_Text8bit.o)
 .ARM.attributes
                0x00000b9d       0x27 c:/_ndsdev/devkitPro/PAlib/lib\libpa9.a(PA_TextBits.o)
 .ARM.attributes
                0x00000bc4       0x27 c:/_ndsdev/devkitPro/PAlib/lib\libpa9.a(PA_TiledFont.o)
 .ARM.attributes
                0x00000beb       0x27 c:/_ndsdev/devkitPro/PAlib/lib\libpa9.a(PA_BmpFont0.o)
 .ARM.attributes
                0x00000c12       0x27 c:/_ndsdev/devkitPro/PAlib/lib\libpa9.a(PA_BmpFont1.o)
 .ARM.attributes
                0x00000c39       0x27 c:/_ndsdev/devkitPro/PAlib/lib\libpa9.a(PA_BmpFont2.o)
 .ARM.attributes
                0x00000c60       0x27 c:/_ndsdev/devkitPro/PAlib/lib\libpa9.a(PA_BmpFont3.o)
 .ARM.attributes
                0x00000c87       0x27 c:/_ndsdev/devkitPro/PAlib/lib\libpa9.a(PA_BmpFont4.o)
 .ARM.attributes
                0x00000cae       0x14 c:/_ndsdev/devkitPro/PAlib/lib\libpa9.a(PA_TiledFont_Map.bin.o)
 .ARM.attributes
                0x00000cc2       0x14 c:/_ndsdev/devkitPro/PAlib/lib\libpa9.a(PA_TiledFont_Pal.bin.o)
 .ARM.attributes
                0x00000cd6       0x14 c:/_ndsdev/devkitPro/PAlib/lib\libpa9.a(PA_TiledFont_Tiles.bin.o)
 .ARM.attributes
                0x00000cea       0x14 c:/_ndsdev/devkitPro/PAlib/lib\libpa9.a(PA_BmpFont0_Map.bin.o)
 .ARM.attributes
                0x00000cfe       0x14 c:/_ndsdev/devkitPro/PAlib/lib\libpa9.a(PA_BmpFont0_Sizes.bin.o)
 .ARM.attributes
                0x00000d12       0x14 c:/_ndsdev/devkitPro/PAlib/lib\libpa9.a(PA_BmpFont0_Tiles.bin.o)
 .ARM.attributes
                0x00000d26       0x14 c:/_ndsdev/devkitPro/PAlib/lib\libpa9.a(PA_BmpFont1_Map.bin.o)
 .ARM.attributes
                0x00000d3a       0x14 c:/_ndsdev/devkitPro/PAlib/lib\libpa9.a(PA_BmpFont1_Sizes.bin.o)
 .ARM.attributes
                0x00000d4e       0x14 c:/_ndsdev/devkitPro/PAlib/lib\libpa9.a(PA_BmpFont1_Tiles.bin.o)
 .ARM.attributes
                0x00000d62       0x14 c:/_ndsdev/devkitPro/PAlib/lib\libpa9.a(PA_BmpFont2_Map.bin.o)
 .ARM.attributes
                0x00000d76       0x14 c:/_ndsdev/devkitPro/PAlib/lib\libpa9.a(PA_BmpFont2_Sizes.bin.o)
 .ARM.attributes
                0x00000d8a       0x14 c:/_ndsdev/devkitPro/PAlib/lib\libpa9.a(PA_BmpFont2_Tiles.bin.o)
 .ARM.attributes
                0x00000d9e       0x14 c:/_ndsdev/devkitPro/PAlib/lib\libpa9.a(PA_BmpFont3_Map.bin.o)
 .ARM.attributes
                0x00000db2       0x14 c:/_ndsdev/devkitPro/PAlib/lib\libpa9.a(PA_BmpFont3_Sizes.bin.o)
 .ARM.attributes
                0x00000dc6       0x14 c:/_ndsdev/devkitPro/PAlib/lib\libpa9.a(PA_BmpFont3_Tiles.bin.o)
 .ARM.attributes
                0x00000dda       0x14 c:/_ndsdev/devkitPro/PAlib/lib\libpa9.a(PA_BmpFont4_Map.bin.o)
 .ARM.attributes
                0x00000dee       0x14 c:/_ndsdev/devkitPro/PAlib/lib\libpa9.a(PA_BmpFont4_Sizes.bin.o)
 .ARM.attributes
                0x00000e02       0x14 c:/_ndsdev/devkitPro/PAlib/lib\libpa9.a(PA_BmpFont4_Tiles.bin.o)
 .ARM.attributes
                0x00000e16       0x27 c:/_ndsdev/devkitPro/PAlib/lib\libpa9.a(PA_16c.o)
 .ARM.attributes
                0x00000e3d       0x27 c:/_ndsdev/devkitPro/PAlib/lib\libpa9.a(PA_BgRot.o)
 .ARM.attributes
                0x00000e64       0x27 c:/_ndsdev/devkitPro/PAlib/lib\libpa9.a(PA_Draw.o)
 .ARM.attributes
                0x00000e8b       0x27 c:/_ndsdev/devkitPro/PAlib/lib\libpa9.a(PA_Fifo.o)
 .ARM.attributes
                0x00000eb2       0x27 c:/_ndsdev/devkitPro/PAlib/lib\libpa9.a(PA_Keyboard.o)
 .ARM.attributes
                0x00000ed9       0x27 c:/_ndsdev/devkitPro/PAlib/lib\libpa9.a(PA_PaletteEx.o)
 .ARM.attributes
                0x00000f00       0x27 c:/_ndsdev/devkitPro/PAlib/lib\libpa9.a(keyboard.map.o)
 .ARM.attributes
                0x00000f27       0x27 c:/_ndsdev/devkitPro/PAlib/lib\libpa9.a(keyboard.pal.o)
 .ARM.attributes
                0x00000f4e       0x27 c:/_ndsdev/devkitPro/PAlib/lib\libpa9.a(keyboard.raw.o)
 .ARM.attributes
                0x00000f75       0x29 c:/_ndsdev/devkitPro/libnds/lib\libnds9.a(background.o)
 .ARM.attributes
                0x00000f9e       0x29 c:/_ndsdev/devkitPro/libnds/lib\libnds9.a(decompress.o)
 .ARM.attributes
                0x00000fc7       0x29 c:/_ndsdev/devkitPro/libnds/lib\libnds9.a(keys.o)
 .ARM.attributes
                0x00000ff0       0x29 c:/_ndsdev/devkitPro/libnds/lib\libnds9.a(system.o)
 .ARM.attributes
                0x00001019       0x29 c:/_ndsdev/devkitPro/libnds/lib\libnds9.a(touch.o)
 .ARM.attributes
                0x00001042       0x29 c:/_ndsdev/devkitPro/libnds/lib\libnds9.a(trig.o)
 .ARM.attributes
                0x0000106b       0x29 c:/_ndsdev/devkitPro/libnds/lib\libnds9.a(video.o)
 .ARM.attributes
                0x00001094       0x29 c:/_ndsdev/devkitPro/libnds/lib\libnds9.a(initSystem.o)
 .ARM.attributes
                0x000010bd       0x29 c:/_ndsdev/devkitPro/libnds/lib\libnds9.a(fifosystem.o)
 .ARM.attributes
                0x000010e6       0x29 c:/_ndsdev/devkitPro/libnds/lib\libnds9.a(interrupts.o)
 .ARM.attributes
                0x0000110f       0x29 c:/_ndsdev/devkitPro/libnds/lib\libnds9.a(libnds_exit.o)
 .ARM.attributes
                0x00001138       0x29 c:/_ndsdev/devkitPro/libnds/lib\libnds9.a(syscalls.o)
 .ARM.attributes
                0x00001161       0x1d c:/_ndsdev/devkitPro/libnds/lib\libnds9.a(dcache.o)
 .ARM.attributes
                0x0000117e       0x23 c:/_ndsdev/devkitPro/libnds/lib\libnds9.a(mpu_setup.o)
 .ARM.attributes
                0x000011a1       0x1d c:/_ndsdev/devkitPro/libnds/lib\libnds9.a(biosCalls.o)
 .ARM.attributes
                0x000011be       0x1d c:/_ndsdev/devkitPro/libnds/lib\libnds9.a(interruptDispatcher.o)
 .ARM.attributes
                0x000011db       0x23 c:/_ndsdev/devkitPro/libnds/lib\libnds9.a(swiSoftReset.o)
 .ARM.attributes
                0x000011fe       0x1a c:/_ndsdev/devkitpro/devkitarm/bin/../lib/gcc/arm-eabi/4.6.1/thumb\libgcc.a(_udivsi3.o)
 .ARM.attributes
                0x00001218       0x1a c:/_ndsdev/devkitpro/devkitarm/bin/../lib/gcc/arm-eabi/4.6.1/thumb\libgcc.a(_divsi3.o)
 .ARM.attributes
                0x00001232       0x18 c:/_ndsdev/devkitpro/devkitarm/bin/../lib/gcc/arm-eabi/4.6.1/thumb\libgcc.a(_dvmd_tls.o)
 .ARM.attributes
                0x0000124a       0x1a c:/_ndsdev/devkitpro/devkitarm/bin/../lib/gcc/arm-eabi/4.6.1/thumb\libgcc.a(_arm_addsubdf3.o)
 .ARM.attributes
                0x00001264       0x1a c:/_ndsdev/devkitpro/devkitarm/bin/../lib/gcc/arm-eabi/4.6.1/thumb\libgcc.a(_arm_muldivdf3.o)
 .ARM.attributes
                0x0000127e       0x1a c:/_ndsdev/devkitpro/devkitarm/bin/../lib/gcc/arm-eabi/4.6.1/thumb\libgcc.a(_arm_cmpdf2.o)
 .ARM.attributes
                0x00001298       0x1a c:/_ndsdev/devkitpro/devkitarm/bin/../lib/gcc/arm-eabi/4.6.1/thumb\libgcc.a(_arm_fixdfsi.o)
 .ARM.attributes
                0x000012b2       0x32 c:/_ndsdev/devkitpro/devkitarm/bin/../lib/gcc/arm-eabi/4.6.1/thumb\libgcc.a(_muldi3.o)
 .ARM.attributes
                0x000012e4       0x32 c:/_ndsdev/devkitpro/devkitarm/bin/../lib/gcc/arm-eabi/4.6.1/../../../../arm-eabi/lib/thumb\libg.a(lib_a-bsearch.o)
 .ARM.attributes
                0x00001316       0x32 c:/_ndsdev/devkitpro/devkitarm/bin/../lib/gcc/arm-eabi/4.6.1/../../../../arm-eabi/lib/thumb\libg.a(lib_a-gmtime.o)
 .ARM.attributes
                0x00001348       0x32 c:/_ndsdev/devkitpro/devkitarm/bin/../lib/gcc/arm-eabi/4.6.1/../../../../arm-eabi/lib/thumb\libg.a(lib_a-gmtime_r.o)
 .ARM.attributes
                0x0000137a       0x32 c:/_ndsdev/devkitpro/devkitarm/bin/../lib/gcc/arm-eabi/4.6.1/../../../../arm-eabi/lib/thumb\libg.a(lib_a-impure.o)
 .ARM.attributes
                0x000013ac       0x32 c:/_ndsdev/devkitpro/devkitarm/bin/../lib/gcc/arm-eabi/4.6.1/../../../../arm-eabi/lib/thumb\libg.a(lib_a-init.o)
 .ARM.attributes
                0x000013de       0x32 c:/_ndsdev/devkitpro/devkitarm/bin/../lib/gcc/arm-eabi/4.6.1/../../../../arm-eabi/lib/thumb\libg.a(lib_a-locale.o)
 .ARM.attributes
                0x00001410       0x32 c:/_ndsdev/devkitpro/devkitarm/bin/../lib/gcc/arm-eabi/4.6.1/../../../../arm-eabi/lib/thumb\libg.a(lib_a-malloc.o)
 .ARM.attributes
                0x00001442       0x32 c:/_ndsdev/devkitpro/devkitarm/bin/../lib/gcc/arm-eabi/4.6.1/../../../../arm-eabi/lib/thumb\libg.a(lib_a-mallocr.o)
 .ARM.attributes
                0x00001474       0x32 c:/_ndsdev/devkitpro/devkitarm/bin/../lib/gcc/arm-eabi/4.6.1/../../../../arm-eabi/lib/thumb\libg.a(lib_a-mbtowc_r.o)
 .ARM.attributes
                0x000014a6       0x32 c:/_ndsdev/devkitpro/devkitarm/bin/../lib/gcc/arm-eabi/4.6.1/../../../../arm-eabi/lib/thumb\libg.a(lib_a-memcpy.o)
 .ARM.attributes
                0x000014d8       0x32 c:/_ndsdev/devkitpro/devkitarm/bin/../lib/gcc/arm-eabi/4.6.1/../../../../arm-eabi/lib/thumb\libg.a(lib_a-memset.o)
 .ARM.attributes
                0x0000150a       0x32 c:/_ndsdev/devkitpro/devkitarm/bin/../lib/gcc/arm-eabi/4.6.1/../../../../arm-eabi/lib/thumb\libg.a(lib_a-mktm_r.o)
 .ARM.attributes
                0x0000153c       0x32 c:/_ndsdev/devkitpro/devkitarm/bin/../lib/gcc/arm-eabi/4.6.1/../../../../arm-eabi/lib/thumb\libg.a(lib_a-mlock.o)
 .ARM.attributes
                0x0000156e       0x32 c:/_ndsdev/devkitpro/devkitarm/bin/../lib/gcc/arm-eabi/4.6.1/../../../../arm-eabi/lib/thumb\libg.a(lib_a-sprintf.o)
 .ARM.attributes
                0x000015a0       0x32 c:/_ndsdev/devkitpro/devkitarm/bin/../lib/gcc/arm-eabi/4.6.1/../../../../arm-eabi/lib/thumb\libg.a(lib_a-strcasecmp.o)
 .ARM.attributes
                0x000015d2       0x32 c:/_ndsdev/devkitpro/devkitarm/bin/../lib/gcc/arm-eabi/4.6.1/../../../../arm-eabi/lib/thumb\libg.a(lib_a-strcat.o)
 .ARM.attributes
                0x00001604       0x32 c:/_ndsdev/devkitpro/devkitarm/bin/../lib/gcc/arm-eabi/4.6.1/../../../../arm-eabi/lib/thumb\libg.a(lib_a-strchr.o)
 .ARM.attributes
                0x00001636       0x32 c:/_ndsdev/devkitpro/devkitarm/bin/../lib/gcc/arm-eabi/4.6.1/../../../../arm-eabi/lib/thumb\libg.a(lib_a-strcmp.o)
 .ARM.attributes
                0x00001668       0x32 c:/_ndsdev/devkitpro/devkitarm/bin/../lib/gcc/arm-eabi/4.6.1/../../../../arm-eabi/lib/thumb\libg.a(lib_a-strcpy.o)
 .ARM.attributes
                0x0000169a       0x32 c:/_ndsdev/devkitpro/devkitarm/bin/../lib/gcc/arm-eabi/4.6.1/../../../../arm-eabi/lib/thumb\libg.a(lib_a-strlcpy.o)
 .ARM.attributes
                0x000016cc       0x32 c:/_ndsdev/devkitpro/devkitarm/bin/../lib/gcc/arm-eabi/4.6.1/../../../../arm-eabi/lib/thumb\libg.a(lib_a-strlen.o)
 .ARM.attributes
                0x000016fe       0x32 c:/_ndsdev/devkitpro/devkitarm/bin/../lib/gcc/arm-eabi/4.6.1/../../../../arm-eabi/lib/thumb\libg.a(lib_a-strncasecmp.o)
 .ARM.attributes
                0x00001730       0x32 c:/_ndsdev/devkitpro/devkitarm/bin/../lib/gcc/arm-eabi/4.6.1/../../../../arm-eabi/lib/thumb\libg.a(lib_a-strncmp.o)
 .ARM.attributes
                0x00001762       0x32 c:/_ndsdev/devkitpro/devkitarm/bin/../lib/gcc/arm-eabi/4.6.1/../../../../arm-eabi/lib/thumb\libg.a(lib_a-strncpy.o)
 .ARM.attributes
                0x00001794       0x32 c:/_ndsdev/devkitpro/devkitarm/bin/../lib/gcc/arm-eabi/4.6.1/../../../../arm-eabi/lib/thumb\libg.a(lib_a-strtol.o)
 .ARM.attributes
                0x000017c6       0x32 c:/_ndsdev/devkitpro/devkitarm/bin/../lib/gcc/arm-eabi/4.6.1/../../../../arm-eabi/lib/thumb\libg.a(lib_a-svfprintf.o)
 .ARM.attributes
                0x000017f8       0x32 c:/_ndsdev/devkitpro/devkitarm/bin/../lib/gcc/arm-eabi/4.6.1/../../../../arm-eabi/lib/thumb\libg.a(lib_a-sysstat.o)
 .ARM.attributes
                0x0000182a       0x32 c:/_ndsdev/devkitpro/devkitarm/bin/../lib/gcc/arm-eabi/4.6.1/../../../../arm-eabi/lib/thumb\libg.a(lib_a-time.o)
 .ARM.attributes
                0x0000185c       0x32 c:/_ndsdev/devkitpro/devkitarm/bin/../lib/gcc/arm-eabi/4.6.1/../../../../arm-eabi/lib/thumb\libg.a(lib_a-tzlock.o)
 .ARM.attributes
                0x0000188e       0x32 c:/_ndsdev/devkitpro/devkitarm/bin/../lib/gcc/arm-eabi/4.6.1/../../../../arm-eabi/lib/thumb\libg.a(lib_a-tzvars.o)
 .ARM.attributes
                0x000018c0       0x32 c:/_ndsdev/devkitpro/devkitarm/bin/../lib/gcc/arm-eabi/4.6.1/../../../../arm-eabi/lib/thumb\libg.a(lib_a-wcrtomb.o)
 .ARM.attributes
                0x000018f2       0x32 c:/_ndsdev/devkitpro/devkitarm/bin/../lib/gcc/arm-eabi/4.6.1/../../../../arm-eabi/lib/thumb\libg.a(lib_a-wcsrtombs.o)
 .ARM.attributes
                0x00001924       0x32 c:/_ndsdev/devkitpro/devkitarm/bin/../lib/gcc/arm-eabi/4.6.1/../../../../arm-eabi/lib/thumb\libg.a(lib_a-wctomb_r.o)
 .ARM.attributes
                0x00001956       0x32 c:/_ndsdev/devkitpro/devkitarm/bin/../lib/gcc/arm-eabi/4.6.1/../../../../arm-eabi/lib/thumb\libg.a(lib_a-ctype_.o)
 .ARM.attributes
                0x00001988       0x32 c:/_ndsdev/devkitpro/devkitarm/bin/../lib/gcc/arm-eabi/4.6.1/../../../../arm-eabi/lib/thumb\libg.a(lib_a-dtoa.o)
 .ARM.attributes
                0x000019ba       0x32 c:/_ndsdev/devkitpro/devkitarm/bin/../lib/gcc/arm-eabi/4.6.1/../../../../arm-eabi/lib/thumb\libg.a(lib_a-freer.o)
 .ARM.attributes
                0x000019ec       0x32 c:/_ndsdev/devkitpro/devkitarm/bin/../lib/gcc/arm-eabi/4.6.1/../../../../arm-eabi/lib/thumb\libg.a(lib_a-getenv_r.o)
 .ARM.attributes
                0x00001a1e       0x32 c:/_ndsdev/devkitpro/devkitarm/bin/../lib/gcc/arm-eabi/4.6.1/../../../../arm-eabi/lib/thumb\libg.a(lib_a-gettzinfo.o)
 .ARM.attributes
                0x00001a50       0x32 c:/_ndsdev/devkitpro/devkitarm/bin/../lib/gcc/arm-eabi/4.6.1/../../../../arm-eabi/lib/thumb\libg.a(lib_a-memchr.o)
 .ARM.attributes
                0x00001a82       0x32 c:/_ndsdev/devkitpro/devkitarm/bin/../lib/gcc/arm-eabi/4.6.1/../../../../arm-eabi/lib/thumb\libg.a(lib_a-mprec.o)
 .ARM.attributes
                0x00001ab4       0x32 c:/_ndsdev/devkitpro/devkitarm/bin/../lib/gcc/arm-eabi/4.6.1/../../../../arm-eabi/lib/thumb\libg.a(lib_a-s_fpclassify.o)
 .ARM.attributes
                0x00001ae6       0x32 c:/_ndsdev/devkitpro/devkitarm/bin/../lib/gcc/arm-eabi/4.6.1/../../../../arm-eabi/lib/thumb\libg.a(lib_a-svfiprintf.o)
 .ARM.attributes
                0x00001b18       0x32 c:/_ndsdev/devkitpro/devkitarm/bin/../lib/gcc/arm-eabi/4.6.1/../../../../arm-eabi/lib/thumb\libg.a(lib_a-wcsnrtombs.o)
 .ARM.attributes
                0x00001b4a       0x32 c:/_ndsdev/devkitpro/devkitarm/bin/../lib/gcc/arm-eabi/4.6.1/../../../../arm-eabi/lib/thumb\libg.a(lib_a-callocr.o)
 .ARM.attributes
                0x00001b7c       0x32 c:/_ndsdev/devkitpro/devkitarm/bin/../lib/gcc/arm-eabi/4.6.1/../../../../arm-eabi/lib/thumb\libg.a(lib_a-environ.o)
 .ARM.attributes
                0x00001bae       0x32 c:/_ndsdev/devkitpro/devkitarm/bin/../lib/gcc/arm-eabi/4.6.1/../../../../arm-eabi/lib/thumb\libg.a(lib_a-envlock.o)
 .ARM.attributes
                0x00001be0       0x32 c:/_ndsdev/devkitpro/devkitarm/bin/../lib/gcc/arm-eabi/4.6.1/../../../../arm-eabi/lib/thumb\libg.a(lib_a-memmove.o)
 .ARM.attributes
                0x00001c12       0x32 c:/_ndsdev/devkitpro/devkitarm/bin/../lib/gcc/arm-eabi/4.6.1/../../../../arm-eabi/lib/thumb\libg.a(lib_a-reallocr.o)
 .ARM.attributes
                0x00001c44       0x32 c:/_ndsdev/devkitpro/devkitarm/bin/../lib/gcc/arm-eabi/4.6.1/../../../../arm-eabi/lib/thumb\libsysbase.a(sbrk.o)
 .ARM.attributes
                0x00001c76       0x32 c:/_ndsdev/devkitpro/devkitarm/bin/../lib/gcc/arm-eabi/4.6.1/../../../../arm-eabi/lib/thumb\libsysbase.a(stat.o)
 .ARM.attributes
                0x00001ca8       0x32 c:/_ndsdev/devkitpro/devkitarm/bin/../lib/gcc/arm-eabi/4.6.1/../../../../arm-eabi/lib/thumb\libsysbase.a(times.o)
 .ARM.attributes
                0x00001cda       0x32 c:/_ndsdev/devkitpro/devkitarm/bin/../lib/gcc/arm-eabi/4.6.1/../../../../arm-eabi/lib/thumb\libsysbase.a(malloc_vars.o)
 .ARM.attributes
                0x00001d0c       0x32 c:/_ndsdev/devkitpro/devkitarm/bin/../lib/gcc/arm-eabi/4.6.1/../../../../arm-eabi/lib/thumb\libsysbase.a(build_argv.o)
 .ARM.attributes
                0x00001d3e       0x32 c:/_ndsdev/devkitpro/devkitarm/bin/../lib/gcc/arm-eabi/4.6.1/../../../../arm-eabi/lib/thumb\libsysbase.a(syscall_support.o)
 .ARM.attributes
                0x00001d70       0x32 c:/_ndsdev/devkitpro/devkitarm/bin/../lib/gcc/arm-eabi/4.6.1/../../../../arm-eabi/lib/thumb\libsysbase.a(dirent.o)
 .ARM.attributes
                0x00001da2       0x32 c:/_ndsdev/devkitpro/devkitarm/bin/../lib/gcc/arm-eabi/4.6.1/../../../../arm-eabi/lib/thumb\libsysbase.a(iosupport.o)
 .ARM.attributes
                0x00001dd4       0x1a c:/_ndsdev/devkitpro/devkitarm/bin/../lib/gcc/arm-eabi/4.6.1/thumb\libgcc.a(_aeabi_uldivmod.o)
 .ARM.attributes
                0x00001dee       0x32 c:/_ndsdev/devkitpro/devkitarm/bin/../lib/gcc/arm-eabi/4.6.1/thumb\libgcc.a(bpabi.o)
 .ARM.attributes
                0x00001e20       0x32 c:/_ndsdev/devkitpro/devkitarm/bin/../lib/gcc/arm-eabi/4.6.1/thumb\libgcc.a(_divdi3.o)
 .ARM.attributes
                0x00001e52       0x32 c:/_ndsdev/devkitpro/devkitarm/bin/../lib/gcc/arm-eabi/4.6.1/thumb\libgcc.a(_udivdi3.o)
 .ARM.attributes
                0x00001e84       0x1a c:/_ndsdev/devkitpro/devkitarm/bin/../lib/gcc/arm-eabi/4.6.1/thumb\libgcc.a(_clzsi2.o)
 .ARM.attributes
                0x00001e9e       0x32 c:/_ndsdev/devkitpro/devkitarm/bin/../lib/gcc/arm-eabi/4.6.1/../../../../arm-eabi/lib/thumb\libg.a(lib_a-errno.o)
 .ARM.attributes
                0x00001ed0       0x32 c:/_ndsdev/devkitpro/devkitarm/bin/../lib/gcc/arm-eabi/4.6.1/../../../../arm-eabi/lib/thumb\libg.a(lib_a-strnlen.o)
 .ARM.attributes
                0x00001f02       0x32 c:/_ndsdev/devkitpro/devkitarm/bin/../lib/gcc/arm-eabi/4.6.1/thumb/crtend.o
 .ARM.attributes
                0x00001f34       0x18 c:/_ndsdev/devkitpro/devkitarm/bin/../lib/gcc/arm-eabi/4.6.1/thumb/crtn.o

.debug
 *(.debug)

.line
 *(.line)

.debug_srcinfo
 *(.debug_srcinfo)

.debug_sfnames
 *(.debug_sfnames)

.debug_aranges  0x00000000      0x7b0
 *(.debug_aranges)
 .debug_aranges
                0x00000000       0x20 crystal.o
 .debug_aranges
                0x00000020       0x20 crystal_Ball.o
 .debug_aranges
                0x00000040       0x20 cs_api.o
 .debug_aranges
                0x00000060       0x28 game.o
 .debug_aranges
                0x00000088       0x20 hero.o
 .debug_aranges
                0x000000a8       0x28 main.o
 .debug_aranges
                0x000000d0       0x20 menu.o
 .debug_aranges
                0x000000f0       0x20 monster.o
 .debug_aranges
                0x00000110       0x20 princess.o
 .debug_aranges
                0x00000130       0x20 water.o
 .debug_aranges
                0x00000150       0x20 croutine.o
 .debug_aranges
                0x00000170       0x20 heap.o
 .debug_aranges
                0x00000190       0x20 list.o
 .debug_aranges
                0x000001b0       0x20 port.o
 .debug_aranges
                0x000001d0       0x20 portISR.o
 .debug_aranges
                0x000001f0       0x20 queue.o
 .debug_aranges
                0x00000210       0x20 tasks.o
 .debug_aranges
                0x00000230       0x20 virtual_io.o
 .debug_aranges
                0x00000250       0x20 assemfunc.o
 .debug_aranges
                0x00000270       0x20 c:/_ndsdev/devkitPro/PAlib/lib\libpa9.a(PA.o)
 .debug_aranges
                0x00000290       0x20 c:/_ndsdev/devkitPro/PAlib/lib\libpa9.a(PA_BgEasy.o)
 .debug_aranges
                0x000002b0       0x20 c:/_ndsdev/devkitPro/PAlib/lib\libpa9.a(PA_BgLargeMap.o)
 .debug_aranges
                0x000002d0       0x20 c:/_ndsdev/devkitPro/PAlib/lib\libpa9.a(PA_BgTiles.o)
 .debug_aranges
                0x000002f0       0x20 c:/_ndsdev/devkitPro/PAlib/lib\libpa9.a(PA_Error.o)
 .debug_aranges
                0x00000310       0x20 c:/_ndsdev/devkitPro/PAlib/lib\libpa9.a(PA_Inits.o)
 .debug_aranges
                0x00000330       0x20 c:/_ndsdev/devkitPro/PAlib/lib\libpa9.a(PA_Interrupt.o)
 .debug_aranges
                0x00000350       0x20 c:/_ndsdev/devkitPro/PAlib/lib\libpa9.a(PA_Keys.o)
 .debug_aranges
                0x00000370       0x20 c:/_ndsdev/devkitPro/PAlib/lib\libpa9.a(PA_Math.o)
 .debug_aranges
                0x00000390       0x20 c:/_ndsdev/devkitPro/PAlib/lib\libpa9.a(PA_NewBg.o)
 .debug_aranges
                0x000003b0       0x20 c:/_ndsdev/devkitPro/PAlib/lib\libpa9.a(PA_Palette.o)
 .debug_aranges
                0x000003d0       0x20 c:/_ndsdev/devkitPro/PAlib/lib\libpa9.a(PA_RTC.o)
 .debug_aranges
                0x000003f0       0x20 c:/_ndsdev/devkitPro/PAlib/lib\libpa9.a(PA_Reco.o)
 .debug_aranges
                0x00000410       0x20 c:/_ndsdev/devkitPro/PAlib/lib\libpa9.a(PA_Sprite.o)
 .debug_aranges
                0x00000430       0x20 c:/_ndsdev/devkitPro/PAlib/lib\libpa9.a(PA_SpriteAnim.o)
 .debug_aranges
                0x00000450       0x20 c:/_ndsdev/devkitPro/PAlib/lib\libpa9.a(PA_Stuff.o)
 .debug_aranges
                0x00000470       0x20 c:/_ndsdev/devkitPro/PAlib/lib\libpa9.a(PA_Text.o)
 .debug_aranges
                0x00000490       0x20 c:/_ndsdev/devkitPro/PAlib/lib\libpa9.a(PA_Text8bit.o)
 .debug_aranges
                0x000004b0       0x20 c:/_ndsdev/devkitPro/PAlib/lib\libpa9.a(PA_TextBits.o)
 .debug_aranges
                0x000004d0       0x20 c:/_ndsdev/devkitPro/PAlib/lib\libpa9.a(PA_16c.o)
 .debug_aranges
                0x000004f0       0x20 c:/_ndsdev/devkitPro/PAlib/lib\libpa9.a(PA_BgRot.o)
 .debug_aranges
                0x00000510       0x20 c:/_ndsdev/devkitPro/PAlib/lib\libpa9.a(PA_Draw.o)
 .debug_aranges
                0x00000530       0x20 c:/_ndsdev/devkitPro/PAlib/lib\libpa9.a(PA_Fifo.o)
 .debug_aranges
                0x00000550       0x20 c:/_ndsdev/devkitPro/PAlib/lib\libpa9.a(PA_Keyboard.o)
 .debug_aranges
                0x00000570       0x20 c:/_ndsdev/devkitPro/PAlib/lib\libpa9.a(PA_PaletteEx.o)
 .debug_aranges
                0x00000590       0x20 c:/_ndsdev/devkitPro/libnds/lib\libnds9.a(background.o)
 .debug_aranges
                0x000005b0       0x20 c:/_ndsdev/devkitPro/libnds/lib\libnds9.a(decompress.o)
 .debug_aranges
                0x000005d0       0x20 c:/_ndsdev/devkitPro/libnds/lib\libnds9.a(keys.o)
 .debug_aranges
                0x000005f0       0x20 c:/_ndsdev/devkitPro/libnds/lib\libnds9.a(system.o)
 .debug_aranges
                0x00000610       0x20 c:/_ndsdev/devkitPro/libnds/lib\libnds9.a(touch.o)
 .debug_aranges
                0x00000630       0x20 c:/_ndsdev/devkitPro/libnds/lib\libnds9.a(trig.o)
 .debug_aranges
                0x00000650       0x20 c:/_ndsdev/devkitPro/libnds/lib\libnds9.a(video.o)
 .debug_aranges
                0x00000670       0x20 c:/_ndsdev/devkitPro/libnds/lib\libnds9.a(initSystem.o)
 .debug_aranges
                0x00000690       0x20 c:/_ndsdev/devkitPro/libnds/lib\libnds9.a(fifosystem.o)
 .debug_aranges
                0x000006b0       0x20 c:/_ndsdev/devkitPro/libnds/lib\libnds9.a(interrupts.o)
 .debug_aranges
                0x000006d0       0x20 c:/_ndsdev/devkitPro/libnds/lib\libnds9.a(libnds_exit.o)
 .debug_aranges
                0x000006f0       0x20 c:/_ndsdev/devkitPro/libnds/lib\libnds9.a(syscalls.o)
 .debug_aranges
                0x00000710       0x20 c:/_ndsdev/devkitPro/libnds/lib\libnds9.a(dcache.o)
 .debug_aranges
                0x00000730       0x20 c:/_ndsdev/devkitPro/libnds/lib\libnds9.a(mpu_setup.o)
 .debug_aranges
                0x00000750       0x20 c:/_ndsdev/devkitPro/libnds/lib\libnds9.a(biosCalls.o)
 .debug_aranges
                0x00000770       0x20 c:/_ndsdev/devkitPro/libnds/lib\libnds9.a(interruptDispatcher.o)
 .debug_aranges
                0x00000790       0x20 c:/_ndsdev/devkitPro/libnds/lib\libnds9.a(swiSoftReset.o)

.debug_pubnames
                0x00000000     0x1072
 *(.debug_pubnames)
 .debug_pubnames
                0x00000000       0xfe c:/_ndsdev/devkitPro/PAlib/lib\libpa9.a(PA.o)
 .debug_pubnames
                0x000000fe       0x68 c:/_ndsdev/devkitPro/PAlib/lib\libpa9.a(PA_BgEasy.o)
 .debug_pubnames
                0x00000166       0xdf c:/_ndsdev/devkitPro/PAlib/lib\libpa9.a(PA_BgLargeMap.o)
 .debug_pubnames
                0x00000245      0x12e c:/_ndsdev/devkitPro/PAlib/lib\libpa9.a(PA_BgTiles.o)
 .debug_pubnames
                0x00000373       0x2e c:/_ndsdev/devkitPro/PAlib/lib\libpa9.a(PA_Error.o)
 .debug_pubnames
                0x000003a1       0x39 c:/_ndsdev/devkitPro/PAlib/lib\libpa9.a(PA_Inits.o)
 .debug_pubnames
                0x000003da       0xa4 c:/_ndsdev/devkitPro/PAlib/lib\libpa9.a(PA_Interrupt.o)
 .debug_pubnames
                0x0000047e       0x47 c:/_ndsdev/devkitPro/PAlib/lib\libpa9.a(PA_Keys.o)
 .debug_pubnames
                0x000004c5       0x40 c:/_ndsdev/devkitPro/PAlib/lib\libpa9.a(PA_Math.o)
 .debug_pubnames
                0x00000505       0x73 c:/_ndsdev/devkitPro/PAlib/lib\libpa9.a(PA_NewBg.o)
 .debug_pubnames
                0x00000578       0x76 c:/_ndsdev/devkitPro/PAlib/lib\libpa9.a(PA_Palette.o)
 .debug_pubnames
                0x000005ee       0x54 c:/_ndsdev/devkitPro/PAlib/lib\libpa9.a(PA_RTC.o)
 .debug_pubnames
                0x00000642       0xd1 c:/_ndsdev/devkitPro/PAlib/lib\libpa9.a(PA_Reco.o)
 .debug_pubnames
                0x00000713      0x1e9 c:/_ndsdev/devkitPro/PAlib/lib\libpa9.a(PA_Sprite.o)
 .debug_pubnames
                0x000008fc       0x44 c:/_ndsdev/devkitPro/PAlib/lib\libpa9.a(PA_SpriteAnim.o)
 .debug_pubnames
                0x00000940       0x34 c:/_ndsdev/devkitPro/PAlib/lib\libpa9.a(PA_Stuff.o)
 .debug_pubnames
                0x00000974      0x11c c:/_ndsdev/devkitPro/PAlib/lib\libpa9.a(PA_Text.o)
 .debug_pubnames
                0x00000a90       0xb4 c:/_ndsdev/devkitPro/PAlib/lib\libpa9.a(PA_Text8bit.o)
 .debug_pubnames
                0x00000b44       0xc4 c:/_ndsdev/devkitPro/PAlib/lib\libpa9.a(PA_TextBits.o)
 .debug_pubnames
                0x00000c08       0x23 c:/_ndsdev/devkitPro/PAlib/lib\libpa9.a(PA_TiledFont.o)
 .debug_pubnames
                0x00000c2b       0x22 c:/_ndsdev/devkitPro/PAlib/lib\libpa9.a(PA_BmpFont0.o)
 .debug_pubnames
                0x00000c4d       0x22 c:/_ndsdev/devkitPro/PAlib/lib\libpa9.a(PA_BmpFont1.o)
 .debug_pubnames
                0x00000c6f       0x22 c:/_ndsdev/devkitPro/PAlib/lib\libpa9.a(PA_BmpFont2.o)
 .debug_pubnames
                0x00000c91       0x22 c:/_ndsdev/devkitPro/PAlib/lib\libpa9.a(PA_BmpFont3.o)
 .debug_pubnames
                0x00000cb3       0x22 c:/_ndsdev/devkitPro/PAlib/lib\libpa9.a(PA_BmpFont4.o)
 .debug_pubnames
                0x00000cd5       0xb0 c:/_ndsdev/devkitPro/PAlib/lib\libpa9.a(PA_16c.o)
 .debug_pubnames
                0x00000d85       0x55 c:/_ndsdev/devkitPro/PAlib/lib\libpa9.a(PA_BgRot.o)
 .debug_pubnames
                0x00000dda       0xa9 c:/_ndsdev/devkitPro/PAlib/lib\libpa9.a(PA_Draw.o)
 .debug_pubnames
                0x00000e83       0x38 c:/_ndsdev/devkitPro/PAlib/lib\libpa9.a(PA_Fifo.o)
 .debug_pubnames
                0x00000ebb       0xc0 c:/_ndsdev/devkitPro/PAlib/lib\libpa9.a(PA_Keyboard.o)
 .debug_pubnames
                0x00000f7b       0x88 c:/_ndsdev/devkitPro/PAlib/lib\libpa9.a(PA_PaletteEx.o)
 .debug_pubnames
                0x00001003       0x23 c:/_ndsdev/devkitPro/PAlib/lib\libpa9.a(keyboard.map.o)
 .debug_pubnames
                0x00001026       0x27 c:/_ndsdev/devkitPro/PAlib/lib\libpa9.a(keyboard.pal.o)
 .debug_pubnames
                0x0000104d       0x25 c:/_ndsdev/devkitPro/PAlib/lib\libpa9.a(keyboard.raw.o)

.debug_info     0x00000000    0x58c4c
 *(.debug_info)
 .debug_info    0x00000000     0x1f72 crystal.o
 .debug_info    0x00001f72     0x1fcb crystal_Ball.o
 .debug_info    0x00003f3d     0x2bbf cs_api.o
 .debug_info    0x00006afc     0x25bc game.o
 .debug_info    0x000090b8     0x205f hero.o
 .debug_info    0x0000b117     0x1e4d main.o
 .debug_info    0x0000cf64     0x1d44 menu.o
 .debug_info    0x0000eca8     0x2007 monster.o
 .debug_info    0x00010caf     0x1f38 princess.o
 .debug_info    0x00012be7     0x1ff4 water.o
 .debug_info    0x00014bdb      0x4f2 croutine.o
 .debug_info    0x000150cd       0xdc heap.o
 .debug_info    0x000151a9      0x29b list.o
 .debug_info    0x00015444      0x748 port.o
 .debug_info    0x00015b8c       0xc3 portISR.o
 .debug_info    0x00015c4f      0x79c queue.o
 .debug_info    0x000163eb     0x1068 tasks.o
 .debug_info    0x00017453     0x11fd virtual_io.o
 .debug_info    0x00018650      0x1c6 Town.o
 .debug_info    0x00018816      0x1c6 bg_main_down.o
 .debug_info    0x000189dc      0x1c6 bg_main_up.o
 .debug_info    0x00018ba2      0x1c6 bg_menu.o
 .debug_info    0x00018d68      0x1c6 bg_stage1_init.o
 .debug_info    0x00018f2e      0x1c6 bg_stage2_init.o
 .debug_info    0x000190f4      0x1c6 bg_stage3_init.o
 .debug_info    0x000192ba      0x1c6 gameover.o
 .debug_info    0x00019480      0x1c6 stage1.o
 .debug_info    0x00019646      0x1c6 stage2.o
 .debug_info    0x0001980c       0xd1 assemfunc.o
 .debug_info    0x000198dd     0x2481 c:/_ndsdev/devkitPro/PAlib/lib\libpa9.a(PA.o)
 .debug_info    0x0001bd5e     0x240e c:/_ndsdev/devkitPro/PAlib/lib\libpa9.a(PA_BgEasy.o)
 .debug_info    0x0001e16c     0x2d35 c:/_ndsdev/devkitPro/PAlib/lib\libpa9.a(PA_BgLargeMap.o)
 .debug_info    0x00020ea1     0x25f9 c:/_ndsdev/devkitPro/PAlib/lib\libpa9.a(PA_BgTiles.o)
 .debug_info    0x0002349a     0x1ec0 c:/_ndsdev/devkitPro/PAlib/lib\libpa9.a(PA_Error.o)
 .debug_info    0x0002535a     0x27ab c:/_ndsdev/devkitPro/PAlib/lib\libpa9.a(PA_Inits.o)
 .debug_info    0x00027b05     0x20b0 c:/_ndsdev/devkitPro/PAlib/lib\libpa9.a(PA_Interrupt.o)
 .debug_info    0x00029bb5     0x2131 c:/_ndsdev/devkitPro/PAlib/lib\libpa9.a(PA_Keys.o)
 .debug_info    0x0002bce6     0x20be c:/_ndsdev/devkitPro/PAlib/lib\libpa9.a(PA_Math.o)
 .debug_info    0x0002dda4     0x28a8 c:/_ndsdev/devkitPro/PAlib/lib\libpa9.a(PA_NewBg.o)
 .debug_info    0x0003064c     0x2476 c:/_ndsdev/devkitPro/PAlib/lib\libpa9.a(PA_Palette.o)
 .debug_info    0x00032ac2     0x22dd c:/_ndsdev/devkitPro/PAlib/lib\libpa9.a(PA_RTC.o)
 .debug_info    0x00034d9f     0x2417 c:/_ndsdev/devkitPro/PAlib/lib\libpa9.a(PA_Reco.o)
 .debug_info    0x000371b6     0x275a c:/_ndsdev/devkitPro/PAlib/lib\libpa9.a(PA_Sprite.o)
 .debug_info    0x00039910     0x218a c:/_ndsdev/devkitPro/PAlib/lib\libpa9.a(PA_SpriteAnim.o)
 .debug_info    0x0003ba9a     0x2186 c:/_ndsdev/devkitPro/PAlib/lib\libpa9.a(PA_Stuff.o)
 .debug_info    0x0003dc20     0x24a8 c:/_ndsdev/devkitPro/PAlib/lib\libpa9.a(PA_Text.o)
 .debug_info    0x000400c8     0x349e c:/_ndsdev/devkitPro/PAlib/lib\libpa9.a(PA_Text8bit.o)
 .debug_info    0x00043566     0x2430 c:/_ndsdev/devkitPro/PAlib/lib\libpa9.a(PA_TextBits.o)
 .debug_info    0x00045996      0x1c6 c:/_ndsdev/devkitPro/PAlib/lib\libpa9.a(PA_TiledFont.o)
 .debug_info    0x00045b5c      0x1c6 c:/_ndsdev/devkitPro/PAlib/lib\libpa9.a(PA_BmpFont0.o)
 .debug_info    0x00045d22      0x1c6 c:/_ndsdev/devkitPro/PAlib/lib\libpa9.a(PA_BmpFont1.o)
 .debug_info    0x00045ee8      0x1c6 c:/_ndsdev/devkitPro/PAlib/lib\libpa9.a(PA_BmpFont2.o)
 .debug_info    0x000460ae      0x1c6 c:/_ndsdev/devkitPro/PAlib/lib\libpa9.a(PA_BmpFont3.o)
 .debug_info    0x00046274      0x1c6 c:/_ndsdev/devkitPro/PAlib/lib\libpa9.a(PA_BmpFont4.o)
 .debug_info    0x0004643a     0x2770 c:/_ndsdev/devkitPro/PAlib/lib\libpa9.a(PA_16c.o)
 .debug_info    0x00048baa     0x2051 c:/_ndsdev/devkitPro/PAlib/lib\libpa9.a(PA_BgRot.o)
 .debug_info    0x0004abfb     0x21fe c:/_ndsdev/devkitPro/PAlib/lib\libpa9.a(PA_Draw.o)
 .debug_info    0x0004cdf9     0x20fa c:/_ndsdev/devkitPro/PAlib/lib\libpa9.a(PA_Fifo.o)
 .debug_info    0x0004eef3     0x24f4 c:/_ndsdev/devkitPro/PAlib/lib\libpa9.a(PA_Keyboard.o)
 .debug_info    0x000513e7     0x2370 c:/_ndsdev/devkitPro/PAlib/lib\libpa9.a(PA_PaletteEx.o)
 .debug_info    0x00053757       0x54 c:/_ndsdev/devkitPro/PAlib/lib\libpa9.a(keyboard.map.o)
 .debug_info    0x000537ab       0x53 c:/_ndsdev/devkitPro/PAlib/lib\libpa9.a(keyboard.pal.o)
 .debug_info    0x000537fe       0x54 c:/_ndsdev/devkitPro/PAlib/lib\libpa9.a(keyboard.raw.o)
 .debug_info    0x00053852      0x8f0 c:/_ndsdev/devkitPro/libnds/lib\libnds9.a(background.o)
 .debug_info    0x00054142      0x316 c:/_ndsdev/devkitPro/libnds/lib\libnds9.a(decompress.o)
 .debug_info    0x00054458      0x3d0 c:/_ndsdev/devkitPro/libnds/lib\libnds9.a(keys.o)
 .debug_info    0x00054828      0x6db c:/_ndsdev/devkitPro/libnds/lib\libnds9.a(system.o)
 .debug_info    0x00054f03      0x2cd c:/_ndsdev/devkitPro/libnds/lib\libnds9.a(touch.o)
 .debug_info    0x000551d0      0x4c4 c:/_ndsdev/devkitPro/libnds/lib\libnds9.a(trig.o)
 .debug_info    0x00055694      0x70f c:/_ndsdev/devkitPro/libnds/lib\libnds9.a(video.o)
 .debug_info    0x00055da3      0xeb7 c:/_ndsdev/devkitPro/libnds/lib\libnds9.a(initSystem.o)
 .debug_info    0x00056c5a     0x11c9 c:/_ndsdev/devkitPro/libnds/lib\libnds9.a(fifosystem.o)
 .debug_info    0x00057e23      0x5c9 c:/_ndsdev/devkitPro/libnds/lib\libnds9.a(interrupts.o)
 .debug_info    0x000583ec      0x2a6 c:/_ndsdev/devkitPro/libnds/lib\libnds9.a(libnds_exit.o)
 .debug_info    0x00058692      0x1f2 c:/_ndsdev/devkitPro/libnds/lib\libnds9.a(syscalls.o)
 .debug_info    0x00058884       0xba c:/_ndsdev/devkitPro/libnds/lib\libnds9.a(dcache.o)
 .debug_info    0x0005893e       0xc4 c:/_ndsdev/devkitPro/libnds/lib\libnds9.a(mpu_setup.o)
 .debug_info    0x00058a02       0xbf c:/_ndsdev/devkitPro/libnds/lib\libnds9.a(biosCalls.o)
 .debug_info    0x00058ac1       0xc9 c:/_ndsdev/devkitPro/libnds/lib\libnds9.a(interruptDispatcher.o)
 .debug_info    0x00058b8a       0xc2 c:/_ndsdev/devkitPro/libnds/lib\libnds9.a(swiSoftReset.o)

.debug_abbrev   0x00000000     0x95b0
 *(.debug_abbrev)
 .debug_abbrev  0x00000000      0x338 crystal.o
 .debug_abbrev  0x00000338      0x332 crystal_Ball.o
 .debug_abbrev  0x0000066a      0x382 cs_api.o
 .debug_abbrev  0x000009ec      0x389 game.o
 .debug_abbrev  0x00000d75      0x2c1 hero.o
 .debug_abbrev  0x00001036      0x240 main.o
 .debug_abbrev  0x00001276      0x22b menu.o
 .debug_abbrev  0x000014a1      0x35c monster.o
 .debug_abbrev  0x000017fd      0x31c princess.o
 .debug_abbrev  0x00001b19      0x35c water.o
 .debug_abbrev  0x00001e75      0x1eb croutine.o
 .debug_abbrev  0x00002060       0x97 heap.o
 .debug_abbrev  0x000020f7       0xe9 list.o
 .debug_abbrev  0x000021e0      0x1aa port.o
 .debug_abbrev  0x0000238a       0x7b portISR.o
 .debug_abbrev  0x00002405      0x1c4 queue.o
 .debug_abbrev  0x000025c9      0x2d9 tasks.o
 .debug_abbrev  0x000028a2      0x39f virtual_io.o
 .debug_abbrev  0x00002c41       0xcf Town.o
 .debug_abbrev  0x00002d10       0xcf bg_main_down.o
 .debug_abbrev  0x00002ddf       0xcf bg_main_up.o
 .debug_abbrev  0x00002eae       0xcf bg_menu.o
 .debug_abbrev  0x00002f7d       0xcf bg_stage1_init.o
 .debug_abbrev  0x0000304c       0xcf bg_stage2_init.o
 .debug_abbrev  0x0000311b       0xcf bg_stage3_init.o
 .debug_abbrev  0x000031ea       0xcf gameover.o
 .debug_abbrev  0x000032b9       0xcf stage1.o
 .debug_abbrev  0x00003388       0xcf stage2.o
 .debug_abbrev  0x00003457       0x14 assemfunc.o
 .debug_abbrev  0x0000346b      0x27d c:/_ndsdev/devkitPro/PAlib/lib\libpa9.a(PA.o)
 .debug_abbrev  0x000036e8      0x325 c:/_ndsdev/devkitPro/PAlib/lib\libpa9.a(PA_BgEasy.o)
 .debug_abbrev  0x00003a0d      0x340 c:/_ndsdev/devkitPro/PAlib/lib\libpa9.a(PA_BgLargeMap.o)
 .debug_abbrev  0x00003d4d      0x314 c:/_ndsdev/devkitPro/PAlib/lib\libpa9.a(PA_BgTiles.o)
 .debug_abbrev  0x00004061      0x1e6 c:/_ndsdev/devkitPro/PAlib/lib\libpa9.a(PA_Error.o)
 .debug_abbrev  0x00004247      0x316 c:/_ndsdev/devkitPro/PAlib/lib\libpa9.a(PA_Inits.o)
 .debug_abbrev  0x0000455d      0x23f c:/_ndsdev/devkitPro/PAlib/lib\libpa9.a(PA_Interrupt.o)
 .debug_abbrev  0x0000479c      0x224 c:/_ndsdev/devkitPro/PAlib/lib\libpa9.a(PA_Keys.o)
 .debug_abbrev  0x000049c0      0x292 c:/_ndsdev/devkitPro/PAlib/lib\libpa9.a(PA_Math.o)
 .debug_abbrev  0x00004c52      0x350 c:/_ndsdev/devkitPro/PAlib/lib\libpa9.a(PA_NewBg.o)
 .debug_abbrev  0x00004fa2      0x2ba c:/_ndsdev/devkitPro/PAlib/lib\libpa9.a(PA_Palette.o)
 .debug_abbrev  0x0000525c      0x239 c:/_ndsdev/devkitPro/PAlib/lib\libpa9.a(PA_RTC.o)
 .debug_abbrev  0x00005495      0x30a c:/_ndsdev/devkitPro/PAlib/lib\libpa9.a(PA_Reco.o)
 .debug_abbrev  0x0000579f      0x3b1 c:/_ndsdev/devkitPro/PAlib/lib\libpa9.a(PA_Sprite.o)
 .debug_abbrev  0x00005b50      0x2ca c:/_ndsdev/devkitPro/PAlib/lib\libpa9.a(PA_SpriteAnim.o)
 .debug_abbrev  0x00005e1a      0x248 c:/_ndsdev/devkitPro/PAlib/lib\libpa9.a(PA_Stuff.o)
 .debug_abbrev  0x00006062      0x363 c:/_ndsdev/devkitPro/PAlib/lib\libpa9.a(PA_Text.o)
 .debug_abbrev  0x000063c5      0x34b c:/_ndsdev/devkitPro/PAlib/lib\libpa9.a(PA_Text8bit.o)
 .debug_abbrev  0x00006710      0x2b0 c:/_ndsdev/devkitPro/PAlib/lib\libpa9.a(PA_TextBits.o)
 .debug_abbrev  0x000069c0       0xcf c:/_ndsdev/devkitPro/PAlib/lib\libpa9.a(PA_TiledFont.o)
 .debug_abbrev  0x00006a8f       0xcf c:/_ndsdev/devkitPro/PAlib/lib\libpa9.a(PA_BmpFont0.o)
 .debug_abbrev  0x00006b5e       0xcf c:/_ndsdev/devkitPro/PAlib/lib\libpa9.a(PA_BmpFont1.o)
 .debug_abbrev  0x00006c2d       0xcf c:/_ndsdev/devkitPro/PAlib/lib\libpa9.a(PA_BmpFont2.o)
 .debug_abbrev  0x00006cfc       0xcf c:/_ndsdev/devkitPro/PAlib/lib\libpa9.a(PA_BmpFont3.o)
 .debug_abbrev  0x00006dcb       0xcf c:/_ndsdev/devkitPro/PAlib/lib\libpa9.a(PA_BmpFont4.o)
 .debug_abbrev  0x00006e9a      0x374 c:/_ndsdev/devkitPro/PAlib/lib\libpa9.a(PA_16c.o)
 .debug_abbrev  0x0000720e      0x252 c:/_ndsdev/devkitPro/PAlib/lib\libpa9.a(PA_BgRot.o)
 .debug_abbrev  0x00007460      0x270 c:/_ndsdev/devkitPro/PAlib/lib\libpa9.a(PA_Draw.o)
 .debug_abbrev  0x000076d0      0x211 c:/_ndsdev/devkitPro/PAlib/lib\libpa9.a(PA_Fifo.o)
 .debug_abbrev  0x000078e1      0x33d c:/_ndsdev/devkitPro/PAlib/lib\libpa9.a(PA_Keyboard.o)
 .debug_abbrev  0x00007c1e      0x29b c:/_ndsdev/devkitPro/PAlib/lib\libpa9.a(PA_PaletteEx.o)
 .debug_abbrev  0x00007eb9       0x50 c:/_ndsdev/devkitPro/PAlib/lib\libpa9.a(keyboard.map.o)
 .debug_abbrev  0x00007f09       0x50 c:/_ndsdev/devkitPro/PAlib/lib\libpa9.a(keyboard.pal.o)
 .debug_abbrev  0x00007f59       0x50 c:/_ndsdev/devkitPro/PAlib/lib\libpa9.a(keyboard.raw.o)
 .debug_abbrev  0x00007fa9      0x278 c:/_ndsdev/devkitPro/libnds/lib\libnds9.a(background.o)
 .debug_abbrev  0x00008221      0x143 c:/_ndsdev/devkitPro/libnds/lib\libnds9.a(decompress.o)
 .debug_abbrev  0x00008364      0x176 c:/_ndsdev/devkitPro/libnds/lib\libnds9.a(keys.o)
 .debug_abbrev  0x000084da      0x19a c:/_ndsdev/devkitPro/libnds/lib\libnds9.a(system.o)
 .debug_abbrev  0x00008674      0x11e c:/_ndsdev/devkitPro/libnds/lib\libnds9.a(touch.o)
 .debug_abbrev  0x00008792      0x1ac c:/_ndsdev/devkitPro/libnds/lib\libnds9.a(trig.o)
 .debug_abbrev  0x0000893e      0x1fa c:/_ndsdev/devkitPro/libnds/lib\libnds9.a(video.o)
 .debug_abbrev  0x00008b38      0x242 c:/_ndsdev/devkitPro/libnds/lib\libnds9.a(initSystem.o)
 .debug_abbrev  0x00008d7a      0x3c8 c:/_ndsdev/devkitPro/libnds/lib\libnds9.a(fifosystem.o)
 .debug_abbrev  0x00009142      0x21e c:/_ndsdev/devkitPro/libnds/lib\libnds9.a(interrupts.o)
 .debug_abbrev  0x00009360      0x131 c:/_ndsdev/devkitPro/libnds/lib\libnds9.a(libnds_exit.o)
 .debug_abbrev  0x00009491       0xbb c:/_ndsdev/devkitPro/libnds/lib\libnds9.a(syscalls.o)
 .debug_abbrev  0x0000954c       0x14 c:/_ndsdev/devkitPro/libnds/lib\libnds9.a(dcache.o)
 .debug_abbrev  0x00009560       0x14 c:/_ndsdev/devkitPro/libnds/lib\libnds9.a(mpu_setup.o)
 .debug_abbrev  0x00009574       0x14 c:/_ndsdev/devkitPro/libnds/lib\libnds9.a(biosCalls.o)
 .debug_abbrev  0x00009588       0x14 c:/_ndsdev/devkitPro/libnds/lib\libnds9.a(interruptDispatcher.o)
 .debug_abbrev  0x0000959c       0x14 c:/_ndsdev/devkitPro/libnds/lib\libnds9.a(swiSoftReset.o)

.debug_line     0x00000000    0x10886
 *(.debug_line)
 .debug_line    0x00000000      0x4a3 crystal.o
 .debug_line    0x000004a3      0x4ca crystal_Ball.o
 .debug_line    0x0000096d      0x6d4 cs_api.o
 .debug_line    0x00001041      0x6dd game.o
 .debug_line    0x0000171e      0x4a1 hero.o
 .debug_line    0x00001bbf      0x4c8 main.o
 .debug_line    0x00002087      0x44d menu.o
 .debug_line    0x000024d4      0x4b9 monster.o
 .debug_line    0x0000298d      0x4a9 princess.o
 .debug_line    0x00002e36      0x4b7 water.o
 .debug_line    0x000032ed      0x1e8 croutine.o
 .debug_line    0x000034d5       0xea heap.o
 .debug_line    0x000035bf      0x135 list.o
 .debug_line    0x000036f4      0x220 port.o
 .debug_line    0x00003914       0xa0 portISR.o
 .debug_line    0x000039b4      0x376 queue.o
 .debug_line    0x00003d2a      0x60c tasks.o
 .debug_line    0x00004336      0x3ee virtual_io.o
 .debug_line    0x00004724       0xff Town.o
 .debug_line    0x00004823      0x107 bg_main_down.o
 .debug_line    0x0000492a      0x105 bg_main_up.o
 .debug_line    0x00004a2f      0x102 bg_menu.o
 .debug_line    0x00004b31      0x109 bg_stage1_init.o
 .debug_line    0x00004c3a      0x109 bg_stage2_init.o
 .debug_line    0x00004d43      0x109 bg_stage3_init.o
 .debug_line    0x00004e4c      0x103 gameover.o
 .debug_line    0x00004f4f      0x101 stage1.o
 .debug_line    0x00005050      0x101 stage2.o
 .debug_line    0x00005151       0xc1 assemfunc.o
 .debug_line    0x00005212      0x41c c:/_ndsdev/devkitPro/PAlib/lib\libpa9.a(PA.o)
 .debug_line    0x0000562e      0x4eb c:/_ndsdev/devkitPro/PAlib/lib\libpa9.a(PA_BgEasy.o)
 .debug_line    0x00005b19      0xcaf c:/_ndsdev/devkitPro/PAlib/lib\libpa9.a(PA_BgLargeMap.o)
 .debug_line    0x000067c8      0x6df c:/_ndsdev/devkitPro/PAlib/lib\libpa9.a(PA_BgTiles.o)
 .debug_line    0x00006ea7      0x390 c:/_ndsdev/devkitPro/PAlib/lib\libpa9.a(PA_Error.o)
 .debug_line    0x00007237      0x4e5 c:/_ndsdev/devkitPro/PAlib/lib\libpa9.a(PA_Inits.o)
 .debug_line    0x0000771c      0x3f2 c:/_ndsdev/devkitPro/PAlib/lib\libpa9.a(PA_Interrupt.o)
 .debug_line    0x00007b0e      0x40f c:/_ndsdev/devkitPro/PAlib/lib\libpa9.a(PA_Keys.o)
 .debug_line    0x00007f1d      0x45d c:/_ndsdev/devkitPro/PAlib/lib\libpa9.a(PA_Math.o)
 .debug_line    0x0000837a      0x6b1 c:/_ndsdev/devkitPro/PAlib/lib\libpa9.a(PA_NewBg.o)
 .debug_line    0x00008a2b      0x5ca c:/_ndsdev/devkitPro/PAlib/lib\libpa9.a(PA_Palette.o)
 .debug_line    0x00008ff5      0x40d c:/_ndsdev/devkitPro/PAlib/lib\libpa9.a(PA_RTC.o)
 .debug_line    0x00009402      0x567 c:/_ndsdev/devkitPro/PAlib/lib\libpa9.a(PA_Reco.o)
 .debug_line    0x00009969      0x74e c:/_ndsdev/devkitPro/PAlib/lib\libpa9.a(PA_Sprite.o)
 .debug_line    0x0000a0b7      0x522 c:/_ndsdev/devkitPro/PAlib/lib\libpa9.a(PA_SpriteAnim.o)
 .debug_line    0x0000a5d9      0x401 c:/_ndsdev/devkitPro/PAlib/lib\libpa9.a(PA_Stuff.o)
 .debug_line    0x0000a9da      0x73b c:/_ndsdev/devkitPro/PAlib/lib\libpa9.a(PA_Text.o)
 .debug_line    0x0000b115      0xa84 c:/_ndsdev/devkitPro/PAlib/lib\libpa9.a(PA_Text8bit.o)
 .debug_line    0x0000bb99      0x532 c:/_ndsdev/devkitPro/PAlib/lib\libpa9.a(PA_TextBits.o)
 .debug_line    0x0000c0cb       0xee c:/_ndsdev/devkitPro/PAlib/lib\libpa9.a(PA_TiledFont.o)
 .debug_line    0x0000c1b9       0xee c:/_ndsdev/devkitPro/PAlib/lib\libpa9.a(PA_BmpFont0.o)
 .debug_line    0x0000c2a7       0xee c:/_ndsdev/devkitPro/PAlib/lib\libpa9.a(PA_BmpFont1.o)
 .debug_line    0x0000c395       0xee c:/_ndsdev/devkitPro/PAlib/lib\libpa9.a(PA_BmpFont2.o)
 .debug_line    0x0000c483       0xee c:/_ndsdev/devkitPro/PAlib/lib\libpa9.a(PA_BmpFont3.o)
 .debug_line    0x0000c571       0xee c:/_ndsdev/devkitPro/PAlib/lib\libpa9.a(PA_BmpFont4.o)
 .debug_line    0x0000c65f      0x5d8 c:/_ndsdev/devkitPro/PAlib/lib\libpa9.a(PA_16c.o)
 .debug_line    0x0000cc37      0x422 c:/_ndsdev/devkitPro/PAlib/lib\libpa9.a(PA_BgRot.o)
 .debug_line    0x0000d059      0x50e c:/_ndsdev/devkitPro/PAlib/lib\libpa9.a(PA_Draw.o)
 .debug_line    0x0000d567      0x42d c:/_ndsdev/devkitPro/PAlib/lib\libpa9.a(PA_Fifo.o)
 .debug_line    0x0000d994      0x64d c:/_ndsdev/devkitPro/PAlib/lib\libpa9.a(PA_Keyboard.o)
 .debug_line    0x0000dfe1      0x4b2 c:/_ndsdev/devkitPro/PAlib/lib\libpa9.a(PA_PaletteEx.o)
 .debug_line    0x0000e493       0x55 c:/_ndsdev/devkitPro/PAlib/lib\libpa9.a(keyboard.map.o)
 .debug_line    0x0000e4e8       0x55 c:/_ndsdev/devkitPro/PAlib/lib\libpa9.a(keyboard.pal.o)
 .debug_line    0x0000e53d       0x55 c:/_ndsdev/devkitPro/PAlib/lib\libpa9.a(keyboard.raw.o)
 .debug_line    0x0000e592      0x2af c:/_ndsdev/devkitPro/libnds/lib\libnds9.a(background.o)
 .debug_line    0x0000e841      0x1c6 c:/_ndsdev/devkitPro/libnds/lib\libnds9.a(decompress.o)
 .debug_line    0x0000ea07      0x242 c:/_ndsdev/devkitPro/libnds/lib\libnds9.a(keys.o)
 .debug_line    0x0000ec49      0x25c c:/_ndsdev/devkitPro/libnds/lib\libnds9.a(system.o)
 .debug_line    0x0000eea5      0x21e c:/_ndsdev/devkitPro/libnds/lib\libnds9.a(touch.o)
 .debug_line    0x0000f0c3      0x23d c:/_ndsdev/devkitPro/libnds/lib\libnds9.a(trig.o)
 .debug_line    0x0000f300      0x23c c:/_ndsdev/devkitPro/libnds/lib\libnds9.a(video.o)
 .debug_line    0x0000f53c      0x355 c:/_ndsdev/devkitPro/libnds/lib\libnds9.a(initSystem.o)
 .debug_line    0x0000f891      0x719 c:/_ndsdev/devkitPro/libnds/lib\libnds9.a(fifosystem.o)
 .debug_line    0x0000ffaa      0x238 c:/_ndsdev/devkitPro/libnds/lib\libnds9.a(interrupts.o)
 .debug_line    0x000101e2      0x1ca c:/_ndsdev/devkitPro/libnds/lib\libnds9.a(libnds_exit.o)
 .debug_line    0x000103ac      0x141 c:/_ndsdev/devkitPro/libnds/lib\libnds9.a(syscalls.o)
 .debug_line    0x000104ed       0xa2 c:/_ndsdev/devkitPro/libnds/lib\libnds9.a(dcache.o)
 .debug_line    0x0001058f       0xe1 c:/_ndsdev/devkitPro/libnds/lib\libnds9.a(mpu_setup.o)
 .debug_line    0x00010670       0xc3 c:/_ndsdev/devkitPro/libnds/lib\libnds9.a(biosCalls.o)
 .debug_line    0x00010733       0xc2 c:/_ndsdev/devkitPro/libnds/lib\libnds9.a(interruptDispatcher.o)
 .debug_line    0x000107f5       0x91 c:/_ndsdev/devkitPro/libnds/lib\libnds9.a(swiSoftReset.o)

.debug_frame    0x00000000     0x2428
 *(.debug_frame)
 .debug_frame   0x00000000       0x74 crystal.o
 .debug_frame   0x00000074       0x80 crystal_Ball.o
 .debug_frame   0x000000f4      0x17c cs_api.o
 .debug_frame   0x00000270       0x64 game.o
 .debug_frame   0x000002d4       0x54 hero.o
 .debug_frame   0x00000328       0x48 main.o
 .debug_frame   0x00000370       0x48 menu.o
 .debug_frame   0x000003b8       0x7c monster.o
 .debug_frame   0x00000434       0x68 princess.o
 .debug_frame   0x0000049c       0x7c water.o
 .debug_frame   0x00000518       0x90 croutine.o
 .debug_frame   0x000005a8       0x40 heap.o
 .debug_frame   0x000005e8       0x70 list.o
 .debug_frame   0x00000658       0x48 port.o
 .debug_frame   0x000006a0       0x68 portISR.o
 .debug_frame   0x00000708      0x188 queue.o
 .debug_frame   0x00000890      0x364 tasks.o
 .debug_frame   0x00000bf4      0x128 virtual_io.o
 .debug_frame   0x00000d1c       0x54 c:/_ndsdev/devkitPro/PAlib/lib\libpa9.a(PA.o)
 .debug_frame   0x00000d70       0xa4 c:/_ndsdev/devkitPro/PAlib/lib\libpa9.a(PA_BgEasy.o)
 .debug_frame   0x00000e14      0x18c c:/_ndsdev/devkitPro/PAlib/lib\libpa9.a(PA_BgLargeMap.o)
 .debug_frame   0x00000fa0      0x124 c:/_ndsdev/devkitPro/PAlib/lib\libpa9.a(PA_BgTiles.o)
 .debug_frame   0x000010c4       0x48 c:/_ndsdev/devkitPro/PAlib/lib\libpa9.a(PA_Error.o)
 .debug_frame   0x0000110c       0x54 c:/_ndsdev/devkitPro/PAlib/lib\libpa9.a(PA_Inits.o)
 .debug_frame   0x00001160       0x44 c:/_ndsdev/devkitPro/PAlib/lib\libpa9.a(PA_Interrupt.o)
 .debug_frame   0x000011a4       0x5c c:/_ndsdev/devkitPro/PAlib/lib\libpa9.a(PA_Keys.o)
 .debug_frame   0x00001200       0x3c c:/_ndsdev/devkitPro/PAlib/lib\libpa9.a(PA_Math.o)
 .debug_frame   0x0000123c       0xc8 c:/_ndsdev/devkitPro/PAlib/lib\libpa9.a(PA_NewBg.o)
 .debug_frame   0x00001304       0x70 c:/_ndsdev/devkitPro/PAlib/lib\libpa9.a(PA_Palette.o)
 .debug_frame   0x00001374       0x44 c:/_ndsdev/devkitPro/PAlib/lib\libpa9.a(PA_RTC.o)
 .debug_frame   0x000013b8       0x84 c:/_ndsdev/devkitPro/PAlib/lib\libpa9.a(PA_Reco.o)
 .debug_frame   0x0000143c      0x144 c:/_ndsdev/devkitPro/PAlib/lib\libpa9.a(PA_Sprite.o)
 .debug_frame   0x00001580       0x68 c:/_ndsdev/devkitPro/PAlib/lib\libpa9.a(PA_SpriteAnim.o)
 .debug_frame   0x000015e8       0x54 c:/_ndsdev/devkitPro/PAlib/lib\libpa9.a(PA_Stuff.o)
 .debug_frame   0x0000163c       0xe0 c:/_ndsdev/devkitPro/PAlib/lib\libpa9.a(PA_Text.o)
 .debug_frame   0x0000171c      0x150 c:/_ndsdev/devkitPro/PAlib/lib\libpa9.a(PA_Text8bit.o)
 .debug_frame   0x0000186c       0x64 c:/_ndsdev/devkitPro/PAlib/lib\libpa9.a(PA_TextBits.o)
 .debug_frame   0x000018d0       0xe8 c:/_ndsdev/devkitPro/PAlib/lib\libpa9.a(PA_16c.o)
 .debug_frame   0x000019b8       0x3c c:/_ndsdev/devkitPro/PAlib/lib\libpa9.a(PA_BgRot.o)
 .debug_frame   0x000019f4       0x3c c:/_ndsdev/devkitPro/PAlib/lib\libpa9.a(PA_Draw.o)
 .debug_frame   0x00001a30       0x44 c:/_ndsdev/devkitPro/PAlib/lib\libpa9.a(PA_Fifo.o)
 .debug_frame   0x00001a74       0xe0 c:/_ndsdev/devkitPro/PAlib/lib\libpa9.a(PA_Keyboard.o)
 .debug_frame   0x00001b54       0xa8 c:/_ndsdev/devkitPro/PAlib/lib\libpa9.a(PA_PaletteEx.o)
 .debug_frame   0x00001bfc       0xa4 c:/_ndsdev/devkitPro/libnds/lib\libnds9.a(background.o)
 .debug_frame   0x00001ca0       0x64 c:/_ndsdev/devkitPro/libnds/lib\libnds9.a(decompress.o)
 .debug_frame   0x00001d04       0x8c c:/_ndsdev/devkitPro/libnds/lib\libnds9.a(keys.o)
 .debug_frame   0x00001d90       0xb8 c:/_ndsdev/devkitPro/libnds/lib\libnds9.a(system.o)
 .debug_frame   0x00001e48       0x44 c:/_ndsdev/devkitPro/libnds/lib\libnds9.a(touch.o)
 .debug_frame   0x00001e8c       0xf4 c:/_ndsdev/devkitPro/libnds/lib\libnds9.a(trig.o)
 .debug_frame   0x00001f80       0xc4 c:/_ndsdev/devkitPro/libnds/lib\libnds9.a(video.o)
 .debug_frame   0x00002044       0x28 c:/_ndsdev/devkitPro/libnds/lib\libnds9.a(initSystem.o)
 .debug_frame   0x0000206c      0x2a4 c:/_ndsdev/devkitPro/libnds/lib\libnds9.a(fifosystem.o)
 .debug_frame   0x00002310       0xb8 c:/_ndsdev/devkitPro/libnds/lib\libnds9.a(interrupts.o)
 .debug_frame   0x000023c8       0x38 c:/_ndsdev/devkitPro/libnds/lib\libnds9.a(libnds_exit.o)
 .debug_frame   0x00002400       0x28 c:/_ndsdev/devkitPro/libnds/lib\libnds9.a(syscalls.o)

.debug_str      0x00000000     0x7348
 *(.debug_str)
 .debug_str     0x00000000      0xdb6 crystal.o
                                0xfc9 (size before relaxing)
 .debug_str     0x00000db6      0x100 crystal_Ball.o
                               0x1033 (size before relaxing)
 .debug_str     0x00000eb6      0x4b5 cs_api.o
                               0x1403 (size before relaxing)
 .debug_str     0x0000136b      0x1d7 game.o
                               0x12a1 (size before relaxing)
 .debug_str     0x00001542       0x6a hero.o
                                0xfc5 (size before relaxing)
 .debug_str     0x000015ac       0xa5 main.o
                                0xff0 (size before relaxing)
 .debug_str     0x00001651       0x83 menu.o
                                0xf5b (size before relaxing)
 .debug_str     0x000016d4       0xd6 monster.o
                                0xff6 (size before relaxing)
 .debug_str     0x000017aa       0xa5 princess.o
                                0xfae (size before relaxing)
 .debug_str     0x0000184f       0xad water.o
                                0xfe2 (size before relaxing)
 .debug_str     0x000018fc      0x397 croutine.o
                                0x3ec (size before relaxing)
 .debug_str     0x00001c93       0x83 heap.o
                                0x11f (size before relaxing)
 .debug_str     0x00001d16       0xea list.o
                                0x21d (size before relaxing)
 .debug_str     0x00001e00      0x207 port.o
                                0x578 (size before relaxing)
 .debug_str     0x00002007       0xbc portISR.o
                                0x10f (size before relaxing)
 .debug_str     0x000020c3      0x34f queue.o
                                0x4a7 (size before relaxing)
 .debug_str     0x00002412      0x731 tasks.o
                                0x9a3 (size before relaxing)
 .debug_str     0x00002b43      0x91b virtual_io.o
                                0xd92 (size before relaxing)
 .debug_str     0x0000345e       0xd8 Town.o
                                0x162 (size before relaxing)
 .debug_str     0x00003536       0x93 bg_main_down.o
                                0x18a (size before relaxing)
 .debug_str     0x000035c9       0x8b bg_main_up.o
                                0x180 (size before relaxing)
 .debug_str     0x00003654       0x7f bg_menu.o
                                0x171 (size before relaxing)
 .debug_str     0x000036d3       0x9b bg_stage1_init.o
                                0x194 (size before relaxing)
 .debug_str     0x0000376e       0xaa bg_stage2_init.o
                                0x194 (size before relaxing)
 .debug_str     0x00003818       0xaa bg_stage3_init.o
                                0x194 (size before relaxing)
 .debug_str     0x000038c2       0x83 gameover.o
                                0x176 (size before relaxing)
 .debug_str     0x00003945       0x82 stage1.o
                                0x16c (size before relaxing)
 .debug_str     0x000039c7       0x7b stage2.o
                                0x16c (size before relaxing)
 .debug_str     0x00003a42      0x30d c:/_ndsdev/devkitPro/PAlib/lib\libpa9.a(PA.o)
                               0x1156 (size before relaxing)
 .debug_str     0x00003d4f       0xf1 c:/_ndsdev/devkitPro/PAlib/lib\libpa9.a(PA_BgEasy.o)
                                0xd74 (size before relaxing)
 .debug_str     0x00003e40      0x181 c:/_ndsdev/devkitPro/PAlib/lib\libpa9.a(PA_BgLargeMap.o)
                                0xe09 (size before relaxing)
 .debug_str     0x00003fc1      0x156 c:/_ndsdev/devkitPro/PAlib/lib\libpa9.a(PA_BgTiles.o)
                                0xfe6 (size before relaxing)
 .debug_str     0x00004117       0x5d c:/_ndsdev/devkitPro/PAlib/lib\libpa9.a(PA_Error.o)
                                0xcb5 (size before relaxing)
 .debug_str     0x00004174      0x4ef c:/_ndsdev/devkitPro/PAlib/lib\libpa9.a(PA_Inits.o)
                               0x1707 (size before relaxing)
 .debug_str     0x00004663       0x63 c:/_ndsdev/devkitPro/PAlib/lib\libpa9.a(PA_Interrupt.o)
                                0xdf9 (size before relaxing)
 .debug_str     0x000046c6       0x67 c:/_ndsdev/devkitPro/PAlib/lib\libpa9.a(PA_Keys.o)
                                0xe45 (size before relaxing)
 .debug_str     0x0000472d       0x7a c:/_ndsdev/devkitPro/PAlib/lib\libpa9.a(PA_Math.o)
                                0xda7 (size before relaxing)
 .debug_str     0x000047a7      0x117 c:/_ndsdev/devkitPro/PAlib/lib\libpa9.a(PA_NewBg.o)
                                0xeee (size before relaxing)
 .debug_str     0x000048be      0x359 c:/_ndsdev/devkitPro/PAlib/lib\libpa9.a(PA_Palette.o)
                               0x10d0 (size before relaxing)
 .debug_str     0x00004c17      0x1c2 c:/_ndsdev/devkitPro/PAlib/lib\libpa9.a(PA_RTC.o)
                                0xf4f (size before relaxing)
 .debug_str     0x00004dd9      0x14b c:/_ndsdev/devkitPro/PAlib/lib\libpa9.a(PA_Reco.o)
                                0xea8 (size before relaxing)
 .debug_str     0x00004f24      0x1ee c:/_ndsdev/devkitPro/PAlib/lib\libpa9.a(PA_Sprite.o)
                                0xfdb (size before relaxing)
 .debug_str     0x00005112       0x6e c:/_ndsdev/devkitPro/PAlib/lib\libpa9.a(PA_SpriteAnim.o)
                                0xd5b (size before relaxing)
 .debug_str     0x00005180      0x17f c:/_ndsdev/devkitPro/PAlib/lib\libpa9.a(PA_Stuff.o)
                                0xe11 (size before relaxing)
 .debug_str     0x000052ff      0x137 c:/_ndsdev/devkitPro/PAlib/lib\libpa9.a(PA_Text.o)
                                0xf3f (size before relaxing)
 .debug_str     0x00005436      0x1b4 c:/_ndsdev/devkitPro/PAlib/lib\libpa9.a(PA_Text8bit.o)
                                0xf2f (size before relaxing)
 .debug_str     0x000055ea      0x135 c:/_ndsdev/devkitPro/PAlib/lib\libpa9.a(PA_TextBits.o)
                                0xf39 (size before relaxing)
 .debug_str     0x0000571f       0x43 c:/_ndsdev/devkitPro/PAlib/lib\libpa9.a(PA_TiledFont.o)
                                0x16f (size before relaxing)
 .debug_str     0x00005762       0x43 c:/_ndsdev/devkitPro/PAlib/lib\libpa9.a(PA_BmpFont0.o)
                                0x16d (size before relaxing)
 .debug_str     0x000057a5       0x43 c:/_ndsdev/devkitPro/PAlib/lib\libpa9.a(PA_BmpFont1.o)
                                0x16d (size before relaxing)
 .debug_str     0x000057e8       0x43 c:/_ndsdev/devkitPro/PAlib/lib\libpa9.a(PA_BmpFont2.o)
                                0x16d (size before relaxing)
 .debug_str     0x0000582b       0x43 c:/_ndsdev/devkitPro/PAlib/lib\libpa9.a(PA_BmpFont3.o)
                                0x16d (size before relaxing)
 .debug_str     0x0000586e       0x43 c:/_ndsdev/devkitPro/PAlib/lib\libpa9.a(PA_BmpFont4.o)
                                0x16d (size before relaxing)
 .debug_str     0x000058b1       0xe1 c:/_ndsdev/devkitPro/PAlib/lib\libpa9.a(PA_16c.o)
                                0xf67 (size before relaxing)
 .debug_str     0x00005992       0x59 c:/_ndsdev/devkitPro/PAlib/lib\libpa9.a(PA_BgRot.o)
                                0xdd6 (size before relaxing)
 .debug_str     0x000059eb      0x15f c:/_ndsdev/devkitPro/PAlib/lib\libpa9.a(PA_Draw.o)
                                0xe94 (size before relaxing)
 .debug_str     0x00005b4a      0x11e c:/_ndsdev/devkitPro/PAlib/lib\libpa9.a(PA_Fifo.o)
                                0xe45 (size before relaxing)
 .debug_str     0x00005c68      0x115 c:/_ndsdev/devkitPro/PAlib/lib\libpa9.a(PA_Keyboard.o)
                                0xeba (size before relaxing)
 .debug_str     0x00005d7d      0x26f c:/_ndsdev/devkitPro/PAlib/lib\libpa9.a(PA_PaletteEx.o)
                               0x11b1 (size before relaxing)
 .debug_str     0x00005fec       0x35 c:/_ndsdev/devkitPro/PAlib/lib\libpa9.a(keyboard.map.o)
                                 0x61 (size before relaxing)
 .debug_str     0x00006021       0x35 c:/_ndsdev/devkitPro/PAlib/lib\libpa9.a(keyboard.pal.o)
                                 0x65 (size before relaxing)
 .debug_str     0x00006056       0x35 c:/_ndsdev/devkitPro/PAlib/lib\libpa9.a(keyboard.raw.o)
                                 0x5e (size before relaxing)
 .debug_str     0x0000608b      0x2c5 c:/_ndsdev/devkitPro/libnds/lib\libnds9.a(background.o)
                                0x66e (size before relaxing)
 .debug_str     0x00006350      0x125 c:/_ndsdev/devkitPro/libnds/lib\libnds9.a(decompress.o)
                                0x213 (size before relaxing)
 .debug_str     0x00006475      0x162 c:/_ndsdev/devkitPro/libnds/lib\libnds9.a(keys.o)
                                0x2da (size before relaxing)
 .debug_str     0x000065d7      0x23c c:/_ndsdev/devkitPro/libnds/lib\libnds9.a(system.o)
                                0x506 (size before relaxing)
 .debug_str     0x00006813       0x70 c:/_ndsdev/devkitPro/libnds/lib\libnds9.a(touch.o)
                                0x1f6 (size before relaxing)
 .debug_str     0x00006883       0xe9 c:/_ndsdev/devkitPro/libnds/lib\libnds9.a(trig.o)
                                0x1d1 (size before relaxing)
 .debug_str     0x0000696c      0x1cc c:/_ndsdev/devkitPro/libnds/lib\libnds9.a(video.o)
                                0xb35 (size before relaxing)
 .debug_str     0x00006b38       0xb3 c:/_ndsdev/devkitPro/libnds/lib\libnds9.a(initSystem.o)
                                0x94f (size before relaxing)
 .debug_str     0x00006beb      0x528 c:/_ndsdev/devkitPro/libnds/lib\libnds9.a(fifosystem.o)
                                0x740 (size before relaxing)
 .debug_str     0x00007113      0x126 c:/_ndsdev/devkitPro/libnds/lib\libnds9.a(interrupts.o)
                                0x379 (size before relaxing)
 .debug_str     0x00007239       0x86 c:/_ndsdev/devkitPro/libnds/lib\libnds9.a(libnds_exit.o)
                                0x296 (size before relaxing)
 .debug_str     0x000072bf       0x89 c:/_ndsdev/devkitPro/libnds/lib\libnds9.a(syscalls.o)
                                0x1bb (size before relaxing)

.debug_loc      0x00000000     0xf35f
 *(.debug_loc)
 .debug_loc     0x00000000      0x12c crystal.o
 .debug_loc     0x0000012c      0x193 crystal_Ball.o
 .debug_loc     0x000002bf      0x6e3 cs_api.o
 .debug_loc     0x000009a2      0x6e2 game.o
 .debug_loc     0x00001084      0x10b hero.o
 .debug_loc     0x0000118f       0x7e main.o
 .debug_loc     0x0000120d       0x6b menu.o
 .debug_loc     0x00001278      0x1fe monster.o
 .debug_loc     0x00001476      0x120 princess.o
 .debug_loc     0x00001596      0x1d4 water.o
 .debug_loc     0x0000176a      0x2aa croutine.o
 .debug_loc     0x00001a14       0xa5 heap.o
 .debug_loc     0x00001ab9       0x88 list.o
 .debug_loc     0x00001b41      0x19b port.o
 .debug_loc     0x00001cdc       0x60 portISR.o
 .debug_loc     0x00001d3c      0x80e queue.o
 .debug_loc     0x0000254a      0xea4 tasks.o
 .debug_loc     0x000033ee      0x4fb virtual_io.o
 .debug_loc     0x000038e9       0xa0 c:/_ndsdev/devkitPro/PAlib/lib\libpa9.a(PA.o)
 .debug_loc     0x00003989      0x57d c:/_ndsdev/devkitPro/PAlib/lib\libpa9.a(PA_BgEasy.o)
 .debug_loc     0x00003f06     0x1617 c:/_ndsdev/devkitPro/PAlib/lib\libpa9.a(PA_BgLargeMap.o)
 .debug_loc     0x0000551d      0x88e c:/_ndsdev/devkitPro/PAlib/lib\libpa9.a(PA_BgTiles.o)
 .debug_loc     0x00005dab       0xe2 c:/_ndsdev/devkitPro/PAlib/lib\libpa9.a(PA_Error.o)
 .debug_loc     0x00005e8d      0x17d c:/_ndsdev/devkitPro/PAlib/lib\libpa9.a(PA_Inits.o)
 .debug_loc     0x0000600a       0x68 c:/_ndsdev/devkitPro/PAlib/lib\libpa9.a(PA_Interrupt.o)
 .debug_loc     0x00006072       0xb3 c:/_ndsdev/devkitPro/PAlib/lib\libpa9.a(PA_Keys.o)
 .debug_loc     0x00006125      0x2f0 c:/_ndsdev/devkitPro/PAlib/lib\libpa9.a(PA_Math.o)
 .debug_loc     0x00006415      0x922 c:/_ndsdev/devkitPro/PAlib/lib\libpa9.a(PA_NewBg.o)
 .debug_loc     0x00006d37      0x3cd c:/_ndsdev/devkitPro/PAlib/lib\libpa9.a(PA_Palette.o)
 .debug_loc     0x00007104       0xa1 c:/_ndsdev/devkitPro/PAlib/lib\libpa9.a(PA_RTC.o)
 .debug_loc     0x000071a5      0x896 c:/_ndsdev/devkitPro/PAlib/lib\libpa9.a(PA_Reco.o)
 .debug_loc     0x00007a3b      0x87a c:/_ndsdev/devkitPro/PAlib/lib\libpa9.a(PA_Sprite.o)
 .debug_loc     0x000082b5      0x346 c:/_ndsdev/devkitPro/PAlib/lib\libpa9.a(PA_SpriteAnim.o)
 .debug_loc     0x000085fb      0x150 c:/_ndsdev/devkitPro/PAlib/lib\libpa9.a(PA_Stuff.o)
 .debug_loc     0x0000874b      0xaea c:/_ndsdev/devkitPro/PAlib/lib\libpa9.a(PA_Text.o)
 .debug_loc     0x00009235     0x1c67 c:/_ndsdev/devkitPro/PAlib/lib\libpa9.a(PA_Text8bit.o)
 .debug_loc     0x0000ae9c      0x739 c:/_ndsdev/devkitPro/PAlib/lib\libpa9.a(PA_TextBits.o)
 .debug_loc     0x0000b5d5      0x7c6 c:/_ndsdev/devkitPro/PAlib/lib\libpa9.a(PA_16c.o)
 .debug_loc     0x0000bd9b      0x223 c:/_ndsdev/devkitPro/PAlib/lib\libpa9.a(PA_BgRot.o)
 .debug_loc     0x0000bfbe      0x3e6 c:/_ndsdev/devkitPro/PAlib/lib\libpa9.a(PA_Draw.o)
 .debug_loc     0x0000c3a4       0x7d c:/_ndsdev/devkitPro/PAlib/lib\libpa9.a(PA_Fifo.o)
 .debug_loc     0x0000c421      0x5f3 c:/_ndsdev/devkitPro/PAlib/lib\libpa9.a(PA_Keyboard.o)
 .debug_loc     0x0000ca14      0x2fe c:/_ndsdev/devkitPro/PAlib/lib\libpa9.a(PA_PaletteEx.o)
 .debug_loc     0x0000cd12      0x379 c:/_ndsdev/devkitPro/libnds/lib\libnds9.a(background.o)
 .debug_loc     0x0000d08b      0x1f7 c:/_ndsdev/devkitPro/libnds/lib\libnds9.a(decompress.o)
 .debug_loc     0x0000d282       0x20 c:/_ndsdev/devkitPro/libnds/lib\libnds9.a(keys.o)
 .debug_loc     0x0000d2a2      0x1ba c:/_ndsdev/devkitPro/libnds/lib\libnds9.a(system.o)
 .debug_loc     0x0000d45c      0x115 c:/_ndsdev/devkitPro/libnds/lib\libnds9.a(touch.o)
 .debug_loc     0x0000d571      0x6d3 c:/_ndsdev/devkitPro/libnds/lib\libnds9.a(trig.o)
 .debug_loc     0x0000dc44      0x1ed c:/_ndsdev/devkitPro/libnds/lib\libnds9.a(video.o)
 .debug_loc     0x0000de31       0x64 c:/_ndsdev/devkitPro/libnds/lib\libnds9.a(initSystem.o)
 .debug_loc     0x0000de95     0x11b6 c:/_ndsdev/devkitPro/libnds/lib\libnds9.a(fifosystem.o)
 .debug_loc     0x0000f04b      0x220 c:/_ndsdev/devkitPro/libnds/lib\libnds9.a(interrupts.o)
 .debug_loc     0x0000f26b       0x5c c:/_ndsdev/devkitPro/libnds/lib\libnds9.a(libnds_exit.o)
 .debug_loc     0x0000f2c7       0x98 c:/_ndsdev/devkitPro/libnds/lib\libnds9.a(syscalls.o)

.debug_macinfo
 *(.debug_macinfo)

.debug_weaknames
 *(.debug_weaknames)

.debug_funcnames
 *(.debug_funcnames)

.debug_typenames
 *(.debug_typenames)

.debug_varnames
 *(.debug_varnames)

.stack          0x00080000        0x0
                0x00080000                _stack = .
 *(.stack)
LOAD c:/_ndsdev/devkitpro/devkitarm/bin/../lib/gcc/arm-eabi/4.6.1/../../../../arm-eabi/lib/thumb/ds_arm9_crt0.o
LOAD c:/_ndsdev/devkitpro/devkitarm/bin/../lib/gcc/arm-eabi/4.6.1/thumb/crti.o
LOAD c:/_ndsdev/devkitpro/devkitarm/bin/../lib/gcc/arm-eabi/4.6.1/thumb/crtbegin.o
LOAD Town_Map.o
LOAD Town_Pal.o
LOAD Town_Tiles.o
LOAD bg_main_down_Map.o
LOAD bg_main_down_Pal.o
LOAD bg_main_down_Tiles.o
LOAD bg_main_up_Map.o
LOAD bg_main_up_Pal.o
LOAD bg_main_up_Tiles.o
LOAD bg_menu_Map.o
LOAD bg_menu_Pal.o
LOAD bg_menu_Tiles.o
LOAD bg_stage1_init_Map.o
LOAD bg_stage1_init_Pal.o
LOAD bg_stage1_init_Tiles.o
LOAD bg_stage2_init_Map.o
LOAD bg_stage2_init_Pal.o
LOAD bg_stage2_init_Tiles.o
LOAD bg_stage3_init_Map.o
LOAD bg_stage3_init_Pal.o
LOAD bg_stage3_init_Tiles.o
LOAD gameover_Map.o
LOAD gameover_Pal.o
LOAD gameover_Tiles.o
LOAD hpminus_Pal.o
LOAD hpminus_Sprite.o
LOAD monster_Pal.o
LOAD monster_Sprite.o
LOAD princess_Pal.o
LOAD princess_Sprite.o
LOAD som_Pal.o
LOAD som_Sprite.o
LOAD sprite1_Pal.o
LOAD sprite1_Sprite.o
LOAD stage1_Map.o
LOAD stage1_Pal.o
LOAD stage1_Tiles.o
LOAD stage2_Map.o
LOAD stage2_Pal.o
LOAD stage2_Tiles.o
LOAD water_Pal.o
LOAD water_Sprite.o
LOAD soundbank_bin.o
LOAD down.o
LOAD up.o
LOAD crystal.o
LOAD crystal_Ball.o
LOAD cs_api.o
LOAD game.o
LOAD hero.o
LOAD main.o
LOAD menu.o
LOAD monster.o
LOAD princess.o
LOAD water.o
LOAD croutine.o
LOAD heap.o
LOAD list.o
LOAD port.o
LOAD portISR.o
LOAD queue.o
LOAD tasks.o
LOAD virtual_io.o
LOAD Town.o
LOAD bg_main_down.o
LOAD bg_main_up.o
LOAD bg_menu.o
LOAD bg_stage1_init.o
LOAD bg_stage2_init.o
LOAD bg_stage3_init.o
LOAD gameover.o
LOAD stage1.o
LOAD stage2.o
LOAD assemfunc.o
LOAD c:/_ndsdev/devkitPro/PAlib/lib\libpa9.a
LOAD c:/_ndsdev/devkitPro/libnds/lib\libfilesystem.a
LOAD c:/_ndsdev/devkitPro/libnds/lib\libfat.a
LOAD c:/_ndsdev/devkitPro/libnds/lib\libnds9.a
LOAD c:/_ndsdev/devkitPro/libnds/lib\libdswifi9.a
LOAD c:/_ndsdev/devkitPro/libnds/lib\libmm9.a
LOAD c:/_ndsdev/devkitpro/devkitarm/bin/../lib/gcc/arm-eabi/4.6.1/../../../../arm-eabi/lib/thumb\libstdc++.a
LOAD c:/_ndsdev/devkitpro/devkitarm/bin/../lib/gcc/arm-eabi/4.6.1/../../../../arm-eabi/lib/thumb\libm.a
START GROUP
LOAD c:/_ndsdev/devkitpro/devkitarm/bin/../lib/gcc/arm-eabi/4.6.1/thumb\libgcc.a
LOAD c:/_ndsdev/devkitpro/devkitarm/bin/../lib/gcc/arm-eabi/4.6.1/../../../../arm-eabi/lib/thumb\libg.a
LOAD c:/_ndsdev/devkitpro/devkitarm/bin/../lib/gcc/arm-eabi/4.6.1/../../../../arm-eabi/lib/thumb\libc.a
LOAD c:/_ndsdev/devkitpro/devkitarm/bin/../lib/gcc/arm-eabi/4.6.1/../../../../arm-eabi/lib/thumb\libsysbase.a
END GROUP
LOAD c:/_ndsdev/devkitpro/devkitarm/bin/../lib/gcc/arm-eabi/4.6.1/thumb/crtend.o
LOAD c:/_ndsdev/devkitpro/devkitarm/bin/../lib/gcc/arm-eabi/4.6.1/thumb/crtn.o
OUTPUT(d:/workspace/_ndsdev/_test/PARTOS_CppProjectwithMaxmod_CrystalStoryPRO/PARTOS_CppProjectwithMaxmod_CrystalStoryPRO.elf elf32-littlearm)

.debug_ranges   0x00000000     0x32e8
 .debug_ranges  0x00000000       0x18 crystal.o
 .debug_ranges  0x00000018       0x18 crystal_Ball.o
 .debug_ranges  0x00000030      0x3b0 cs_api.o
 .debug_ranges  0x000003e0      0x250 game.o
 .debug_ranges  0x00000630       0x18 main.o
 .debug_ranges  0x00000648       0x30 menu.o
 .debug_ranges  0x00000678       0x48 monster.o
 .debug_ranges  0x000006c0       0x18 princess.o
 .debug_ranges  0x000006d8       0x48 water.o
 .debug_ranges  0x00000720       0x88 croutine.o
 .debug_ranges  0x000007a8      0x210 tasks.o
 .debug_ranges  0x000009b8      0x100 virtual_io.o
 .debug_ranges  0x00000ab8      0x108 c:/_ndsdev/devkitPro/PAlib/lib\libpa9.a(PA_BgEasy.o)
 .debug_ranges  0x00000bc0      0x750 c:/_ndsdev/devkitPro/PAlib/lib\libpa9.a(PA_BgLargeMap.o)
 .debug_ranges  0x00001310      0x100 c:/_ndsdev/devkitPro/PAlib/lib\libpa9.a(PA_BgTiles.o)
 .debug_ranges  0x00001410       0xd8 c:/_ndsdev/devkitPro/PAlib/lib\libpa9.a(PA_Inits.o)
 .debug_ranges  0x000014e8      0x120 c:/_ndsdev/devkitPro/PAlib/lib\libpa9.a(PA_Math.o)
 .debug_ranges  0x00001608      0x250 c:/_ndsdev/devkitPro/PAlib/lib\libpa9.a(PA_NewBg.o)
 .debug_ranges  0x00001858       0xd0 c:/_ndsdev/devkitPro/PAlib/lib\libpa9.a(PA_Palette.o)
 .debug_ranges  0x00001928       0xc0 c:/_ndsdev/devkitPro/PAlib/lib\libpa9.a(PA_Reco.o)
 .debug_ranges  0x000019e8      0x148 c:/_ndsdev/devkitPro/PAlib/lib\libpa9.a(PA_Sprite.o)
 .debug_ranges  0x00001b30      0x140 c:/_ndsdev/devkitPro/PAlib/lib\libpa9.a(PA_SpriteAnim.o)
 .debug_ranges  0x00001c70       0x48 c:/_ndsdev/devkitPro/PAlib/lib\libpa9.a(PA_Text.o)
 .debug_ranges  0x00001cb8      0xce0 c:/_ndsdev/devkitPro/PAlib/lib\libpa9.a(PA_Text8bit.o)
 .debug_ranges  0x00002998       0x28 c:/_ndsdev/devkitPro/PAlib/lib\libpa9.a(PA_TextBits.o)
 .debug_ranges  0x000029c0       0x58 c:/_ndsdev/devkitPro/PAlib/lib\libpa9.a(PA_16c.o)
 .debug_ranges  0x00002a18       0x20 c:/_ndsdev/devkitPro/PAlib/lib\libpa9.a(PA_BgRot.o)
 .debug_ranges  0x00002a38       0x28 c:/_ndsdev/devkitPro/PAlib/lib\libpa9.a(PA_Draw.o)
 .debug_ranges  0x00002a60      0x168 c:/_ndsdev/devkitPro/PAlib/lib\libpa9.a(PA_Keyboard.o)
 .debug_ranges  0x00002bc8       0x78 c:/_ndsdev/devkitPro/PAlib/lib\libpa9.a(PA_PaletteEx.o)
 .debug_ranges  0x00002c40       0x88 c:/_ndsdev/devkitPro/libnds/lib\libnds9.a(background.o)
 .debug_ranges  0x00002cc8       0x18 c:/_ndsdev/devkitPro/libnds/lib\libnds9.a(touch.o)
 .debug_ranges  0x00002ce0       0x80 c:/_ndsdev/devkitPro/libnds/lib\libnds9.a(trig.o)
 .debug_ranges  0x00002d60       0x78 c:/_ndsdev/devkitPro/libnds/lib\libnds9.a(video.o)
 .debug_ranges  0x00002dd8      0x4b0 c:/_ndsdev/devkitPro/libnds/lib\libnds9.a(fifosystem.o)
 .debug_ranges  0x00003288       0x60 c:/_ndsdev/devkitPro/libnds/lib\libnds9.a(interrupts.o)

.debug_pubtypes
                0x00000000     0x51cb
 .debug_pubtypes
                0x00000000      0x382 c:/_ndsdev/devkitPro/PAlib/lib\libpa9.a(PA.o)
 .debug_pubtypes
                0x00000382      0x311 c:/_ndsdev/devkitPro/PAlib/lib\libpa9.a(PA_BgEasy.o)
 .debug_pubtypes
                0x00000693      0x311 c:/_ndsdev/devkitPro/PAlib/lib\libpa9.a(PA_BgLargeMap.o)
 .debug_pubtypes
                0x000009a4      0x33f c:/_ndsdev/devkitPro/PAlib/lib\libpa9.a(PA_BgTiles.o)
 .debug_pubtypes
                0x00000ce3      0x308 c:/_ndsdev/devkitPro/PAlib/lib\libpa9.a(PA_Error.o)
 .debug_pubtypes
                0x00000feb      0x343 c:/_ndsdev/devkitPro/PAlib/lib\libpa9.a(PA_Inits.o)
 .debug_pubtypes
                0x0000132e      0x327 c:/_ndsdev/devkitPro/PAlib/lib\libpa9.a(PA_Interrupt.o)
 .debug_pubtypes
                0x00001655      0x350 c:/_ndsdev/devkitPro/PAlib/lib\libpa9.a(PA_Keys.o)
 .debug_pubtypes
                0x000019a5      0x331 c:/_ndsdev/devkitPro/PAlib/lib\libpa9.a(PA_Math.o)
 .debug_pubtypes
                0x00001cd6      0x341 c:/_ndsdev/devkitPro/PAlib/lib\libpa9.a(PA_NewBg.o)
 .debug_pubtypes
                0x00002017      0x365 c:/_ndsdev/devkitPro/PAlib/lib\libpa9.a(PA_Palette.o)
 .debug_pubtypes
                0x0000237c      0x349 c:/_ndsdev/devkitPro/PAlib/lib\libpa9.a(PA_RTC.o)
 .debug_pubtypes
                0x000026c5      0x341 c:/_ndsdev/devkitPro/PAlib/lib\libpa9.a(PA_Reco.o)
 .debug_pubtypes
                0x00002a06      0x33d c:/_ndsdev/devkitPro/PAlib/lib\libpa9.a(PA_Sprite.o)
 .debug_pubtypes
                0x00002d43      0x31b c:/_ndsdev/devkitPro/PAlib/lib\libpa9.a(PA_SpriteAnim.o)
 .debug_pubtypes
                0x0000305e      0x3bd c:/_ndsdev/devkitPro/PAlib/lib\libpa9.a(PA_Stuff.o)
 .debug_pubtypes
                0x0000341b      0x359 c:/_ndsdev/devkitPro/PAlib/lib\libpa9.a(PA_Text.o)
 .debug_pubtypes
                0x00003774      0x323 c:/_ndsdev/devkitPro/PAlib/lib\libpa9.a(PA_Text8bit.o)
 .debug_pubtypes
                0x00003a97      0x316 c:/_ndsdev/devkitPro/PAlib/lib\libpa9.a(PA_TextBits.o)
 .debug_pubtypes
                0x00003dad       0x2d c:/_ndsdev/devkitPro/PAlib/lib\libpa9.a(PA_TiledFont.o)
 .debug_pubtypes
                0x00003dda       0x2d c:/_ndsdev/devkitPro/PAlib/lib\libpa9.a(PA_BmpFont0.o)
 .debug_pubtypes
                0x00003e07       0x2d c:/_ndsdev/devkitPro/PAlib/lib\libpa9.a(PA_BmpFont1.o)
 .debug_pubtypes
                0x00003e34       0x2d c:/_ndsdev/devkitPro/PAlib/lib\libpa9.a(PA_BmpFont2.o)
 .debug_pubtypes
                0x00003e61       0x2d c:/_ndsdev/devkitPro/PAlib/lib\libpa9.a(PA_BmpFont3.o)
 .debug_pubtypes
                0x00003e8e       0x2d c:/_ndsdev/devkitPro/PAlib/lib\libpa9.a(PA_BmpFont4.o)
 .debug_pubtypes
                0x00003ebb      0x32b c:/_ndsdev/devkitPro/PAlib/lib\libpa9.a(PA_16c.o)
 .debug_pubtypes
                0x000041e6      0x314 c:/_ndsdev/devkitPro/PAlib/lib\libpa9.a(PA_BgRot.o)
 .debug_pubtypes
                0x000044fa      0x327 c:/_ndsdev/devkitPro/PAlib/lib\libpa9.a(PA_Draw.o)
 .debug_pubtypes
                0x00004821      0x32d c:/_ndsdev/devkitPro/PAlib/lib\libpa9.a(PA_Fifo.o)
 .debug_pubtypes
                0x00004b4e      0x31d c:/_ndsdev/devkitPro/PAlib/lib\libpa9.a(PA_Keyboard.o)
 .debug_pubtypes
                0x00004e6b      0x360 c:/_ndsdev/devkitPro/PAlib/lib\libpa9.a(PA_PaletteEx.o)
