Archive member included because of file (symbol)

/home/djjeon/projects/nds-ide/devkitARM/libnds/lib/libnds9.a(console.o)
                              build/obj/nds_simple.c.o (consoleDemoInit)
/home/djjeon/projects/nds-ide/devkitARM/libnds/lib/libnds9.a(touch.o)
                              build/obj/nds_simple.c.o (touchRead)
/home/djjeon/projects/nds-ide/devkitARM/libnds/lib/libnds9.a(initSystem.o)
                              /home/djjeon/projects/nds-ide/devkitARM/bin/../lib/gcc/arm-none-eabi/4.7.1/../../../../arm-none-eabi/lib/ds_arm9_crt0.o (initSystem)
/home/djjeon/projects/nds-ide/devkitARM/libnds/lib/libnds9.a(fifosystem.o)
                              /home/djjeon/projects/nds-ide/devkitARM/libnds/lib/libnds9.a(initSystem.o) (fifoSendValue32)
/home/djjeon/projects/nds-ide/devkitARM/libnds/lib/libnds9.a(interrupts.o)
                              build/obj/nds_simple.c.o (irqSet)
/home/djjeon/projects/nds-ide/devkitARM/libnds/lib/libnds9.a(libnds_exit.arm.o)
                              /home/djjeon/projects/nds-ide/devkitARM/bin/../lib/gcc/arm-none-eabi/4.7.1/../../../../arm-none-eabi/lib/ds_arm9_crt0.o (__libnds_exit)
/home/djjeon/projects/nds-ide/devkitARM/libnds/lib/libnds9.a(mpu_setup.o)
                              /home/djjeon/projects/nds-ide/devkitARM/bin/../lib/gcc/arm-none-eabi/4.7.1/../../../../arm-none-eabi/lib/ds_arm9_crt0.o (__libnds_mpu_setup)
/home/djjeon/projects/nds-ide/devkitARM/libnds/lib/libnds9.a(biosCalls.o)
                              /home/djjeon/projects/nds-ide/devkitARM/libnds/lib/libnds9.a(fifosystem.o) (swiIntrWait)
/home/djjeon/projects/nds-ide/devkitARM/libnds/lib/libnds9.a(debugprint.o)
                              /home/djjeon/projects/nds-ide/devkitARM/libnds/lib/libnds9.a(console.o) (nocashWrite)
/home/djjeon/projects/nds-ide/devkitARM/libnds/lib/libnds9.a(interruptDispatcher.o)
                              /home/djjeon/projects/nds-ide/devkitARM/libnds/lib/libnds9.a(interrupts.o) (IntrMain)
/home/djjeon/projects/nds-ide/devkitARM/libnds/lib/libnds9.a(swiSoftReset.o)
                              /home/djjeon/projects/nds-ide/devkitARM/libnds/lib/libnds9.a(fifosystem.o) (swiSoftReset)
/home/djjeon/projects/nds-ide/devkitARM/libnds/lib/libnds9.a(default_font.bin.o)
                              /home/djjeon/projects/nds-ide/devkitARM/libnds/lib/libnds9.a(console.o) (default_font_bin)
/home/djjeon/projects/nds-ide/devkitARM/libnds/lib/libnds9.a(background.o)
                              /home/djjeon/projects/nds-ide/devkitARM/libnds/lib/libnds9.a(console.o) (bgState)
/home/djjeon/projects/nds-ide/devkitARM/libnds/lib/libnds9.a(system.o)
                              /home/djjeon/projects/nds-ide/devkitARM/libnds/lib/libnds9.a(initSystem.o) (systemMsgHandler)
/home/djjeon/projects/nds-ide/devkitARM/libnds/lib/libnds9.a(trig.o)
                              /home/djjeon/projects/nds-ide/devkitARM/libnds/lib/libnds9.a(background.o) (sinLerp)
/home/djjeon/projects/nds-ide/devkitARM/libnds/lib/libnds9.a(video.o)
                              /home/djjeon/projects/nds-ide/devkitARM/libnds/lib/libnds9.a(initSystem.o) (vramDefault)
/home/djjeon/projects/nds-ide/devkitARM/bin/../lib/gcc/arm-none-eabi/4.7.1/libgcc.a(_divsi3.o)
                              /home/djjeon/projects/nds-ide/devkitARM/libnds/lib/libnds9.a(console.o) (__aeabi_idivmod)
/home/djjeon/projects/nds-ide/devkitARM/bin/../lib/gcc/arm-none-eabi/4.7.1/libgcc.a(_dvmd_tls.o)
                              /home/djjeon/projects/nds-ide/devkitARM/bin/../lib/gcc/arm-none-eabi/4.7.1/libgcc.a(_divsi3.o) (__aeabi_idiv0)
/home/djjeon/projects/nds-ide/devkitARM/bin/../lib/gcc/arm-none-eabi/4.7.1/../../../../arm-none-eabi/lib/libg.a(lib_a-bsearch.o)
                              /home/djjeon/projects/nds-ide/devkitARM/libnds/lib/libnds9.a(trig.o) (bsearch)
/home/djjeon/projects/nds-ide/devkitARM/bin/../lib/gcc/arm-none-eabi/4.7.1/../../../../arm-none-eabi/lib/libg.a(lib_a-impure.o)
                              /home/djjeon/projects/nds-ide/devkitARM/libnds/lib/libnds9.a(console.o) (_impure_ptr)
/home/djjeon/projects/nds-ide/devkitARM/bin/../lib/gcc/arm-none-eabi/4.7.1/../../../../arm-none-eabi/lib/libg.a(lib_a-init.o)
                              /home/djjeon/projects/nds-ide/devkitARM/bin/../lib/gcc/arm-none-eabi/4.7.1/../../../../arm-none-eabi/lib/ds_arm9_crt0.o (__libc_init_array)
/home/djjeon/projects/nds-ide/devkitARM/bin/../lib/gcc/arm-none-eabi/4.7.1/../../../../arm-none-eabi/lib/libg.a(lib_a-iprintf.o)
                              build/obj/nds_simple.c.o (iprintf)
/home/djjeon/projects/nds-ide/devkitARM/bin/../lib/gcc/arm-none-eabi/4.7.1/../../../../arm-none-eabi/lib/libg.a(lib_a-memcpy-stub.o)
                              /home/djjeon/projects/nds-ide/devkitARM/libnds/lib/libnds9.a(console.o) (memcpy)
/home/djjeon/projects/nds-ide/devkitARM/bin/../lib/gcc/arm-none-eabi/4.7.1/../../../../arm-none-eabi/lib/libg.a(lib_a-setvbuf.o)
                              /home/djjeon/projects/nds-ide/devkitARM/libnds/lib/libnds9.a(console.o) (setvbuf)
/home/djjeon/projects/nds-ide/devkitARM/bin/../lib/gcc/arm-none-eabi/4.7.1/../../../../arm-none-eabi/lib/libg.a(lib_a-siscanf.o)
                              /home/djjeon/projects/nds-ide/devkitARM/libnds/lib/libnds9.a(console.o) (siscanf)
/home/djjeon/projects/nds-ide/devkitARM/bin/../lib/gcc/arm-none-eabi/4.7.1/../../../../arm-none-eabi/lib/libg.a(lib_a-stdio.o)
                              /home/djjeon/projects/nds-ide/devkitARM/bin/../lib/gcc/arm-none-eabi/4.7.1/../../../../arm-none-eabi/lib/libg.a(lib_a-siscanf.o) (__seofread)
/home/djjeon/projects/nds-ide/devkitARM/bin/../lib/gcc/arm-none-eabi/4.7.1/../../../../arm-none-eabi/lib/libg.a(lib_a-strlen.o)
                              /home/djjeon/projects/nds-ide/devkitARM/bin/../lib/gcc/arm-none-eabi/4.7.1/../../../../arm-none-eabi/lib/libg.a(lib_a-siscanf.o) (strlen)
/home/djjeon/projects/nds-ide/devkitARM/bin/../lib/gcc/arm-none-eabi/4.7.1/../../../../arm-none-eabi/lib/libg.a(lib_a-svfiscanf.o)
                              /home/djjeon/projects/nds-ide/devkitARM/bin/../lib/gcc/arm-none-eabi/4.7.1/../../../../arm-none-eabi/lib/libg.a(lib_a-siscanf.o) (__ssvfiscanf_r)
/home/djjeon/projects/nds-ide/devkitARM/bin/../lib/gcc/arm-none-eabi/4.7.1/../../../../arm-none-eabi/lib/libg.a(lib_a-ungetc.o)
                              /home/djjeon/projects/nds-ide/devkitARM/bin/../lib/gcc/arm-none-eabi/4.7.1/../../../../arm-none-eabi/lib/libg.a(lib_a-svfiscanf.o) (__submore)
/home/djjeon/projects/nds-ide/devkitARM/bin/../lib/gcc/arm-none-eabi/4.7.1/../../../../arm-none-eabi/lib/libg.a(lib_a-vfiprintf.o)
                              /home/djjeon/projects/nds-ide/devkitARM/bin/../lib/gcc/arm-none-eabi/4.7.1/../../../../arm-none-eabi/lib/libg.a(lib_a-iprintf.o) (_vfiprintf_r)
/home/djjeon/projects/nds-ide/devkitARM/bin/../lib/gcc/arm-none-eabi/4.7.1/../../../../arm-none-eabi/lib/libg.a(lib_a-wcrtomb.o)
                              /home/djjeon/projects/nds-ide/devkitARM/bin/../lib/gcc/arm-none-eabi/4.7.1/../../../../arm-none-eabi/lib/libg.a(lib_a-vfiprintf.o) (_wcrtomb_r)
/home/djjeon/projects/nds-ide/devkitARM/bin/../lib/gcc/arm-none-eabi/4.7.1/../../../../arm-none-eabi/lib/libg.a(lib_a-wcsrtombs.o)
                              /home/djjeon/projects/nds-ide/devkitARM/bin/../lib/gcc/arm-none-eabi/4.7.1/../../../../arm-none-eabi/lib/libg.a(lib_a-vfiprintf.o) (_wcsrtombs_r)
/home/djjeon/projects/nds-ide/devkitARM/bin/../lib/gcc/arm-none-eabi/4.7.1/../../../../arm-none-eabi/lib/libg.a(lib_a-wctomb_r.o)
                              /home/djjeon/projects/nds-ide/devkitARM/bin/../lib/gcc/arm-none-eabi/4.7.1/../../../../arm-none-eabi/lib/libg.a(lib_a-wcrtomb.o) (__wctomb)
/home/djjeon/projects/nds-ide/devkitARM/bin/../lib/gcc/arm-none-eabi/4.7.1/../../../../arm-none-eabi/lib/libg.a(lib_a-wsetup.o)
                              /home/djjeon/projects/nds-ide/devkitARM/bin/../lib/gcc/arm-none-eabi/4.7.1/../../../../arm-none-eabi/lib/libg.a(lib_a-vfiprintf.o) (__swsetup_r)
/home/djjeon/projects/nds-ide/devkitARM/bin/../lib/gcc/arm-none-eabi/4.7.1/../../../../arm-none-eabi/lib/libg.a(lib_a-ctype_.o)
                              /home/djjeon/projects/nds-ide/devkitARM/bin/../lib/gcc/arm-none-eabi/4.7.1/../../../../arm-none-eabi/lib/libg.a(lib_a-svfiscanf.o) (__ctype_ptr__)
/home/djjeon/projects/nds-ide/devkitARM/bin/../lib/gcc/arm-none-eabi/4.7.1/../../../../arm-none-eabi/lib/libg.a(lib_a-fflush.o)
                              /home/djjeon/projects/nds-ide/devkitARM/bin/../lib/gcc/arm-none-eabi/4.7.1/../../../../arm-none-eabi/lib/libg.a(lib_a-setvbuf.o) (_fflush_r)
/home/djjeon/projects/nds-ide/devkitARM/bin/../lib/gcc/arm-none-eabi/4.7.1/../../../../arm-none-eabi/lib/libg.a(lib_a-findfp.o)
                              /home/djjeon/projects/nds-ide/devkitARM/bin/../lib/gcc/arm-none-eabi/4.7.1/../../../../arm-none-eabi/lib/libg.a(lib_a-setvbuf.o) (_cleanup_r)
/home/djjeon/projects/nds-ide/devkitARM/bin/../lib/gcc/arm-none-eabi/4.7.1/../../../../arm-none-eabi/lib/libg.a(lib_a-fputwc.o)
                              /home/djjeon/projects/nds-ide/devkitARM/bin/../lib/gcc/arm-none-eabi/4.7.1/../../../../arm-none-eabi/lib/libg.a(lib_a-vfiprintf.o) (_fputwc_r)
/home/djjeon/projects/nds-ide/devkitARM/bin/../lib/gcc/arm-none-eabi/4.7.1/../../../../arm-none-eabi/lib/libg.a(lib_a-freer.o)
                              /home/djjeon/projects/nds-ide/devkitARM/bin/../lib/gcc/arm-none-eabi/4.7.1/../../../../arm-none-eabi/lib/libg.a(lib_a-setvbuf.o) (_free_r)
/home/djjeon/projects/nds-ide/devkitARM/bin/../lib/gcc/arm-none-eabi/4.7.1/../../../../arm-none-eabi/lib/libg.a(lib_a-fvwrite.o)
                              /home/djjeon/projects/nds-ide/devkitARM/bin/../lib/gcc/arm-none-eabi/4.7.1/../../../../arm-none-eabi/lib/libg.a(lib_a-vfiprintf.o) (__sfvwrite_r)
/home/djjeon/projects/nds-ide/devkitARM/bin/../lib/gcc/arm-none-eabi/4.7.1/../../../../arm-none-eabi/lib/libg.a(lib_a-fwalk.o)
                              /home/djjeon/projects/nds-ide/devkitARM/bin/../lib/gcc/arm-none-eabi/4.7.1/../../../../arm-none-eabi/lib/libg.a(lib_a-findfp.o) (_fwalk)
/home/djjeon/projects/nds-ide/devkitARM/bin/../lib/gcc/arm-none-eabi/4.7.1/../../../../arm-none-eabi/lib/libg.a(lib_a-iswspace.o)
                              /home/djjeon/projects/nds-ide/devkitARM/bin/../lib/gcc/arm-none-eabi/4.7.1/../../../../arm-none-eabi/lib/libg.a(lib_a-svfiscanf.o) (iswspace)
/home/djjeon/projects/nds-ide/devkitARM/bin/../lib/gcc/arm-none-eabi/4.7.1/../../../../arm-none-eabi/lib/libg.a(lib_a-jp2uc.o)
                              /home/djjeon/projects/nds-ide/devkitARM/bin/../lib/gcc/arm-none-eabi/4.7.1/../../../../arm-none-eabi/lib/libg.a(lib_a-iswspace.o) (_jp2uc)
/home/djjeon/projects/nds-ide/devkitARM/bin/../lib/gcc/arm-none-eabi/4.7.1/../../../../arm-none-eabi/lib/libg.a(lib_a-locale.o)
                              /home/djjeon/projects/nds-ide/devkitARM/bin/../lib/gcc/arm-none-eabi/4.7.1/../../../../arm-none-eabi/lib/libg.a(lib_a-svfiscanf.o) (__locale_charset)
/home/djjeon/projects/nds-ide/devkitARM/bin/../lib/gcc/arm-none-eabi/4.7.1/../../../../arm-none-eabi/lib/libg.a(lib_a-makebuf.o)
                              /home/djjeon/projects/nds-ide/devkitARM/bin/../lib/gcc/arm-none-eabi/4.7.1/../../../../arm-none-eabi/lib/libg.a(lib_a-wsetup.o) (__smakebuf_r)
/home/djjeon/projects/nds-ide/devkitARM/bin/../lib/gcc/arm-none-eabi/4.7.1/../../../../arm-none-eabi/lib/libg.a(lib_a-malloc.o)
                              /home/djjeon/projects/nds-ide/devkitARM/bin/../lib/gcc/arm-none-eabi/4.7.1/../../../../arm-none-eabi/lib/libg.a(lib_a-setvbuf.o) (malloc)
/home/djjeon/projects/nds-ide/devkitARM/bin/../lib/gcc/arm-none-eabi/4.7.1/../../../../arm-none-eabi/lib/libg.a(lib_a-mallocr.o)
                              /home/djjeon/projects/nds-ide/devkitARM/bin/../lib/gcc/arm-none-eabi/4.7.1/../../../../arm-none-eabi/lib/libg.a(lib_a-ungetc.o) (_malloc_r)
/home/djjeon/projects/nds-ide/devkitARM/bin/../lib/gcc/arm-none-eabi/4.7.1/../../../../arm-none-eabi/lib/libg.a(lib_a-mbrtowc.o)
                              /home/djjeon/projects/nds-ide/devkitARM/bin/../lib/gcc/arm-none-eabi/4.7.1/../../../../arm-none-eabi/lib/libg.a(lib_a-svfiscanf.o) (_mbrtowc_r)
/home/djjeon/projects/nds-ide/devkitARM/bin/../lib/gcc/arm-none-eabi/4.7.1/../../../../arm-none-eabi/lib/libg.a(lib_a-mbtowc_r.o)
                              /home/djjeon/projects/nds-ide/devkitARM/bin/../lib/gcc/arm-none-eabi/4.7.1/../../../../arm-none-eabi/lib/libg.a(lib_a-locale.o) (__utf8_mbtowc)
/home/djjeon/projects/nds-ide/devkitARM/bin/../lib/gcc/arm-none-eabi/4.7.1/../../../../arm-none-eabi/lib/libg.a(lib_a-memchr-stub.o)
                              /home/djjeon/projects/nds-ide/devkitARM/bin/../lib/gcc/arm-none-eabi/4.7.1/../../../../arm-none-eabi/lib/libg.a(lib_a-vfiprintf.o) (memchr)
/home/djjeon/projects/nds-ide/devkitARM/bin/../lib/gcc/arm-none-eabi/4.7.1/../../../../arm-none-eabi/lib/libg.a(lib_a-memmove.o)
                              /home/djjeon/projects/nds-ide/devkitARM/bin/../lib/gcc/arm-none-eabi/4.7.1/../../../../arm-none-eabi/lib/libg.a(lib_a-fvwrite.o) (memmove)
/home/djjeon/projects/nds-ide/devkitARM/bin/../lib/gcc/arm-none-eabi/4.7.1/../../../../arm-none-eabi/lib/libg.a(lib_a-memset.o)
                              /home/djjeon/projects/nds-ide/devkitARM/bin/../lib/gcc/arm-none-eabi/4.7.1/../../../../arm-none-eabi/lib/libg.a(lib_a-svfiscanf.o) (memset)
/home/djjeon/projects/nds-ide/devkitARM/bin/../lib/gcc/arm-none-eabi/4.7.1/../../../../arm-none-eabi/lib/libg.a(lib_a-mlock.o)
                              /home/djjeon/projects/nds-ide/devkitARM/bin/../lib/gcc/arm-none-eabi/4.7.1/../../../../arm-none-eabi/lib/libg.a(lib_a-freer.o) (__malloc_lock)
/home/djjeon/projects/nds-ide/devkitARM/bin/../lib/gcc/arm-none-eabi/4.7.1/../../../../arm-none-eabi/lib/libg.a(lib_a-reallocr.o)
                              /home/djjeon/projects/nds-ide/devkitARM/bin/../lib/gcc/arm-none-eabi/4.7.1/../../../../arm-none-eabi/lib/libg.a(lib_a-ungetc.o) (_realloc_r)
/home/djjeon/projects/nds-ide/devkitARM/bin/../lib/gcc/arm-none-eabi/4.7.1/../../../../arm-none-eabi/lib/libg.a(lib_a-sccl.o)
                              /home/djjeon/projects/nds-ide/devkitARM/bin/../lib/gcc/arm-none-eabi/4.7.1/../../../../arm-none-eabi/lib/libg.a(lib_a-svfiscanf.o) (__sccl)
/home/djjeon/projects/nds-ide/devkitARM/bin/../lib/gcc/arm-none-eabi/4.7.1/../../../../arm-none-eabi/lib/libg.a(lib_a-strcasecmp.o)
                              /home/djjeon/projects/nds-ide/devkitARM/bin/../lib/gcc/arm-none-eabi/4.7.1/../../../../arm-none-eabi/lib/libg.a(lib_a-locale.o) (strcasecmp)
/home/djjeon/projects/nds-ide/devkitARM/bin/../lib/gcc/arm-none-eabi/4.7.1/../../../../arm-none-eabi/lib/libg.a(lib_a-strcat.o)
                              /home/djjeon/projects/nds-ide/devkitARM/bin/../lib/gcc/arm-none-eabi/4.7.1/../../../../arm-none-eabi/lib/libg.a(lib_a-locale.o) (strcat)
/home/djjeon/projects/nds-ide/devkitARM/bin/../lib/gcc/arm-none-eabi/4.7.1/../../../../arm-none-eabi/lib/libg.a(lib_a-strchr.o)
                              /home/djjeon/projects/nds-ide/devkitARM/bin/../lib/gcc/arm-none-eabi/4.7.1/../../../../arm-none-eabi/lib/libg.a(lib_a-locale.o) (strchr)
/home/djjeon/projects/nds-ide/devkitARM/bin/../lib/gcc/arm-none-eabi/4.7.1/../../../../arm-none-eabi/lib/libg.a(lib_a-strcmp.o)
                              /home/djjeon/projects/nds-ide/devkitARM/bin/../lib/gcc/arm-none-eabi/4.7.1/../../../../arm-none-eabi/lib/libg.a(lib_a-jp2uc.o) (strcmp)
/home/djjeon/projects/nds-ide/devkitARM/bin/../lib/gcc/arm-none-eabi/4.7.1/../../../../arm-none-eabi/lib/libg.a(lib_a-strcpy.o)
                              /home/djjeon/projects/nds-ide/devkitARM/bin/../lib/gcc/arm-none-eabi/4.7.1/../../../../arm-none-eabi/lib/libg.a(lib_a-locale.o) (strcpy)
/home/djjeon/projects/nds-ide/devkitARM/bin/../lib/gcc/arm-none-eabi/4.7.1/../../../../arm-none-eabi/lib/libg.a(lib_a-strlcpy.o)
                              /home/djjeon/projects/nds-ide/devkitARM/bin/../lib/gcc/arm-none-eabi/4.7.1/../../../../arm-none-eabi/lib/libg.a(lib_a-locale.o) (strlcpy)
/home/djjeon/projects/nds-ide/devkitARM/bin/../lib/gcc/arm-none-eabi/4.7.1/../../../../arm-none-eabi/lib/libg.a(lib_a-strncasecmp.o)
                              /home/djjeon/projects/nds-ide/devkitARM/bin/../lib/gcc/arm-none-eabi/4.7.1/../../../../arm-none-eabi/lib/libg.a(lib_a-locale.o) (strncasecmp)
/home/djjeon/projects/nds-ide/devkitARM/bin/../lib/gcc/arm-none-eabi/4.7.1/../../../../arm-none-eabi/lib/libg.a(lib_a-strncmp.o)
                              /home/djjeon/projects/nds-ide/devkitARM/bin/../lib/gcc/arm-none-eabi/4.7.1/../../../../arm-none-eabi/lib/libg.a(lib_a-locale.o) (strncmp)
/home/djjeon/projects/nds-ide/devkitARM/bin/../lib/gcc/arm-none-eabi/4.7.1/../../../../arm-none-eabi/lib/libg.a(lib_a-strncpy.o)
                              /home/djjeon/projects/nds-ide/devkitARM/bin/../lib/gcc/arm-none-eabi/4.7.1/../../../../arm-none-eabi/lib/libg.a(lib_a-locale.o) (strncpy)
/home/djjeon/projects/nds-ide/devkitARM/bin/../lib/gcc/arm-none-eabi/4.7.1/../../../../arm-none-eabi/lib/libg.a(lib_a-strtoll_r.o)
                              /home/djjeon/projects/nds-ide/devkitARM/bin/../lib/gcc/arm-none-eabi/4.7.1/../../../../arm-none-eabi/lib/libg.a(lib_a-svfiscanf.o) (_strtoll_r)
/home/djjeon/projects/nds-ide/devkitARM/bin/../lib/gcc/arm-none-eabi/4.7.1/../../../../arm-none-eabi/lib/libg.a(lib_a-strtol.o)
                              /home/djjeon/projects/nds-ide/devkitARM/bin/../lib/gcc/arm-none-eabi/4.7.1/../../../../arm-none-eabi/lib/libg.a(lib_a-svfiscanf.o) (_strtol_r)
/home/djjeon/projects/nds-ide/devkitARM/bin/../lib/gcc/arm-none-eabi/4.7.1/../../../../arm-none-eabi/lib/libg.a(lib_a-strtoull_r.o)
                              /home/djjeon/projects/nds-ide/devkitARM/bin/../lib/gcc/arm-none-eabi/4.7.1/../../../../arm-none-eabi/lib/libg.a(lib_a-svfiscanf.o) (_strtoull_r)
/home/djjeon/projects/nds-ide/devkitARM/bin/../lib/gcc/arm-none-eabi/4.7.1/../../../../arm-none-eabi/lib/libg.a(lib_a-strtoul.o)
                              /home/djjeon/projects/nds-ide/devkitARM/bin/../lib/gcc/arm-none-eabi/4.7.1/../../../../arm-none-eabi/lib/libg.a(lib_a-svfiscanf.o) (_strtoul_r)
/home/djjeon/projects/nds-ide/devkitARM/bin/../lib/gcc/arm-none-eabi/4.7.1/../../../../arm-none-eabi/lib/libg.a(lib_a-wbuf.o)
                              /home/djjeon/projects/nds-ide/devkitARM/bin/../lib/gcc/arm-none-eabi/4.7.1/../../../../arm-none-eabi/lib/libg.a(lib_a-fputwc.o) (__swbuf_r)
/home/djjeon/projects/nds-ide/devkitARM/bin/../lib/gcc/arm-none-eabi/4.7.1/../../../../arm-none-eabi/lib/libg.a(lib_a-wcsnrtombs.o)
                              /home/djjeon/projects/nds-ide/devkitARM/bin/../lib/gcc/arm-none-eabi/4.7.1/../../../../arm-none-eabi/lib/libg.a(lib_a-wcsrtombs.o) (_wcsnrtombs_r)
/home/djjeon/projects/nds-ide/devkitARM/bin/../lib/gcc/arm-none-eabi/4.7.1/../../../../arm-none-eabi/lib/libg.a(lib_a-fclose.o)
                              /home/djjeon/projects/nds-ide/devkitARM/bin/../lib/gcc/arm-none-eabi/4.7.1/../../../../arm-none-eabi/lib/libg.a(lib_a-findfp.o) (fclose)
/home/djjeon/projects/nds-ide/devkitARM/bin/../lib/gcc/arm-none-eabi/4.7.1/../../../../arm-none-eabi/lib/libg.a(lib_a-getenv_r.o)
                              /home/djjeon/projects/nds-ide/devkitARM/bin/../lib/gcc/arm-none-eabi/4.7.1/../../../../arm-none-eabi/lib/libg.a(lib_a-locale.o) (_getenv_r)
/home/djjeon/projects/nds-ide/devkitARM/bin/../lib/gcc/arm-none-eabi/4.7.1/../../../../arm-none-eabi/lib/libg.a(lib_a-environ.o)
                              /home/djjeon/projects/nds-ide/devkitARM/bin/../lib/gcc/arm-none-eabi/4.7.1/../../../../arm-none-eabi/lib/libg.a(lib_a-getenv_r.o) (environ)
/home/djjeon/projects/nds-ide/devkitARM/bin/../lib/gcc/arm-none-eabi/4.7.1/../../../../arm-none-eabi/lib/libg.a(lib_a-envlock.o)
                              /home/djjeon/projects/nds-ide/devkitARM/bin/../lib/gcc/arm-none-eabi/4.7.1/../../../../arm-none-eabi/lib/libg.a(lib_a-getenv_r.o) (__env_lock)
/home/djjeon/projects/nds-ide/devkitARM/bin/../lib/gcc/arm-none-eabi/4.7.1/../../../../arm-none-eabi/lib/libsysbase.a(iosupport.o)
                              /home/djjeon/projects/nds-ide/devkitARM/libnds/lib/libnds9.a(console.o) (devoptab_list)
/home/djjeon/projects/nds-ide/devkitARM/bin/../lib/gcc/arm-none-eabi/4.7.1/../../../../arm-none-eabi/lib/libsysbase.a(close.o)
                              /home/djjeon/projects/nds-ide/devkitARM/bin/../lib/gcc/arm-none-eabi/4.7.1/../../../../arm-none-eabi/lib/libg.a(lib_a-stdio.o) (_close_r)
/home/djjeon/projects/nds-ide/devkitARM/bin/../lib/gcc/arm-none-eabi/4.7.1/../../../../arm-none-eabi/lib/libsysbase.a(fstat.o)
                              /home/djjeon/projects/nds-ide/devkitARM/bin/../lib/gcc/arm-none-eabi/4.7.1/../../../../arm-none-eabi/lib/libg.a(lib_a-makebuf.o) (_fstat_r)
/home/djjeon/projects/nds-ide/devkitARM/bin/../lib/gcc/arm-none-eabi/4.7.1/../../../../arm-none-eabi/lib/libsysbase.a(isatty.o)
                              /home/djjeon/projects/nds-ide/devkitARM/bin/../lib/gcc/arm-none-eabi/4.7.1/../../../../arm-none-eabi/lib/libg.a(lib_a-makebuf.o) (_isatty_r)
/home/djjeon/projects/nds-ide/devkitARM/bin/../lib/gcc/arm-none-eabi/4.7.1/../../../../arm-none-eabi/lib/libsysbase.a(lseek.o)
                              /home/djjeon/projects/nds-ide/devkitARM/bin/../lib/gcc/arm-none-eabi/4.7.1/../../../../arm-none-eabi/lib/libg.a(lib_a-stdio.o) (_lseek_r)
/home/djjeon/projects/nds-ide/devkitARM/bin/../lib/gcc/arm-none-eabi/4.7.1/../../../../arm-none-eabi/lib/libsysbase.a(read.o)
                              /home/djjeon/projects/nds-ide/devkitARM/bin/../lib/gcc/arm-none-eabi/4.7.1/../../../../arm-none-eabi/lib/libg.a(lib_a-stdio.o) (_read_r)
/home/djjeon/projects/nds-ide/devkitARM/bin/../lib/gcc/arm-none-eabi/4.7.1/../../../../arm-none-eabi/lib/libsysbase.a(sbrk.o)
                              /home/djjeon/projects/nds-ide/devkitARM/bin/../lib/gcc/arm-none-eabi/4.7.1/../../../../arm-none-eabi/lib/libg.a(lib_a-freer.o) (_sbrk_r)
/home/djjeon/projects/nds-ide/devkitARM/bin/../lib/gcc/arm-none-eabi/4.7.1/../../../../arm-none-eabi/lib/libsysbase.a(times.o)
                              /home/djjeon/projects/nds-ide/devkitARM/libnds/lib/libnds9.a(initSystem.o) (punixTime)
/home/djjeon/projects/nds-ide/devkitARM/bin/../lib/gcc/arm-none-eabi/4.7.1/../../../../arm-none-eabi/lib/libsysbase.a(write.o)
                              /home/djjeon/projects/nds-ide/devkitARM/bin/../lib/gcc/arm-none-eabi/4.7.1/../../../../arm-none-eabi/lib/libg.a(lib_a-stdio.o) (_write_r)
/home/djjeon/projects/nds-ide/devkitARM/bin/../lib/gcc/arm-none-eabi/4.7.1/../../../../arm-none-eabi/lib/libsysbase.a(malloc_vars.o)
                              /home/djjeon/projects/nds-ide/devkitARM/bin/../lib/gcc/arm-none-eabi/4.7.1/../../../../arm-none-eabi/lib/ds_arm9_crt0.o (fake_heap_start)
/home/djjeon/projects/nds-ide/devkitARM/bin/../lib/gcc/arm-none-eabi/4.7.1/../../../../arm-none-eabi/lib/libsysbase.a(build_argv.o)
                              /home/djjeon/projects/nds-ide/devkitARM/bin/../lib/gcc/arm-none-eabi/4.7.1/../../../../arm-none-eabi/lib/ds_arm9_crt0.o (build_argv)
/home/djjeon/projects/nds-ide/devkitARM/bin/../lib/gcc/arm-none-eabi/4.7.1/../../../../arm-none-eabi/lib/libsysbase.a(syscall_support.o)
                              /home/djjeon/projects/nds-ide/devkitARM/libnds/lib/libnds9.a(initSystem.o) (__syscalls)
/home/djjeon/projects/nds-ide/devkitARM/bin/../lib/gcc/arm-none-eabi/4.7.1/../../../../arm-none-eabi/lib/libsysbase.a(handle_manager.o)
                              /home/djjeon/projects/nds-ide/devkitARM/bin/../lib/gcc/arm-none-eabi/4.7.1/../../../../arm-none-eabi/lib/libsysbase.a(close.o) (__release_handle)
/home/djjeon/projects/nds-ide/devkitARM/bin/../lib/gcc/arm-none-eabi/4.7.1/libgcc.a(_udivsi3.o)
                              /home/djjeon/projects/nds-ide/devkitARM/bin/../lib/gcc/arm-none-eabi/4.7.1/../../../../arm-none-eabi/lib/libg.a(lib_a-svfiscanf.o) (__aeabi_uidiv)
/home/djjeon/projects/nds-ide/devkitARM/bin/../lib/gcc/arm-none-eabi/4.7.1/libgcc.a(_aeabi_uldivmod.o)
                              /home/djjeon/projects/nds-ide/devkitARM/bin/../lib/gcc/arm-none-eabi/4.7.1/../../../../arm-none-eabi/lib/libg.a(lib_a-vfiprintf.o) (__aeabi_uldivmod)
/home/djjeon/projects/nds-ide/devkitARM/bin/../lib/gcc/arm-none-eabi/4.7.1/libgcc.a(bpabi.o)
                              /home/djjeon/projects/nds-ide/devkitARM/bin/../lib/gcc/arm-none-eabi/4.7.1/libgcc.a(_aeabi_uldivmod.o) (__gnu_uldivmod_helper)
/home/djjeon/projects/nds-ide/devkitARM/bin/../lib/gcc/arm-none-eabi/4.7.1/libgcc.a(_divdi3.o)
                              /home/djjeon/projects/nds-ide/devkitARM/bin/../lib/gcc/arm-none-eabi/4.7.1/libgcc.a(bpabi.o) (__divdi3)
/home/djjeon/projects/nds-ide/devkitARM/bin/../lib/gcc/arm-none-eabi/4.7.1/libgcc.a(_udivdi3.o)
                              /home/djjeon/projects/nds-ide/devkitARM/bin/../lib/gcc/arm-none-eabi/4.7.1/libgcc.a(bpabi.o) (__udivdi3)
/home/djjeon/projects/nds-ide/devkitARM/bin/../lib/gcc/arm-none-eabi/4.7.1/libgcc.a(_clzsi2.o)
                              /home/djjeon/projects/nds-ide/devkitARM/bin/../lib/gcc/arm-none-eabi/4.7.1/libgcc.a(_divdi3.o) (__clzsi2)
/home/djjeon/projects/nds-ide/devkitARM/bin/../lib/gcc/arm-none-eabi/4.7.1/../../../../arm-none-eabi/lib/libg.a(lib_a-errno.o)
                              /home/djjeon/projects/nds-ide/devkitARM/bin/../lib/gcc/arm-none-eabi/4.7.1/../../../../arm-none-eabi/lib/libsysbase.a(times.o) (__errno)

Allocating common symbols
Common symbol       size              file

currentCopy         0x5c              /home/djjeon/projects/nds-ide/devkitARM/libnds/lib/libnds9.a(console.o)
fifo_datamsg_data   0x40              /home/djjeon/projects/nds-ide/devkitARM/libnds/lib/libnds9.a(fifosystem.o)
task5_int_context   0x44              build/obj/tpl_app_config.c.o
__dsimode           0x1               /home/djjeon/projects/nds-ide/devkitARM/libnds/lib/libnds9.a(initSystem.o)
bgState             0x140             /home/djjeon/projects/nds-ide/devkitARM/libnds/lib/libnds9.a(background.o)
fifo_buffer         0x800             /home/djjeon/projects/nds-ide/devkitARM/libnds/lib/libnds9.a(fifosystem.o)
idle_task_context   0x44              build/obj/nds_tpl_stubs.c.o
tpl_priority_0_fifo
                    0x1               build/obj/tpl_app_config.c.o
bgIsTextLut         0x8               /home/djjeon/projects/nds-ide/devkitARM/libnds/lib/libnds9.a(background.o)
idle_stack          0xc8              build/obj/nds_tpl_stubs.c.o
task5_stack_zone    0x1f4             build/obj/tpl_app_config.c.o
tpl_priority_2_fifo
                    0x2               build/obj/tpl_app_config.c.o
fifo_value32_func   0x40              /home/djjeon/projects/nds-ide/devkitARM/libnds/lib/libnds9.a(fifosystem.o)
fifo_address_func   0x40              /home/djjeon/projects/nds-ide/devkitARM/libnds/lib/libnds9.a(fifosystem.o)
fifo_value32_data   0x40              /home/djjeon/projects/nds-ide/devkitARM/libnds/lib/libnds9.a(fifosystem.o)
nested_kernel_entrance_counter
                    0x4               build/obj/nds_tpl_stubs.c.o
fifo_value32_queue  0x40              /home/djjeon/projects/nds-ide/devkitARM/libnds/lib/libnds9.a(fifosystem.o)
fifo_data_queue     0x40              /home/djjeon/projects/nds-ide/devkitARM/libnds/lib/libnds9.a(fifosystem.o)
task1_int_context   0x44              build/obj/tpl_app_config.c.o
punixTime           0x4               /home/djjeon/projects/nds-ide/devkitARM/bin/../lib/gcc/arm-none-eabi/4.7.1/../../../../arm-none-eabi/lib/libsysbase.a(times.o)
fifo_address_data   0x40              /home/djjeon/projects/nds-ide/devkitARM/libnds/lib/libnds9.a(fifosystem.o)
new_task            0x1               build/obj/nds_simple.c.o
tpl_priority_1_fifo
                    0x1               build/obj/tpl_app_config.c.o
fifo_datamsg_func   0x40              /home/djjeon/projects/nds-ide/devkitARM/libnds/lib/libnds9.a(fifosystem.o)
fifo_address_queue  0x40              /home/djjeon/projects/nds-ide/devkitARM/libnds/lib/libnds9.a(fifosystem.o)
task1_stack_zone    0x1f4             build/obj/tpl_app_config.c.o

Memory Configuration

Name             Origin             Length             Attributes
rom              0x08000000         0x02000000
ewram            0x02000000         0x003ff000
dtcm             0x0b000000         0x00004000
vectors          0x01000000         0x00000100
itcm             0x01000100         0x00007f00
*default*        0x00000000         0xffffffff

Linker script and memory map

                0x01000000                __vectors_start = ORIGIN (vectors)
                0x01000100                __itcm_start = ORIGIN (itcm)
                0x023ff000                __ewram_end = (ORIGIN (ewram) + 0x3ff000)
                0x023ff000                __eheap_end = (ORIGIN (ewram) + 0x3ff000)
                0x0b000000                __dtcm_start = ORIGIN (dtcm)
                0x0b004000                __dtcm_top = (ORIGIN (dtcm) + 0x4000)
                0x0b003ff8                __irq_flags = (__dtcm_top - 0x8)
                0x0b003ffc                __irq_vector = (__dtcm_top - 0x4)
                0x0b003f00                __sp_svc = (__dtcm_top - 0x100)
                0x0b003e00                __sp_irq = (__sp_svc - 0x100)
                0x0b003d00                __sp_usr = (__sp_irq - 0x100)

.init           0x02000000      0x248
                0x02000000                __text_start = .
 *(.init)
 .init          0x02000000      0x230 /home/djjeon/projects/nds-ide/devkitARM/bin/../lib/gcc/arm-none-eabi/4.7.1/../../../../arm-none-eabi/lib/ds_arm9_crt0.o
                0x02000000                _start
 .init          0x02000230        0xc /home/djjeon/projects/nds-ide/devkitARM/bin/../lib/gcc/arm-none-eabi/4.7.1/crti.o
                0x02000230                _init
 .init          0x0200023c        0xc /home/djjeon/projects/nds-ide/devkitARM/bin/../lib/gcc/arm-none-eabi/4.7.1/crtn.o
                0x02000248                . = ALIGN (0x4)

.plt
 *(.plt)

.text           0x02000250     0xf270
 *(EXCLUDE_FILE(*.itcm*) .text)
 .text          0x02000250        0x0 /home/djjeon/projects/nds-ide/devkitARM/bin/../lib/gcc/arm-none-eabi/4.7.1/../../../../arm-none-eabi/lib/ds_arm9_crt0.o
 .text          0x02000250        0x0 /home/djjeon/projects/nds-ide/devkitARM/bin/../lib/gcc/arm-none-eabi/4.7.1/crti.o
 .text          0x02000250      0x128 /home/djjeon/projects/nds-ide/devkitARM/bin/../lib/gcc/arm-none-eabi/4.7.1/crtbegin.o
 .text          0x02000378       0x94 build/obj/nds_simple.c.o
                0x02000378                vblank
                0x02000388                task1_function
                0x02000404                task5_function
 .text          0x0200040c       0x98 build/obj/tpl_os_alarm_kernel.c.o
                0x0200040c                tpl_raise_alarm
                0x02000418                tpl_get_alarm_base_service
                0x02000434                tpl_get_alarm_service
                0x02000450                tpl_set_rel_alarm_service
                0x0200046c                tpl_set_abs_alarm_service
                0x02000488                tpl_cancel_alarm_service
 .text          0x020004a4      0x10c build/obj/tpl_os_event_kernel.c.o
                0x020004a4                tpl_set_event_service
                0x020004f0                tpl_clear_event_service
                0x02000520                tpl_get_event_service
                0x0200056c                tpl_wait_event_service
 .text          0x020005b0      0x11c build/obj/tpl_os_it_kernel.c.o
                0x020005b0                tpl_get_interrupt_lock_status
                0x020005d0                tpl_reset_interrupt_lock_status
                0x020005e4                tpl_suspend_all_interrupts_service
                0x02000600                tpl_resume_all_interrupts_service
                0x02000628                tpl_disable_all_interrupts_service
                0x02000648                tpl_enable_all_interrupts_service
                0x02000660                tpl_suspend_os_interrupts_service
                0x0200067c                tpl_resume_os_interrupts_service
                0x020006a4                tpl_terminate_isr2_service
                0x020006c8                tpl_null_it
 .text          0x020006cc      0x118 build/obj/tpl_os_rez_kernel.c.o
                0x020006cc                tpl_release_all_resources
                0x020006f8                tpl_get_resource_service
                0x02000770                tpl_release_resource_service
 .text          0x020007e4      0x1d8 build/obj/tpl_os_task_kernel.c.o
                0x020007e4                tpl_activate_task_service
                0x0200082c                tpl_terminate_task_service
                0x02000880                tpl_chain_task_service
                0x020008f0                tpl_schedule_service
                0x0200094c                tpl_get_task_id_service
                0x02000980                tpl_get_task_state_service
 .text          0x020009bc      0x168 build/obj/tpl_os_timeobj_kernel.c.o
                0x020009bc                tpl_enable_counters
                0x020009c8                tpl_insert_time_obj
                0x02000a24                tpl_remove_time_obj
                0x02000a60                tpl_counter_tick
 .text          0x02000b24      0x544 build/obj/tpl_os_kernel.c.o
                0x02000bac                tpl_put_preempted_proc
                0x02000c14                tpl_put_new_proc
                0x02000c7c                tpl_current_os_state
                0x02000ca0                tpl_get_internal_resource
                0x02000cd0                tpl_release_internal_resource
                0x02000cfc                tpl_activate_task
                0x02000d34                tpl_set_event
                0x02000d38                tpl_init_proc
                0x02000d5c                tpl_start_scheduling
                0x02000da8                tpl_schedule_from_waiting
                0x02000e30                tpl_schedule_from_dying
                0x02000ec8                tpl_schedule_from_running
                0x02000f50                tpl_init_os
                0x02000f90                tpl_get_active_application_mode_service
                0x02000fac                tpl_start_os_service
                0x02000ff0                tpl_shutdown_os_service
                0x02001000                tpl_call_terminate_task_service
                0x02001034                tpl_call_terminate_isr2_service
 .text          0x02001068       0x2c build/obj/tpl_os_action.c.o
                0x02001068                tpl_action_callback
                0x02001074                tpl_action_activate_task
                0x02001084                tpl_action_setevent
 .text          0x02001094        0x0 build/obj/tpl_os_error.c.o
 .text          0x02001094       0x38 build/obj/tpl_os.c.o
                0x02001094                GetActiveApplicationMode
                0x0200109c                tpl_start_os
                0x020010a4                ShutdownOS
                0x020010ac                CallTerminateTask
                0x020010b4                CallTerminateISR2
                0x020010bc                StartOS
 .text          0x020010cc       0x28 build/obj/tpl_os_alarm.c.o
                0x020010cc                GetAlarmBase
                0x020010d4                GetAlarm
                0x020010dc                SetRelAlarm
                0x020010e4                SetAbsAlarm
                0x020010ec                CancelAlarm
 .text          0x020010f4       0x28 build/obj/tpl_os_event.c.o
                0x020010f4                SetEvent
                0x02001100                ClearEvent
                0x02001108                GetEvent
                0x02001110                WaitEvent
 .text          0x0200111c       0x30 build/obj/tpl_os_it.c.o
                0x0200111c                EnableAllInterrupts
                0x02001124                DisableAllInterrupts
                0x0200112c                ResumeAllInterrupts
                0x02001134                SuspendAllInterrupts
                0x0200113c                ResumeOSInterrupts
                0x02001144                SuspendOSInterrupts
 .text          0x0200114c       0x14 build/obj/tpl_os_rez.c.o
                0x0200114c                GetResource
                0x02001154                ReleaseResource
 .text          0x02001160       0x40 build/obj/tpl_os_task.c.o
                0x02001160                ActivateTask
                0x0200116c                TerminateTask
                0x02001178                ChainTask
                0x02001184                Schedule
                0x02001190                GetTaskID
                0x02001198                GetTaskState
 .text          0x020011a0      0x230 build/obj/nds_arm9_bootstrap_stage1.S.o
                0x020011a0                tpl_arm_bootstrap_entry
 .text          0x020013d0        0x2 build/obj/nds_tpl_sleep.S.o
                0x020013d0                tpl_sleep
 *fill*         0x020013d2        0x2 ff
 .text          0x020013d4       0x5c build/obj/nds_tpl_stubs.c.o
                0x020013d4                tpl_init_machine
                0x020013e0                tpl_shutdown
                0x020013e4                tpl_get_task_lock
                0x020013ec                tpl_release_task_lock
                0x020013f4                tpl_init_context
                0x0200142c                tpl_check_stack_footprint
 .text          0x02001430       0x20 build/obj/tpl_machine_arm_generic.S.o
                0x02001430                tpl_enable_interrupts
                0x02001440                tpl_disable_interrupts
 .text          0x02001450     0x1c00 build/obj/tpl_stacks.S.o
                0x02001450                irq_stack_top
                0x02001850                fiq_stack_top
                0x02001850                irq_stack_bottom
                0x02001c50                fiq_stack_bottom
                0x02001c50                svc_stack_top
                0x02002450                svc_stack_bottom
                0x02002450                abt_stack_top
                0x02002850                abt_stack_bottom
                0x02002850                und_stack_top
                0x02002c50                und_stack_bottom
                0x02002c50                usr_stack_top
                0x02003050                usr_stack_bottom
 .text          0x02003050       0x54 build/obj/tpl_switch_context.S.o
                0x02003050                tpl_switch_context
                0x020030a0                tpl_switch_context_from_it
 .text          0x020030a4       0x2c build/obj/tpl_app_config.c.o
                0x020030a4                tpl_call_counter_tick
 .text          0x020030d0      0xa4c /home/djjeon/projects/nds-ide/devkitARM/libnds/lib/libnds9.a(console.o)
                0x02003170                nocash_write
                0x02003180                consoleGetDefault
                0x0200318c                consoleSelect
                0x0200319c                consoleDebugInit
                0x020031ec                consolePrintChar
                0x020033b8                consoleLoadFont
                0x02003640                consoleSetFont
                0x02003660                consoleInit
                0x020037c8                consoleDemoInit
                0x0200380c                con_write
                0x02003ae8                consoleClear
                0x02003af8                consoleSetWindow
 .text          0x02003b1c       0x4c /home/djjeon/projects/nds-ide/devkitARM/libnds/lib/libnds9.a(touch.o)
                0x02003b1c                touchRead
                0x02003b44                touchReadXY
 .text          0x02003b68      0x140 /home/djjeon/projects/nds-ide/devkitARM/libnds/lib/libnds9.a(initSystem.o)
                0x02003b68                initSystem
 .text          0x02003ca8      0xc58 /home/djjeon/projects/nds-ide/devkitARM/libnds/lib/libnds9.a(fifosystem.o)
                0x02003efc                fifoSendAddress
                0x02003f28                fifoSendValue32
                0x02003f68                fifoSendDatamsg
                0x02003fd8                fifoGetAddress
                0x02004050                fifoSetAddressHandler
                0x020040c4                fifoGetValue32
                0x02004138                fifoSetValue32Handler
                0x020041ac                fifoGetDatamsg
                0x02004630                fifoSetDatamsgHandler
                0x020046c8                fifoCheckAddress
                0x020046ec                fifoCheckDatamsg
                0x02004710                fifoCheckValue32
                0x02004734                fifoInit
 .text          0x02004900      0x1ec /home/djjeon/projects/nds-ide/devkitARM/libnds/lib/libnds9.a(interrupts.o)
                0x02004900                irqDummy
                0x02004904                irqSet
                0x02004970                irqInit
                0x020049bc                irqInitHandler
                0x020049ec                irqEnable
                0x02004a50                irqDisable
                0x02004ab4                irqClear
 .text          0x02004aec       0x58 /home/djjeon/projects/nds-ide/devkitARM/libnds/lib/libnds9.a(libnds_exit.arm.o)
                0x02004aec                systemErrorExit
                0x02004af0                __libnds_exit
 .text          0x02004b44      0x1b4 /home/djjeon/projects/nds-ide/devkitARM/libnds/lib/libnds9.a(mpu_setup.o)
                0x02004b44                __libnds_mpu_setup
                0x02004c84                memCached
                0x02004c9c                memUncached
 *fill*         0x02004cf8        0x8 ff
 .text          0x02004d00       0x70 /home/djjeon/projects/nds-ide/devkitARM/libnds/lib/libnds9.a(biosCalls.o)
                0x02004d00                swiDelay
                0x02004d04                swiIntrWait
                0x02004d08                swiWaitForVBlank
                0x02004d0c                swiSleep
                0x02004d10                swiChangeSoundBias
                0x02004d14                swiDivide
                0x02004d18                swiRemainder
                0x02004d1e                swiDivMod
                0x02004d2a                swiCopy
                0x02004d2e                swiFastCopy
                0x02004d32                swiSqrt
                0x02004d36                swiCRC16
                0x02004d3a                swiIsDebugger
                0x02004d3e                swiUnpackBits
                0x02004d42                swiDecompressLZSSWram
                0x02004d46                swiDecompressLZSSVramNTR
                0x02004d4a                swiDecompressLZSSVramTWL
                0x02004d4e                swiDecompressHuffman
                0x02004d52                swiDecompressRLEWram
                0x02004d56                swiDecompressRLEVram
                0x02004d5a                swiWaitForIRQ
                0x02004d5e                swiDecodeDelta8
                0x02004d62                swiDecodeDelta16
                0x02004d66                swiSetHaltCR
 .text          0x02004d70       0xa4 /home/djjeon/projects/nds-ide/devkitARM/libnds/lib/libnds9.a(debugprint.o)
                0x02004d70                nocashWrite
                0x02004d72                nocashMessage
 .text          0x02004e14        0x0 /home/djjeon/projects/nds-ide/devkitARM/libnds/lib/libnds9.a(interruptDispatcher.o)
 *fill*         0x02004e14        0xc ff
 .text          0x02004e20       0x30 /home/djjeon/projects/nds-ide/devkitARM/libnds/lib/libnds9.a(swiSoftReset.o)
                0x02004e20                swiSoftReset
 .text          0x02004e50        0x0 /home/djjeon/projects/nds-ide/devkitARM/libnds/lib/libnds9.a(default_font.bin.o)
 .text          0x02004e50      0x2e8 /home/djjeon/projects/nds-ide/devkitARM/libnds/lib/libnds9.a(background.o)
                0x02004e50                bgIsText
                0x02004e5c                checkIfText
                0x02004eb4                bgUpdate
                0x02004fa8                bgInit_call
                0x0200506c                bgInitSub_call
 .text          0x02005138      0x128 /home/djjeon/projects/nds-ide/devkitARM/libnds/lib/libnds9.a(system.o)
                0x02005138                setSDcallback
                0x02005144                systemMsgHandler
                0x02005188                systemSleep
                0x020051a0                systemValueHandler
                0x020051dc                powerOn
                0x02005208                powerOff
                0x02005230                ledBlink
                0x02005240                getBatteryLevel
 .text          0x02005260      0x244 /home/djjeon/projects/nds-ide/devkitARM/libnds/lib/libnds9.a(trig.o)
                0x02005260                asinComp
                0x02005288                sinLutLookup
                0x020052c4                sinLerp
                0x020052fc                cosLerp
                0x02005310                tanLutLookup
                0x02005348                tanLerp
                0x020053ec                asinLerp
                0x02005468                acosLerp
                0x0200547c                atanComp
 .text          0x020054a4      0x1f8 /home/djjeon/projects/nds-ide/devkitARM/libnds/lib/libnds9.a(video.o)
                0x020054a4                vramSetPrimaryBanks
                0x020054e8                vramSetMainBanks
                0x0200552c                vramSetBanks_EFG
                0x02005564                vramRestorePrimaryBanks
                0x02005570                vramRestoreMainBanks
                0x0200557c                vramRestoreBanks_EFG
                0x02005588                setBrightness
                0x020055c8                vramDefault
 .text          0x0200569c      0x148 /home/djjeon/projects/nds-ide/devkitARM/bin/../lib/gcc/arm-none-eabi/4.7.1/libgcc.a(_divsi3.o)
                0x0200569c                __aeabi_idiv
                0x0200569c                __divsi3
                0x020057c4                __aeabi_idivmod
 .text          0x020057e4        0x4 /home/djjeon/projects/nds-ide/devkitARM/bin/../lib/gcc/arm-none-eabi/4.7.1/libgcc.a(_dvmd_tls.o)
                0x020057e4                __aeabi_ldiv0
                0x020057e4                __aeabi_idiv0
 .text          0x020057e8       0x80 /home/djjeon/projects/nds-ide/devkitARM/bin/../lib/gcc/arm-none-eabi/4.7.1/../../../../arm-none-eabi/lib/libg.a(lib_a-bsearch.o)
                0x020057e8                bsearch
 .text          0x02005868        0x0 /home/djjeon/projects/nds-ide/devkitARM/bin/../lib/gcc/arm-none-eabi/4.7.1/../../../../arm-none-eabi/lib/libg.a(lib_a-impure.o)
 .text          0x02005868       0x88 /home/djjeon/projects/nds-ide/devkitARM/bin/../lib/gcc/arm-none-eabi/4.7.1/../../../../arm-none-eabi/lib/libg.a(lib_a-init.o)
                0x02005868                __libc_init_array
 .text          0x020058f0       0x74 /home/djjeon/projects/nds-ide/devkitARM/bin/../lib/gcc/arm-none-eabi/4.7.1/../../../../arm-none-eabi/lib/libg.a(lib_a-iprintf.o)
                0x020058f0                iprintf
                0x02005930                _iprintf_r
 .text          0x02005964       0xf4 /home/djjeon/projects/nds-ide/devkitARM/bin/../lib/gcc/arm-none-eabi/4.7.1/../../../../arm-none-eabi/lib/libg.a(lib_a-memcpy-stub.o)
                0x02005964                memcpy
 .text          0x02005a58      0x178 /home/djjeon/projects/nds-ide/devkitARM/bin/../lib/gcc/arm-none-eabi/4.7.1/../../../../arm-none-eabi/lib/libg.a(lib_a-setvbuf.o)
                0x02005a58                setvbuf
 .text          0x02005bd0      0x100 /home/djjeon/projects/nds-ide/devkitARM/bin/../lib/gcc/arm-none-eabi/4.7.1/../../../../arm-none-eabi/lib/libg.a(lib_a-siscanf.o)
                0x02005bd0                siscanf
                0x02005c50                _siscanf_r
 .text          0x02005cd0       0xdc /home/djjeon/projects/nds-ide/devkitARM/bin/../lib/gcc/arm-none-eabi/4.7.1/../../../../arm-none-eabi/lib/libg.a(lib_a-stdio.o)
                0x02005cd0                __sread
                0x02005d04                __seofread
                0x02005d0c                __swrite
                0x02005d64                __sseek
                0x02005d98                __sclose
 .text          0x02005dac       0x60 /home/djjeon/projects/nds-ide/devkitARM/bin/../lib/gcc/arm-none-eabi/4.7.1/../../../../arm-none-eabi/lib/libg.a(lib_a-strlen.o)
                0x02005dac                strlen
 .text          0x02005e0c     0x1254 /home/djjeon/projects/nds-ide/devkitARM/bin/../lib/gcc/arm-none-eabi/4.7.1/../../../../arm-none-eabi/lib/libg.a(lib_a-svfiscanf.o)
                0x02005e0c                _sungetc_r
                0x02005ef4                __ssrefill_r
                0x02005f60                _sfread_r
                0x02006020                __ssvfiscanf_r
 .text          0x02007060      0x240 /home/djjeon/projects/nds-ide/devkitARM/bin/../lib/gcc/arm-none-eabi/4.7.1/../../../../arm-none-eabi/lib/libg.a(lib_a-ungetc.o)
                0x02007060                __submore
                0x0200710c                _ungetc_r
                0x02007284                ungetc
 .text          0x020072a0     0x15d8 /home/djjeon/projects/nds-ide/devkitARM/bin/../lib/gcc/arm-none-eabi/4.7.1/../../../../arm-none-eabi/lib/libg.a(lib_a-vfiprintf.o)
                0x020072a0                __sprint_r
                0x02007360                _vfiprintf_r
                0x0200884c                vfiprintf
 .text          0x02008878      0x13c /home/djjeon/projects/nds-ide/devkitARM/bin/../lib/gcc/arm-none-eabi/4.7.1/../../../../arm-none-eabi/lib/libg.a(lib_a-wcrtomb.o)
                0x02008878                _wcrtomb_r
                0x02008910                wcrtomb
 .text          0x020089b4       0x68 /home/djjeon/projects/nds-ide/devkitARM/bin/../lib/gcc/arm-none-eabi/4.7.1/../../../../arm-none-eabi/lib/libg.a(lib_a-wcsrtombs.o)
                0x020089b4                _wcsrtombs_r
                0x020089dc                wcsrtombs
 .text          0x02008a1c      0x38c /home/djjeon/projects/nds-ide/devkitARM/bin/../lib/gcc/arm-none-eabi/4.7.1/../../../../arm-none-eabi/lib/libg.a(lib_a-wctomb_r.o)
                0x02008a1c                __utf8_wctomb
                0x02008b10                _wctomb_r
                0x02008b60                __ascii_wctomb
                0x02008b8c                __sjis_wctomb
                0x02008c14                __eucjp_wctomb
                0x02008cd4                __jis_wctomb
 .text          0x02008da8      0x15c /home/djjeon/projects/nds-ide/devkitARM/bin/../lib/gcc/arm-none-eabi/4.7.1/../../../../arm-none-eabi/lib/libg.a(lib_a-wsetup.o)
                0x02008da8                __swsetup_r
 .text          0x02008f04       0x18 /home/djjeon/projects/nds-ide/devkitARM/bin/../lib/gcc/arm-none-eabi/4.7.1/../../../../arm-none-eabi/lib/libg.a(lib_a-ctype_.o)
                0x02008f04                __set_ctype
 .text          0x02008f1c      0x2c4 /home/djjeon/projects/nds-ide/devkitARM/bin/../lib/gcc/arm-none-eabi/4.7.1/../../../../arm-none-eabi/lib/libg.a(lib_a-fflush.o)
                0x02008f1c                __sflush_r
                0x0200914c                _fflush_r
                0x020091a0                fflush
 .text          0x020091e0      0x2c4 /home/djjeon/projects/nds-ide/devkitARM/bin/../lib/gcc/arm-none-eabi/4.7.1/../../../../arm-none-eabi/lib/libg.a(lib_a-findfp.o)
                0x020091f0                _cleanup_r
                0x02009284                __sfmoreglue
                0x020092cc                _cleanup
                0x020092dc                __sinit
                0x02009354                __sfp
                0x0200944c                __sfp_lock_acquire
                0x02009450                __sfp_lock_release
                0x02009454                __sinit_lock_acquire
                0x02009458                __sinit_lock_release
                0x0200945c                __fp_lock_all
                0x02009480                __fp_unlock_all
 .text          0x020094a4      0x19c /home/djjeon/projects/nds-ide/devkitARM/bin/../lib/gcc/arm-none-eabi/4.7.1/../../../../arm-none-eabi/lib/libg.a(lib_a-fputwc.o)
                0x020094a4                _fputwc_r
                0x020095f4                fputwc
 .text          0x02009640      0x368 /home/djjeon/projects/nds-ide/devkitARM/bin/../lib/gcc/arm-none-eabi/4.7.1/../../../../arm-none-eabi/lib/libg.a(lib_a-freer.o)
                0x02009640                _malloc_trim_r
                0x0200973c                _free_r
 .text          0x020099a8      0x4b8 /home/djjeon/projects/nds-ide/devkitARM/bin/../lib/gcc/arm-none-eabi/4.7.1/../../../../arm-none-eabi/lib/libg.a(lib_a-fvwrite.o)
                0x020099a8                __sfvwrite_r
 .text          0x02009e60      0x110 /home/djjeon/projects/nds-ide/devkitARM/bin/../lib/gcc/arm-none-eabi/4.7.1/../../../../arm-none-eabi/lib/libg.a(lib_a-fwalk.o)
                0x02009e60                _fwalk
                0x02009ee4                _fwalk_reent
 .text          0x02009f70       0x78 /home/djjeon/projects/nds-ide/devkitARM/bin/../lib/gcc/arm-none-eabi/4.7.1/../../../../arm-none-eabi/lib/libg.a(lib_a-iswspace.o)
                0x02009f70                iswspace
 .text          0x02009fe8      0x2c8 /home/djjeon/projects/nds-ide/devkitARM/bin/../lib/gcc/arm-none-eabi/4.7.1/../../../../arm-none-eabi/lib/libg.a(lib_a-jp2uc.o)
                0x0200a228                _jp2uc
 .text          0x0200a2b0      0xd68 /home/djjeon/projects/nds-ide/devkitARM/bin/../lib/gcc/arm-none-eabi/4.7.1/../../../../arm-none-eabi/lib/libg.a(lib_a-locale.o)
                0x0200acb4                _setlocale_r
                0x0200afac                __locale_charset
                0x0200afb8                __locale_mb_cur_max
                0x0200afc8                __locale_msgcharset
                0x0200afd4                __locale_cjk_lang
                0x0200afe4                _localeconv_r
                0x0200aff0                setlocale
                0x0200b00c                localeconv
 .text          0x0200b018      0x15c /home/djjeon/projects/nds-ide/devkitARM/bin/../lib/gcc/arm-none-eabi/4.7.1/../../../../arm-none-eabi/lib/libg.a(lib_a-makebuf.o)
                0x0200b018                __smakebuf_r
 .text          0x0200b174       0x40 /home/djjeon/projects/nds-ide/devkitARM/bin/../lib/gcc/arm-none-eabi/4.7.1/../../../../arm-none-eabi/lib/libg.a(lib_a-malloc.o)
                0x0200b174                malloc
                0x0200b194                free
 .text          0x0200b1b4      0x71c /home/djjeon/projects/nds-ide/devkitARM/bin/../lib/gcc/arm-none-eabi/4.7.1/../../../../arm-none-eabi/lib/libg.a(lib_a-mallocr.o)
                0x0200b1b4                _malloc_r
 .text          0x0200b8d0      0x150 /home/djjeon/projects/nds-ide/devkitARM/bin/../lib/gcc/arm-none-eabi/4.7.1/../../../../arm-none-eabi/lib/libg.a(lib_a-mbrtowc.o)
                0x0200b8d0                _mbrtowc_r
                0x0200b974                mbrtowc
 .text          0x0200ba20      0x728 /home/djjeon/projects/nds-ide/devkitARM/bin/../lib/gcc/arm-none-eabi/4.7.1/../../../../arm-none-eabi/lib/libg.a(lib_a-mbtowc_r.o)
                0x0200ba20                __utf8_mbtowc
                0x0200bd24                _mbtowc_r
                0x0200bd78                __ascii_mbtowc
                0x0200bdc0                __sjis_mbtowc
                0x0200be90                __eucjp_mbtowc
                0x0200bfbc                __jis_mbtowc
 .text          0x0200c148      0x11c /home/djjeon/projects/nds-ide/devkitARM/bin/../lib/gcc/arm-none-eabi/4.7.1/../../../../arm-none-eabi/lib/libg.a(lib_a-memchr-stub.o)
                0x0200c148                memchr
 .text          0x0200c264      0x134 /home/djjeon/projects/nds-ide/devkitARM/bin/../lib/gcc/arm-none-eabi/4.7.1/../../../../arm-none-eabi/lib/libg.a(lib_a-memmove.o)
                0x0200c264                memmove
 .text          0x0200c398       0xf8 /home/djjeon/projects/nds-ide/devkitARM/bin/../lib/gcc/arm-none-eabi/4.7.1/../../../../arm-none-eabi/lib/libg.a(lib_a-memset.o)
                0x0200c398                memset
 .text          0x0200c490        0x8 /home/djjeon/projects/nds-ide/devkitARM/bin/../lib/gcc/arm-none-eabi/4.7.1/../../../../arm-none-eabi/lib/libg.a(lib_a-mlock.o)
                0x0200c490                __malloc_lock
                0x0200c494                __malloc_unlock
 .text          0x0200c498      0x574 /home/djjeon/projects/nds-ide/devkitARM/bin/../lib/gcc/arm-none-eabi/4.7.1/../../../../arm-none-eabi/lib/libg.a(lib_a-reallocr.o)
                0x0200c498                _realloc_r
 .text          0x0200ca0c       0xcc /home/djjeon/projects/nds-ide/devkitARM/bin/../lib/gcc/arm-none-eabi/4.7.1/../../../../arm-none-eabi/lib/libg.a(lib_a-sccl.o)
                0x0200ca0c                __sccl
 .text          0x0200cad8       0x5c /home/djjeon/projects/nds-ide/devkitARM/bin/../lib/gcc/arm-none-eabi/4.7.1/../../../../arm-none-eabi/lib/libg.a(lib_a-strcasecmp.o)
                0x0200cad8                strcasecmp
 .text          0x0200cb34       0xa0 /home/djjeon/projects/nds-ide/devkitARM/bin/../lib/gcc/arm-none-eabi/4.7.1/../../../../arm-none-eabi/lib/libg.a(lib_a-strcat.o)
                0x0200cb34                strcat
 .text          0x0200cbd4      0x1dc /home/djjeon/projects/nds-ide/devkitARM/bin/../lib/gcc/arm-none-eabi/4.7.1/../../../../arm-none-eabi/lib/libg.a(lib_a-strchr.o)
                0x0200cbd4                strchr
 .text          0x0200cdb0      0x230 /home/djjeon/projects/nds-ide/devkitARM/bin/../lib/gcc/arm-none-eabi/4.7.1/../../../../arm-none-eabi/lib/libg.a(lib_a-strcmp.o)
                0x0200cdb0                strcmp
 .text          0x0200cfe0       0xf0 /home/djjeon/projects/nds-ide/devkitARM/bin/../lib/gcc/arm-none-eabi/4.7.1/../../../../arm-none-eabi/lib/libg.a(lib_a-strcpy.o)
                0x0200cfe0                strcpy
 .text          0x0200d0d0       0x84 /home/djjeon/projects/nds-ide/devkitARM/bin/../lib/gcc/arm-none-eabi/4.7.1/../../../../arm-none-eabi/lib/libg.a(lib_a-strlcpy.o)
                0x0200d0d0                strlcpy
 .text          0x0200d154       0x78 /home/djjeon/projects/nds-ide/devkitARM/bin/../lib/gcc/arm-none-eabi/4.7.1/../../../../arm-none-eabi/lib/libg.a(lib_a-strncasecmp.o)
                0x0200d154                strncasecmp
 .text          0x0200d1cc      0x140 /home/djjeon/projects/nds-ide/devkitARM/bin/../lib/gcc/arm-none-eabi/4.7.1/../../../../arm-none-eabi/lib/libg.a(lib_a-strncmp.o)
                0x0200d1cc                strncmp
 .text          0x0200d30c       0xc8 /home/djjeon/projects/nds-ide/devkitARM/bin/../lib/gcc/arm-none-eabi/4.7.1/../../../../arm-none-eabi/lib/libg.a(lib_a-strncpy.o)
                0x0200d30c                strncpy
 .text          0x0200d3d4      0x2b4 /home/djjeon/projects/nds-ide/devkitARM/bin/../lib/gcc/arm-none-eabi/4.7.1/../../../../arm-none-eabi/lib/libg.a(lib_a-strtoll_r.o)
                0x0200d3d4                _strtoll_r
 .text          0x0200d688      0x1f8 /home/djjeon/projects/nds-ide/devkitARM/bin/../lib/gcc/arm-none-eabi/4.7.1/../../../../arm-none-eabi/lib/libg.a(lib_a-strtol.o)
                0x0200d688                _strtol_r
                0x0200d854                strtol
 .text          0x0200d880      0x2b8 /home/djjeon/projects/nds-ide/devkitARM/bin/../lib/gcc/arm-none-eabi/4.7.1/../../../../arm-none-eabi/lib/libg.a(lib_a-strtoull_r.o)
                0x0200d880                _strtoull_r
 .text          0x0200db38      0x20c /home/djjeon/projects/nds-ide/devkitARM/bin/../lib/gcc/arm-none-eabi/4.7.1/../../../../arm-none-eabi/lib/libg.a(lib_a-strtoul.o)
                0x0200db38                _strtoul_r
                0x0200dd18                strtoul
 .text          0x0200dd44      0x134 /home/djjeon/projects/nds-ide/devkitARM/bin/../lib/gcc/arm-none-eabi/4.7.1/../../../../arm-none-eabi/lib/libg.a(lib_a-wbuf.o)
                0x0200dd44                __swbuf_r
                0x0200de5c                __swbuf
 .text          0x0200de78      0x1e4 /home/djjeon/projects/nds-ide/devkitARM/bin/../lib/gcc/arm-none-eabi/4.7.1/../../../../arm-none-eabi/lib/libg.a(lib_a-wcsnrtombs.o)
                0x0200de78                _wcsnrtombs_r
                0x0200e010                wcsnrtombs
 .text          0x0200e05c      0x100 /home/djjeon/projects/nds-ide/devkitARM/bin/../lib/gcc/arm-none-eabi/4.7.1/../../../../arm-none-eabi/lib/libg.a(lib_a-fclose.o)
                0x0200e05c                _fclose_r
                0x0200e148                fclose
 .text          0x0200e15c       0xf0 /home/djjeon/projects/nds-ide/devkitARM/bin/../lib/gcc/arm-none-eabi/4.7.1/../../../../arm-none-eabi/lib/libg.a(lib_a-getenv_r.o)
                0x0200e15c                _findenv_r
                0x0200e230                _getenv_r
 .text          0x0200e24c        0x0 /home/djjeon/projects/nds-ide/devkitARM/bin/../lib/gcc/arm-none-eabi/4.7.1/../../../../arm-none-eabi/lib/libg.a(lib_a-environ.o)
 .text          0x0200e24c        0x8 /home/djjeon/projects/nds-ide/devkitARM/bin/../lib/gcc/arm-none-eabi/4.7.1/../../../../arm-none-eabi/lib/libg.a(lib_a-envlock.o)
                0x0200e24c                __env_lock
                0x0200e250                __env_unlock
 .text          0x0200e254      0x1b4 /home/djjeon/projects/nds-ide/devkitARM/bin/../lib/gcc/arm-none-eabi/4.7.1/../../../../arm-none-eabi/lib/libsysbase.a(iosupport.o)
                0x0200e254                setDefaultDevice
                0x0200e26c                FindDevice
                0x0200e318                RemoveDevice
                0x0200e348                AddDevice
                0x0200e3e0                GetDeviceOpTab
 .text          0x0200e408       0x74 /home/djjeon/projects/nds-ide/devkitARM/bin/../lib/gcc/arm-none-eabi/4.7.1/../../../../arm-none-eabi/lib/libsysbase.a(close.o)
                0x0200e408                _close_r
 .text          0x0200e47c       0x88 /home/djjeon/projects/nds-ide/devkitARM/bin/../lib/gcc/arm-none-eabi/4.7.1/../../../../arm-none-eabi/lib/libsysbase.a(fstat.o)
                0x0200e47c                _fstat_r
 .text          0x0200e504        0x8 /home/djjeon/projects/nds-ide/devkitARM/bin/../lib/gcc/arm-none-eabi/4.7.1/../../../../arm-none-eabi/lib/libsysbase.a(isatty.o)
                0x0200e504                _isatty_r
 .text          0x0200e50c       0x88 /home/djjeon/projects/nds-ide/devkitARM/bin/../lib/gcc/arm-none-eabi/4.7.1/../../../../arm-none-eabi/lib/libsysbase.a(lseek.o)
                0x0200e50c                _lseek_r
 .text          0x0200e594       0x88 /home/djjeon/projects/nds-ide/devkitARM/bin/../lib/gcc/arm-none-eabi/4.7.1/../../../../arm-none-eabi/lib/libsysbase.a(read.o)
                0x0200e594                _read_r
 .text          0x0200e61c       0x74 /home/djjeon/projects/nds-ide/devkitARM/bin/../lib/gcc/arm-none-eabi/4.7.1/../../../../arm-none-eabi/lib/libsysbase.a(sbrk.o)
                0x0200e61c                _sbrk_r
 .text          0x0200e690       0x64 /home/djjeon/projects/nds-ide/devkitARM/bin/../lib/gcc/arm-none-eabi/4.7.1/../../../../arm-none-eabi/lib/libsysbase.a(times.o)
                0x0200e690                _times
                0x0200e6ac                _times_r
                0x0200e6b4                _gettimeofday_r
 .text          0x0200e6f4       0x8c /home/djjeon/projects/nds-ide/devkitARM/bin/../lib/gcc/arm-none-eabi/4.7.1/../../../../arm-none-eabi/lib/libsysbase.a(write.o)
                0x0200e6f4                _write_r
 .text          0x0200e780        0x0 /home/djjeon/projects/nds-ide/devkitARM/bin/../lib/gcc/arm-none-eabi/4.7.1/../../../../arm-none-eabi/lib/libsysbase.a(malloc_vars.o)
 .text          0x0200e780       0x94 /home/djjeon/projects/nds-ide/devkitARM/bin/../lib/gcc/arm-none-eabi/4.7.1/../../../../arm-none-eabi/lib/libsysbase.a(build_argv.o)
                0x0200e780                build_argv
 .text          0x0200e814        0x0 /home/djjeon/projects/nds-ide/devkitARM/bin/../lib/gcc/arm-none-eabi/4.7.1/../../../../arm-none-eabi/lib/libsysbase.a(syscall_support.o)
 .text          0x0200e814       0xac /home/djjeon/projects/nds-ide/devkitARM/bin/../lib/gcc/arm-none-eabi/4.7.1/../../../../arm-none-eabi/lib/libsysbase.a(handle_manager.o)
                0x0200e814                __release_handle
                0x0200e84c                __alloc_handle
                0x0200e8a4                __get_handle
 .text          0x0200e8c0      0x114 /home/djjeon/projects/nds-ide/devkitARM/bin/../lib/gcc/arm-none-eabi/4.7.1/libgcc.a(_udivsi3.o)
                0x0200e8c0                __udivsi3
                0x0200e8c0                __aeabi_uidiv
                0x0200e9b4                __aeabi_uidivmod
 .text          0x0200e9d4       0x3c /home/djjeon/projects/nds-ide/devkitARM/bin/../lib/gcc/arm-none-eabi/4.7.1/libgcc.a(_aeabi_uldivmod.o)
                0x0200e9d4                __aeabi_uldivmod
 .text          0x0200ea10       0x84 /home/djjeon/projects/nds-ide/devkitARM/bin/../lib/gcc/arm-none-eabi/4.7.1/libgcc.a(bpabi.o)
                0x0200ea10                __gnu_ldivmod_helper
                0x0200ea54                __gnu_uldivmod_helper
 .text          0x0200ea94      0x4f0 /home/djjeon/projects/nds-ide/devkitARM/bin/../lib/gcc/arm-none-eabi/4.7.1/libgcc.a(_divdi3.o)
                0x0200ea94                __divdi3
 .text          0x0200ef84      0x488 /home/djjeon/projects/nds-ide/devkitARM/bin/../lib/gcc/arm-none-eabi/4.7.1/libgcc.a(_udivdi3.o)
                0x0200ef84                __udivdi3
 .text          0x0200f40c       0x48 /home/djjeon/projects/nds-ide/devkitARM/bin/../lib/gcc/arm-none-eabi/4.7.1/libgcc.a(_clzsi2.o)
                0x0200f40c                __clzsi2
 .text          0x0200f454       0x10 /home/djjeon/projects/nds-ide/devkitARM/bin/../lib/gcc/arm-none-eabi/4.7.1/../../../../arm-none-eabi/lib/libg.a(lib_a-errno.o)
                0x0200f454                __errno
 .text          0x0200f464        0x0 /home/djjeon/projects/nds-ide/devkitARM/bin/../lib/gcc/arm-none-eabi/4.7.1/crtend.o
 .text          0x0200f464        0x0 /home/djjeon/projects/nds-ide/devkitARM/bin/../lib/gcc/arm-none-eabi/4.7.1/crtn.o
 *(.text.*)
 .text.startup  0x0200f464        0xc build/obj/nds_simple.c.o
                0x0200f464                main
 .text.startup.stub
                0x0200f470       0x4c linker stubs
 *(.stub)
 *(.gnu.warning)
 *(.gnu.linkonce.t*)
 *(.glue_7)
 .glue_7        0x00000000        0x0 linker stubs
 *(.glue_7t)
 .glue_7t       0x00000000        0x0 linker stubs
                0x0200f4bc                . = ALIGN (0x4)

.vfp11_veneer   0x0200f4c0        0x0
 .vfp11_veneer  0x00000000        0x0 linker stubs

.v4_bx          0x0200f4c0        0x0
 .v4_bx         0x00000000        0x0 linker stubs

.iplt           0x0200f4c0        0x0
 .iplt          0x00000000        0x0 /home/djjeon/projects/nds-ide/devkitARM/bin/../lib/gcc/arm-none-eabi/4.7.1/../../../../arm-none-eabi/lib/ds_arm9_crt0.o

.fini           0x0200f4c0       0x18
 *(.fini)
 .fini          0x0200f4c0        0xc /home/djjeon/projects/nds-ide/devkitARM/bin/../lib/gcc/arm-none-eabi/4.7.1/crti.o
                0x0200f4c0                _fini
 .fini          0x0200f4cc        0xc /home/djjeon/projects/nds-ide/devkitARM/bin/../lib/gcc/arm-none-eabi/4.7.1/crtn.o
                0x0200f4d8                __text_end = .

.rodata         0x0200f4d8     0x5f44
 *(.rodata)
 .rodata        0x0200f4d8        0x4 build/obj/nds_simple.c.o
                0x0200f4d8                toto
 .rodata        0x0200f4dc        0x1 build/obj/tpl_os_alarm_kernel.c.o
                0x0200f4dc                INVALID_ALARM
 .rodata        0x0200f4dd        0x2 build/obj/tpl_os_rez_kernel.c.o
                0x0200f4dd                INVALID_RESOURCE
                0x0200f4de                RES_SCHEDULER
 *fill*         0x0200f4df        0x1 ff
 .rodata        0x0200f4e0       0x1c build/obj/tpl_os_kernel.c.o
                0x0200f4e0                idle_task_static
                0x0200f4f8                INVALID_TASK
                0x0200f4f9                INVALID_PROC
 .rodata        0x0200f4fc       0x7c build/obj/tpl_app_config.c.o
                0x0200f4fc                proc_name_table
                0x0200f504                tpl_ready_list
                0x0200f51c                tpl_dyn_proc_table
                0x0200f528                tpl_stat_proc_table
                0x0200f534                task5_task_stat_desc
                0x0200f54c                task1_task_stat_desc
                0x0200f564                OSMINCYCLE
                0x0200f568                OSMAXALLOWEDVALUE
                0x0200f56c                OSTICKSPERBASE
                0x0200f570                tpl_resource_table
                0x0200f574                task5
                0x0200f575                task1
 .rodata        0x0200f578      0x200 /home/djjeon/projects/nds-ide/devkitARM/libnds/lib/libnds9.a(console.o)
 .rodata        0x0200f778     0x2004 /home/djjeon/projects/nds-ide/devkitARM/libnds/lib/libnds9.a(default_font.bin.o)
                0x0200f778                default_font_bin
                0x02011778                default_font_bin_end
                0x02011778                default_font_bin_size
 .rodata        0x0201177c      0x308 /home/djjeon/projects/nds-ide/devkitARM/libnds/lib/libnds9.a(trig.o)
                0x0201177c                SIN_LUT
                0x02011880                TAN_LUT
 .rodata        0x02011a84        0x4 /home/djjeon/projects/nds-ide/devkitARM/bin/../lib/gcc/arm-none-eabi/4.7.1/../../../../arm-none-eabi/lib/libg.a(lib_a-impure.o)
                0x02011a84                _global_impure_ptr
 .rodata        0x02011a88       0x24 /home/djjeon/projects/nds-ide/devkitARM/bin/../lib/gcc/arm-none-eabi/4.7.1/../../../../arm-none-eabi/lib/libg.a(lib_a-svfiscanf.o)
 .rodata        0x02011aac       0x20 /home/djjeon/projects/nds-ide/devkitARM/bin/../lib/gcc/arm-none-eabi/4.7.1/../../../../arm-none-eabi/lib/libg.a(lib_a-vfiprintf.o)
 .rodata        0x02011acc      0x104 /home/djjeon/projects/nds-ide/devkitARM/bin/../lib/gcc/arm-none-eabi/4.7.1/../../../../arm-none-eabi/lib/libg.a(lib_a-ctype_.o)
                0x02011acc                _ctype_
 .rodata        0x02011bd0     0x34d0 /home/djjeon/projects/nds-ide/devkitARM/bin/../lib/gcc/arm-none-eabi/4.7.1/../../../../arm-none-eabi/lib/libg.a(lib_a-jp2uc.o)
 .rodata        0x020150a0       0x1c /home/djjeon/projects/nds-ide/devkitARM/bin/../lib/gcc/arm-none-eabi/4.7.1/../../../../arm-none-eabi/lib/libg.a(lib_a-locale.o)
 .rodata        0x020150bc       0x90 /home/djjeon/projects/nds-ide/devkitARM/bin/../lib/gcc/arm-none-eabi/4.7.1/../../../../arm-none-eabi/lib/libg.a(lib_a-mbtowc_r.o)
 .rodata        0x0201514c       0x64 /home/djjeon/projects/nds-ide/devkitARM/bin/../lib/gcc/arm-none-eabi/4.7.1/../../../../arm-none-eabi/lib/libsysbase.a(iosupport.o)
                0x0201514c                dotab_stdnull
 *all.rodata*(*)
 *(.roda)
 *(.rodata.*)
 .rodata.str1.4
                0x020151b0       0xaa build/obj/nds_simple.c.o
                                 0xac (size before relaxing)
 *fill*         0x0201525a        0x2 ff
 .rodata.str1.4
                0x0201525c        0xe build/obj/tpl_app_config.c.o
                                 0x10 (size before relaxing)
 *fill*         0x0201526a        0x2 ff
 .rodata.str1.4
                0x0201526c       0x49 /home/djjeon/projects/nds-ide/devkitARM/libnds/lib/libnds9.a(console.o)
                                 0x4c (size before relaxing)
 *fill*         0x020152b5        0x3 ff
 .rodata.str1.4
                0x020152b8        0x2 /home/djjeon/projects/nds-ide/devkitARM/bin/../lib/gcc/arm-none-eabi/4.7.1/../../../../arm-none-eabi/lib/libg.a(lib_a-impure.o)
                                  0x4 (size before relaxing)
 *fill*         0x020152ba        0x2 ff
 .rodata.str1.4
                0x020152bc       0x2f /home/djjeon/projects/nds-ide/devkitARM/bin/../lib/gcc/arm-none-eabi/4.7.1/../../../../arm-none-eabi/lib/libg.a(lib_a-vfiprintf.o)
                                 0x30 (size before relaxing)
 *fill*         0x020152eb        0x1 ff
 .rodata.str1.4
                0x020152ec       0x12 /home/djjeon/projects/nds-ide/devkitARM/bin/../lib/gcc/arm-none-eabi/4.7.1/../../../../arm-none-eabi/lib/libg.a(lib_a-jp2uc.o)
                                 0x14 (size before relaxing)
 *fill*         0x020152fe        0x2 ff
 .rodata.str1.4
                0x02015300      0x112 /home/djjeon/projects/nds-ide/devkitARM/bin/../lib/gcc/arm-none-eabi/4.7.1/../../../../arm-none-eabi/lib/libg.a(lib_a-locale.o)
                                0x130 (size before relaxing)
 .rodata.str1.4
                0x00000000        0x4 /home/djjeon/projects/nds-ide/devkitARM/bin/../lib/gcc/arm-none-eabi/4.7.1/../../../../arm-none-eabi/lib/libg.a(lib_a-mbrtowc.o)
 *fill*         0x02015412        0x2 ff
 .rodata.str1.4
                0x02015414        0x8 /home/djjeon/projects/nds-ide/devkitARM/bin/../lib/gcc/arm-none-eabi/4.7.1/../../../../arm-none-eabi/lib/libsysbase.a(iosupport.o)
 *(.gnu.linkonce.r*)
                0x0201541c                . = ALIGN (0x4)

.rel.dyn        0x0201541c        0x0
 .rel.iplt      0x00000000        0x0 /home/djjeon/projects/nds-ide/devkitARM/bin/../lib/gcc/arm-none-eabi/4.7.1/../../../../arm-none-eabi/lib/ds_arm9_crt0.o

.ARM.extab
 *(.ARM.extab* .gnu.linkonce.armextab.*)
                0x0201541c                __exidx_start = .

ARM.exidx
 *(.ARM.exidx* .gnu.linkonce.armexidx.*)
                0x0201541c                __exidx_end = .
                0x0201541c                . = ALIGN (0x4)
                0x0201541c                PROVIDE (__preinit_array_start, .)

.preinit_array
 *(.preinit_array)
                0x0201541c                PROVIDE (__preinit_array_end, .)
                0x0201541c                PROVIDE (__init_array_start, .)

.init_array     0x0201541c        0x4
 *(SORT(.init_array.*))
 *(.init_array)
 .init_array    0x0201541c        0x4 /home/djjeon/projects/nds-ide/devkitARM/bin/../lib/gcc/arm-none-eabi/4.7.1/crtbegin.o
                0x02015420                PROVIDE (__init_array_end, .)
                0x02015420                PROVIDE (__fini_array_start, .)

.fini_array     0x02015420        0x4
 *(.fini_array)
 .fini_array    0x02015420        0x4 /home/djjeon/projects/nds-ide/devkitARM/bin/../lib/gcc/arm-none-eabi/4.7.1/crtbegin.o
 *(SORT(.fini_array.*))
                0x02015424                PROVIDE (__fini_array_end, .)

.ctors          0x02015424        0x0
 *crtbegin.o(.ctors)
 *(EXCLUDE_FILE(*crtend.o) .ctors)
 *(SORT(.ctors.*))
 *(.ctors)
                0x02015424                . = ALIGN (0x4)

.dtors          0x02015424        0x0
 *crtbegin.o(.dtors)
 *(EXCLUDE_FILE(*crtend.o) .dtors)
 *(SORT(.dtors.*))
 *(.dtors)
                0x02015424                . = ALIGN (0x4)

.eh_frame       0x02015424        0x4
 *(.eh_frame)
 .eh_frame      0x02015424        0x0 /home/djjeon/projects/nds-ide/devkitARM/bin/../lib/gcc/arm-none-eabi/4.7.1/crtbegin.o
 .eh_frame      0x02015424        0x4 /home/djjeon/projects/nds-ide/devkitARM/bin/../lib/gcc/arm-none-eabi/4.7.1/crtend.o
                0x02015428                . = ALIGN (0x4)

.gcc_except_table
                0x02015428        0x0
 *(.gcc_except_table)
                0x02015428                . = ALIGN (0x4)

.jcr            0x02015428        0x4
 *(.jcr)
 .jcr           0x02015428        0x0 /home/djjeon/projects/nds-ide/devkitARM/bin/../lib/gcc/arm-none-eabi/4.7.1/crtbegin.o
 .jcr           0x02015428        0x4 /home/djjeon/projects/nds-ide/devkitARM/bin/../lib/gcc/arm-none-eabi/4.7.1/crtend.o

.got
 *(.got.plt)
 *(.got)
 *(.rel.got)

.ewram          0x0201542c        0x0
                0x0201542c                __ewram_start = ABSOLUTE (.)
 *(.ewram)
 *ewram.*(.text)
                0x0201542c                . = ALIGN (0x4)

.data           0x0201542c      0xb3c
                0x0201542c                __data_start = ABSOLUTE (.)
 *(.data)
 .data          0x0201542c        0x0 /home/djjeon/projects/nds-ide/devkitARM/bin/../lib/gcc/arm-none-eabi/4.7.1/../../../../arm-none-eabi/lib/ds_arm9_crt0.o
 .data          0x0201542c        0x0 /home/djjeon/projects/nds-ide/devkitARM/bin/../lib/gcc/arm-none-eabi/4.7.1/crti.o
 .data          0x0201542c        0x4 /home/djjeon/projects/nds-ide/devkitARM/bin/../lib/gcc/arm-none-eabi/4.7.1/crtbegin.o
                0x0201542c                __dso_handle
 .data          0x02015430        0x0 build/obj/nds_simple.c.o
 .data          0x02015430        0x0 build/obj/tpl_os_alarm_kernel.c.o
 .data          0x02015430        0x0 build/obj/tpl_os_event_kernel.c.o
 .data          0x02015430        0x0 build/obj/tpl_os_it_kernel.c.o
 .data          0x02015430        0x8 build/obj/tpl_os_rez_kernel.c.o
                0x02015430                res_sched_rez_desc
 .data          0x02015438        0x0 build/obj/tpl_os_task_kernel.c.o
 .data          0x02015438        0x0 build/obj/tpl_os_timeobj_kernel.c.o
 .data          0x02015438       0x20 build/obj/tpl_os_kernel.c.o
                0x02015438                tpl_h_prio
                0x0201543c                tpl_kern
                0x02015454                INTERNAL_RES_SCHEDULER
 .data          0x02015458        0x0 build/obj/tpl_os_action.c.o
 .data          0x02015458        0x0 build/obj/tpl_os_error.c.o
 .data          0x02015458        0x0 build/obj/tpl_os.c.o
 .data          0x02015458        0x0 build/obj/tpl_os_alarm.c.o
 .data          0x02015458        0x0 build/obj/tpl_os_event.c.o
 .data          0x02015458        0x0 build/obj/tpl_os_it.c.o
 .data          0x02015458        0x0 build/obj/tpl_os_rez.c.o
 .data          0x02015458        0x0 build/obj/tpl_os_task.c.o
 .data          0x02015458        0x0 build/obj/nds_arm9_bootstrap_stage1.S.o
 .data          0x02015458        0x0 build/obj/nds_tpl_sleep.S.o
 .data          0x02015458        0x0 build/obj/nds_tpl_stubs.c.o
 .data          0x02015458        0x0 build/obj/tpl_machine_arm_generic.S.o
 .data          0x02015458        0x0 build/obj/tpl_stacks.S.o
 .data          0x02015458        0x0 build/obj/tpl_switch_context.S.o
 .data          0x02015458       0x2c build/obj/tpl_app_config.c.o
                0x02015458                SystemCounter_counter_desc
                0x02015474                task5_task_desc
                0x0201547c                task1_task_desc
 .data          0x02015484       0x64 /home/djjeon/projects/nds-ide/devkitARM/libnds/lib/libnds9.a(console.o)
                0x02015484                currentConsole
                0x02015488                defaultConsole
 .data          0x020154e8        0x0 /home/djjeon/projects/nds-ide/devkitARM/libnds/lib/libnds9.a(touch.o)
 .data          0x020154e8        0x0 /home/djjeon/projects/nds-ide/devkitARM/libnds/lib/libnds9.a(initSystem.o)
 .data          0x020154e8       0x10 /home/djjeon/projects/nds-ide/devkitARM/libnds/lib/libnds9.a(fifosystem.o)
                0x020154e8                fifo_buffer_free
                0x020154ec                fifo_freewords
                0x020154f0                fifo_send_queue
                0x020154f4                fifo_receive_queue
 .data          0x020154f8        0x0 /home/djjeon/projects/nds-ide/devkitARM/libnds/lib/libnds9.a(interrupts.o)
 .data          0x020154f8        0x0 /home/djjeon/projects/nds-ide/devkitARM/libnds/lib/libnds9.a(libnds_exit.arm.o)
 .data          0x020154f8        0x0 /home/djjeon/projects/nds-ide/devkitARM/libnds/lib/libnds9.a(mpu_setup.o)
 .data          0x020154f8        0x0 /home/djjeon/projects/nds-ide/devkitARM/libnds/lib/libnds9.a(biosCalls.o)
 .data          0x020154f8        0x0 /home/djjeon/projects/nds-ide/devkitARM/libnds/lib/libnds9.a(debugprint.o)
 .data          0x020154f8        0x0 /home/djjeon/projects/nds-ide/devkitARM/libnds/lib/libnds9.a(interruptDispatcher.o)
 .data          0x020154f8        0x0 /home/djjeon/projects/nds-ide/devkitARM/libnds/lib/libnds9.a(swiSoftReset.o)
 .data          0x020154f8        0x0 /home/djjeon/projects/nds-ide/devkitARM/libnds/lib/libnds9.a(default_font.bin.o)
 .data          0x020154f8       0x60 /home/djjeon/projects/nds-ide/devkitARM/libnds/lib/libnds9.a(background.o)
                0x020154f8                bgScrollTable
                0x02015518                bgTransform
                0x02015538                bgControl
 .data          0x02015558        0x0 /home/djjeon/projects/nds-ide/devkitARM/libnds/lib/libnds9.a(system.o)
 .data          0x02015558        0x0 /home/djjeon/projects/nds-ide/devkitARM/libnds/lib/libnds9.a(trig.o)
 .data          0x02015558        0x0 /home/djjeon/projects/nds-ide/devkitARM/libnds/lib/libnds9.a(video.o)
 .data          0x02015558        0x0 /home/djjeon/projects/nds-ide/devkitARM/bin/../lib/gcc/arm-none-eabi/4.7.1/libgcc.a(_divsi3.o)
 .data          0x02015558        0x0 /home/djjeon/projects/nds-ide/devkitARM/bin/../lib/gcc/arm-none-eabi/4.7.1/libgcc.a(_dvmd_tls.o)
 .data          0x02015558        0x0 /home/djjeon/projects/nds-ide/devkitARM/bin/../lib/gcc/arm-none-eabi/4.7.1/../../../../arm-none-eabi/lib/libg.a(lib_a-bsearch.o)
 .data          0x02015558      0x430 /home/djjeon/projects/nds-ide/devkitARM/bin/../lib/gcc/arm-none-eabi/4.7.1/../../../../arm-none-eabi/lib/libg.a(lib_a-impure.o)
                0x02015558                _impure_ptr
 .data          0x02015988        0x0 /home/djjeon/projects/nds-ide/devkitARM/bin/../lib/gcc/arm-none-eabi/4.7.1/../../../../arm-none-eabi/lib/libg.a(lib_a-init.o)
 .data          0x02015988        0x0 /home/djjeon/projects/nds-ide/devkitARM/bin/../lib/gcc/arm-none-eabi/4.7.1/../../../../arm-none-eabi/lib/libg.a(lib_a-iprintf.o)
 .data          0x02015988        0x0 /home/djjeon/projects/nds-ide/devkitARM/bin/../lib/gcc/arm-none-eabi/4.7.1/../../../../arm-none-eabi/lib/libg.a(lib_a-memcpy-stub.o)
 .data          0x02015988        0x0 /home/djjeon/projects/nds-ide/devkitARM/bin/../lib/gcc/arm-none-eabi/4.7.1/../../../../arm-none-eabi/lib/libg.a(lib_a-setvbuf.o)
 .data          0x02015988        0x0 /home/djjeon/projects/nds-ide/devkitARM/bin/../lib/gcc/arm-none-eabi/4.7.1/../../../../arm-none-eabi/lib/libg.a(lib_a-siscanf.o)
 .data          0x02015988        0x0 /home/djjeon/projects/nds-ide/devkitARM/bin/../lib/gcc/arm-none-eabi/4.7.1/../../../../arm-none-eabi/lib/libg.a(lib_a-stdio.o)
 .data          0x02015988        0x0 /home/djjeon/projects/nds-ide/devkitARM/bin/../lib/gcc/arm-none-eabi/4.7.1/../../../../arm-none-eabi/lib/libg.a(lib_a-strlen.o)
 .data          0x02015988        0x0 /home/djjeon/projects/nds-ide/devkitARM/bin/../lib/gcc/arm-none-eabi/4.7.1/../../../../arm-none-eabi/lib/libg.a(lib_a-svfiscanf.o)
 .data          0x02015988        0x0 /home/djjeon/projects/nds-ide/devkitARM/bin/../lib/gcc/arm-none-eabi/4.7.1/../../../../arm-none-eabi/lib/libg.a(lib_a-ungetc.o)
 .data          0x02015988        0x0 /home/djjeon/projects/nds-ide/devkitARM/bin/../lib/gcc/arm-none-eabi/4.7.1/../../../../arm-none-eabi/lib/libg.a(lib_a-vfiprintf.o)
 .data          0x02015988        0x0 /home/djjeon/projects/nds-ide/devkitARM/bin/../lib/gcc/arm-none-eabi/4.7.1/../../../../arm-none-eabi/lib/libg.a(lib_a-wcrtomb.o)
 .data          0x02015988        0x0 /home/djjeon/projects/nds-ide/devkitARM/bin/../lib/gcc/arm-none-eabi/4.7.1/../../../../arm-none-eabi/lib/libg.a(lib_a-wcsrtombs.o)
 .data          0x02015988        0x4 /home/djjeon/projects/nds-ide/devkitARM/bin/../lib/gcc/arm-none-eabi/4.7.1/../../../../arm-none-eabi/lib/libg.a(lib_a-wctomb_r.o)
                0x02015988                __wctomb
 .data          0x0201598c        0x0 /home/djjeon/projects/nds-ide/devkitARM/bin/../lib/gcc/arm-none-eabi/4.7.1/../../../../arm-none-eabi/lib/libg.a(lib_a-wsetup.o)
 .data          0x0201598c        0x4 /home/djjeon/projects/nds-ide/devkitARM/bin/../lib/gcc/arm-none-eabi/4.7.1/../../../../arm-none-eabi/lib/libg.a(lib_a-ctype_.o)
                0x0201598c                __ctype_ptr__
 .data          0x02015990        0x0 /home/djjeon/projects/nds-ide/devkitARM/bin/../lib/gcc/arm-none-eabi/4.7.1/../../../../arm-none-eabi/lib/libg.a(lib_a-fflush.o)
 .data          0x02015990        0x0 /home/djjeon/projects/nds-ide/devkitARM/bin/../lib/gcc/arm-none-eabi/4.7.1/../../../../arm-none-eabi/lib/libg.a(lib_a-findfp.o)
 .data          0x02015990        0x0 /home/djjeon/projects/nds-ide/devkitARM/bin/../lib/gcc/arm-none-eabi/4.7.1/../../../../arm-none-eabi/lib/libg.a(lib_a-fputwc.o)
 .data          0x02015990        0x0 /home/djjeon/projects/nds-ide/devkitARM/bin/../lib/gcc/arm-none-eabi/4.7.1/../../../../arm-none-eabi/lib/libg.a(lib_a-freer.o)
 .data          0x02015990        0x0 /home/djjeon/projects/nds-ide/devkitARM/bin/../lib/gcc/arm-none-eabi/4.7.1/../../../../arm-none-eabi/lib/libg.a(lib_a-fvwrite.o)
 .data          0x02015990        0x0 /home/djjeon/projects/nds-ide/devkitARM/bin/../lib/gcc/arm-none-eabi/4.7.1/../../../../arm-none-eabi/lib/libg.a(lib_a-fwalk.o)
 .data          0x02015990        0x0 /home/djjeon/projects/nds-ide/devkitARM/bin/../lib/gcc/arm-none-eabi/4.7.1/../../../../arm-none-eabi/lib/libg.a(lib_a-iswspace.o)
 .data          0x02015990        0x0 /home/djjeon/projects/nds-ide/devkitARM/bin/../lib/gcc/arm-none-eabi/4.7.1/../../../../arm-none-eabi/lib/libg.a(lib_a-jp2uc.o)
 .data          0x02015990      0x17c /home/djjeon/projects/nds-ide/devkitARM/bin/../lib/gcc/arm-none-eabi/4.7.1/../../../../arm-none-eabi/lib/libg.a(lib_a-locale.o)
                0x02015990                __default_locale
                0x02015ab0                __mb_cur_max
 .data          0x02015b0c        0x0 /home/djjeon/projects/nds-ide/devkitARM/bin/../lib/gcc/arm-none-eabi/4.7.1/../../../../arm-none-eabi/lib/libg.a(lib_a-makebuf.o)
 .data          0x02015b0c        0x0 /home/djjeon/projects/nds-ide/devkitARM/bin/../lib/gcc/arm-none-eabi/4.7.1/../../../../arm-none-eabi/lib/libg.a(lib_a-malloc.o)
 .data          0x02015b0c      0x410 /home/djjeon/projects/nds-ide/devkitARM/bin/../lib/gcc/arm-none-eabi/4.7.1/../../../../arm-none-eabi/lib/libg.a(lib_a-mallocr.o)
                0x02015b0c                __malloc_av_
                0x02015f14                __malloc_sbrk_base
                0x02015f18                __malloc_trim_threshold
 .data          0x02015f1c        0x0 /home/djjeon/projects/nds-ide/devkitARM/bin/../lib/gcc/arm-none-eabi/4.7.1/../../../../arm-none-eabi/lib/libg.a(lib_a-mbrtowc.o)
 .data          0x02015f1c        0x4 /home/djjeon/projects/nds-ide/devkitARM/bin/../lib/gcc/arm-none-eabi/4.7.1/../../../../arm-none-eabi/lib/libg.a(lib_a-mbtowc_r.o)
                0x02015f1c                __mbtowc
 .data          0x02015f20        0x0 /home/djjeon/projects/nds-ide/devkitARM/bin/../lib/gcc/arm-none-eabi/4.7.1/../../../../arm-none-eabi/lib/libg.a(lib_a-memchr-stub.o)
 .data          0x02015f20        0x0 /home/djjeon/projects/nds-ide/devkitARM/bin/../lib/gcc/arm-none-eabi/4.7.1/../../../../arm-none-eabi/lib/libg.a(lib_a-memmove.o)
 .data          0x02015f20        0x0 /home/djjeon/projects/nds-ide/devkitARM/bin/../lib/gcc/arm-none-eabi/4.7.1/../../../../arm-none-eabi/lib/libg.a(lib_a-memset.o)
 .data          0x02015f20        0x0 /home/djjeon/projects/nds-ide/devkitARM/bin/../lib/gcc/arm-none-eabi/4.7.1/../../../../arm-none-eabi/lib/libg.a(lib_a-mlock.o)
 .data          0x02015f20        0x0 /home/djjeon/projects/nds-ide/devkitARM/bin/../lib/gcc/arm-none-eabi/4.7.1/../../../../arm-none-eabi/lib/libg.a(lib_a-reallocr.o)
 .data          0x02015f20        0x0 /home/djjeon/projects/nds-ide/devkitARM/bin/../lib/gcc/arm-none-eabi/4.7.1/../../../../arm-none-eabi/lib/libg.a(lib_a-sccl.o)
 .data          0x02015f20        0x0 /home/djjeon/projects/nds-ide/devkitARM/bin/../lib/gcc/arm-none-eabi/4.7.1/../../../../arm-none-eabi/lib/libg.a(lib_a-strcasecmp.o)
 .data          0x02015f20        0x0 /home/djjeon/projects/nds-ide/devkitARM/bin/../lib/gcc/arm-none-eabi/4.7.1/../../../../arm-none-eabi/lib/libg.a(lib_a-strcat.o)
 .data          0x02015f20        0x0 /home/djjeon/projects/nds-ide/devkitARM/bin/../lib/gcc/arm-none-eabi/4.7.1/../../../../arm-none-eabi/lib/libg.a(lib_a-strchr.o)
 .data          0x02015f20        0x0 /home/djjeon/projects/nds-ide/devkitARM/bin/../lib/gcc/arm-none-eabi/4.7.1/../../../../arm-none-eabi/lib/libg.a(lib_a-strcmp.o)
 .data          0x02015f20        0x0 /home/djjeon/projects/nds-ide/devkitARM/bin/../lib/gcc/arm-none-eabi/4.7.1/../../../../arm-none-eabi/lib/libg.a(lib_a-strcpy.o)
 .data          0x02015f20        0x0 /home/djjeon/projects/nds-ide/devkitARM/bin/../lib/gcc/arm-none-eabi/4.7.1/../../../../arm-none-eabi/lib/libg.a(lib_a-strlcpy.o)
 .data          0x02015f20        0x0 /home/djjeon/projects/nds-ide/devkitARM/bin/../lib/gcc/arm-none-eabi/4.7.1/../../../../arm-none-eabi/lib/libg.a(lib_a-strncasecmp.o)
 .data          0x02015f20        0x0 /home/djjeon/projects/nds-ide/devkitARM/bin/../lib/gcc/arm-none-eabi/4.7.1/../../../../arm-none-eabi/lib/libg.a(lib_a-strncmp.o)
 .data          0x02015f20        0x0 /home/djjeon/projects/nds-ide/devkitARM/bin/../lib/gcc/arm-none-eabi/4.7.1/../../../../arm-none-eabi/lib/libg.a(lib_a-strncpy.o)
 .data          0x02015f20        0x0 /home/djjeon/projects/nds-ide/devkitARM/bin/../lib/gcc/arm-none-eabi/4.7.1/../../../../arm-none-eabi/lib/libg.a(lib_a-strtoll_r.o)
 .data          0x02015f20        0x0 /home/djjeon/projects/nds-ide/devkitARM/bin/../lib/gcc/arm-none-eabi/4.7.1/../../../../arm-none-eabi/lib/libg.a(lib_a-strtol.o)
 .data          0x02015f20        0x0 /home/djjeon/projects/nds-ide/devkitARM/bin/../lib/gcc/arm-none-eabi/4.7.1/../../../../arm-none-eabi/lib/libg.a(lib_a-strtoull_r.o)
 .data          0x02015f20        0x0 /home/djjeon/projects/nds-ide/devkitARM/bin/../lib/gcc/arm-none-eabi/4.7.1/../../../../arm-none-eabi/lib/libg.a(lib_a-strtoul.o)
 .data          0x02015f20        0x0 /home/djjeon/projects/nds-ide/devkitARM/bin/../lib/gcc/arm-none-eabi/4.7.1/../../../../arm-none-eabi/lib/libg.a(lib_a-wbuf.o)
 .data          0x02015f20        0x0 /home/djjeon/projects/nds-ide/devkitARM/bin/../lib/gcc/arm-none-eabi/4.7.1/../../../../arm-none-eabi/lib/libg.a(lib_a-wcsnrtombs.o)
 .data          0x02015f20        0x0 /home/djjeon/projects/nds-ide/devkitARM/bin/../lib/gcc/arm-none-eabi/4.7.1/../../../../arm-none-eabi/lib/libg.a(lib_a-fclose.o)
 .data          0x02015f20        0x0 /home/djjeon/projects/nds-ide/devkitARM/bin/../lib/gcc/arm-none-eabi/4.7.1/../../../../arm-none-eabi/lib/libg.a(lib_a-getenv_r.o)
 .data          0x02015f20        0x4 /home/djjeon/projects/nds-ide/devkitARM/bin/../lib/gcc/arm-none-eabi/4.7.1/../../../../arm-none-eabi/lib/libg.a(lib_a-environ.o)
                0x02015f20                environ
 .data          0x02015f24        0x0 /home/djjeon/projects/nds-ide/devkitARM/bin/../lib/gcc/arm-none-eabi/4.7.1/../../../../arm-none-eabi/lib/libg.a(lib_a-envlock.o)
 .data          0x02015f24       0x44 /home/djjeon/projects/nds-ide/devkitARM/bin/../lib/gcc/arm-none-eabi/4.7.1/../../../../arm-none-eabi/lib/libsysbase.a(iosupport.o)
                0x02015f28                devoptab_list
 .data          0x02015f68        0x0 /home/djjeon/projects/nds-ide/devkitARM/bin/../lib/gcc/arm-none-eabi/4.7.1/../../../../arm-none-eabi/lib/libsysbase.a(close.o)
 .data          0x02015f68        0x0 /home/djjeon/projects/nds-ide/devkitARM/bin/../lib/gcc/arm-none-eabi/4.7.1/../../../../arm-none-eabi/lib/libsysbase.a(fstat.o)
 .data          0x02015f68        0x0 /home/djjeon/projects/nds-ide/devkitARM/bin/../lib/gcc/arm-none-eabi/4.7.1/../../../../arm-none-eabi/lib/libsysbase.a(isatty.o)
 .data          0x02015f68        0x0 /home/djjeon/projects/nds-ide/devkitARM/bin/../lib/gcc/arm-none-eabi/4.7.1/../../../../arm-none-eabi/lib/libsysbase.a(lseek.o)
 .data          0x02015f68        0x0 /home/djjeon/projects/nds-ide/devkitARM/bin/../lib/gcc/arm-none-eabi/4.7.1/../../../../arm-none-eabi/lib/libsysbase.a(read.o)
 .data          0x02015f68        0x0 /home/djjeon/projects/nds-ide/devkitARM/bin/../lib/gcc/arm-none-eabi/4.7.1/../../../../arm-none-eabi/lib/libsysbase.a(sbrk.o)
 .data          0x02015f68        0x0 /home/djjeon/projects/nds-ide/devkitARM/bin/../lib/gcc/arm-none-eabi/4.7.1/../../../../arm-none-eabi/lib/libsysbase.a(times.o)
 .data          0x02015f68        0x0 /home/djjeon/projects/nds-ide/devkitARM/bin/../lib/gcc/arm-none-eabi/4.7.1/../../../../arm-none-eabi/lib/libsysbase.a(write.o)
 .data          0x02015f68        0x0 /home/djjeon/projects/nds-ide/devkitARM/bin/../lib/gcc/arm-none-eabi/4.7.1/../../../../arm-none-eabi/lib/libsysbase.a(malloc_vars.o)
 .data          0x02015f68        0x0 /home/djjeon/projects/nds-ide/devkitARM/bin/../lib/gcc/arm-none-eabi/4.7.1/../../../../arm-none-eabi/lib/libsysbase.a(build_argv.o)
 .data          0x02015f68        0x0 /home/djjeon/projects/nds-ide/devkitARM/bin/../lib/gcc/arm-none-eabi/4.7.1/../../../../arm-none-eabi/lib/libsysbase.a(syscall_support.o)
 .data          0x02015f68        0x0 /home/djjeon/projects/nds-ide/devkitARM/bin/../lib/gcc/arm-none-eabi/4.7.1/../../../../arm-none-eabi/lib/libsysbase.a(handle_manager.o)
 .data          0x02015f68        0x0 /home/djjeon/projects/nds-ide/devkitARM/bin/../lib/gcc/arm-none-eabi/4.7.1/libgcc.a(_udivsi3.o)
 .data          0x02015f68        0x0 /home/djjeon/projects/nds-ide/devkitARM/bin/../lib/gcc/arm-none-eabi/4.7.1/libgcc.a(_aeabi_uldivmod.o)
 .data          0x02015f68        0x0 /home/djjeon/projects/nds-ide/devkitARM/bin/../lib/gcc/arm-none-eabi/4.7.1/libgcc.a(bpabi.o)
 .data          0x02015f68        0x0 /home/djjeon/projects/nds-ide/devkitARM/bin/../lib/gcc/arm-none-eabi/4.7.1/libgcc.a(_divdi3.o)
 .data          0x02015f68        0x0 /home/djjeon/projects/nds-ide/devkitARM/bin/../lib/gcc/arm-none-eabi/4.7.1/libgcc.a(_udivdi3.o)
 .data          0x02015f68        0x0 /home/djjeon/projects/nds-ide/devkitARM/bin/../lib/gcc/arm-none-eabi/4.7.1/libgcc.a(_clzsi2.o)
 .data          0x02015f68        0x0 /home/djjeon/projects/nds-ide/devkitARM/bin/../lib/gcc/arm-none-eabi/4.7.1/../../../../arm-none-eabi/lib/libg.a(lib_a-errno.o)
 .data          0x02015f68        0x0 /home/djjeon/projects/nds-ide/devkitARM/bin/../lib/gcc/arm-none-eabi/4.7.1/crtend.o
 .data          0x02015f68        0x0 /home/djjeon/projects/nds-ide/devkitARM/bin/../lib/gcc/arm-none-eabi/4.7.1/crtn.o
 *(.data.*)
 *(.gnu.linkonce.d*)
                0x02015f68                . = ALIGN (0x4)
                0x02015f68                __data_end = ABSOLUTE (.)
                0x02015f68                __dtcm_lma = .
                0x02015f68                __bss_vma = .

.igot.plt       0x02015f68        0x0
 .igot.plt      0x00000000        0x0 /home/djjeon/projects/nds-ide/devkitARM/bin/../lib/gcc/arm-none-eabi/4.7.1/../../../../arm-none-eabi/lib/ds_arm9_crt0.o

.tm_clone_table
                0x02015f68        0x0
 .tm_clone_table
                0x02015f68        0x0 /home/djjeon/projects/nds-ide/devkitARM/bin/../lib/gcc/arm-none-eabi/4.7.1/crtbegin.o
 .tm_clone_table
                0x02015f68        0x0 /home/djjeon/projects/nds-ide/devkitARM/bin/../lib/gcc/arm-none-eabi/4.7.1/crtend.o

.dtcm           0x0b000000        0x0 load address 0x02015f68
 *(.dtcm)
 *(.dtcm.*)
                0x0b000000                . = ALIGN (0x4)
                0x0b000000                __dtcm_end = ABSOLUTE (.)
                0x02015f68                __itcm_lma = (__dtcm_lma + SIZEOF (.dtcm))

.itcm           0x01000100      0x194 load address 0x02015f68
 *(.itcm)
 .itcm          0x01000100       0xc8 /home/djjeon/projects/nds-ide/devkitARM/libnds/lib/libnds9.a(interrupts.o)
                0x01000100                irqTable
 .itcm          0x010001c8       0xcc /home/djjeon/projects/nds-ide/devkitARM/libnds/lib/libnds9.a(interruptDispatcher.o)
                0x010001c8                IntrMain
 *itcm.*(.text)
                0x01000294                . = ALIGN (0x4)
                0x01000294                __itcm_end = ABSOLUTE (.)
                0x020160fc                __vectors_lma = (__itcm_lma + SIZEOF (.itcm))

.vectors        0x01000000        0x0 load address 0x020160fc
 *(.vectors)
 *vectors.*(.text)
                0x01000000                . = ALIGN (0x4)
                0x01000000                __vectors_end = ABSOLUTE (.)

.sbss           0x0b000000        0x0
                0x0b000000                __sbss_start = ABSOLUTE (.)
                0x0b000000                __sbss_start__ = ABSOLUTE (.)
 *(.sbss)
                0x0b000000                . = ALIGN (0x4)
                0x0b000000                __sbss_end = ABSOLUTE (.)

.bss            0x02015f68     0x24e4
                0x02015f68                __bss_start = ABSOLUTE (.)
                0x02015f68                __bss_start__ = ABSOLUTE (.)
 *(.dynbss)
 *(.gnu.linkonce.b*)
 *(.bss*)
 .bss           0x02015f68        0x0 /home/djjeon/projects/nds-ide/devkitARM/bin/../lib/gcc/arm-none-eabi/4.7.1/../../../../arm-none-eabi/lib/ds_arm9_crt0.o
 .bss           0x02015f68        0x0 /home/djjeon/projects/nds-ide/devkitARM/bin/../lib/gcc/arm-none-eabi/4.7.1/crti.o
 .bss           0x02015f68       0x1c /home/djjeon/projects/nds-ide/devkitARM/bin/../lib/gcc/arm-none-eabi/4.7.1/crtbegin.o
 .bss           0x02015f84       0x10 build/obj/nds_simple.c.o
                0x02015f84                frame
                0x02015f88                motor2speed
                0x02015f8c                titi
                0x02015f90                switch_count
 .bss           0x02015f94        0x0 build/obj/tpl_os_alarm_kernel.c.o
 .bss           0x02015f94        0x0 build/obj/tpl_os_event_kernel.c.o
 .bss           0x02015f94       0x14 build/obj/tpl_os_it_kernel.c.o
                0x02015f94                tpl_user_task_lock
                0x02015f98                tpl_cpt_user_task_lock_OS
                0x02015f9c                tpl_cpt_user_task_lock_All
                0x02015fa0                tpl_cpt_os_task_lock
                0x02015fa4                tpl_locking_depth
 .bss           0x02015fa8        0x0 build/obj/tpl_os_rez_kernel.c.o
 .bss           0x02015fa8        0x0 build/obj/tpl_os_task_kernel.c.o
 .bss           0x02015fa8        0x1 build/obj/tpl_os_timeobj_kernel.c.o
 *fill*         0x02015fa9        0x3 00
 .bss           0x02015fac        0xc build/obj/tpl_os_kernel.c.o
                0x02015fb0                idle_task
 .bss           0x02015fb8        0x0 build/obj/tpl_os_action.c.o
 .bss           0x02015fb8        0x0 build/obj/tpl_os_error.c.o
 .bss           0x02015fb8        0x0 build/obj/tpl_os.c.o
 .bss           0x02015fb8        0x0 build/obj/tpl_os_alarm.c.o
 .bss           0x02015fb8        0x0 build/obj/tpl_os_event.c.o
 .bss           0x02015fb8        0x0 build/obj/tpl_os_it.c.o
 .bss           0x02015fb8        0x0 build/obj/tpl_os_rez.c.o
 .bss           0x02015fb8        0x0 build/obj/tpl_os_task.c.o
 .bss           0x02015fb8        0x0 build/obj/nds_arm9_bootstrap_stage1.S.o
 .bss           0x02015fb8        0x0 build/obj/nds_tpl_sleep.S.o
 .bss           0x02015fb8        0x0 build/obj/nds_tpl_stubs.c.o
 .bss           0x02015fb8        0x0 build/obj/tpl_machine_arm_generic.S.o
 .bss           0x02015fb8        0x0 build/obj/tpl_stacks.S.o
 .bss           0x02015fb8        0x0 build/obj/tpl_switch_context.S.o
 .bss           0x02015fb8        0x8 build/obj/tpl_app_config.c.o
                0x02015fb8                tpl_fifo_rw
 .bss           0x02015fc0        0x0 /home/djjeon/projects/nds-ide/devkitARM/libnds/lib/libnds9.a(console.o)
 .bss           0x02015fc0        0x0 /home/djjeon/projects/nds-ide/devkitARM/libnds/lib/libnds9.a(touch.o)
 .bss           0x02015fc0        0x0 /home/djjeon/projects/nds-ide/devkitARM/libnds/lib/libnds9.a(initSystem.o)
 .bss           0x02015fc0        0x8 /home/djjeon/projects/nds-ide/devkitARM/libnds/lib/libnds9.a(fifosystem.o)
                0x02015fc4                processing
 .bss           0x02015fc8        0x0 /home/djjeon/projects/nds-ide/devkitARM/libnds/lib/libnds9.a(interrupts.o)
 .bss           0x02015fc8        0x0 /home/djjeon/projects/nds-ide/devkitARM/libnds/lib/libnds9.a(libnds_exit.arm.o)
 .bss           0x02015fc8        0x0 /home/djjeon/projects/nds-ide/devkitARM/libnds/lib/libnds9.a(mpu_setup.o)
 .bss           0x02015fc8        0x0 /home/djjeon/projects/nds-ide/devkitARM/libnds/lib/libnds9.a(biosCalls.o)
 .bss           0x02015fc8        0x0 /home/djjeon/projects/nds-ide/devkitARM/libnds/lib/libnds9.a(debugprint.o)
 .bss           0x02015fc8        0x0 /home/djjeon/projects/nds-ide/devkitARM/libnds/lib/libnds9.a(interruptDispatcher.o)
 .bss           0x02015fc8        0x0 /home/djjeon/projects/nds-ide/devkitARM/libnds/lib/libnds9.a(swiSoftReset.o)
 .bss           0x02015fc8        0x0 /home/djjeon/projects/nds-ide/devkitARM/libnds/lib/libnds9.a(default_font.bin.o)
 .bss           0x02015fc8        0x0 /home/djjeon/projects/nds-ide/devkitARM/libnds/lib/libnds9.a(background.o)
 .bss           0x02015fc8        0x4 /home/djjeon/projects/nds-ide/devkitARM/libnds/lib/libnds9.a(system.o)
 .bss           0x02015fcc        0x0 /home/djjeon/projects/nds-ide/devkitARM/libnds/lib/libnds9.a(trig.o)
 .bss           0x02015fcc        0x0 /home/djjeon/projects/nds-ide/devkitARM/libnds/lib/libnds9.a(video.o)
 .bss           0x02015fcc        0x0 /home/djjeon/projects/nds-ide/devkitARM/bin/../lib/gcc/arm-none-eabi/4.7.1/libgcc.a(_divsi3.o)
 .bss           0x02015fcc        0x0 /home/djjeon/projects/nds-ide/devkitARM/bin/../lib/gcc/arm-none-eabi/4.7.1/libgcc.a(_dvmd_tls.o)
 .bss           0x02015fcc        0x0 /home/djjeon/projects/nds-ide/devkitARM/bin/../lib/gcc/arm-none-eabi/4.7.1/../../../../arm-none-eabi/lib/libg.a(lib_a-bsearch.o)
 .bss           0x02015fcc        0x0 /home/djjeon/projects/nds-ide/devkitARM/bin/../lib/gcc/arm-none-eabi/4.7.1/../../../../arm-none-eabi/lib/libg.a(lib_a-impure.o)
 .bss           0x02015fcc        0x0 /home/djjeon/projects/nds-ide/devkitARM/bin/../lib/gcc/arm-none-eabi/4.7.1/../../../../arm-none-eabi/lib/libg.a(lib_a-init.o)
 .bss           0x02015fcc        0x0 /home/djjeon/projects/nds-ide/devkitARM/bin/../lib/gcc/arm-none-eabi/4.7.1/../../../../arm-none-eabi/lib/libg.a(lib_a-iprintf.o)
 .bss           0x02015fcc        0x0 /home/djjeon/projects/nds-ide/devkitARM/bin/../lib/gcc/arm-none-eabi/4.7.1/../../../../arm-none-eabi/lib/libg.a(lib_a-memcpy-stub.o)
 .bss           0x02015fcc        0x0 /home/djjeon/projects/nds-ide/devkitARM/bin/../lib/gcc/arm-none-eabi/4.7.1/../../../../arm-none-eabi/lib/libg.a(lib_a-setvbuf.o)
 .bss           0x02015fcc        0x0 /home/djjeon/projects/nds-ide/devkitARM/bin/../lib/gcc/arm-none-eabi/4.7.1/../../../../arm-none-eabi/lib/libg.a(lib_a-siscanf.o)
 .bss           0x02015fcc        0x0 /home/djjeon/projects/nds-ide/devkitARM/bin/../lib/gcc/arm-none-eabi/4.7.1/../../../../arm-none-eabi/lib/libg.a(lib_a-stdio.o)
 .bss           0x02015fcc        0x0 /home/djjeon/projects/nds-ide/devkitARM/bin/../lib/gcc/arm-none-eabi/4.7.1/../../../../arm-none-eabi/lib/libg.a(lib_a-strlen.o)
 .bss           0x02015fcc        0x0 /home/djjeon/projects/nds-ide/devkitARM/bin/../lib/gcc/arm-none-eabi/4.7.1/../../../../arm-none-eabi/lib/libg.a(lib_a-svfiscanf.o)
 .bss           0x02015fcc        0x0 /home/djjeon/projects/nds-ide/devkitARM/bin/../lib/gcc/arm-none-eabi/4.7.1/../../../../arm-none-eabi/lib/libg.a(lib_a-ungetc.o)
 .bss           0x02015fcc        0x0 /home/djjeon/projects/nds-ide/devkitARM/bin/../lib/gcc/arm-none-eabi/4.7.1/../../../../arm-none-eabi/lib/libg.a(lib_a-vfiprintf.o)
 .bss           0x02015fcc        0x0 /home/djjeon/projects/nds-ide/devkitARM/bin/../lib/gcc/arm-none-eabi/4.7.1/../../../../arm-none-eabi/lib/libg.a(lib_a-wcrtomb.o)
 .bss           0x02015fcc        0x0 /home/djjeon/projects/nds-ide/devkitARM/bin/../lib/gcc/arm-none-eabi/4.7.1/../../../../arm-none-eabi/lib/libg.a(lib_a-wcsrtombs.o)
 .bss           0x02015fcc        0x0 /home/djjeon/projects/nds-ide/devkitARM/bin/../lib/gcc/arm-none-eabi/4.7.1/../../../../arm-none-eabi/lib/libg.a(lib_a-wctomb_r.o)
 .bss           0x02015fcc        0x0 /home/djjeon/projects/nds-ide/devkitARM/bin/../lib/gcc/arm-none-eabi/4.7.1/../../../../arm-none-eabi/lib/libg.a(lib_a-wsetup.o)
 .bss           0x02015fcc        0x0 /home/djjeon/projects/nds-ide/devkitARM/bin/../lib/gcc/arm-none-eabi/4.7.1/../../../../arm-none-eabi/lib/libg.a(lib_a-ctype_.o)
 .bss           0x02015fcc        0x0 /home/djjeon/projects/nds-ide/devkitARM/bin/../lib/gcc/arm-none-eabi/4.7.1/../../../../arm-none-eabi/lib/libg.a(lib_a-fflush.o)
 .bss           0x02015fcc        0x0 /home/djjeon/projects/nds-ide/devkitARM/bin/../lib/gcc/arm-none-eabi/4.7.1/../../../../arm-none-eabi/lib/libg.a(lib_a-findfp.o)
 .bss           0x02015fcc        0x0 /home/djjeon/projects/nds-ide/devkitARM/bin/../lib/gcc/arm-none-eabi/4.7.1/../../../../arm-none-eabi/lib/libg.a(lib_a-fputwc.o)
 .bss           0x02015fcc        0x0 /home/djjeon/projects/nds-ide/devkitARM/bin/../lib/gcc/arm-none-eabi/4.7.1/../../../../arm-none-eabi/lib/libg.a(lib_a-freer.o)
 .bss           0x02015fcc        0x0 /home/djjeon/projects/nds-ide/devkitARM/bin/../lib/gcc/arm-none-eabi/4.7.1/../../../../arm-none-eabi/lib/libg.a(lib_a-fvwrite.o)
 .bss           0x02015fcc        0x0 /home/djjeon/projects/nds-ide/devkitARM/bin/../lib/gcc/arm-none-eabi/4.7.1/../../../../arm-none-eabi/lib/libg.a(lib_a-fwalk.o)
 .bss           0x02015fcc        0x0 /home/djjeon/projects/nds-ide/devkitARM/bin/../lib/gcc/arm-none-eabi/4.7.1/../../../../arm-none-eabi/lib/libg.a(lib_a-iswspace.o)
 .bss           0x02015fcc        0x0 /home/djjeon/projects/nds-ide/devkitARM/bin/../lib/gcc/arm-none-eabi/4.7.1/../../../../arm-none-eabi/lib/libg.a(lib_a-jp2uc.o)
 .bss           0x02015fcc      0x2b8 /home/djjeon/projects/nds-ide/devkitARM/bin/../lib/gcc/arm-none-eabi/4.7.1/../../../../arm-none-eabi/lib/libg.a(lib_a-locale.o)
                0x02016278                _PathLocale
                0x0201627c                __mlocale_changed
                0x02016280                __nlocale_changed
 .bss           0x02016284        0x0 /home/djjeon/projects/nds-ide/devkitARM/bin/../lib/gcc/arm-none-eabi/4.7.1/../../../../arm-none-eabi/lib/libg.a(lib_a-makebuf.o)
 .bss           0x02016284        0x0 /home/djjeon/projects/nds-ide/devkitARM/bin/../lib/gcc/arm-none-eabi/4.7.1/../../../../arm-none-eabi/lib/libg.a(lib_a-malloc.o)
 .bss           0x02016284       0x34 /home/djjeon/projects/nds-ide/devkitARM/bin/../lib/gcc/arm-none-eabi/4.7.1/../../../../arm-none-eabi/lib/libg.a(lib_a-mallocr.o)
                0x02016284                __malloc_top_pad
                0x02016288                __malloc_current_mallinfo
                0x020162b0                __malloc_max_sbrked_mem
                0x020162b4                __malloc_max_total_mem
 .bss           0x020162b8        0x0 /home/djjeon/projects/nds-ide/devkitARM/bin/../lib/gcc/arm-none-eabi/4.7.1/../../../../arm-none-eabi/lib/libg.a(lib_a-mbrtowc.o)
 .bss           0x020162b8        0x0 /home/djjeon/projects/nds-ide/devkitARM/bin/../lib/gcc/arm-none-eabi/4.7.1/../../../../arm-none-eabi/lib/libg.a(lib_a-mbtowc_r.o)
 .bss           0x020162b8        0x0 /home/djjeon/projects/nds-ide/devkitARM/bin/../lib/gcc/arm-none-eabi/4.7.1/../../../../arm-none-eabi/lib/libg.a(lib_a-memchr-stub.o)
 .bss           0x020162b8        0x0 /home/djjeon/projects/nds-ide/devkitARM/bin/../lib/gcc/arm-none-eabi/4.7.1/../../../../arm-none-eabi/lib/libg.a(lib_a-memmove.o)
 .bss           0x020162b8        0x0 /home/djjeon/projects/nds-ide/devkitARM/bin/../lib/gcc/arm-none-eabi/4.7.1/../../../../arm-none-eabi/lib/libg.a(lib_a-memset.o)
 .bss           0x020162b8        0x0 /home/djjeon/projects/nds-ide/devkitARM/bin/../lib/gcc/arm-none-eabi/4.7.1/../../../../arm-none-eabi/lib/libg.a(lib_a-mlock.o)
 .bss           0x020162b8        0x0 /home/djjeon/projects/nds-ide/devkitARM/bin/../lib/gcc/arm-none-eabi/4.7.1/../../../../arm-none-eabi/lib/libg.a(lib_a-reallocr.o)
 .bss           0x020162b8        0x0 /home/djjeon/projects/nds-ide/devkitARM/bin/../lib/gcc/arm-none-eabi/4.7.1/../../../../arm-none-eabi/lib/libg.a(lib_a-sccl.o)
 .bss           0x020162b8        0x0 /home/djjeon/projects/nds-ide/devkitARM/bin/../lib/gcc/arm-none-eabi/4.7.1/../../../../arm-none-eabi/lib/libg.a(lib_a-strcasecmp.o)
 .bss           0x020162b8        0x0 /home/djjeon/projects/nds-ide/devkitARM/bin/../lib/gcc/arm-none-eabi/4.7.1/../../../../arm-none-eabi/lib/libg.a(lib_a-strcat.o)
 .bss           0x020162b8        0x0 /home/djjeon/projects/nds-ide/devkitARM/bin/../lib/gcc/arm-none-eabi/4.7.1/../../../../arm-none-eabi/lib/libg.a(lib_a-strchr.o)
 .bss           0x020162b8        0x0 /home/djjeon/projects/nds-ide/devkitARM/bin/../lib/gcc/arm-none-eabi/4.7.1/../../../../arm-none-eabi/lib/libg.a(lib_a-strcmp.o)
 .bss           0x020162b8        0x0 /home/djjeon/projects/nds-ide/devkitARM/bin/../lib/gcc/arm-none-eabi/4.7.1/../../../../arm-none-eabi/lib/libg.a(lib_a-strcpy.o)
 .bss           0x020162b8        0x0 /home/djjeon/projects/nds-ide/devkitARM/bin/../lib/gcc/arm-none-eabi/4.7.1/../../../../arm-none-eabi/lib/libg.a(lib_a-strlcpy.o)
 .bss           0x020162b8        0x0 /home/djjeon/projects/nds-ide/devkitARM/bin/../lib/gcc/arm-none-eabi/4.7.1/../../../../arm-none-eabi/lib/libg.a(lib_a-strncasecmp.o)
 .bss           0x020162b8        0x0 /home/djjeon/projects/nds-ide/devkitARM/bin/../lib/gcc/arm-none-eabi/4.7.1/../../../../arm-none-eabi/lib/libg.a(lib_a-strncmp.o)
 .bss           0x020162b8        0x0 /home/djjeon/projects/nds-ide/devkitARM/bin/../lib/gcc/arm-none-eabi/4.7.1/../../../../arm-none-eabi/lib/libg.a(lib_a-strncpy.o)
 .bss           0x020162b8        0x0 /home/djjeon/projects/nds-ide/devkitARM/bin/../lib/gcc/arm-none-eabi/4.7.1/../../../../arm-none-eabi/lib/libg.a(lib_a-strtoll_r.o)
 .bss           0x020162b8        0x0 /home/djjeon/projects/nds-ide/devkitARM/bin/../lib/gcc/arm-none-eabi/4.7.1/../../../../arm-none-eabi/lib/libg.a(lib_a-strtol.o)
 .bss           0x020162b8        0x0 /home/djjeon/projects/nds-ide/devkitARM/bin/../lib/gcc/arm-none-eabi/4.7.1/../../../../arm-none-eabi/lib/libg.a(lib_a-strtoull_r.o)
 .bss           0x020162b8        0x0 /home/djjeon/projects/nds-ide/devkitARM/bin/../lib/gcc/arm-none-eabi/4.7.1/../../../../arm-none-eabi/lib/libg.a(lib_a-strtoul.o)
 .bss           0x020162b8        0x0 /home/djjeon/projects/nds-ide/devkitARM/bin/../lib/gcc/arm-none-eabi/4.7.1/../../../../arm-none-eabi/lib/libg.a(lib_a-wbuf.o)
 .bss           0x020162b8        0x0 /home/djjeon/projects/nds-ide/devkitARM/bin/../lib/gcc/arm-none-eabi/4.7.1/../../../../arm-none-eabi/lib/libg.a(lib_a-wcsnrtombs.o)
 .bss           0x020162b8        0x0 /home/djjeon/projects/nds-ide/devkitARM/bin/../lib/gcc/arm-none-eabi/4.7.1/../../../../arm-none-eabi/lib/libg.a(lib_a-fclose.o)
 .bss           0x020162b8        0x0 /home/djjeon/projects/nds-ide/devkitARM/bin/../lib/gcc/arm-none-eabi/4.7.1/../../../../arm-none-eabi/lib/libg.a(lib_a-getenv_r.o)
 .bss           0x020162b8        0x4 /home/djjeon/projects/nds-ide/devkitARM/bin/../lib/gcc/arm-none-eabi/4.7.1/../../../../arm-none-eabi/lib/libg.a(lib_a-environ.o)
 .bss           0x020162bc        0x0 /home/djjeon/projects/nds-ide/devkitARM/bin/../lib/gcc/arm-none-eabi/4.7.1/../../../../arm-none-eabi/lib/libg.a(lib_a-envlock.o)
 .bss           0x020162bc        0x0 /home/djjeon/projects/nds-ide/devkitARM/bin/../lib/gcc/arm-none-eabi/4.7.1/../../../../arm-none-eabi/lib/libsysbase.a(iosupport.o)
 .bss           0x020162bc        0x0 /home/djjeon/projects/nds-ide/devkitARM/bin/../lib/gcc/arm-none-eabi/4.7.1/../../../../arm-none-eabi/lib/libsysbase.a(close.o)
 .bss           0x020162bc        0x0 /home/djjeon/projects/nds-ide/devkitARM/bin/../lib/gcc/arm-none-eabi/4.7.1/../../../../arm-none-eabi/lib/libsysbase.a(fstat.o)
 .bss           0x020162bc        0x0 /home/djjeon/projects/nds-ide/devkitARM/bin/../lib/gcc/arm-none-eabi/4.7.1/../../../../arm-none-eabi/lib/libsysbase.a(isatty.o)
 .bss           0x020162bc        0x0 /home/djjeon/projects/nds-ide/devkitARM/bin/../lib/gcc/arm-none-eabi/4.7.1/../../../../arm-none-eabi/lib/libsysbase.a(lseek.o)
 .bss           0x020162bc        0x0 /home/djjeon/projects/nds-ide/devkitARM/bin/../lib/gcc/arm-none-eabi/4.7.1/../../../../arm-none-eabi/lib/libsysbase.a(read.o)
 .bss           0x020162bc        0x4 /home/djjeon/projects/nds-ide/devkitARM/bin/../lib/gcc/arm-none-eabi/4.7.1/../../../../arm-none-eabi/lib/libsysbase.a(sbrk.o)
 .bss           0x020162c0        0x0 /home/djjeon/projects/nds-ide/devkitARM/bin/../lib/gcc/arm-none-eabi/4.7.1/../../../../arm-none-eabi/lib/libsysbase.a(times.o)
 .bss           0x020162c0        0x0 /home/djjeon/projects/nds-ide/devkitARM/bin/../lib/gcc/arm-none-eabi/4.7.1/../../../../arm-none-eabi/lib/libsysbase.a(write.o)
 .bss           0x020162c0        0x8 /home/djjeon/projects/nds-ide/devkitARM/bin/../lib/gcc/arm-none-eabi/4.7.1/../../../../arm-none-eabi/lib/libsysbase.a(malloc_vars.o)
                0x020162c0                fake_heap_start
                0x020162c4                fake_heap_end
 .bss           0x020162c8        0x0 /home/djjeon/projects/nds-ide/devkitARM/bin/../lib/gcc/arm-none-eabi/4.7.1/../../../../arm-none-eabi/lib/libsysbase.a(build_argv.o)
 .bss           0x020162c8        0x8 /home/djjeon/projects/nds-ide/devkitARM/bin/../lib/gcc/arm-none-eabi/4.7.1/../../../../arm-none-eabi/lib/libsysbase.a(syscall_support.o)
                0x020162c8                __syscalls
 .bss           0x020162d0     0x1000 /home/djjeon/projects/nds-ide/devkitARM/bin/../lib/gcc/arm-none-eabi/4.7.1/../../../../arm-none-eabi/lib/libsysbase.a(handle_manager.o)
 .bss           0x020172d0        0x0 /home/djjeon/projects/nds-ide/devkitARM/bin/../lib/gcc/arm-none-eabi/4.7.1/libgcc.a(_udivsi3.o)
 .bss           0x020172d0        0x0 /home/djjeon/projects/nds-ide/devkitARM/bin/../lib/gcc/arm-none-eabi/4.7.1/libgcc.a(_aeabi_uldivmod.o)
 .bss           0x020172d0        0x0 /home/djjeon/projects/nds-ide/devkitARM/bin/../lib/gcc/arm-none-eabi/4.7.1/libgcc.a(bpabi.o)
 .bss           0x020172d0        0x0 /home/djjeon/projects/nds-ide/devkitARM/bin/../lib/gcc/arm-none-eabi/4.7.1/libgcc.a(_divdi3.o)
 .bss           0x020172d0        0x0 /home/djjeon/projects/nds-ide/devkitARM/bin/../lib/gcc/arm-none-eabi/4.7.1/libgcc.a(_udivdi3.o)
 .bss           0x020172d0        0x0 /home/djjeon/projects/nds-ide/devkitARM/bin/../lib/gcc/arm-none-eabi/4.7.1/libgcc.a(_clzsi2.o)
 .bss           0x020172d0        0x0 /home/djjeon/projects/nds-ide/devkitARM/bin/../lib/gcc/arm-none-eabi/4.7.1/../../../../arm-none-eabi/lib/libg.a(lib_a-errno.o)
 .bss           0x020172d0        0x0 /home/djjeon/projects/nds-ide/devkitARM/bin/../lib/gcc/arm-none-eabi/4.7.1/crtend.o
 .bss           0x020172d0        0x0 /home/djjeon/projects/nds-ide/devkitARM/bin/../lib/gcc/arm-none-eabi/4.7.1/crtn.o
 *(COMMON)
 COMMON         0x020172d0        0x1 build/obj/nds_simple.c.o
                0x020172d0                new_task
 *fill*         0x020172d1        0x3 00
 COMMON         0x020172d4      0x110 build/obj/nds_tpl_stubs.c.o
                0x020172d4                idle_task_context
                0x02017318                idle_stack
                0x020173e0                nested_kernel_entrance_counter
 COMMON         0x020173e4      0x47c build/obj/tpl_app_config.c.o
                0x020173e4                task5_int_context
                0x02017428                tpl_priority_0_fifo
                0x0201742c                task5_stack_zone
                0x02017620                tpl_priority_2_fifo
                0x02017624                task1_int_context
                0x02017668                tpl_priority_1_fifo
                0x0201766c                task1_stack_zone
 COMMON         0x02017860       0x5c /home/djjeon/projects/nds-ide/devkitARM/libnds/lib/libnds9.a(console.o)
                0x02017860                currentCopy
 COMMON         0x020178bc        0x1 /home/djjeon/projects/nds-ide/devkitARM/libnds/lib/libnds9.a(initSystem.o)
                0x020178bc                __dsimode
 *fill*         0x020178bd        0x3 00
 COMMON         0x020178c0      0xa40 /home/djjeon/projects/nds-ide/devkitARM/libnds/lib/libnds9.a(fifosystem.o)
                0x020178c0                fifo_datamsg_data
                0x02017900                fifo_buffer
                0x02018100                fifo_value32_func
                0x02018140                fifo_address_func
                0x02018180                fifo_value32_data
                0x020181c0                fifo_value32_queue
                0x02018200                fifo_data_queue
                0x02018240                fifo_address_data
                0x02018280                fifo_datamsg_func
                0x020182c0                fifo_address_queue
 COMMON         0x02018300      0x148 /home/djjeon/projects/nds-ide/devkitARM/libnds/lib/libnds9.a(background.o)
                0x02018300                bgState
                0x02018440                bgIsTextLut
 COMMON         0x02018448        0x4 /home/djjeon/projects/nds-ide/devkitARM/bin/../lib/gcc/arm-none-eabi/4.7.1/../../../../arm-none-eabi/lib/libsysbase.a(times.o)
                0x02018448                punixTime
                0x0201844c                . = ALIGN (0x4)
                0x0201844c                __bss_end__ = ABSOLUTE (.)
                0x0201844c                __end__ = ABSOLUTE (.)

.stab
 *(.stab)

.stabstr
 *(.stabstr)

.stab.excl
 *(.stab.excl)

.stab.exclstr
 *(.stab.exclstr)

.stab.index
 *(.stab.index)

.stab.indexstr
 *(.stab.indexstr)

.comment        0x00000000       0x22
 *(.comment)
 .comment       0x00000000       0x22 /home/djjeon/projects/nds-ide/devkitARM/bin/../lib/gcc/arm-none-eabi/4.7.1/crtbegin.o
                                 0x23 (size before relaxing)
 .comment       0x00000000       0x23 build/obj/nds_simple.c.o
 .comment       0x00000000       0x23 build/obj/tpl_os_alarm_kernel.c.o
 .comment       0x00000000       0x23 build/obj/tpl_os_event_kernel.c.o
 .comment       0x00000000       0x23 build/obj/tpl_os_it_kernel.c.o
 .comment       0x00000000       0x23 build/obj/tpl_os_rez_kernel.c.o
 .comment       0x00000000       0x23 build/obj/tpl_os_task_kernel.c.o
 .comment       0x00000000       0x23 build/obj/tpl_os_timeobj_kernel.c.o
 .comment       0x00000000       0x23 build/obj/tpl_os_kernel.c.o
 .comment       0x00000000       0x23 build/obj/tpl_os_action.c.o
 .comment       0x00000000       0x23 build/obj/tpl_os_error.c.o
 .comment       0x00000000       0x23 build/obj/tpl_os.c.o
 .comment       0x00000000       0x23 build/obj/tpl_os_alarm.c.o
 .comment       0x00000000       0x23 build/obj/tpl_os_event.c.o
 .comment       0x00000000       0x23 build/obj/tpl_os_it.c.o
 .comment       0x00000000       0x23 build/obj/tpl_os_rez.c.o
 .comment       0x00000000       0x23 build/obj/tpl_os_task.c.o
 .comment       0x00000000       0x23 build/obj/nds_tpl_stubs.c.o
 .comment       0x00000000       0x23 build/obj/tpl_app_config.c.o
 .comment       0x00000000       0x23 /home/djjeon/projects/nds-ide/devkitARM/libnds/lib/libnds9.a(console.o)
 .comment       0x00000000       0x23 /home/djjeon/projects/nds-ide/devkitARM/libnds/lib/libnds9.a(touch.o)
 .comment       0x00000000       0x23 /home/djjeon/projects/nds-ide/devkitARM/libnds/lib/libnds9.a(initSystem.o)
 .comment       0x00000000       0x23 /home/djjeon/projects/nds-ide/devkitARM/libnds/lib/libnds9.a(fifosystem.o)
 .comment       0x00000000       0x23 /home/djjeon/projects/nds-ide/devkitARM/libnds/lib/libnds9.a(interrupts.o)
 .comment       0x00000000       0x23 /home/djjeon/projects/nds-ide/devkitARM/libnds/lib/libnds9.a(libnds_exit.arm.o)
 .comment       0x00000000       0x23 /home/djjeon/projects/nds-ide/devkitARM/libnds/lib/libnds9.a(background.o)
 .comment       0x00000000       0x23 /home/djjeon/projects/nds-ide/devkitARM/libnds/lib/libnds9.a(system.o)
 .comment       0x00000000       0x23 /home/djjeon/projects/nds-ide/devkitARM/libnds/lib/libnds9.a(trig.o)
 .comment       0x00000000       0x23 /home/djjeon/projects/nds-ide/devkitARM/libnds/lib/libnds9.a(video.o)
 .comment       0x00000000       0x23 /home/djjeon/projects/nds-ide/devkitARM/bin/../lib/gcc/arm-none-eabi/4.7.1/../../../../arm-none-eabi/lib/libg.a(lib_a-bsearch.o)
 .comment       0x00000000       0x23 /home/djjeon/projects/nds-ide/devkitARM/bin/../lib/gcc/arm-none-eabi/4.7.1/../../../../arm-none-eabi/lib/libg.a(lib_a-impure.o)
 .comment       0x00000000       0x23 /home/djjeon/projects/nds-ide/devkitARM/bin/../lib/gcc/arm-none-eabi/4.7.1/../../../../arm-none-eabi/lib/libg.a(lib_a-init.o)
 .comment       0x00000000       0x23 /home/djjeon/projects/nds-ide/devkitARM/bin/../lib/gcc/arm-none-eabi/4.7.1/../../../../arm-none-eabi/lib/libg.a(lib_a-iprintf.o)
 .comment       0x00000000       0x23 /home/djjeon/projects/nds-ide/devkitARM/bin/../lib/gcc/arm-none-eabi/4.7.1/../../../../arm-none-eabi/lib/libg.a(lib_a-memcpy-stub.o)
 .comment       0x00000000       0x23 /home/djjeon/projects/nds-ide/devkitARM/bin/../lib/gcc/arm-none-eabi/4.7.1/../../../../arm-none-eabi/lib/libg.a(lib_a-setvbuf.o)
 .comment       0x00000000       0x23 /home/djjeon/projects/nds-ide/devkitARM/bin/../lib/gcc/arm-none-eabi/4.7.1/../../../../arm-none-eabi/lib/libg.a(lib_a-siscanf.o)
 .comment       0x00000000       0x23 /home/djjeon/projects/nds-ide/devkitARM/bin/../lib/gcc/arm-none-eabi/4.7.1/../../../../arm-none-eabi/lib/libg.a(lib_a-stdio.o)
 .comment       0x00000000       0x23 /home/djjeon/projects/nds-ide/devkitARM/bin/../lib/gcc/arm-none-eabi/4.7.1/../../../../arm-none-eabi/lib/libg.a(lib_a-strlen.o)
 .comment       0x00000000       0x23 /home/djjeon/projects/nds-ide/devkitARM/bin/../lib/gcc/arm-none-eabi/4.7.1/../../../../arm-none-eabi/lib/libg.a(lib_a-svfiscanf.o)
 .comment       0x00000000       0x23 /home/djjeon/projects/nds-ide/devkitARM/bin/../lib/gcc/arm-none-eabi/4.7.1/../../../../arm-none-eabi/lib/libg.a(lib_a-ungetc.o)
 .comment       0x00000000       0x23 /home/djjeon/projects/nds-ide/devkitARM/bin/../lib/gcc/arm-none-eabi/4.7.1/../../../../arm-none-eabi/lib/libg.a(lib_a-vfiprintf.o)
 .comment       0x00000000       0x23 /home/djjeon/projects/nds-ide/devkitARM/bin/../lib/gcc/arm-none-eabi/4.7.1/../../../../arm-none-eabi/lib/libg.a(lib_a-wcrtomb.o)
 .comment       0x00000000       0x23 /home/djjeon/projects/nds-ide/devkitARM/bin/../lib/gcc/arm-none-eabi/4.7.1/../../../../arm-none-eabi/lib/libg.a(lib_a-wcsrtombs.o)
 .comment       0x00000000       0x23 /home/djjeon/projects/nds-ide/devkitARM/bin/../lib/gcc/arm-none-eabi/4.7.1/../../../../arm-none-eabi/lib/libg.a(lib_a-wctomb_r.o)
 .comment       0x00000000       0x23 /home/djjeon/projects/nds-ide/devkitARM/bin/../lib/gcc/arm-none-eabi/4.7.1/../../../../arm-none-eabi/lib/libg.a(lib_a-wsetup.o)
 .comment       0x00000000       0x23 /home/djjeon/projects/nds-ide/devkitARM/bin/../lib/gcc/arm-none-eabi/4.7.1/../../../../arm-none-eabi/lib/libg.a(lib_a-ctype_.o)
 .comment       0x00000000       0x23 /home/djjeon/projects/nds-ide/devkitARM/bin/../lib/gcc/arm-none-eabi/4.7.1/../../../../arm-none-eabi/lib/libg.a(lib_a-fflush.o)
 .comment       0x00000000       0x23 /home/djjeon/projects/nds-ide/devkitARM/bin/../lib/gcc/arm-none-eabi/4.7.1/../../../../arm-none-eabi/lib/libg.a(lib_a-findfp.o)
 .comment       0x00000000       0x23 /home/djjeon/projects/nds-ide/devkitARM/bin/../lib/gcc/arm-none-eabi/4.7.1/../../../../arm-none-eabi/lib/libg.a(lib_a-fputwc.o)
 .comment       0x00000000       0x23 /home/djjeon/projects/nds-ide/devkitARM/bin/../lib/gcc/arm-none-eabi/4.7.1/../../../../arm-none-eabi/lib/libg.a(lib_a-freer.o)
 .comment       0x00000000       0x23 /home/djjeon/projects/nds-ide/devkitARM/bin/../lib/gcc/arm-none-eabi/4.7.1/../../../../arm-none-eabi/lib/libg.a(lib_a-fvwrite.o)
 .comment       0x00000000       0x23 /home/djjeon/projects/nds-ide/devkitARM/bin/../lib/gcc/arm-none-eabi/4.7.1/../../../../arm-none-eabi/lib/libg.a(lib_a-fwalk.o)
 .comment       0x00000000       0x23 /home/djjeon/projects/nds-ide/devkitARM/bin/../lib/gcc/arm-none-eabi/4.7.1/../../../../arm-none-eabi/lib/libg.a(lib_a-iswspace.o)
 .comment       0x00000000       0x23 /home/djjeon/projects/nds-ide/devkitARM/bin/../lib/gcc/arm-none-eabi/4.7.1/../../../../arm-none-eabi/lib/libg.a(lib_a-jp2uc.o)
 .comment       0x00000000       0x23 /home/djjeon/projects/nds-ide/devkitARM/bin/../lib/gcc/arm-none-eabi/4.7.1/../../../../arm-none-eabi/lib/libg.a(lib_a-locale.o)
 .comment       0x00000000       0x23 /home/djjeon/projects/nds-ide/devkitARM/bin/../lib/gcc/arm-none-eabi/4.7.1/../../../../arm-none-eabi/lib/libg.a(lib_a-makebuf.o)
 .comment       0x00000000       0x23 /home/djjeon/projects/nds-ide/devkitARM/bin/../lib/gcc/arm-none-eabi/4.7.1/../../../../arm-none-eabi/lib/libg.a(lib_a-malloc.o)
 .comment       0x00000000       0x23 /home/djjeon/projects/nds-ide/devkitARM/bin/../lib/gcc/arm-none-eabi/4.7.1/../../../../arm-none-eabi/lib/libg.a(lib_a-mallocr.o)
 .comment       0x00000000       0x23 /home/djjeon/projects/nds-ide/devkitARM/bin/../lib/gcc/arm-none-eabi/4.7.1/../../../../arm-none-eabi/lib/libg.a(lib_a-mbrtowc.o)
 .comment       0x00000000       0x23 /home/djjeon/projects/nds-ide/devkitARM/bin/../lib/gcc/arm-none-eabi/4.7.1/../../../../arm-none-eabi/lib/libg.a(lib_a-mbtowc_r.o)
 .comment       0x00000000       0x23 /home/djjeon/projects/nds-ide/devkitARM/bin/../lib/gcc/arm-none-eabi/4.7.1/../../../../arm-none-eabi/lib/libg.a(lib_a-memchr-stub.o)
 .comment       0x00000000       0x23 /home/djjeon/projects/nds-ide/devkitARM/bin/../lib/gcc/arm-none-eabi/4.7.1/../../../../arm-none-eabi/lib/libg.a(lib_a-memmove.o)
 .comment       0x00000000       0x23 /home/djjeon/projects/nds-ide/devkitARM/bin/../lib/gcc/arm-none-eabi/4.7.1/../../../../arm-none-eabi/lib/libg.a(lib_a-memset.o)
 .comment       0x00000000       0x23 /home/djjeon/projects/nds-ide/devkitARM/bin/../lib/gcc/arm-none-eabi/4.7.1/../../../../arm-none-eabi/lib/libg.a(lib_a-mlock.o)
 .comment       0x00000000       0x23 /home/djjeon/projects/nds-ide/devkitARM/bin/../lib/gcc/arm-none-eabi/4.7.1/../../../../arm-none-eabi/lib/libg.a(lib_a-reallocr.o)
 .comment       0x00000000       0x23 /home/djjeon/projects/nds-ide/devkitARM/bin/../lib/gcc/arm-none-eabi/4.7.1/../../../../arm-none-eabi/lib/libg.a(lib_a-sccl.o)
 .comment       0x00000000       0x23 /home/djjeon/projects/nds-ide/devkitARM/bin/../lib/gcc/arm-none-eabi/4.7.1/../../../../arm-none-eabi/lib/libg.a(lib_a-strcasecmp.o)
 .comment       0x00000000       0x23 /home/djjeon/projects/nds-ide/devkitARM/bin/../lib/gcc/arm-none-eabi/4.7.1/../../../../arm-none-eabi/lib/libg.a(lib_a-strcat.o)
 .comment       0x00000000       0x23 /home/djjeon/projects/nds-ide/devkitARM/bin/../lib/gcc/arm-none-eabi/4.7.1/../../../../arm-none-eabi/lib/libg.a(lib_a-strchr.o)
 .comment       0x00000000       0x23 /home/djjeon/projects/nds-ide/devkitARM/bin/../lib/gcc/arm-none-eabi/4.7.1/../../../../arm-none-eabi/lib/libg.a(lib_a-strcmp.o)
 .comment       0x00000000       0x23 /home/djjeon/projects/nds-ide/devkitARM/bin/../lib/gcc/arm-none-eabi/4.7.1/../../../../arm-none-eabi/lib/libg.a(lib_a-strcpy.o)
 .comment       0x00000000       0x23 /home/djjeon/projects/nds-ide/devkitARM/bin/../lib/gcc/arm-none-eabi/4.7.1/../../../../arm-none-eabi/lib/libg.a(lib_a-strlcpy.o)
 .comment       0x00000000       0x23 /home/djjeon/projects/nds-ide/devkitARM/bin/../lib/gcc/arm-none-eabi/4.7.1/../../../../arm-none-eabi/lib/libg.a(lib_a-strncasecmp.o)
 .comment       0x00000000       0x23 /home/djjeon/projects/nds-ide/devkitARM/bin/../lib/gcc/arm-none-eabi/4.7.1/../../../../arm-none-eabi/lib/libg.a(lib_a-strncmp.o)
 .comment       0x00000000       0x23 /home/djjeon/projects/nds-ide/devkitARM/bin/../lib/gcc/arm-none-eabi/4.7.1/../../../../arm-none-eabi/lib/libg.a(lib_a-strncpy.o)
 .comment       0x00000000       0x23 /home/djjeon/projects/nds-ide/devkitARM/bin/../lib/gcc/arm-none-eabi/4.7.1/../../../../arm-none-eabi/lib/libg.a(lib_a-strtoll_r.o)
 .comment       0x00000000       0x23 /home/djjeon/projects/nds-ide/devkitARM/bin/../lib/gcc/arm-none-eabi/4.7.1/../../../../arm-none-eabi/lib/libg.a(lib_a-strtol.o)
 .comment       0x00000000       0x23 /home/djjeon/projects/nds-ide/devkitARM/bin/../lib/gcc/arm-none-eabi/4.7.1/../../../../arm-none-eabi/lib/libg.a(lib_a-strtoull_r.o)
 .comment       0x00000000       0x23 /home/djjeon/projects/nds-ide/devkitARM/bin/../lib/gcc/arm-none-eabi/4.7.1/../../../../arm-none-eabi/lib/libg.a(lib_a-strtoul.o)
 .comment       0x00000000       0x23 /home/djjeon/projects/nds-ide/devkitARM/bin/../lib/gcc/arm-none-eabi/4.7.1/../../../../arm-none-eabi/lib/libg.a(lib_a-wbuf.o)
 .comment       0x00000000       0x23 /home/djjeon/projects/nds-ide/devkitARM/bin/../lib/gcc/arm-none-eabi/4.7.1/../../../../arm-none-eabi/lib/libg.a(lib_a-wcsnrtombs.o)
 .comment       0x00000000       0x23 /home/djjeon/projects/nds-ide/devkitARM/bin/../lib/gcc/arm-none-eabi/4.7.1/../../../../arm-none-eabi/lib/libg.a(lib_a-fclose.o)
 .comment       0x00000000       0x23 /home/djjeon/projects/nds-ide/devkitARM/bin/../lib/gcc/arm-none-eabi/4.7.1/../../../../arm-none-eabi/lib/libg.a(lib_a-getenv_r.o)
 .comment       0x00000000       0x23 /home/djjeon/projects/nds-ide/devkitARM/bin/../lib/gcc/arm-none-eabi/4.7.1/../../../../arm-none-eabi/lib/libg.a(lib_a-environ.o)
 .comment       0x00000000       0x23 /home/djjeon/projects/nds-ide/devkitARM/bin/../lib/gcc/arm-none-eabi/4.7.1/../../../../arm-none-eabi/lib/libg.a(lib_a-envlock.o)
 .comment       0x00000000       0x23 /home/djjeon/projects/nds-ide/devkitARM/bin/../lib/gcc/arm-none-eabi/4.7.1/../../../../arm-none-eabi/lib/libsysbase.a(iosupport.o)
 .comment       0x00000000       0x23 /home/djjeon/projects/nds-ide/devkitARM/bin/../lib/gcc/arm-none-eabi/4.7.1/../../../../arm-none-eabi/lib/libsysbase.a(close.o)
 .comment       0x00000000       0x23 /home/djjeon/projects/nds-ide/devkitARM/bin/../lib/gcc/arm-none-eabi/4.7.1/../../../../arm-none-eabi/lib/libsysbase.a(fstat.o)
 .comment       0x00000000       0x23 /home/djjeon/projects/nds-ide/devkitARM/bin/../lib/gcc/arm-none-eabi/4.7.1/../../../../arm-none-eabi/lib/libsysbase.a(isatty.o)
 .comment       0x00000000       0x23 /home/djjeon/projects/nds-ide/devkitARM/bin/../lib/gcc/arm-none-eabi/4.7.1/../../../../arm-none-eabi/lib/libsysbase.a(lseek.o)
 .comment       0x00000000       0x23 /home/djjeon/projects/nds-ide/devkitARM/bin/../lib/gcc/arm-none-eabi/4.7.1/../../../../arm-none-eabi/lib/libsysbase.a(read.o)
 .comment       0x00000000       0x23 /home/djjeon/projects/nds-ide/devkitARM/bin/../lib/gcc/arm-none-eabi/4.7.1/../../../../arm-none-eabi/lib/libsysbase.a(sbrk.o)
 .comment       0x00000000       0x23 /home/djjeon/projects/nds-ide/devkitARM/bin/../lib/gcc/arm-none-eabi/4.7.1/../../../../arm-none-eabi/lib/libsysbase.a(times.o)
 .comment       0x00000000       0x23 /home/djjeon/projects/nds-ide/devkitARM/bin/../lib/gcc/arm-none-eabi/4.7.1/../../../../arm-none-eabi/lib/libsysbase.a(write.o)
 .comment       0x00000000       0x23 /home/djjeon/projects/nds-ide/devkitARM/bin/../lib/gcc/arm-none-eabi/4.7.1/../../../../arm-none-eabi/lib/libsysbase.a(malloc_vars.o)
 .comment       0x00000000       0x23 /home/djjeon/projects/nds-ide/devkitARM/bin/../lib/gcc/arm-none-eabi/4.7.1/../../../../arm-none-eabi/lib/libsysbase.a(build_argv.o)
 .comment       0x00000000       0x23 /home/djjeon/projects/nds-ide/devkitARM/bin/../lib/gcc/arm-none-eabi/4.7.1/../../../../arm-none-eabi/lib/libsysbase.a(syscall_support.o)
 .comment       0x00000000       0x23 /home/djjeon/projects/nds-ide/devkitARM/bin/../lib/gcc/arm-none-eabi/4.7.1/../../../../arm-none-eabi/lib/libsysbase.a(handle_manager.o)
 .comment       0x00000000       0x23 /home/djjeon/projects/nds-ide/devkitARM/bin/../lib/gcc/arm-none-eabi/4.7.1/libgcc.a(bpabi.o)
 .comment       0x00000000       0x23 /home/djjeon/projects/nds-ide/devkitARM/bin/../lib/gcc/arm-none-eabi/4.7.1/libgcc.a(_divdi3.o)
 .comment       0x00000000       0x23 /home/djjeon/projects/nds-ide/devkitARM/bin/../lib/gcc/arm-none-eabi/4.7.1/libgcc.a(_udivdi3.o)
 .comment       0x00000000       0x23 /home/djjeon/projects/nds-ide/devkitARM/bin/../lib/gcc/arm-none-eabi/4.7.1/../../../../arm-none-eabi/lib/libg.a(lib_a-errno.o)
 .comment       0x00000000       0x23 /home/djjeon/projects/nds-ide/devkitARM/bin/../lib/gcc/arm-none-eabi/4.7.1/crtend.o

.ARM.attributes
                0x00000000       0x2f
 .ARM.attributes
                0x00000000       0x23 /home/djjeon/projects/nds-ide/devkitARM/bin/../lib/gcc/arm-none-eabi/4.7.1/../../../../arm-none-eabi/lib/ds_arm9_crt0.o
 .ARM.attributes
                0x00000023       0x18 /home/djjeon/projects/nds-ide/devkitARM/bin/../lib/gcc/arm-none-eabi/4.7.1/crti.o
 .ARM.attributes
                0x0000003b       0x32 /home/djjeon/projects/nds-ide/devkitARM/bin/../lib/gcc/arm-none-eabi/4.7.1/crtbegin.o
 .ARM.attributes
                0x0000006d       0x29 build/obj/nds_simple.c.o
 .ARM.attributes
                0x00000096       0x29 build/obj/tpl_os_alarm_kernel.c.o
 .ARM.attributes
                0x000000bf       0x29 build/obj/tpl_os_event_kernel.c.o
 .ARM.attributes
                0x000000e8       0x29 build/obj/tpl_os_it_kernel.c.o
 .ARM.attributes
                0x00000111       0x29 build/obj/tpl_os_rez_kernel.c.o
 .ARM.attributes
                0x0000013a       0x29 build/obj/tpl_os_task_kernel.c.o
 .ARM.attributes
                0x00000163       0x29 build/obj/tpl_os_timeobj_kernel.c.o
 .ARM.attributes
                0x0000018c       0x29 build/obj/tpl_os_kernel.c.o
 .ARM.attributes
                0x000001b5       0x29 build/obj/tpl_os_action.c.o
 .ARM.attributes
                0x000001de       0x29 build/obj/tpl_os_error.c.o
 .ARM.attributes
                0x00000207       0x29 build/obj/tpl_os.c.o
 .ARM.attributes
                0x00000230       0x29 build/obj/tpl_os_alarm.c.o
 .ARM.attributes
                0x00000259       0x29 build/obj/tpl_os_event.c.o
 .ARM.attributes
                0x00000282       0x29 build/obj/tpl_os_it.c.o
 .ARM.attributes
                0x000002ab       0x29 build/obj/tpl_os_rez.c.o
 .ARM.attributes
                0x000002d4       0x29 build/obj/tpl_os_task.c.o
 .ARM.attributes
                0x000002fd       0x23 build/obj/nds_arm9_bootstrap_stage1.S.o
 .ARM.attributes
                0x00000320       0x16 build/obj/nds_tpl_sleep.S.o
 .ARM.attributes
                0x00000336       0x29 build/obj/nds_tpl_stubs.c.o
 .ARM.attributes
                0x0000035f       0x18 build/obj/tpl_machine_arm_generic.S.o
 .ARM.attributes
                0x00000377       0x16 build/obj/tpl_stacks.S.o
 .ARM.attributes
                0x0000038d       0x18 build/obj/tpl_switch_context.S.o
 .ARM.attributes
                0x000003a5       0x29 build/obj/tpl_app_config.c.o
 .ARM.attributes
                0x000003ce       0x29 /home/djjeon/projects/nds-ide/devkitARM/libnds/lib/libnds9.a(console.o)
 .ARM.attributes
                0x000003f7       0x29 /home/djjeon/projects/nds-ide/devkitARM/libnds/lib/libnds9.a(touch.o)
 .ARM.attributes
                0x00000420       0x29 /home/djjeon/projects/nds-ide/devkitARM/libnds/lib/libnds9.a(initSystem.o)
 .ARM.attributes
                0x00000449       0x29 /home/djjeon/projects/nds-ide/devkitARM/libnds/lib/libnds9.a(fifosystem.o)
 .ARM.attributes
                0x00000472       0x29 /home/djjeon/projects/nds-ide/devkitARM/libnds/lib/libnds9.a(interrupts.o)
 .ARM.attributes
                0x0000049b       0x29 /home/djjeon/projects/nds-ide/devkitARM/libnds/lib/libnds9.a(libnds_exit.arm.o)
 .ARM.attributes
                0x000004c4       0x23 /home/djjeon/projects/nds-ide/devkitARM/libnds/lib/libnds9.a(mpu_setup.o)
 .ARM.attributes
                0x000004e7       0x1d /home/djjeon/projects/nds-ide/devkitARM/libnds/lib/libnds9.a(biosCalls.o)
 .ARM.attributes
                0x00000504       0x1d /home/djjeon/projects/nds-ide/devkitARM/libnds/lib/libnds9.a(debugprint.o)
 .ARM.attributes
                0x00000521       0x1d /home/djjeon/projects/nds-ide/devkitARM/libnds/lib/libnds9.a(interruptDispatcher.o)
 .ARM.attributes
                0x0000053e       0x23 /home/djjeon/projects/nds-ide/devkitARM/libnds/lib/libnds9.a(swiSoftReset.o)
 .ARM.attributes
                0x00000561       0x16 /home/djjeon/projects/nds-ide/devkitARM/libnds/lib/libnds9.a(default_font.bin.o)
 .ARM.attributes
                0x00000577       0x29 /home/djjeon/projects/nds-ide/devkitARM/libnds/lib/libnds9.a(background.o)
 .ARM.attributes
                0x000005a0       0x29 /home/djjeon/projects/nds-ide/devkitARM/libnds/lib/libnds9.a(system.o)
 .ARM.attributes
                0x000005c9       0x29 /home/djjeon/projects/nds-ide/devkitARM/libnds/lib/libnds9.a(trig.o)
 .ARM.attributes
                0x000005f2       0x29 /home/djjeon/projects/nds-ide/devkitARM/libnds/lib/libnds9.a(video.o)
 .ARM.attributes
                0x0000061b       0x1a /home/djjeon/projects/nds-ide/devkitARM/bin/../lib/gcc/arm-none-eabi/4.7.1/libgcc.a(_divsi3.o)
 .ARM.attributes
                0x00000635       0x18 /home/djjeon/projects/nds-ide/devkitARM/bin/../lib/gcc/arm-none-eabi/4.7.1/libgcc.a(_dvmd_tls.o)
 .ARM.attributes
                0x0000064d       0x32 /home/djjeon/projects/nds-ide/devkitARM/bin/../lib/gcc/arm-none-eabi/4.7.1/../../../../arm-none-eabi/lib/libg.a(lib_a-bsearch.o)
 .ARM.attributes
                0x0000067f       0x32 /home/djjeon/projects/nds-ide/devkitARM/bin/../lib/gcc/arm-none-eabi/4.7.1/../../../../arm-none-eabi/lib/libg.a(lib_a-impure.o)
 .ARM.attributes
                0x000006b1       0x32 /home/djjeon/projects/nds-ide/devkitARM/bin/../lib/gcc/arm-none-eabi/4.7.1/../../../../arm-none-eabi/lib/libg.a(lib_a-init.o)
 .ARM.attributes
                0x000006e3       0x32 /home/djjeon/projects/nds-ide/devkitARM/bin/../lib/gcc/arm-none-eabi/4.7.1/../../../../arm-none-eabi/lib/libg.a(lib_a-iprintf.o)
 .ARM.attributes
                0x00000715       0x32 /home/djjeon/projects/nds-ide/devkitARM/bin/../lib/gcc/arm-none-eabi/4.7.1/../../../../arm-none-eabi/lib/libg.a(lib_a-memcpy-stub.o)
 .ARM.attributes
                0x00000747       0x32 /home/djjeon/projects/nds-ide/devkitARM/bin/../lib/gcc/arm-none-eabi/4.7.1/../../../../arm-none-eabi/lib/libg.a(lib_a-setvbuf.o)
 .ARM.attributes
                0x00000779       0x32 /home/djjeon/projects/nds-ide/devkitARM/bin/../lib/gcc/arm-none-eabi/4.7.1/../../../../arm-none-eabi/lib/libg.a(lib_a-siscanf.o)
 .ARM.attributes
                0x000007ab       0x32 /home/djjeon/projects/nds-ide/devkitARM/bin/../lib/gcc/arm-none-eabi/4.7.1/../../../../arm-none-eabi/lib/libg.a(lib_a-stdio.o)
 .ARM.attributes
                0x000007dd       0x32 /home/djjeon/projects/nds-ide/devkitARM/bin/../lib/gcc/arm-none-eabi/4.7.1/../../../../arm-none-eabi/lib/libg.a(lib_a-strlen.o)
 .ARM.attributes
                0x0000080f       0x32 /home/djjeon/projects/nds-ide/devkitARM/bin/../lib/gcc/arm-none-eabi/4.7.1/../../../../arm-none-eabi/lib/libg.a(lib_a-svfiscanf.o)
 .ARM.attributes
                0x00000841       0x32 /home/djjeon/projects/nds-ide/devkitARM/bin/../lib/gcc/arm-none-eabi/4.7.1/../../../../arm-none-eabi/lib/libg.a(lib_a-ungetc.o)
 .ARM.attributes
                0x00000873       0x32 /home/djjeon/projects/nds-ide/devkitARM/bin/../lib/gcc/arm-none-eabi/4.7.1/../../../../arm-none-eabi/lib/libg.a(lib_a-vfiprintf.o)
 .ARM.attributes
                0x000008a5       0x32 /home/djjeon/projects/nds-ide/devkitARM/bin/../lib/gcc/arm-none-eabi/4.7.1/../../../../arm-none-eabi/lib/libg.a(lib_a-wcrtomb.o)
 .ARM.attributes
                0x000008d7       0x32 /home/djjeon/projects/nds-ide/devkitARM/bin/../lib/gcc/arm-none-eabi/4.7.1/../../../../arm-none-eabi/lib/libg.a(lib_a-wcsrtombs.o)
 .ARM.attributes
                0x00000909       0x32 /home/djjeon/projects/nds-ide/devkitARM/bin/../lib/gcc/arm-none-eabi/4.7.1/../../../../arm-none-eabi/lib/libg.a(lib_a-wctomb_r.o)
 .ARM.attributes
                0x0000093b       0x32 /home/djjeon/projects/nds-ide/devkitARM/bin/../lib/gcc/arm-none-eabi/4.7.1/../../../../arm-none-eabi/lib/libg.a(lib_a-wsetup.o)
 .ARM.attributes
                0x0000096d       0x32 /home/djjeon/projects/nds-ide/devkitARM/bin/../lib/gcc/arm-none-eabi/4.7.1/../../../../arm-none-eabi/lib/libg.a(lib_a-ctype_.o)
 .ARM.attributes
                0x0000099f       0x32 /home/djjeon/projects/nds-ide/devkitARM/bin/../lib/gcc/arm-none-eabi/4.7.1/../../../../arm-none-eabi/lib/libg.a(lib_a-fflush.o)
 .ARM.attributes
                0x000009d1       0x32 /home/djjeon/projects/nds-ide/devkitARM/bin/../lib/gcc/arm-none-eabi/4.7.1/../../../../arm-none-eabi/lib/libg.a(lib_a-findfp.o)
 .ARM.attributes
                0x00000a03       0x32 /home/djjeon/projects/nds-ide/devkitARM/bin/../lib/gcc/arm-none-eabi/4.7.1/../../../../arm-none-eabi/lib/libg.a(lib_a-fputwc.o)
 .ARM.attributes
                0x00000a35       0x32 /home/djjeon/projects/nds-ide/devkitARM/bin/../lib/gcc/arm-none-eabi/4.7.1/../../../../arm-none-eabi/lib/libg.a(lib_a-freer.o)
 .ARM.attributes
                0x00000a67       0x32 /home/djjeon/projects/nds-ide/devkitARM/bin/../lib/gcc/arm-none-eabi/4.7.1/../../../../arm-none-eabi/lib/libg.a(lib_a-fvwrite.o)
 .ARM.attributes
                0x00000a99       0x32 /home/djjeon/projects/nds-ide/devkitARM/bin/../lib/gcc/arm-none-eabi/4.7.1/../../../../arm-none-eabi/lib/libg.a(lib_a-fwalk.o)
 .ARM.attributes
                0x00000acb       0x32 /home/djjeon/projects/nds-ide/devkitARM/bin/../lib/gcc/arm-none-eabi/4.7.1/../../../../arm-none-eabi/lib/libg.a(lib_a-iswspace.o)
 .ARM.attributes
                0x00000afd       0x32 /home/djjeon/projects/nds-ide/devkitARM/bin/../lib/gcc/arm-none-eabi/4.7.1/../../../../arm-none-eabi/lib/libg.a(lib_a-jp2uc.o)
 .ARM.attributes
                0x00000b2f       0x32 /home/djjeon/projects/nds-ide/devkitARM/bin/../lib/gcc/arm-none-eabi/4.7.1/../../../../arm-none-eabi/lib/libg.a(lib_a-locale.o)
 .ARM.attributes
                0x00000b61       0x32 /home/djjeon/projects/nds-ide/devkitARM/bin/../lib/gcc/arm-none-eabi/4.7.1/../../../../arm-none-eabi/lib/libg.a(lib_a-makebuf.o)
 .ARM.attributes
                0x00000b93       0x32 /home/djjeon/projects/nds-ide/devkitARM/bin/../lib/gcc/arm-none-eabi/4.7.1/../../../../arm-none-eabi/lib/libg.a(lib_a-malloc.o)
 .ARM.attributes
                0x00000bc5       0x32 /home/djjeon/projects/nds-ide/devkitARM/bin/../lib/gcc/arm-none-eabi/4.7.1/../../../../arm-none-eabi/lib/libg.a(lib_a-mallocr.o)
 .ARM.attributes
                0x00000bf7       0x32 /home/djjeon/projects/nds-ide/devkitARM/bin/../lib/gcc/arm-none-eabi/4.7.1/../../../../arm-none-eabi/lib/libg.a(lib_a-mbrtowc.o)
 .ARM.attributes
                0x00000c29       0x32 /home/djjeon/projects/nds-ide/devkitARM/bin/../lib/gcc/arm-none-eabi/4.7.1/../../../../arm-none-eabi/lib/libg.a(lib_a-mbtowc_r.o)
 .ARM.attributes
                0x00000c5b       0x32 /home/djjeon/projects/nds-ide/devkitARM/bin/../lib/gcc/arm-none-eabi/4.7.1/../../../../arm-none-eabi/lib/libg.a(lib_a-memchr-stub.o)
 .ARM.attributes
                0x00000c8d       0x32 /home/djjeon/projects/nds-ide/devkitARM/bin/../lib/gcc/arm-none-eabi/4.7.1/../../../../arm-none-eabi/lib/libg.a(lib_a-memmove.o)
 .ARM.attributes
                0x00000cbf       0x32 /home/djjeon/projects/nds-ide/devkitARM/bin/../lib/gcc/arm-none-eabi/4.7.1/../../../../arm-none-eabi/lib/libg.a(lib_a-memset.o)
 .ARM.attributes
                0x00000cf1       0x32 /home/djjeon/projects/nds-ide/devkitARM/bin/../lib/gcc/arm-none-eabi/4.7.1/../../../../arm-none-eabi/lib/libg.a(lib_a-mlock.o)
 .ARM.attributes
                0x00000d23       0x32 /home/djjeon/projects/nds-ide/devkitARM/bin/../lib/gcc/arm-none-eabi/4.7.1/../../../../arm-none-eabi/lib/libg.a(lib_a-reallocr.o)
 .ARM.attributes
                0x00000d55       0x32 /home/djjeon/projects/nds-ide/devkitARM/bin/../lib/gcc/arm-none-eabi/4.7.1/../../../../arm-none-eabi/lib/libg.a(lib_a-sccl.o)
 .ARM.attributes
                0x00000d87       0x32 /home/djjeon/projects/nds-ide/devkitARM/bin/../lib/gcc/arm-none-eabi/4.7.1/../../../../arm-none-eabi/lib/libg.a(lib_a-strcasecmp.o)
 .ARM.attributes
                0x00000db9       0x32 /home/djjeon/projects/nds-ide/devkitARM/bin/../lib/gcc/arm-none-eabi/4.7.1/../../../../arm-none-eabi/lib/libg.a(lib_a-strcat.o)
 .ARM.attributes
                0x00000deb       0x32 /home/djjeon/projects/nds-ide/devkitARM/bin/../lib/gcc/arm-none-eabi/4.7.1/../../../../arm-none-eabi/lib/libg.a(lib_a-strchr.o)
 .ARM.attributes
                0x00000e1d       0x32 /home/djjeon/projects/nds-ide/devkitARM/bin/../lib/gcc/arm-none-eabi/4.7.1/../../../../arm-none-eabi/lib/libg.a(lib_a-strcmp.o)
 .ARM.attributes
                0x00000e4f       0x32 /home/djjeon/projects/nds-ide/devkitARM/bin/../lib/gcc/arm-none-eabi/4.7.1/../../../../arm-none-eabi/lib/libg.a(lib_a-strcpy.o)
 .ARM.attributes
                0x00000e81       0x32 /home/djjeon/projects/nds-ide/devkitARM/bin/../lib/gcc/arm-none-eabi/4.7.1/../../../../arm-none-eabi/lib/libg.a(lib_a-strlcpy.o)
 .ARM.attributes
                0x00000eb3       0x32 /home/djjeon/projects/nds-ide/devkitARM/bin/../lib/gcc/arm-none-eabi/4.7.1/../../../../arm-none-eabi/lib/libg.a(lib_a-strncasecmp.o)
 .ARM.attributes
                0x00000ee5       0x32 /home/djjeon/projects/nds-ide/devkitARM/bin/../lib/gcc/arm-none-eabi/4.7.1/../../../../arm-none-eabi/lib/libg.a(lib_a-strncmp.o)
 .ARM.attributes
                0x00000f17       0x32 /home/djjeon/projects/nds-ide/devkitARM/bin/../lib/gcc/arm-none-eabi/4.7.1/../../../../arm-none-eabi/lib/libg.a(lib_a-strncpy.o)
 .ARM.attributes
                0x00000f49       0x32 /home/djjeon/projects/nds-ide/devkitARM/bin/../lib/gcc/arm-none-eabi/4.7.1/../../../../arm-none-eabi/lib/libg.a(lib_a-strtoll_r.o)
 .ARM.attributes
                0x00000f7b       0x32 /home/djjeon/projects/nds-ide/devkitARM/bin/../lib/gcc/arm-none-eabi/4.7.1/../../../../arm-none-eabi/lib/libg.a(lib_a-strtol.o)
 .ARM.attributes
                0x00000fad       0x32 /home/djjeon/projects/nds-ide/devkitARM/bin/../lib/gcc/arm-none-eabi/4.7.1/../../../../arm-none-eabi/lib/libg.a(lib_a-strtoull_r.o)
 .ARM.attributes
                0x00000fdf       0x32 /home/djjeon/projects/nds-ide/devkitARM/bin/../lib/gcc/arm-none-eabi/4.7.1/../../../../arm-none-eabi/lib/libg.a(lib_a-strtoul.o)
 .ARM.attributes
                0x00001011       0x32 /home/djjeon/projects/nds-ide/devkitARM/bin/../lib/gcc/arm-none-eabi/4.7.1/../../../../arm-none-eabi/lib/libg.a(lib_a-wbuf.o)
 .ARM.attributes
                0x00001043       0x32 /home/djjeon/projects/nds-ide/devkitARM/bin/../lib/gcc/arm-none-eabi/4.7.1/../../../../arm-none-eabi/lib/libg.a(lib_a-wcsnrtombs.o)
 .ARM.attributes
                0x00001075       0x32 /home/djjeon/projects/nds-ide/devkitARM/bin/../lib/gcc/arm-none-eabi/4.7.1/../../../../arm-none-eabi/lib/libg.a(lib_a-fclose.o)
 .ARM.attributes
                0x000010a7       0x32 /home/djjeon/projects/nds-ide/devkitARM/bin/../lib/gcc/arm-none-eabi/4.7.1/../../../../arm-none-eabi/lib/libg.a(lib_a-getenv_r.o)
 .ARM.attributes
                0x000010d9       0x32 /home/djjeon/projects/nds-ide/devkitARM/bin/../lib/gcc/arm-none-eabi/4.7.1/../../../../arm-none-eabi/lib/libg.a(lib_a-environ.o)
 .ARM.attributes
                0x0000110b       0x32 /home/djjeon/projects/nds-ide/devkitARM/bin/../lib/gcc/arm-none-eabi/4.7.1/../../../../arm-none-eabi/lib/libg.a(lib_a-envlock.o)
 .ARM.attributes
                0x0000113d       0x32 /home/djjeon/projects/nds-ide/devkitARM/bin/../lib/gcc/arm-none-eabi/4.7.1/../../../../arm-none-eabi/lib/libsysbase.a(iosupport.o)
 .ARM.attributes
                0x0000116f       0x32 /home/djjeon/projects/nds-ide/devkitARM/bin/../lib/gcc/arm-none-eabi/4.7.1/../../../../arm-none-eabi/lib/libsysbase.a(close.o)
 .ARM.attributes
                0x000011a1       0x32 /home/djjeon/projects/nds-ide/devkitARM/bin/../lib/gcc/arm-none-eabi/4.7.1/../../../../arm-none-eabi/lib/libsysbase.a(fstat.o)
 .ARM.attributes
                0x000011d3       0x32 /home/djjeon/projects/nds-ide/devkitARM/bin/../lib/gcc/arm-none-eabi/4.7.1/../../../../arm-none-eabi/lib/libsysbase.a(isatty.o)
 .ARM.attributes
                0x00001205       0x32 /home/djjeon/projects/nds-ide/devkitARM/bin/../lib/gcc/arm-none-eabi/4.7.1/../../../../arm-none-eabi/lib/libsysbase.a(lseek.o)
 .ARM.attributes
                0x00001237       0x32 /home/djjeon/projects/nds-ide/devkitARM/bin/../lib/gcc/arm-none-eabi/4.7.1/../../../../arm-none-eabi/lib/libsysbase.a(read.o)
 .ARM.attributes
                0x00001269       0x32 /home/djjeon/projects/nds-ide/devkitARM/bin/../lib/gcc/arm-none-eabi/4.7.1/../../../../arm-none-eabi/lib/libsysbase.a(sbrk.o)
 .ARM.attributes
                0x0000129b       0x32 /home/djjeon/projects/nds-ide/devkitARM/bin/../lib/gcc/arm-none-eabi/4.7.1/../../../../arm-none-eabi/lib/libsysbase.a(times.o)
 .ARM.attributes
                0x000012cd       0x32 /home/djjeon/projects/nds-ide/devkitARM/bin/../lib/gcc/arm-none-eabi/4.7.1/../../../../arm-none-eabi/lib/libsysbase.a(write.o)
 .ARM.attributes
                0x000012ff       0x32 /home/djjeon/projects/nds-ide/devkitARM/bin/../lib/gcc/arm-none-eabi/4.7.1/../../../../arm-none-eabi/lib/libsysbase.a(malloc_vars.o)
 .ARM.attributes
                0x00001331       0x32 /home/djjeon/projects/nds-ide/devkitARM/bin/../lib/gcc/arm-none-eabi/4.7.1/../../../../arm-none-eabi/lib/libsysbase.a(build_argv.o)
 .ARM.attributes
                0x00001363       0x32 /home/djjeon/projects/nds-ide/devkitARM/bin/../lib/gcc/arm-none-eabi/4.7.1/../../../../arm-none-eabi/lib/libsysbase.a(syscall_support.o)
 .ARM.attributes
                0x00001395       0x32 /home/djjeon/projects/nds-ide/devkitARM/bin/../lib/gcc/arm-none-eabi/4.7.1/../../../../arm-none-eabi/lib/libsysbase.a(handle_manager.o)
 .ARM.attributes
                0x000013c7       0x1a /home/djjeon/projects/nds-ide/devkitARM/bin/../lib/gcc/arm-none-eabi/4.7.1/libgcc.a(_udivsi3.o)
 .ARM.attributes
                0x000013e1       0x1a /home/djjeon/projects/nds-ide/devkitARM/bin/../lib/gcc/arm-none-eabi/4.7.1/libgcc.a(_aeabi_uldivmod.o)
 .ARM.attributes
                0x000013fb       0x32 /home/djjeon/projects/nds-ide/devkitARM/bin/../lib/gcc/arm-none-eabi/4.7.1/libgcc.a(bpabi.o)
 .ARM.attributes
                0x0000142d       0x32 /home/djjeon/projects/nds-ide/devkitARM/bin/../lib/gcc/arm-none-eabi/4.7.1/libgcc.a(_divdi3.o)
 .ARM.attributes
                0x0000145f       0x32 /home/djjeon/projects/nds-ide/devkitARM/bin/../lib/gcc/arm-none-eabi/4.7.1/libgcc.a(_udivdi3.o)
 .ARM.attributes
                0x00001491       0x1a /home/djjeon/projects/nds-ide/devkitARM/bin/../lib/gcc/arm-none-eabi/4.7.1/libgcc.a(_clzsi2.o)
 .ARM.attributes
                0x000014ab       0x32 /home/djjeon/projects/nds-ide/devkitARM/bin/../lib/gcc/arm-none-eabi/4.7.1/../../../../arm-none-eabi/lib/libg.a(lib_a-errno.o)
 .ARM.attributes
                0x000014dd       0x32 /home/djjeon/projects/nds-ide/devkitARM/bin/../lib/gcc/arm-none-eabi/4.7.1/crtend.o
 .ARM.attributes
                0x0000150f       0x1a /home/djjeon/projects/nds-ide/devkitARM/bin/../lib/gcc/arm-none-eabi/4.7.1/crtn.o

.debug
 *(.debug)

.line
 *(.line)

.debug_srcinfo
 *(.debug_srcinfo)

.debug_sfnames
 *(.debug_sfnames)

.debug_aranges  0x00000000      0x4a0
 *(.debug_aranges)
 .debug_aranges
                0x00000000       0x28 build/obj/nds_simple.c.o
 .debug_aranges
                0x00000028       0x20 build/obj/tpl_os_alarm_kernel.c.o
 .debug_aranges
                0x00000048       0x20 build/obj/tpl_os_event_kernel.c.o
 .debug_aranges
                0x00000068       0x20 build/obj/tpl_os_it_kernel.c.o
 .debug_aranges
                0x00000088       0x20 build/obj/tpl_os_rez_kernel.c.o
 .debug_aranges
                0x000000a8       0x20 build/obj/tpl_os_task_kernel.c.o
 .debug_aranges
                0x000000c8       0x20 build/obj/tpl_os_timeobj_kernel.c.o
 .debug_aranges
                0x000000e8       0x20 build/obj/tpl_os_kernel.c.o
 .debug_aranges
                0x00000108       0x20 build/obj/tpl_os_action.c.o
 .debug_aranges
                0x00000128       0x18 build/obj/tpl_os_error.c.o
 .debug_aranges
                0x00000140       0x20 build/obj/tpl_os.c.o
 .debug_aranges
                0x00000160       0x20 build/obj/tpl_os_alarm.c.o
 .debug_aranges
                0x00000180       0x20 build/obj/tpl_os_event.c.o
 .debug_aranges
                0x000001a0       0x20 build/obj/tpl_os_it.c.o
 .debug_aranges
                0x000001c0       0x20 build/obj/tpl_os_rez.c.o
 .debug_aranges
                0x000001e0       0x20 build/obj/tpl_os_task.c.o
 .debug_aranges
                0x00000200       0x20 build/obj/nds_arm9_bootstrap_stage1.S.o
 .debug_aranges
                0x00000220       0x20 build/obj/nds_tpl_sleep.S.o
 .debug_aranges
                0x00000240       0x20 build/obj/nds_tpl_stubs.c.o
 .debug_aranges
                0x00000260       0x20 build/obj/tpl_machine_arm_generic.S.o
 .debug_aranges
                0x00000280       0x20 build/obj/tpl_switch_context.S.o
 .debug_aranges
                0x000002a0       0x20 build/obj/tpl_app_config.c.o
 .debug_aranges
                0x000002c0       0x20 /home/djjeon/projects/nds-ide/devkitARM/libnds/lib/libnds9.a(console.o)
 .debug_aranges
                0x000002e0       0x20 /home/djjeon/projects/nds-ide/devkitARM/libnds/lib/libnds9.a(touch.o)
 .debug_aranges
                0x00000300       0x20 /home/djjeon/projects/nds-ide/devkitARM/libnds/lib/libnds9.a(initSystem.o)
 .debug_aranges
                0x00000320       0x20 /home/djjeon/projects/nds-ide/devkitARM/libnds/lib/libnds9.a(fifosystem.o)
 .debug_aranges
                0x00000340       0x20 /home/djjeon/projects/nds-ide/devkitARM/libnds/lib/libnds9.a(interrupts.o)
 .debug_aranges
                0x00000360       0x20 /home/djjeon/projects/nds-ide/devkitARM/libnds/lib/libnds9.a(libnds_exit.arm.o)
 .debug_aranges
                0x00000380       0x20 /home/djjeon/projects/nds-ide/devkitARM/libnds/lib/libnds9.a(mpu_setup.o)
 .debug_aranges
                0x000003a0       0x20 /home/djjeon/projects/nds-ide/devkitARM/libnds/lib/libnds9.a(biosCalls.o)
 .debug_aranges
                0x000003c0       0x20 /home/djjeon/projects/nds-ide/devkitARM/libnds/lib/libnds9.a(debugprint.o)
 .debug_aranges
                0x000003e0       0x20 /home/djjeon/projects/nds-ide/devkitARM/libnds/lib/libnds9.a(interruptDispatcher.o)
 .debug_aranges
                0x00000400       0x20 /home/djjeon/projects/nds-ide/devkitARM/libnds/lib/libnds9.a(swiSoftReset.o)
 .debug_aranges
                0x00000420       0x20 /home/djjeon/projects/nds-ide/devkitARM/libnds/lib/libnds9.a(background.o)
 .debug_aranges
                0x00000440       0x20 /home/djjeon/projects/nds-ide/devkitARM/libnds/lib/libnds9.a(system.o)
 .debug_aranges
                0x00000460       0x20 /home/djjeon/projects/nds-ide/devkitARM/libnds/lib/libnds9.a(trig.o)
 .debug_aranges
                0x00000480       0x20 /home/djjeon/projects/nds-ide/devkitARM/libnds/lib/libnds9.a(video.o)

.debug_pubnames
 *(.debug_pubnames)

.debug_info     0x00000000     0xd569
 *(.debug_info)
 .debug_info    0x00000000      0xbf9 build/obj/nds_simple.c.o
 .debug_info    0x00000bf9      0x5c0 build/obj/tpl_os_alarm_kernel.c.o
 .debug_info    0x000011b9      0x5af build/obj/tpl_os_event_kernel.c.o
 .debug_info    0x00001768      0x595 build/obj/tpl_os_it_kernel.c.o
 .debug_info    0x00001cfd      0x5fc build/obj/tpl_os_rez_kernel.c.o
 .debug_info    0x000022f9      0x73e build/obj/tpl_os_task_kernel.c.o
 .debug_info    0x00002a37      0x467 build/obj/tpl_os_timeobj_kernel.c.o
 .debug_info    0x00002e9e      0xd40 build/obj/tpl_os_kernel.c.o
 .debug_info    0x00003bde      0x2e9 build/obj/tpl_os_action.c.o
 .debug_info    0x00003ec7       0x6b build/obj/tpl_os_error.c.o
 .debug_info    0x00003f32      0x267 build/obj/tpl_os.c.o
 .debug_info    0x00004199      0x385 build/obj/tpl_os_alarm.c.o
 .debug_info    0x0000451e      0x29f build/obj/tpl_os_event.c.o
 .debug_info    0x000047bd      0x187 build/obj/tpl_os_it.c.o
 .debug_info    0x00004944      0x158 build/obj/tpl_os_rez.c.o
 .debug_info    0x00004a9c      0x2dc build/obj/tpl_os_task.c.o
 .debug_info    0x00004d78       0x99 build/obj/nds_arm9_bootstrap_stage1.S.o
 .debug_info    0x00004e11       0x8d build/obj/nds_tpl_sleep.S.o
 .debug_info    0x00004e9e      0x4f3 build/obj/nds_tpl_stubs.c.o
 .debug_info    0x00005391       0x97 build/obj/tpl_machine_arm_generic.S.o
 .debug_info    0x00005428       0x92 build/obj/tpl_switch_context.S.o
 .debug_info    0x000054ba      0x8fc build/obj/tpl_app_config.c.o
 .debug_info    0x00005db6     0x2420 /home/djjeon/projects/nds-ide/devkitARM/libnds/lib/libnds9.a(console.o)
 .debug_info    0x000081d6      0x302 /home/djjeon/projects/nds-ide/devkitARM/libnds/lib/libnds9.a(touch.o)
 .debug_info    0x000084d8     0x1030 /home/djjeon/projects/nds-ide/devkitARM/libnds/lib/libnds9.a(initSystem.o)
 .debug_info    0x00009508     0x1546 /home/djjeon/projects/nds-ide/devkitARM/libnds/lib/libnds9.a(fifosystem.o)
 .debug_info    0x0000aa4e      0x5b4 /home/djjeon/projects/nds-ide/devkitARM/libnds/lib/libnds9.a(interrupts.o)
 .debug_info    0x0000b002      0x323 /home/djjeon/projects/nds-ide/devkitARM/libnds/lib/libnds9.a(libnds_exit.arm.o)
 .debug_info    0x0000b325       0xb8 /home/djjeon/projects/nds-ide/devkitARM/libnds/lib/libnds9.a(mpu_setup.o)
 .debug_info    0x0000b3dd       0xb3 /home/djjeon/projects/nds-ide/devkitARM/libnds/lib/libnds9.a(biosCalls.o)
 .debug_info    0x0000b490       0xb4 /home/djjeon/projects/nds-ide/devkitARM/libnds/lib/libnds9.a(debugprint.o)
 .debug_info    0x0000b544       0xbd /home/djjeon/projects/nds-ide/devkitARM/libnds/lib/libnds9.a(interruptDispatcher.o)
 .debug_info    0x0000b601       0xb6 /home/djjeon/projects/nds-ide/devkitARM/libnds/lib/libnds9.a(swiSoftReset.o)
 .debug_info    0x0000b6b7      0x91d /home/djjeon/projects/nds-ide/devkitARM/libnds/lib/libnds9.a(background.o)
 .debug_info    0x0000bfd4      0x91b /home/djjeon/projects/nds-ide/devkitARM/libnds/lib/libnds9.a(system.o)
 .debug_info    0x0000c8ef      0x55c /home/djjeon/projects/nds-ide/devkitARM/libnds/lib/libnds9.a(trig.o)
 .debug_info    0x0000ce4b      0x71e /home/djjeon/projects/nds-ide/devkitARM/libnds/lib/libnds9.a(video.o)

.debug_abbrev   0x00000000     0x337b
 *(.debug_abbrev)
 .debug_abbrev  0x00000000      0x225 build/obj/nds_simple.c.o
 .debug_abbrev  0x00000225      0x154 build/obj/tpl_os_alarm_kernel.c.o
 .debug_abbrev  0x00000379      0x13d build/obj/tpl_os_event_kernel.c.o
 .debug_abbrev  0x000004b6      0x1da build/obj/tpl_os_it_kernel.c.o
 .debug_abbrev  0x00000690      0x1a0 build/obj/tpl_os_rez_kernel.c.o
 .debug_abbrev  0x00000830      0x210 build/obj/tpl_os_task_kernel.c.o
 .debug_abbrev  0x00000a40      0x1c5 build/obj/tpl_os_timeobj_kernel.c.o
 .debug_abbrev  0x00000c05      0x2e1 build/obj/tpl_os_kernel.c.o
 .debug_abbrev  0x00000ee6      0x101 build/obj/tpl_os_action.c.o
 .debug_abbrev  0x00000fe7       0x26 build/obj/tpl_os_error.c.o
 .debug_abbrev  0x0000100d      0x14d build/obj/tpl_os.c.o
 .debug_abbrev  0x0000115a       0xee build/obj/tpl_os_alarm.c.o
 .debug_abbrev  0x00001248       0xdf build/obj/tpl_os_event.c.o
 .debug_abbrev  0x00001327       0x60 build/obj/tpl_os_it.c.o
 .debug_abbrev  0x00001387       0xb0 build/obj/tpl_os_rez.c.o
 .debug_abbrev  0x00001437       0xd0 build/obj/tpl_os_task.c.o
 .debug_abbrev  0x00001507       0x14 build/obj/nds_arm9_bootstrap_stage1.S.o
 .debug_abbrev  0x0000151b       0x14 build/obj/nds_tpl_sleep.S.o
 .debug_abbrev  0x0000152f      0x1a4 build/obj/nds_tpl_stubs.c.o
 .debug_abbrev  0x000016d3       0x14 build/obj/tpl_machine_arm_generic.S.o
 .debug_abbrev  0x000016e7       0x14 build/obj/tpl_switch_context.S.o
 .debug_abbrev  0x000016fb      0x1aa build/obj/tpl_app_config.c.o
 .debug_abbrev  0x000018a5      0x50d /home/djjeon/projects/nds-ide/devkitARM/libnds/lib/libnds9.a(console.o)
 .debug_abbrev  0x00001db2      0x124 /home/djjeon/projects/nds-ide/devkitARM/libnds/lib/libnds9.a(touch.o)
 .debug_abbrev  0x00001ed6      0x2dc /home/djjeon/projects/nds-ide/devkitARM/libnds/lib/libnds9.a(initSystem.o)
 .debug_abbrev  0x000021b2      0x470 /home/djjeon/projects/nds-ide/devkitARM/libnds/lib/libnds9.a(fifosystem.o)
 .debug_abbrev  0x00002622      0x239 /home/djjeon/projects/nds-ide/devkitARM/libnds/lib/libnds9.a(interrupts.o)
 .debug_abbrev  0x0000285b      0x175 /home/djjeon/projects/nds-ide/devkitARM/libnds/lib/libnds9.a(libnds_exit.arm.o)
 .debug_abbrev  0x000029d0       0x14 /home/djjeon/projects/nds-ide/devkitARM/libnds/lib/libnds9.a(mpu_setup.o)
 .debug_abbrev  0x000029e4       0x14 /home/djjeon/projects/nds-ide/devkitARM/libnds/lib/libnds9.a(biosCalls.o)
 .debug_abbrev  0x000029f8       0x14 /home/djjeon/projects/nds-ide/devkitARM/libnds/lib/libnds9.a(debugprint.o)
 .debug_abbrev  0x00002a0c       0x14 /home/djjeon/projects/nds-ide/devkitARM/libnds/lib/libnds9.a(interruptDispatcher.o)
 .debug_abbrev  0x00002a20       0x14 /home/djjeon/projects/nds-ide/devkitARM/libnds/lib/libnds9.a(swiSoftReset.o)
 .debug_abbrev  0x00002a34      0x2d5 /home/djjeon/projects/nds-ide/devkitARM/libnds/lib/libnds9.a(background.o)
 .debug_abbrev  0x00002d09      0x26a /home/djjeon/projects/nds-ide/devkitARM/libnds/lib/libnds9.a(system.o)
 .debug_abbrev  0x00002f73      0x1ff /home/djjeon/projects/nds-ide/devkitARM/libnds/lib/libnds9.a(trig.o)
 .debug_abbrev  0x00003172      0x209 /home/djjeon/projects/nds-ide/devkitARM/libnds/lib/libnds9.a(video.o)

.debug_line     0x00000000     0x4a86
 *(.debug_line)
 .debug_line    0x00000000      0x270 build/obj/nds_simple.c.o
 .debug_line    0x00000270      0x217 build/obj/tpl_os_alarm_kernel.c.o
 .debug_line    0x00000487      0x1f0 build/obj/tpl_os_event_kernel.c.o
 .debug_line    0x00000677      0x221 build/obj/tpl_os_it_kernel.c.o
 .debug_line    0x00000898      0x23d build/obj/tpl_os_rez_kernel.c.o
 .debug_line    0x00000ad5      0x23a build/obj/tpl_os_task_kernel.c.o
 .debug_line    0x00000d0f      0x214 build/obj/tpl_os_timeobj_kernel.c.o
 .debug_line    0x00000f23      0x438 build/obj/tpl_os_kernel.c.o
 .debug_line    0x0000135b      0x196 build/obj/tpl_os_action.c.o
 .debug_line    0x000014f1       0x1d build/obj/tpl_os_error.c.o
 .debug_line    0x0000150e      0x188 build/obj/tpl_os.c.o
 .debug_line    0x00001696      0x1b8 build/obj/tpl_os_alarm.c.o
 .debug_line    0x0000184e      0x19a build/obj/tpl_os_event.c.o
 .debug_line    0x000019e8       0x78 build/obj/tpl_os_it.c.o
 .debug_line    0x00001a60      0x188 build/obj/tpl_os_rez.c.o
 .debug_line    0x00001be8      0x186 build/obj/tpl_os_task.c.o
 .debug_line    0x00001d6e       0xfa build/obj/nds_arm9_bootstrap_stage1.S.o
 .debug_line    0x00001e68       0x55 build/obj/nds_tpl_sleep.S.o
 .debug_line    0x00001ebd      0x1cd build/obj/nds_tpl_stubs.c.o
 .debug_line    0x0000208a       0x64 build/obj/tpl_machine_arm_generic.S.o
 .debug_line    0x000020ee       0x70 build/obj/tpl_switch_context.S.o
 .debug_line    0x0000215e      0x20b build/obj/tpl_app_config.c.o
 .debug_line    0x00002369      0x778 /home/djjeon/projects/nds-ide/devkitARM/libnds/lib/libnds9.a(console.o)
 .debug_line    0x00002ae1      0x24c /home/djjeon/projects/nds-ide/devkitARM/libnds/lib/libnds9.a(touch.o)
 .debug_line    0x00002d2d      0x3c1 /home/djjeon/projects/nds-ide/devkitARM/libnds/lib/libnds9.a(initSystem.o)
 .debug_line    0x000030ee      0x6dd /home/djjeon/projects/nds-ide/devkitARM/libnds/lib/libnds9.a(fifosystem.o)
 .debug_line    0x000037cb      0x282 /home/djjeon/projects/nds-ide/devkitARM/libnds/lib/libnds9.a(interrupts.o)
 .debug_line    0x00003a4d      0x200 /home/djjeon/projects/nds-ide/devkitARM/libnds/lib/libnds9.a(libnds_exit.arm.o)
 .debug_line    0x00003c4d       0xfb /home/djjeon/projects/nds-ide/devkitARM/libnds/lib/libnds9.a(mpu_setup.o)
 .debug_line    0x00003d48       0xbd /home/djjeon/projects/nds-ide/devkitARM/libnds/lib/libnds9.a(biosCalls.o)
 .debug_line    0x00003e05       0x99 /home/djjeon/projects/nds-ide/devkitARM/libnds/lib/libnds9.a(debugprint.o)
 .debug_line    0x00003e9e       0xc1 /home/djjeon/projects/nds-ide/devkitARM/libnds/lib/libnds9.a(interruptDispatcher.o)
 .debug_line    0x00003f5f       0x91 /home/djjeon/projects/nds-ide/devkitARM/libnds/lib/libnds9.a(swiSoftReset.o)
 .debug_line    0x00003ff0      0x2c0 /home/djjeon/projects/nds-ide/devkitARM/libnds/lib/libnds9.a(background.o)
 .debug_line    0x000042b0      0x2b4 /home/djjeon/projects/nds-ide/devkitARM/libnds/lib/libnds9.a(system.o)
 .debug_line    0x00004564      0x2d3 /home/djjeon/projects/nds-ide/devkitARM/libnds/lib/libnds9.a(trig.o)
 .debug_line    0x00004837      0x24f /home/djjeon/projects/nds-ide/devkitARM/libnds/lib/libnds9.a(video.o)

.debug_frame    0x00000000     0x1320
 *(.debug_frame)
 .debug_frame   0x00000000       0x78 build/obj/nds_simple.c.o
 .debug_frame   0x00000078       0xa0 build/obj/tpl_os_alarm_kernel.c.o
 .debug_frame   0x00000118       0x78 build/obj/tpl_os_event_kernel.c.o
 .debug_frame   0x00000190       0xf0 build/obj/tpl_os_it_kernel.c.o
 .debug_frame   0x00000280       0x60 build/obj/tpl_os_rez_kernel.c.o
 .debug_frame   0x000002e0       0xb4 build/obj/tpl_os_task_kernel.c.o
 .debug_frame   0x00000394       0x78 build/obj/tpl_os_timeobj_kernel.c.o
 .debug_frame   0x0000040c      0x20c build/obj/tpl_os_kernel.c.o
 .debug_frame   0x00000618       0x58 build/obj/tpl_os_action.c.o
 .debug_frame   0x00000670       0xa0 build/obj/tpl_os.c.o
 .debug_frame   0x00000710       0x88 build/obj/tpl_os_alarm.c.o
 .debug_frame   0x00000798       0x70 build/obj/tpl_os_event.c.o
 .debug_frame   0x00000808       0xa0 build/obj/tpl_os_it.c.o
 .debug_frame   0x000008a8       0x40 build/obj/tpl_os_rez.c.o
 .debug_frame   0x000008e8       0xa0 build/obj/tpl_os_task.c.o
 .debug_frame   0x00000988       0x90 build/obj/nds_tpl_stubs.c.o
 .debug_frame   0x00000a18       0x28 build/obj/tpl_app_config.c.o
 .debug_frame   0x00000a40      0x1ac /home/djjeon/projects/nds-ide/devkitARM/libnds/lib/libnds9.a(console.o)
 .debug_frame   0x00000bec       0x44 /home/djjeon/projects/nds-ide/devkitARM/libnds/lib/libnds9.a(touch.o)
 .debug_frame   0x00000c30       0x2c /home/djjeon/projects/nds-ide/devkitARM/libnds/lib/libnds9.a(initSystem.o)
 .debug_frame   0x00000c5c      0x2b8 /home/djjeon/projects/nds-ide/devkitARM/libnds/lib/libnds9.a(fifosystem.o)
 .debug_frame   0x00000f14       0xb4 /home/djjeon/projects/nds-ide/devkitARM/libnds/lib/libnds9.a(interrupts.o)
 .debug_frame   0x00000fc8       0x38 /home/djjeon/projects/nds-ide/devkitARM/libnds/lib/libnds9.a(libnds_exit.arm.o)
 .debug_frame   0x00001000       0xa4 /home/djjeon/projects/nds-ide/devkitARM/libnds/lib/libnds9.a(background.o)
 .debug_frame   0x000010a4       0xc8 /home/djjeon/projects/nds-ide/devkitARM/libnds/lib/libnds9.a(system.o)
 .debug_frame   0x0000116c       0xf0 /home/djjeon/projects/nds-ide/devkitARM/libnds/lib/libnds9.a(trig.o)
 .debug_frame   0x0000125c       0xc4 /home/djjeon/projects/nds-ide/devkitARM/libnds/lib/libnds9.a(video.o)

.debug_str      0x00000000     0x423b
 *(.debug_str)
 .debug_str     0x00000000      0x785 build/obj/nds_simple.c.o
                                0x813 (size before relaxing)
 .debug_str     0x00000785      0x2bb build/obj/tpl_os_alarm_kernel.c.o
                                0x3e9 (size before relaxing)
 .debug_str     0x00000a40      0x256 build/obj/tpl_os_event_kernel.c.o
                                0x42c (size before relaxing)
 .debug_str     0x00000c96      0x1cf build/obj/tpl_os_it_kernel.c.o
                                0x4f0 (size before relaxing)
 .debug_str     0x00000e65      0x114 build/obj/tpl_os_rez_kernel.c.o
                                0x486 (size before relaxing)
 .debug_str     0x00000f79      0x117 build/obj/tpl_os_task_kernel.c.o
                                0x4e2 (size before relaxing)
 .debug_str     0x00001090      0x104 build/obj/tpl_os_timeobj_kernel.c.o
                                0x300 (size before relaxing)
 .debug_str     0x00001194      0x252 build/obj/tpl_os_kernel.c.o
                                0x78a (size before relaxing)
 .debug_str     0x000013e6      0x103 build/obj/tpl_os_action.c.o
                                0x285 (size before relaxing)
 .debug_str     0x000014e9       0x1b build/obj/tpl_os_error.c.o
                                 0xe7 (size before relaxing)
 .debug_str     0x00001504       0x7b build/obj/tpl_os.c.o
                                0x22e (size before relaxing)
 .debug_str     0x0000157f       0x85 build/obj/tpl_os_alarm.c.o
                                0x27a (size before relaxing)
 .debug_str     0x00001604       0x61 build/obj/tpl_os_event.c.o
                                0x1f2 (size before relaxing)
 .debug_str     0x00001665       0x91 build/obj/tpl_os_it.c.o
                                0x22a (size before relaxing)
 .debug_str     0x000016f6       0x42 build/obj/tpl_os_rez.c.o
                                0x179 (size before relaxing)
 .debug_str     0x00001738       0x6e build/obj/tpl_os_task.c.o
                                0x23f (size before relaxing)
 .debug_str     0x000017a6      0x1e6 build/obj/nds_tpl_stubs.c.o
                                0x4f7 (size before relaxing)
 .debug_str     0x0000198c      0x188 build/obj/tpl_app_config.c.o
                                0x6a7 (size before relaxing)
 .debug_str     0x00001b14      0xd41 /home/djjeon/projects/nds-ide/devkitARM/libnds/lib/libnds9.a(console.o)
                               0x10ba (size before relaxing)
 .debug_str     0x00002855      0x108 /home/djjeon/projects/nds-ide/devkitARM/libnds/lib/libnds9.a(touch.o)
                                0x20b (size before relaxing)
 .debug_str     0x0000295d      0x28c /home/djjeon/projects/nds-ide/devkitARM/libnds/lib/libnds9.a(initSystem.o)
                                0x9fc (size before relaxing)
 .debug_str     0x00002be9      0x4e9 /home/djjeon/projects/nds-ide/devkitARM/libnds/lib/libnds9.a(fifosystem.o)
                                0x78d (size before relaxing)
 .debug_str     0x000030d2      0x103 /home/djjeon/projects/nds-ide/devkitARM/libnds/lib/libnds9.a(interrupts.o)
                                0x37c (size before relaxing)
 .debug_str     0x000031d5      0x13c /home/djjeon/projects/nds-ide/devkitARM/libnds/lib/libnds9.a(libnds_exit.arm.o)
                                0x2c0 (size before relaxing)
 .debug_str     0x00003311      0x2ca /home/djjeon/projects/nds-ide/devkitARM/libnds/lib/libnds9.a(background.o)
                                0x681 (size before relaxing)
 .debug_str     0x000035db      0x282 /home/djjeon/projects/nds-ide/devkitARM/libnds/lib/libnds9.a(system.o)
                                0x5d7 (size before relaxing)
 .debug_str     0x0000385d       0xea /home/djjeon/projects/nds-ide/devkitARM/libnds/lib/libnds9.a(trig.o)
                                0x1e3 (size before relaxing)
 .debug_str     0x00003947      0x8f4 /home/djjeon/projects/nds-ide/devkitARM/libnds/lib/libnds9.a(video.o)
                                0xb38 (size before relaxing)

.debug_loc      0x00000000     0x5d0e
 *(.debug_loc)
 .debug_loc     0x00000000       0x78 build/obj/nds_simple.c.o
 .debug_loc     0x00000078      0x371 build/obj/tpl_os_alarm_kernel.c.o
 .debug_loc     0x000003e9      0x236 build/obj/tpl_os_event_kernel.c.o
 .debug_loc     0x0000061f      0x12b build/obj/tpl_os_it_kernel.c.o
 .debug_loc     0x0000074a      0x186 build/obj/tpl_os_rez_kernel.c.o
 .debug_loc     0x000008d0      0x299 build/obj/tpl_os_task_kernel.c.o
 .debug_loc     0x00000b69      0x334 build/obj/tpl_os_timeobj_kernel.c.o
 .debug_loc     0x00000e9d      0x93d build/obj/tpl_os_kernel.c.o
 .debug_loc     0x000017da      0x10c build/obj/tpl_os_action.c.o
 .debug_loc     0x000018e6      0x136 build/obj/tpl_os.c.o
 .debug_loc     0x00001a1c      0x20b build/obj/tpl_os_alarm.c.o
 .debug_loc     0x00001c27      0x16c build/obj/tpl_os_event.c.o
 .debug_loc     0x00001d93       0xc0 build/obj/tpl_os_it.c.o
 .debug_loc     0x00001e53       0x82 build/obj/tpl_os_rez.c.o
 .debug_loc     0x00001ed5      0x165 build/obj/tpl_os_task.c.o
 .debug_loc     0x0000203a       0xd5 build/obj/nds_tpl_stubs.c.o
 .debug_loc     0x0000210f       0x4a build/obj/tpl_app_config.c.o
 .debug_loc     0x00002159      0xffa /home/djjeon/projects/nds-ide/devkitARM/libnds/lib/libnds9.a(console.o)
 .debug_loc     0x00003153      0x115 /home/djjeon/projects/nds-ide/devkitARM/libnds/lib/libnds9.a(touch.o)
 .debug_loc     0x00003268       0x3f /home/djjeon/projects/nds-ide/devkitARM/libnds/lib/libnds9.a(initSystem.o)
 .debug_loc     0x000032a7     0x149c /home/djjeon/projects/nds-ide/devkitARM/libnds/lib/libnds9.a(fifosystem.o)
 .debug_loc     0x00004743      0x22a /home/djjeon/projects/nds-ide/devkitARM/libnds/lib/libnds9.a(interrupts.o)
 .debug_loc     0x0000496d       0x78 /home/djjeon/projects/nds-ide/devkitARM/libnds/lib/libnds9.a(libnds_exit.arm.o)
 .debug_loc     0x000049e5      0x3dc /home/djjeon/projects/nds-ide/devkitARM/libnds/lib/libnds9.a(background.o)
 .debug_loc     0x00004dc1      0x2cf /home/djjeon/projects/nds-ide/devkitARM/libnds/lib/libnds9.a(system.o)
 .debug_loc     0x00005090      0x9dd /home/djjeon/projects/nds-ide/devkitARM/libnds/lib/libnds9.a(trig.o)
 .debug_loc     0x00005a6d      0x2a1 /home/djjeon/projects/nds-ide/devkitARM/libnds/lib/libnds9.a(video.o)

.debug_macinfo
 *(.debug_macinfo)

.debug_weaknames
 *(.debug_weaknames)

.debug_funcnames
 *(.debug_funcnames)

.debug_typenames
 *(.debug_typenames)

.debug_varnames
 *(.debug_varnames)

.stack          0x00080000        0x0
                0x00080000                _stack = .
 *(.stack)
LOAD /home/djjeon/projects/nds-ide/devkitARM/bin/../lib/gcc/arm-none-eabi/4.7.1/../../../../arm-none-eabi/lib/ds_arm9_crt0.o
LOAD /home/djjeon/projects/nds-ide/devkitARM/bin/../lib/gcc/arm-none-eabi/4.7.1/crti.o
LOAD /home/djjeon/projects/nds-ide/devkitARM/bin/../lib/gcc/arm-none-eabi/4.7.1/crtbegin.o
LOAD build/obj/nds_simple.c.o
LOAD build/obj/tpl_os_alarm_kernel.c.o
LOAD build/obj/tpl_os_event_kernel.c.o
LOAD build/obj/tpl_os_it_kernel.c.o
LOAD build/obj/tpl_os_rez_kernel.c.o
LOAD build/obj/tpl_os_task_kernel.c.o
LOAD build/obj/tpl_os_timeobj_kernel.c.o
LOAD build/obj/tpl_os_kernel.c.o
LOAD build/obj/tpl_os_action.c.o
LOAD build/obj/tpl_os_error.c.o
LOAD build/obj/tpl_os.c.o
LOAD build/obj/tpl_os_alarm.c.o
LOAD build/obj/tpl_os_event.c.o
LOAD build/obj/tpl_os_it.c.o
LOAD build/obj/tpl_os_rez.c.o
LOAD build/obj/tpl_os_task.c.o
LOAD build/obj/nds_arm9_bootstrap_stage1.S.o
LOAD build/obj/nds_tpl_sleep.S.o
LOAD build/obj/nds_tpl_stubs.c.o
LOAD build/obj/tpl_machine_arm_generic.S.o
LOAD build/obj/tpl_stacks.S.o
LOAD build/obj/tpl_switch_context.S.o
LOAD build/obj/tpl_app_config.c.o
LOAD /home/djjeon/projects/nds-ide/devkitARM/libnds/lib/libnds9.a
START GROUP
LOAD /home/djjeon/projects/nds-ide/devkitARM/bin/../lib/gcc/arm-none-eabi/4.7.1/libgcc.a
LOAD /home/djjeon/projects/nds-ide/devkitARM/bin/../lib/gcc/arm-none-eabi/4.7.1/../../../../arm-none-eabi/lib/libg.a
LOAD /home/djjeon/projects/nds-ide/devkitARM/bin/../lib/gcc/arm-none-eabi/4.7.1/../../../../arm-none-eabi/lib/libc.a
LOAD /home/djjeon/projects/nds-ide/devkitARM/bin/../lib/gcc/arm-none-eabi/4.7.1/../../../../arm-none-eabi/lib/libsysbase.a
END GROUP
LOAD /home/djjeon/projects/nds-ide/devkitARM/bin/../lib/gcc/arm-none-eabi/4.7.1/crtend.o
LOAD /home/djjeon/projects/nds-ide/devkitARM/bin/../lib/gcc/arm-none-eabi/4.7.1/crtn.o
OUTPUT(nds_simple_exe elf32-littlearm)

.debug_ranges   0x00000000      0xb70
 .debug_ranges  0x00000000       0x18 build/obj/nds_simple.c.o
 .debug_ranges  0x00000018       0x30 build/obj/tpl_os_it_kernel.c.o
 .debug_ranges  0x00000048       0x98 build/obj/tpl_os_timeobj_kernel.c.o
 .debug_ranges  0x000000e0      0x130 build/obj/tpl_os_kernel.c.o
 .debug_ranges  0x00000210      0x238 /home/djjeon/projects/nds-ide/devkitARM/libnds/lib/libnds9.a(console.o)
 .debug_ranges  0x00000448       0x18 /home/djjeon/projects/nds-ide/devkitARM/libnds/lib/libnds9.a(touch.o)
 .debug_ranges  0x00000460      0x490 /home/djjeon/projects/nds-ide/devkitARM/libnds/lib/libnds9.a(fifosystem.o)
 .debug_ranges  0x000008f0      0x120 /home/djjeon/projects/nds-ide/devkitARM/libnds/lib/libnds9.a(interrupts.o)
 .debug_ranges  0x00000a10       0x78 /home/djjeon/projects/nds-ide/devkitARM/libnds/lib/libnds9.a(background.o)
 .debug_ranges  0x00000a88       0x70 /home/djjeon/projects/nds-ide/devkitARM/libnds/lib/libnds9.a(trig.o)
 .debug_ranges  0x00000af8       0x78 /home/djjeon/projects/nds-ide/devkitARM/libnds/lib/libnds9.a(video.o)
