Archive member included because of file (symbol)

/home/woo/ndsdev/devkitPro/libnds/lib/libdswifi9.a(sgIP_DNS.o)
                              wifi.o (inet_addr)
/home/woo/ndsdev/devkitPro/libnds/lib/libdswifi9.a(sgIP_Hub.o)
                              /home/woo/ndsdev/devkitPro/libnds/lib/libdswifi9.a(sgIP_DNS.o) (sgIP_Hub_GetDefaultInterface)
/home/woo/ndsdev/devkitPro/libnds/lib/libdswifi9.a(sgIP_memblock.o)
                              /home/woo/ndsdev/devkitPro/libnds/lib/libdswifi9.a(sgIP_Hub.o) (sgIP_memblock_free)
/home/woo/ndsdev/devkitPro/libnds/lib/libdswifi9.a(sgIP_sockets.o)
                              wifi.o (socket)
/home/woo/ndsdev/devkitPro/libnds/lib/libdswifi9.a(wifi_arm9.o)
                              /home/woo/ndsdev/devkitPro/libnds/lib/libdswifi9.a(sgIP_DNS.o) (sgIP_IntrWaitEvent)
/home/woo/ndsdev/devkitPro/libnds/lib/libdswifi9.a(spinlock.o)
                              /home/woo/ndsdev/devkitPro/libnds/lib/libdswifi9.a(wifi_arm9.o) (SLasm_Acquire)
/home/woo/ndsdev/devkitPro/libnds/lib/libdswifi9.a(sgIP.o)
                              /home/woo/ndsdev/devkitPro/libnds/lib/libdswifi9.a(wifi_arm9.o) (sgIP_Init)
/home/woo/ndsdev/devkitPro/libnds/lib/libdswifi9.a(sgIP_ARP.o)
                              /home/woo/ndsdev/devkitPro/libnds/lib/libdswifi9.a(sgIP.o) (sgIP_ARP_Init)
/home/woo/ndsdev/devkitPro/libnds/lib/libdswifi9.a(sgIP_DHCP.o)
                              /home/woo/ndsdev/devkitPro/libnds/lib/libdswifi9.a(sgIP.o) (sgIP_DHCP_Init)
/home/woo/ndsdev/devkitPro/libnds/lib/libdswifi9.a(sgIP_IP.o)
                              /home/woo/ndsdev/devkitPro/libnds/lib/libdswifi9.a(sgIP.o) (sgIP_IP_ReceivePacket)
/home/woo/ndsdev/devkitPro/libnds/lib/libdswifi9.a(sgIP_TCP.o)
                              /home/woo/ndsdev/devkitPro/libnds/lib/libdswifi9.a(sgIP.o) (sgIP_TCP_Init)
/home/woo/ndsdev/devkitPro/libnds/lib/libdswifi9.a(sgIP_UDP.o)
                              /home/woo/ndsdev/devkitPro/libnds/lib/libdswifi9.a(sgIP.o) (sgIP_UDP_Init)
/home/woo/ndsdev/devkitPro/libnds/lib/libdswifi9.a(sgIP_ICMP.o)
                              /home/woo/ndsdev/devkitPro/libnds/lib/libdswifi9.a(sgIP_IP.o) (sgIP_ICMP_ReceivePacket)
/home/woo/ndsdev/devkitPro/libnds/lib/libfat.a(libfat.o)
                              main.o (fatInitDefault)
/home/woo/ndsdev/devkitPro/libnds/lib/libfat.a(partition.o)
                              /home/woo/ndsdev/devkitPro/libnds/lib/libfat.a(libfat.o) (_FAT_partition_constructor)
/home/woo/ndsdev/devkitPro/libnds/lib/libfat.a(cache.o)
                              /home/woo/ndsdev/devkitPro/libnds/lib/libfat.a(partition.o) (_FAT_cache_constructor)
/home/woo/ndsdev/devkitPro/libnds/lib/libfat.a(directory.o)
                              /home/woo/ndsdev/devkitPro/libnds/lib/libfat.a(libfat.o) (_FAT_directory_getVolumeLabel)
/home/woo/ndsdev/devkitPro/libnds/lib/libfat.a(disc.o)
                              /home/woo/ndsdev/devkitPro/libnds/lib/libfat.a(libfat.o) (_FAT_disc_interfaces)
/home/woo/ndsdev/devkitPro/libnds/lib/libfat.a(fatdir.o)
                              /home/woo/ndsdev/devkitPro/libnds/lib/libfat.a(libfat.o) (_FAT_stat_r)
/home/woo/ndsdev/devkitPro/libnds/lib/libfat.a(fatfile.o)
                              /home/woo/ndsdev/devkitPro/libnds/lib/libfat.a(libfat.o) (_FAT_open_r)
/home/woo/ndsdev/devkitPro/libnds/lib/libfat.a(file_allocation_table.o)
                              /home/woo/ndsdev/devkitPro/libnds/lib/libfat.a(directory.o) (_FAT_fat_nextCluster)
/home/woo/ndsdev/devkitPro/libnds/lib/libfat.a(filetime.o)
                              /home/woo/ndsdev/devkitPro/libnds/lib/libfat.a(fatdir.o) (_FAT_filetime_getTimeFromRTC)
/home/woo/ndsdev/devkitPro/libnds/lib/libfat.a(lock.o)
                              /home/woo/ndsdev/devkitPro/libnds/lib/libfat.a(partition.o) (_FAT_lock_init)
/home/woo/ndsdev/devkitPro/libnds/lib/libnds9.a(console.o)
                              main.o (consoleDemoInit)
/home/woo/ndsdev/devkitPro/libnds/lib/libnds9.a(keys.o)
                              download.o (keysCurrent)
/home/woo/ndsdev/devkitPro/libnds/lib/libnds9.a(dldi.o)
                              /home/woo/ndsdev/devkitPro/libnds/lib/libfat.a(disc.o) (dldiGetInternal)
/home/woo/ndsdev/devkitPro/libnds/lib/libnds9.a(dsi_sd.o)
                              /home/woo/ndsdev/devkitPro/libnds/lib/libfat.a(disc.o) (__io_dsisd)
/home/woo/ndsdev/devkitPro/libnds/lib/libnds9.a(initSystem.o)
                              /home/woo/ndsdev/devkitPro/devkitARM/bin/../lib/gcc/arm-eabi/4.6.2/../../../../arm-eabi/lib/thumb/ds_arm9_crt0.o (initSystem)
/home/woo/ndsdev/devkitPro/libnds/lib/libnds9.a(fifosystem.o)
                              /home/woo/ndsdev/devkitPro/libnds/lib/libdswifi9.a(wifi_arm9.o) (fifoSendAddress)
/home/woo/ndsdev/devkitPro/libnds/lib/libnds9.a(interrupts.o)
                              /home/woo/ndsdev/devkitPro/libnds/lib/libdswifi9.a(wifi_arm9.o) (irqSet)
/home/woo/ndsdev/devkitPro/libnds/lib/libnds9.a(libnds_exit.o)
                              /home/woo/ndsdev/devkitPro/devkitARM/bin/../lib/gcc/arm-eabi/4.6.2/../../../../arm-eabi/lib/thumb/ds_arm9_crt0.o (__libnds_exit)
/home/woo/ndsdev/devkitPro/libnds/lib/libnds9.a(dcache.o)
                              /home/woo/ndsdev/devkitPro/libnds/lib/libdswifi9.a(wifi_arm9.o) (DC_FlushAll)
/home/woo/ndsdev/devkitPro/libnds/lib/libnds9.a(dldi_stub.o)
                              /home/woo/ndsdev/devkitPro/libnds/lib/libnds9.a(dldi.o) (_io_dldi_stub)
/home/woo/ndsdev/devkitPro/libnds/lib/libnds9.a(mpu_setup.o)
                              /home/woo/ndsdev/devkitPro/devkitARM/bin/../lib/gcc/arm-eabi/4.6.2/../../../../arm-eabi/lib/thumb/ds_arm9_crt0.o (__libnds_mpu_setup)
/home/woo/ndsdev/devkitPro/libnds/lib/libnds9.a(biosCalls.o)
                              /home/woo/ndsdev/devkitPro/libnds/lib/libnds9.a(fifosystem.o) (swiIntrWait)
/home/woo/ndsdev/devkitPro/libnds/lib/libnds9.a(debugprint.o)
                              /home/woo/ndsdev/devkitPro/libnds/lib/libnds9.a(console.o) (nocashWrite)
/home/woo/ndsdev/devkitPro/libnds/lib/libnds9.a(interruptDispatcher.o)
                              /home/woo/ndsdev/devkitPro/libnds/lib/libnds9.a(interrupts.o) (IntrMain)
/home/woo/ndsdev/devkitPro/libnds/lib/libnds9.a(swiSoftReset.o)
                              /home/woo/ndsdev/devkitPro/libnds/lib/libnds9.a(fifosystem.o) (swiSoftReset)
/home/woo/ndsdev/devkitPro/libnds/lib/libnds9.a(default_font.bin.o)
                              /home/woo/ndsdev/devkitPro/libnds/lib/libnds9.a(console.o) (default_font_bin)
/home/woo/ndsdev/devkitPro/libnds/lib/libnds9.a(background.o)
                              /home/woo/ndsdev/devkitPro/libnds/lib/libnds9.a(console.o) (bgState)
/home/woo/ndsdev/devkitPro/libnds/lib/libnds9.a(system.o)
                              /home/woo/ndsdev/devkitPro/libnds/lib/libnds9.a(initSystem.o) (systemMsgHandler)
/home/woo/ndsdev/devkitPro/libnds/lib/libnds9.a(trig.o)
                              /home/woo/ndsdev/devkitPro/libnds/lib/libnds9.a(background.o) (sinLerp)
/home/woo/ndsdev/devkitPro/libnds/lib/libnds9.a(video.o)
                              /home/woo/ndsdev/devkitPro/libnds/lib/libnds9.a(initSystem.o) (vramDefault)
/home/woo/ndsdev/devkitPro/devkitARM/bin/../lib/gcc/arm-eabi/4.6.2/thumb/libgcc.a(_udivsi3.o)
                              /home/woo/ndsdev/devkitPro/libnds/lib/libdswifi9.a(sgIP_DHCP.o) (__aeabi_uidiv)
/home/woo/ndsdev/devkitPro/devkitARM/bin/../lib/gcc/arm-eabi/4.6.2/thumb/libgcc.a(_divsi3.o)
                              /home/woo/ndsdev/devkitPro/libnds/lib/libdswifi9.a(sgIP_DNS.o) (__aeabi_idiv)
/home/woo/ndsdev/devkitPro/devkitARM/bin/../lib/gcc/arm-eabi/4.6.2/thumb/libgcc.a(_dvmd_tls.o)
                              /home/woo/ndsdev/devkitPro/devkitARM/bin/../lib/gcc/arm-eabi/4.6.2/thumb/libgcc.a(_udivsi3.o) (__aeabi_idiv0)
/home/woo/ndsdev/devkitPro/devkitARM/bin/../lib/gcc/arm-eabi/4.6.2/thumb/libgcc.a(_muldi3.o)
                              /home/woo/ndsdev/devkitPro/libnds/lib/libfat.a(partition.o) (__aeabi_lmul)
/home/woo/ndsdev/devkitPro/devkitARM/bin/../lib/gcc/arm-eabi/4.6.2/../../../../arm-eabi/lib/thumb/libg.a(lib_a-atoi.o)
                              download.o (atoi)
/home/woo/ndsdev/devkitPro/devkitARM/bin/../lib/gcc/arm-eabi/4.6.2/../../../../arm-eabi/lib/thumb/libg.a(lib_a-bsearch.o)
                              /home/woo/ndsdev/devkitPro/libnds/lib/libnds9.a(trig.o) (bsearch)
/home/woo/ndsdev/devkitPro/devkitARM/bin/../lib/gcc/arm-eabi/4.6.2/../../../../arm-eabi/lib/thumb/libg.a(lib_a-ctype_.o)
                              /home/woo/ndsdev/devkitPro/libnds/lib/libfat.a(directory.o) (__ctype_ptr__)
/home/woo/ndsdev/devkitPro/devkitARM/bin/../lib/gcc/arm-eabi/4.6.2/../../../../arm-eabi/lib/thumb/libg.a(lib_a-errno.o)
                              wifi.o (__errno)
/home/woo/ndsdev/devkitPro/devkitARM/bin/../lib/gcc/arm-eabi/4.6.2/../../../../arm-eabi/lib/thumb/libg.a(lib_a-fclose.o)
                              download.o (fclose)
/home/woo/ndsdev/devkitPro/devkitARM/bin/../lib/gcc/arm-eabi/4.6.2/../../../../arm-eabi/lib/thumb/libg.a(lib_a-fflush.o)
                              /home/woo/ndsdev/devkitPro/devkitARM/bin/../lib/gcc/arm-eabi/4.6.2/../../../../arm-eabi/lib/thumb/libg.a(lib_a-fclose.o) (_fflush_r)
/home/woo/ndsdev/devkitPro/devkitARM/bin/../lib/gcc/arm-eabi/4.6.2/../../../../arm-eabi/lib/thumb/libg.a(lib_a-fgets.o)
                              wifi.o (fgets)
/home/woo/ndsdev/devkitPro/devkitARM/bin/../lib/gcc/arm-eabi/4.6.2/../../../../arm-eabi/lib/thumb/libg.a(lib_a-findfp.o)
                              /home/woo/ndsdev/devkitPro/devkitARM/bin/../lib/gcc/arm-eabi/4.6.2/../../../../arm-eabi/lib/thumb/libg.a(lib_a-fclose.o) (__sinit)
/home/woo/ndsdev/devkitPro/devkitARM/bin/../lib/gcc/arm-eabi/4.6.2/../../../../arm-eabi/lib/thumb/libg.a(lib_a-fopen.o)
                              download.o (fopen)
/home/woo/ndsdev/devkitPro/devkitARM/bin/../lib/gcc/arm-eabi/4.6.2/../../../../arm-eabi/lib/thumb/libg.a(lib_a-freer.o)
                              /home/woo/ndsdev/devkitPro/devkitARM/bin/../lib/gcc/arm-eabi/4.6.2/../../../../arm-eabi/lib/thumb/libg.a(lib_a-fclose.o) (_free_r)
/home/woo/ndsdev/devkitPro/devkitARM/bin/../lib/gcc/arm-eabi/4.6.2/../../../../arm-eabi/lib/thumb/libg.a(lib_a-fseek.o)
                              /home/woo/ndsdev/devkitPro/devkitARM/bin/../lib/gcc/arm-eabi/4.6.2/../../../../arm-eabi/lib/thumb/libg.a(lib_a-fopen.o) (_fseek_r)
/home/woo/ndsdev/devkitPro/devkitARM/bin/../lib/gcc/arm-eabi/4.6.2/../../../../arm-eabi/lib/thumb/libg.a(lib_a-fwalk.o)
                              /home/woo/ndsdev/devkitPro/devkitARM/bin/../lib/gcc/arm-eabi/4.6.2/../../../../arm-eabi/lib/thumb/libg.a(lib_a-findfp.o) (_fwalk)
/home/woo/ndsdev/devkitPro/devkitARM/bin/../lib/gcc/arm-eabi/4.6.2/../../../../arm-eabi/lib/thumb/libg.a(lib_a-fwrite.o)
                              download.o (fwrite)
/home/woo/ndsdev/devkitPro/devkitARM/bin/../lib/gcc/arm-eabi/4.6.2/../../../../arm-eabi/lib/thumb/libg.a(lib_a-impure.o)
                              /home/woo/ndsdev/devkitPro/devkitARM/bin/../lib/gcc/arm-eabi/4.6.2/../../../../arm-eabi/lib/thumb/libg.a(lib_a-fflush.o) (_global_impure_ptr)
/home/woo/ndsdev/devkitPro/devkitARM/bin/../lib/gcc/arm-eabi/4.6.2/../../../../arm-eabi/lib/thumb/libg.a(lib_a-init.o)
                              /home/woo/ndsdev/devkitPro/devkitARM/bin/../lib/gcc/arm-eabi/4.6.2/../../../../arm-eabi/lib/thumb/ds_arm9_crt0.o (__libc_init_array)
/home/woo/ndsdev/devkitPro/devkitARM/bin/../lib/gcc/arm-eabi/4.6.2/../../../../arm-eabi/lib/thumb/libg.a(lib_a-iprintf.o)
                              download.o (iprintf)
/home/woo/ndsdev/devkitPro/devkitARM/bin/../lib/gcc/arm-eabi/4.6.2/../../../../arm-eabi/lib/thumb/libg.a(lib_a-lcltime_r.o)
                              /home/woo/ndsdev/devkitPro/libnds/lib/libfat.a(filetime.o) (localtime_r)
/home/woo/ndsdev/devkitPro/devkitARM/bin/../lib/gcc/arm-eabi/4.6.2/../../../../arm-eabi/lib/thumb/libg.a(lib_a-locale.o)
                              /home/woo/ndsdev/devkitPro/libnds/lib/libfat.a(directory.o) (__locale_mb_cur_max)
/home/woo/ndsdev/devkitPro/devkitARM/bin/../lib/gcc/arm-eabi/4.6.2/../../../../arm-eabi/lib/thumb/libg.a(lib_a-makebuf.o)
                              /home/woo/ndsdev/devkitPro/devkitARM/bin/../lib/gcc/arm-eabi/4.6.2/../../../../arm-eabi/lib/thumb/libg.a(lib_a-fseek.o) (__smakebuf_r)
/home/woo/ndsdev/devkitPro/devkitARM/bin/../lib/gcc/arm-eabi/4.6.2/../../../../arm-eabi/lib/thumb/libg.a(lib_a-malloc.o)
                              download.o (malloc)
/home/woo/ndsdev/devkitPro/devkitARM/bin/../lib/gcc/arm-eabi/4.6.2/../../../../arm-eabi/lib/thumb/libg.a(lib_a-mallocr.o)
                              /home/woo/ndsdev/devkitPro/devkitARM/bin/../lib/gcc/arm-eabi/4.6.2/../../../../arm-eabi/lib/thumb/libg.a(lib_a-findfp.o) (_malloc_r)
/home/woo/ndsdev/devkitPro/devkitARM/bin/../lib/gcc/arm-eabi/4.6.2/../../../../arm-eabi/lib/thumb/libg.a(lib_a-mbrtowc.o)
                              /home/woo/ndsdev/devkitPro/libnds/lib/libfat.a(directory.o) (mbrtowc)
/home/woo/ndsdev/devkitPro/devkitARM/bin/../lib/gcc/arm-eabi/4.6.2/../../../../arm-eabi/lib/thumb/libg.a(lib_a-mbsrtowcs.o)
                              /home/woo/ndsdev/devkitPro/libnds/lib/libfat.a(directory.o) (mbsrtowcs)
/home/woo/ndsdev/devkitPro/devkitARM/bin/../lib/gcc/arm-eabi/4.6.2/../../../../arm-eabi/lib/thumb/libg.a(lib_a-mbtowc_r.o)
                              /home/woo/ndsdev/devkitPro/devkitARM/bin/../lib/gcc/arm-eabi/4.6.2/../../../../arm-eabi/lib/thumb/libg.a(lib_a-locale.o) (__utf8_mbtowc)
/home/woo/ndsdev/devkitPro/devkitARM/bin/../lib/gcc/arm-eabi/4.6.2/../../../../arm-eabi/lib/thumb/libg.a(lib_a-memchr-stub.o)
                              /home/woo/ndsdev/devkitPro/devkitARM/bin/../lib/gcc/arm-eabi/4.6.2/../../../../arm-eabi/lib/thumb/libg.a(lib_a-fgets.o) (memchr)
/home/woo/ndsdev/devkitPro/devkitARM/bin/../lib/gcc/arm-eabi/4.6.2/../../../../arm-eabi/lib/thumb/libg.a(lib_a-memcmp.o)
                              /home/woo/ndsdev/devkitPro/libnds/lib/libfat.a(partition.o) (memcmp)
/home/woo/ndsdev/devkitPro/devkitARM/bin/../lib/gcc/arm-eabi/4.6.2/../../../../arm-eabi/lib/thumb/libg.a(lib_a-memcpy-stub.o)
                              download.o (memcpy)
/home/woo/ndsdev/devkitPro/devkitARM/bin/../lib/gcc/arm-eabi/4.6.2/../../../../arm-eabi/lib/thumb/libg.a(lib_a-memmove.o)
                              /home/woo/ndsdev/devkitPro/libnds/lib/libfat.a(directory.o) (memmove)
/home/woo/ndsdev/devkitPro/devkitARM/bin/../lib/gcc/arm-eabi/4.6.2/../../../../arm-eabi/lib/thumb/libg.a(lib_a-memset.o)
                              /home/woo/ndsdev/devkitPro/libnds/lib/libdswifi9.a(sgIP_DHCP.o) (memset)
/home/woo/ndsdev/devkitPro/devkitARM/bin/../lib/gcc/arm-eabi/4.6.2/../../../../arm-eabi/lib/thumb/libg.a(lib_a-mktime.o)
                              /home/woo/ndsdev/devkitPro/libnds/lib/libfat.a(filetime.o) (mktime)
/home/woo/ndsdev/devkitPro/devkitARM/bin/../lib/gcc/arm-eabi/4.6.2/../../../../arm-eabi/lib/thumb/libg.a(lib_a-mktm_r.o)
                              /home/woo/ndsdev/devkitPro/devkitARM/bin/../lib/gcc/arm-eabi/4.6.2/../../../../arm-eabi/lib/thumb/libg.a(lib_a-mktime.o) (__tzcalc_limits)
/home/woo/ndsdev/devkitPro/devkitARM/bin/../lib/gcc/arm-eabi/4.6.2/../../../../arm-eabi/lib/thumb/libg.a(lib_a-mlock.o)
                              /home/woo/ndsdev/devkitPro/devkitARM/bin/../lib/gcc/arm-eabi/4.6.2/../../../../arm-eabi/lib/thumb/libg.a(lib_a-freer.o) (__malloc_lock)
/home/woo/ndsdev/devkitPro/devkitARM/bin/../lib/gcc/arm-eabi/4.6.2/../../../../arm-eabi/lib/thumb/libg.a(lib_a-printf.o)
                              main.o (printf)
/home/woo/ndsdev/devkitPro/devkitARM/bin/../lib/gcc/arm-eabi/4.6.2/../../../../arm-eabi/lib/thumb/libg.a(lib_a-refill.o)
                              /home/woo/ndsdev/devkitPro/devkitARM/bin/../lib/gcc/arm-eabi/4.6.2/../../../../arm-eabi/lib/thumb/libg.a(lib_a-fgets.o) (__srefill_r)
/home/woo/ndsdev/devkitPro/devkitARM/bin/../lib/gcc/arm-eabi/4.6.2/../../../../arm-eabi/lib/thumb/libg.a(lib_a-setvbuf.o)
                              /home/woo/ndsdev/devkitPro/libnds/lib/libnds9.a(console.o) (setvbuf)
/home/woo/ndsdev/devkitPro/devkitARM/bin/../lib/gcc/arm-eabi/4.6.2/../../../../arm-eabi/lib/thumb/libg.a(lib_a-siscanf.o)
                              /home/woo/ndsdev/devkitPro/libnds/lib/libnds9.a(console.o) (siscanf)
/home/woo/ndsdev/devkitPro/devkitARM/bin/../lib/gcc/arm-eabi/4.6.2/../../../../arm-eabi/lib/thumb/libg.a(lib_a-sprintf.o)
                              /home/woo/ndsdev/devkitPro/libnds/lib/libfat.a(libfat.o) (sprintf)
/home/woo/ndsdev/devkitPro/devkitARM/bin/../lib/gcc/arm-eabi/4.6.2/../../../../arm-eabi/lib/thumb/libg.a(lib_a-sscanf.o)
                              download.o (sscanf)
/home/woo/ndsdev/devkitPro/devkitARM/bin/../lib/gcc/arm-eabi/4.6.2/../../../../arm-eabi/lib/thumb/libg.a(lib_a-stdio.o)
                              /home/woo/ndsdev/devkitPro/devkitARM/bin/../lib/gcc/arm-eabi/4.6.2/../../../../arm-eabi/lib/thumb/libg.a(lib_a-findfp.o) (__sread)
/home/woo/ndsdev/devkitPro/devkitARM/bin/../lib/gcc/arm-eabi/4.6.2/../../../../arm-eabi/lib/thumb/libg.a(lib_a-strcasecmp.o)
                              /home/woo/ndsdev/devkitPro/devkitARM/bin/../lib/gcc/arm-eabi/4.6.2/../../../../arm-eabi/lib/thumb/libg.a(lib_a-locale.o) (strcasecmp)
/home/woo/ndsdev/devkitPro/devkitARM/bin/../lib/gcc/arm-eabi/4.6.2/../../../../arm-eabi/lib/thumb/libg.a(lib_a-strcat.o)
                              /home/woo/ndsdev/devkitPro/devkitARM/bin/../lib/gcc/arm-eabi/4.6.2/../../../../arm-eabi/lib/thumb/libg.a(lib_a-locale.o) (strcat)
/home/woo/ndsdev/devkitPro/devkitARM/bin/../lib/gcc/arm-eabi/4.6.2/../../../../arm-eabi/lib/thumb/libg.a(lib_a-strchr.o)
                              /home/woo/ndsdev/devkitPro/libnds/lib/libfat.a(directory.o) (strchr)
/home/woo/ndsdev/devkitPro/devkitARM/bin/../lib/gcc/arm-eabi/4.6.2/../../../../arm-eabi/lib/thumb/libg.a(lib_a-strcmp.o)
                              download.o (strcmp)
/home/woo/ndsdev/devkitPro/devkitARM/bin/../lib/gcc/arm-eabi/4.6.2/../../../../arm-eabi/lib/thumb/libg.a(lib_a-strcpy.o)
                              download.o (strcpy)
/home/woo/ndsdev/devkitPro/devkitARM/bin/../lib/gcc/arm-eabi/4.6.2/../../../../arm-eabi/lib/thumb/libg.a(lib_a-strlcpy.o)
                              /home/woo/ndsdev/devkitPro/devkitARM/bin/../lib/gcc/arm-eabi/4.6.2/../../../../arm-eabi/lib/thumb/libg.a(lib_a-locale.o) (strlcpy)
/home/woo/ndsdev/devkitPro/devkitARM/bin/../lib/gcc/arm-eabi/4.6.2/../../../../arm-eabi/lib/thumb/libg.a(lib_a-strlen.o)
                              download.o (strlen)
/home/woo/ndsdev/devkitPro/devkitARM/bin/../lib/gcc/arm-eabi/4.6.2/../../../../arm-eabi/lib/thumb/libg.a(lib_a-strncasecmp.o)
                              /home/woo/ndsdev/devkitPro/libnds/lib/libfat.a(libfat.o) (strncasecmp)
/home/woo/ndsdev/devkitPro/devkitARM/bin/../lib/gcc/arm-eabi/4.6.2/../../../../arm-eabi/lib/thumb/libg.a(lib_a-strncmp.o)
                              download.o (strncmp)
/home/woo/ndsdev/devkitPro/devkitARM/bin/../lib/gcc/arm-eabi/4.6.2/../../../../arm-eabi/lib/thumb/libg.a(lib_a-strncpy.o)
                              /home/woo/ndsdev/devkitPro/libnds/lib/libdswifi9.a(sgIP_DHCP.o) (strncpy)
/home/woo/ndsdev/devkitPro/devkitARM/bin/../lib/gcc/arm-eabi/4.6.2/../../../../arm-eabi/lib/thumb/libg.a(lib_a-strnlen.o)
                              /home/woo/ndsdev/devkitPro/libnds/lib/libfat.a(directory.o) (strnlen)
/home/woo/ndsdev/devkitPro/devkitARM/bin/../lib/gcc/arm-eabi/4.6.2/../../../../arm-eabi/lib/thumb/libg.a(lib_a-strpbrk.o)
                              /home/woo/ndsdev/devkitPro/libnds/lib/libfat.a(directory.o) (strpbrk)
/home/woo/ndsdev/devkitPro/devkitARM/bin/../lib/gcc/arm-eabi/4.6.2/../../../../arm-eabi/lib/thumb/libg.a(lib_a-strrchr.o)
                              /home/woo/ndsdev/devkitPro/libnds/lib/libfat.a(libfat.o) (strrchr)
/home/woo/ndsdev/devkitPro/devkitARM/bin/../lib/gcc/arm-eabi/4.6.2/../../../../arm-eabi/lib/thumb/libg.a(lib_a-strtol.o)
                              /home/woo/ndsdev/devkitPro/devkitARM/bin/../lib/gcc/arm-eabi/4.6.2/../../../../arm-eabi/lib/thumb/libg.a(lib_a-atoi.o) (_strtol_r)
/home/woo/ndsdev/devkitPro/devkitARM/bin/../lib/gcc/arm-eabi/4.6.2/../../../../arm-eabi/lib/thumb/libg.a(lib_a-svfiscanf.o)
                              /home/woo/ndsdev/devkitPro/devkitARM/bin/../lib/gcc/arm-eabi/4.6.2/../../../../arm-eabi/lib/thumb/libg.a(lib_a-siscanf.o) (__ssvfiscanf_r)
/home/woo/ndsdev/devkitPro/devkitARM/bin/../lib/gcc/arm-eabi/4.6.2/../../../../arm-eabi/lib/thumb/libg.a(lib_a-svfprintf.o)
                              /home/woo/ndsdev/devkitPro/devkitARM/bin/../lib/gcc/arm-eabi/4.6.2/../../../../arm-eabi/lib/thumb/libg.a(lib_a-sprintf.o) (_svfprintf_r)
/home/woo/ndsdev/devkitPro/devkitARM/bin/../lib/gcc/arm-eabi/4.6.2/../../../../arm-eabi/lib/thumb/libg.a(lib_a-svfscanf.o)
                              /home/woo/ndsdev/devkitPro/devkitARM/bin/../lib/gcc/arm-eabi/4.6.2/../../../../arm-eabi/lib/thumb/libg.a(lib_a-sscanf.o) (__ssvfscanf_r)
/home/woo/ndsdev/devkitPro/devkitARM/bin/../lib/gcc/arm-eabi/4.6.2/../../../../arm-eabi/lib/thumb/libg.a(lib_a-sysclose.o)
                              /home/woo/ndsdev/devkitPro/libnds/lib/libnds9.a(dldi.o) (close)
/home/woo/ndsdev/devkitPro/devkitARM/bin/../lib/gcc/arm-eabi/4.6.2/../../../../arm-eabi/lib/thumb/libg.a(lib_a-syslseek.o)
                              /home/woo/ndsdev/devkitPro/libnds/lib/libnds9.a(dldi.o) (lseek)
/home/woo/ndsdev/devkitPro/devkitARM/bin/../lib/gcc/arm-eabi/4.6.2/../../../../arm-eabi/lib/thumb/libg.a(lib_a-sysopen.o)
                              /home/woo/ndsdev/devkitPro/libnds/lib/libnds9.a(dldi.o) (open)
/home/woo/ndsdev/devkitPro/devkitARM/bin/../lib/gcc/arm-eabi/4.6.2/../../../../arm-eabi/lib/thumb/libg.a(lib_a-sysread.o)
                              /home/woo/ndsdev/devkitPro/libnds/lib/libnds9.a(dldi.o) (read)
/home/woo/ndsdev/devkitPro/devkitARM/bin/../lib/gcc/arm-eabi/4.6.2/../../../../arm-eabi/lib/thumb/libg.a(lib_a-time.o)
                              /home/woo/ndsdev/devkitPro/libnds/lib/libfat.a(filetime.o) (time)
/home/woo/ndsdev/devkitPro/devkitARM/bin/../lib/gcc/arm-eabi/4.6.2/../../../../arm-eabi/lib/thumb/libg.a(lib_a-towlower.o)
                              /home/woo/ndsdev/devkitPro/libnds/lib/libfat.a(directory.o) (towlower)
/home/woo/ndsdev/devkitPro/devkitARM/bin/../lib/gcc/arm-eabi/4.6.2/../../../../arm-eabi/lib/thumb/libg.a(lib_a-towupper.o)
                              /home/woo/ndsdev/devkitPro/libnds/lib/libfat.a(directory.o) (towupper)
/home/woo/ndsdev/devkitPro/devkitARM/bin/../lib/gcc/arm-eabi/4.6.2/../../../../arm-eabi/lib/thumb/libg.a(lib_a-tzlock.o)
                              /home/woo/ndsdev/devkitPro/devkitARM/bin/../lib/gcc/arm-eabi/4.6.2/../../../../arm-eabi/lib/thumb/libg.a(lib_a-mktime.o) (__tz_lock)
/home/woo/ndsdev/devkitPro/devkitARM/bin/../lib/gcc/arm-eabi/4.6.2/../../../../arm-eabi/lib/thumb/libg.a(lib_a-tzvars.o)
                              /home/woo/ndsdev/devkitPro/devkitARM/bin/../lib/gcc/arm-eabi/4.6.2/../../../../arm-eabi/lib/thumb/libg.a(lib_a-mktime.o) (_daylight)
/home/woo/ndsdev/devkitPro/devkitARM/bin/../lib/gcc/arm-eabi/4.6.2/../../../../arm-eabi/lib/thumb/libg.a(lib_a-ungetc.o)
                              /home/woo/ndsdev/devkitPro/devkitARM/bin/../lib/gcc/arm-eabi/4.6.2/../../../../arm-eabi/lib/thumb/libg.a(lib_a-svfiscanf.o) (__submore)
/home/woo/ndsdev/devkitPro/devkitARM/bin/../lib/gcc/arm-eabi/4.6.2/../../../../arm-eabi/lib/thumb/libg.a(lib_a-vfiprintf.o)
                              /home/woo/ndsdev/devkitPro/devkitARM/bin/../lib/gcc/arm-eabi/4.6.2/../../../../arm-eabi/lib/thumb/libg.a(lib_a-iprintf.o) (_vfiprintf_r)
/home/woo/ndsdev/devkitPro/devkitARM/bin/../lib/gcc/arm-eabi/4.6.2/../../../../arm-eabi/lib/thumb/libg.a(lib_a-vfprintf.o)
                              /home/woo/ndsdev/devkitPro/devkitARM/bin/../lib/gcc/arm-eabi/4.6.2/../../../../arm-eabi/lib/thumb/libg.a(lib_a-printf.o) (_vfprintf_r)
/home/woo/ndsdev/devkitPro/devkitARM/bin/../lib/gcc/arm-eabi/4.6.2/../../../../arm-eabi/lib/thumb/libg.a(lib_a-wcrtomb.o)
                              /home/woo/ndsdev/devkitPro/devkitARM/bin/../lib/gcc/arm-eabi/4.6.2/../../../../arm-eabi/lib/thumb/libg.a(lib_a-svfprintf.o) (_wcrtomb_r)
/home/woo/ndsdev/devkitPro/devkitARM/bin/../lib/gcc/arm-eabi/4.6.2/../../../../arm-eabi/lib/thumb/libg.a(lib_a-wcsrtombs.o)
                              /home/woo/ndsdev/devkitPro/devkitARM/bin/../lib/gcc/arm-eabi/4.6.2/../../../../arm-eabi/lib/thumb/libg.a(lib_a-svfprintf.o) (_wcsrtombs_r)
/home/woo/ndsdev/devkitPro/devkitARM/bin/../lib/gcc/arm-eabi/4.6.2/../../../../arm-eabi/lib/thumb/libg.a(lib_a-wctob.o)
                              /home/woo/ndsdev/devkitPro/libnds/lib/libfat.a(directory.o) (wctob)
/home/woo/ndsdev/devkitPro/devkitARM/bin/../lib/gcc/arm-eabi/4.6.2/../../../../arm-eabi/lib/thumb/libg.a(lib_a-wctomb_r.o)
                              /home/woo/ndsdev/devkitPro/devkitARM/bin/../lib/gcc/arm-eabi/4.6.2/../../../../arm-eabi/lib/thumb/libg.a(lib_a-locale.o) (__utf8_wctomb)
/home/woo/ndsdev/devkitPro/devkitARM/bin/../lib/gcc/arm-eabi/4.6.2/../../../../arm-eabi/lib/thumb/libg.a(lib_a-wsetup.o)
                              /home/woo/ndsdev/devkitPro/devkitARM/bin/../lib/gcc/arm-eabi/4.6.2/../../../../arm-eabi/lib/thumb/libg.a(lib_a-vfiprintf.o) (__swsetup_r)
/home/woo/ndsdev/devkitPro/devkitARM/bin/../lib/gcc/arm-eabi/4.6.2/../../../../arm-eabi/lib/thumb/libg.a(lib_a-div.o)
                              /home/woo/ndsdev/devkitPro/devkitARM/bin/../lib/gcc/arm-eabi/4.6.2/../../../../arm-eabi/lib/thumb/libg.a(lib_a-mktime.o) (div)
/home/woo/ndsdev/devkitPro/devkitARM/bin/../lib/gcc/arm-eabi/4.6.2/../../../../arm-eabi/lib/thumb/libg.a(lib_a-dtoa.o)
                              /home/woo/ndsdev/devkitPro/devkitARM/bin/../lib/gcc/arm-eabi/4.6.2/../../../../arm-eabi/lib/thumb/libg.a(lib_a-svfprintf.o) (_dtoa_r)
/home/woo/ndsdev/devkitPro/devkitARM/bin/../lib/gcc/arm-eabi/4.6.2/../../../../arm-eabi/lib/thumb/libg.a(lib_a-flags.o)
                              /home/woo/ndsdev/devkitPro/devkitARM/bin/../lib/gcc/arm-eabi/4.6.2/../../../../arm-eabi/lib/thumb/libg.a(lib_a-fopen.o) (__sflags)
/home/woo/ndsdev/devkitPro/devkitARM/bin/../lib/gcc/arm-eabi/4.6.2/../../../../arm-eabi/lib/thumb/libg.a(lib_a-fputwc.o)
                              /home/woo/ndsdev/devkitPro/devkitARM/bin/../lib/gcc/arm-eabi/4.6.2/../../../../arm-eabi/lib/thumb/libg.a(lib_a-vfiprintf.o) (_fputwc_r)
/home/woo/ndsdev/devkitPro/devkitARM/bin/../lib/gcc/arm-eabi/4.6.2/../../../../arm-eabi/lib/thumb/libg.a(lib_a-fvwrite.o)
                              /home/woo/ndsdev/devkitPro/devkitARM/bin/../lib/gcc/arm-eabi/4.6.2/../../../../arm-eabi/lib/thumb/libg.a(lib_a-fwrite.o) (__sfvwrite_r)
/home/woo/ndsdev/devkitPro/devkitARM/bin/../lib/gcc/arm-eabi/4.6.2/../../../../arm-eabi/lib/thumb/libg.a(lib_a-getenv_r.o)
                              /home/woo/ndsdev/devkitPro/devkitARM/bin/../lib/gcc/arm-eabi/4.6.2/../../../../arm-eabi/lib/thumb/libg.a(lib_a-locale.o) (_getenv_r)
/home/woo/ndsdev/devkitPro/devkitARM/bin/../lib/gcc/arm-eabi/4.6.2/../../../../arm-eabi/lib/thumb/libg.a(lib_a-gettzinfo.o)
                              /home/woo/ndsdev/devkitPro/devkitARM/bin/../lib/gcc/arm-eabi/4.6.2/../../../../arm-eabi/lib/thumb/libg.a(lib_a-mktime.o) (__gettzinfo)
/home/woo/ndsdev/devkitPro/devkitARM/bin/../lib/gcc/arm-eabi/4.6.2/../../../../arm-eabi/lib/thumb/libg.a(lib_a-iswspace.o)
                              /home/woo/ndsdev/devkitPro/devkitARM/bin/../lib/gcc/arm-eabi/4.6.2/../../../../arm-eabi/lib/thumb/libg.a(lib_a-svfiscanf.o) (iswspace)
/home/woo/ndsdev/devkitPro/devkitARM/bin/../lib/gcc/arm-eabi/4.6.2/../../../../arm-eabi/lib/thumb/libg.a(lib_a-jp2uc.o)
                              /home/woo/ndsdev/devkitPro/devkitARM/bin/../lib/gcc/arm-eabi/4.6.2/../../../../arm-eabi/lib/thumb/libg.a(lib_a-towlower.o) (_jp2uc)
/home/woo/ndsdev/devkitPro/devkitARM/bin/../lib/gcc/arm-eabi/4.6.2/../../../../arm-eabi/lib/thumb/libg.a(lib_a-mbsnrtowcs.o)
                              /home/woo/ndsdev/devkitPro/devkitARM/bin/../lib/gcc/arm-eabi/4.6.2/../../../../arm-eabi/lib/thumb/libg.a(lib_a-mbsrtowcs.o) (_mbsnrtowcs_r)
/home/woo/ndsdev/devkitPro/devkitARM/bin/../lib/gcc/arm-eabi/4.6.2/../../../../arm-eabi/lib/thumb/libg.a(lib_a-mprec.o)
                              /home/woo/ndsdev/devkitPro/devkitARM/bin/../lib/gcc/arm-eabi/4.6.2/../../../../arm-eabi/lib/thumb/libg.a(lib_a-dtoa.o) (_Balloc)
/home/woo/ndsdev/devkitPro/devkitARM/bin/../lib/gcc/arm-eabi/4.6.2/../../../../arm-eabi/lib/thumb/libg.a(lib_a-reallocr.o)
                              /home/woo/ndsdev/devkitPro/devkitARM/bin/../lib/gcc/arm-eabi/4.6.2/../../../../arm-eabi/lib/thumb/libg.a(lib_a-ungetc.o) (_realloc_r)
/home/woo/ndsdev/devkitPro/devkitARM/bin/../lib/gcc/arm-eabi/4.6.2/../../../../arm-eabi/lib/thumb/libg.a(lib_a-sccl.o)
                              /home/woo/ndsdev/devkitPro/devkitARM/bin/../lib/gcc/arm-eabi/4.6.2/../../../../arm-eabi/lib/thumb/libg.a(lib_a-svfiscanf.o) (__sccl)
/home/woo/ndsdev/devkitPro/devkitARM/bin/../lib/gcc/arm-eabi/4.6.2/../../../../arm-eabi/lib/thumb/libg.a(lib_a-sf_nan.o)
                              /home/woo/ndsdev/devkitPro/devkitARM/bin/../lib/gcc/arm-eabi/4.6.2/../../../../arm-eabi/lib/thumb/libg.a(lib_a-svfscanf.o) (nanf)
/home/woo/ndsdev/devkitPro/devkitARM/bin/../lib/gcc/arm-eabi/4.6.2/../../../../arm-eabi/lib/thumb/libg.a(lib_a-s_fpclassify.o)
                              /home/woo/ndsdev/devkitPro/devkitARM/bin/../lib/gcc/arm-eabi/4.6.2/../../../../arm-eabi/lib/thumb/libg.a(lib_a-svfprintf.o) (__fpclassifyd)
/home/woo/ndsdev/devkitPro/devkitARM/bin/../lib/gcc/arm-eabi/4.6.2/../../../../arm-eabi/lib/thumb/libg.a(lib_a-strtod.o)
                              /home/woo/ndsdev/devkitPro/devkitARM/bin/../lib/gcc/arm-eabi/4.6.2/../../../../arm-eabi/lib/thumb/libg.a(lib_a-svfscanf.o) (_strtod_r)
/home/woo/ndsdev/devkitPro/devkitARM/bin/../lib/gcc/arm-eabi/4.6.2/../../../../arm-eabi/lib/thumb/libg.a(lib_a-strtoll_r.o)
                              /home/woo/ndsdev/devkitPro/devkitARM/bin/../lib/gcc/arm-eabi/4.6.2/../../../../arm-eabi/lib/thumb/libg.a(lib_a-svfiscanf.o) (_strtoll_r)
/home/woo/ndsdev/devkitPro/devkitARM/bin/../lib/gcc/arm-eabi/4.6.2/../../../../arm-eabi/lib/thumb/libg.a(lib_a-strtoull_r.o)
                              /home/woo/ndsdev/devkitPro/devkitARM/bin/../lib/gcc/arm-eabi/4.6.2/../../../../arm-eabi/lib/thumb/libg.a(lib_a-svfiscanf.o) (_strtoull_r)
/home/woo/ndsdev/devkitPro/devkitARM/bin/../lib/gcc/arm-eabi/4.6.2/../../../../arm-eabi/lib/thumb/libg.a(lib_a-strtoul.o)
                              /home/woo/ndsdev/devkitPro/devkitARM/bin/../lib/gcc/arm-eabi/4.6.2/../../../../arm-eabi/lib/thumb/libg.a(lib_a-svfiscanf.o) (_strtoul_r)
/home/woo/ndsdev/devkitPro/devkitARM/bin/../lib/gcc/arm-eabi/4.6.2/../../../../arm-eabi/lib/thumb/libg.a(lib_a-svfiprintf.o)
                              /home/woo/ndsdev/devkitPro/devkitARM/bin/../lib/gcc/arm-eabi/4.6.2/../../../../arm-eabi/lib/thumb/libg.a(lib_a-svfprintf.o) (__ssprint_r)
/home/woo/ndsdev/devkitPro/devkitARM/bin/../lib/gcc/arm-eabi/4.6.2/../../../../arm-eabi/lib/thumb/libg.a(lib_a-wbuf.o)
                              /home/woo/ndsdev/devkitPro/devkitARM/bin/../lib/gcc/arm-eabi/4.6.2/../../../../arm-eabi/lib/thumb/libg.a(lib_a-fputwc.o) (__swbuf_r)
/home/woo/ndsdev/devkitPro/devkitARM/bin/../lib/gcc/arm-eabi/4.6.2/../../../../arm-eabi/lib/thumb/libg.a(lib_a-wcsnrtombs.o)
                              /home/woo/ndsdev/devkitPro/devkitARM/bin/../lib/gcc/arm-eabi/4.6.2/../../../../arm-eabi/lib/thumb/libg.a(lib_a-wcsrtombs.o) (_wcsnrtombs_r)
/home/woo/ndsdev/devkitPro/devkitARM/bin/../lib/gcc/arm-eabi/4.6.2/../../../../arm-eabi/lib/thumb/libg.a(lib_a-callocr.o)
                              /home/woo/ndsdev/devkitPro/devkitARM/bin/../lib/gcc/arm-eabi/4.6.2/../../../../arm-eabi/lib/thumb/libg.a(lib_a-mprec.o) (_calloc_r)
/home/woo/ndsdev/devkitPro/devkitARM/bin/../lib/gcc/arm-eabi/4.6.2/../../../../arm-eabi/lib/thumb/libg.a(lib_a-environ.o)
                              /home/woo/ndsdev/devkitPro/devkitARM/bin/../lib/gcc/arm-eabi/4.6.2/../../../../arm-eabi/lib/thumb/libg.a(lib_a-getenv_r.o) (environ)
/home/woo/ndsdev/devkitPro/devkitARM/bin/../lib/gcc/arm-eabi/4.6.2/../../../../arm-eabi/lib/thumb/libg.a(lib_a-envlock.o)
                              /home/woo/ndsdev/devkitPro/devkitARM/bin/../lib/gcc/arm-eabi/4.6.2/../../../../arm-eabi/lib/thumb/libg.a(lib_a-getenv_r.o) (__env_lock)
/home/woo/ndsdev/devkitPro/devkitARM/bin/../lib/gcc/arm-eabi/4.6.2/../../../../arm-eabi/lib/thumb/libg.a(lib_a-gdtoa-gethex.o)
                              /home/woo/ndsdev/devkitPro/devkitARM/bin/../lib/gcc/arm-eabi/4.6.2/../../../../arm-eabi/lib/thumb/libg.a(lib_a-strtod.o) (__gethex)
/home/woo/ndsdev/devkitPro/devkitARM/bin/../lib/gcc/arm-eabi/4.6.2/../../../../arm-eabi/lib/thumb/libg.a(lib_a-gdtoa-hexnan.o)
                              /home/woo/ndsdev/devkitPro/devkitARM/bin/../lib/gcc/arm-eabi/4.6.2/../../../../arm-eabi/lib/thumb/libg.a(lib_a-strtod.o) (__hexnan)
/home/woo/ndsdev/devkitPro/devkitARM/bin/../lib/gcc/arm-eabi/4.6.2/../../../../arm-eabi/lib/thumb/libsysbase.a(iosupport.o)
                              /home/woo/ndsdev/devkitPro/libnds/lib/libfat.a(libfat.o) (FindDevice)
/home/woo/ndsdev/devkitPro/devkitARM/bin/../lib/gcc/arm-eabi/4.6.2/../../../../arm-eabi/lib/thumb/libsysbase.a(close.o)
                              /home/woo/ndsdev/devkitPro/devkitARM/bin/../lib/gcc/arm-eabi/4.6.2/../../../../arm-eabi/lib/thumb/libg.a(lib_a-stdio.o) (_close_r)
/home/woo/ndsdev/devkitPro/devkitARM/bin/../lib/gcc/arm-eabi/4.6.2/../../../../arm-eabi/lib/thumb/libsysbase.a(fstat.o)
                              /home/woo/ndsdev/devkitPro/devkitARM/bin/../lib/gcc/arm-eabi/4.6.2/../../../../arm-eabi/lib/thumb/libg.a(lib_a-fseek.o) (_fstat_r)
/home/woo/ndsdev/devkitPro/devkitARM/bin/../lib/gcc/arm-eabi/4.6.2/../../../../arm-eabi/lib/thumb/libsysbase.a(isatty.o)
                              /home/woo/ndsdev/devkitPro/devkitARM/bin/../lib/gcc/arm-eabi/4.6.2/../../../../arm-eabi/lib/thumb/libg.a(lib_a-makebuf.o) (_isatty_r)
/home/woo/ndsdev/devkitPro/devkitARM/bin/../lib/gcc/arm-eabi/4.6.2/../../../../arm-eabi/lib/thumb/libsysbase.a(lseek.o)
                              /home/woo/ndsdev/devkitPro/devkitARM/bin/../lib/gcc/arm-eabi/4.6.2/../../../../arm-eabi/lib/thumb/libg.a(lib_a-stdio.o) (_lseek_r)
/home/woo/ndsdev/devkitPro/devkitARM/bin/../lib/gcc/arm-eabi/4.6.2/../../../../arm-eabi/lib/thumb/libsysbase.a(open.o)
                              /home/woo/ndsdev/devkitPro/devkitARM/bin/../lib/gcc/arm-eabi/4.6.2/../../../../arm-eabi/lib/thumb/libg.a(lib_a-fopen.o) (_open_r)
/home/woo/ndsdev/devkitPro/devkitARM/bin/../lib/gcc/arm-eabi/4.6.2/../../../../arm-eabi/lib/thumb/libsysbase.a(read.o)
                              /home/woo/ndsdev/devkitPro/devkitARM/bin/../lib/gcc/arm-eabi/4.6.2/../../../../arm-eabi/lib/thumb/libg.a(lib_a-stdio.o) (_read_r)
/home/woo/ndsdev/devkitPro/devkitARM/bin/../lib/gcc/arm-eabi/4.6.2/../../../../arm-eabi/lib/thumb/libsysbase.a(sbrk.o)
                              /home/woo/ndsdev/devkitPro/devkitARM/bin/../lib/gcc/arm-eabi/4.6.2/../../../../arm-eabi/lib/thumb/libg.a(lib_a-freer.o) (_sbrk_r)
/home/woo/ndsdev/devkitPro/devkitARM/bin/../lib/gcc/arm-eabi/4.6.2/../../../../arm-eabi/lib/thumb/libsysbase.a(times.o)
                              /home/woo/ndsdev/devkitPro/devkitARM/bin/../lib/gcc/arm-eabi/4.6.2/../../../../arm-eabi/lib/thumb/libg.a(lib_a-time.o) (_gettimeofday_r)
/home/woo/ndsdev/devkitPro/devkitARM/bin/../lib/gcc/arm-eabi/4.6.2/../../../../arm-eabi/lib/thumb/libsysbase.a(write.o)
                              /home/woo/ndsdev/devkitPro/devkitARM/bin/../lib/gcc/arm-eabi/4.6.2/../../../../arm-eabi/lib/thumb/libg.a(lib_a-stdio.o) (_write_r)
/home/woo/ndsdev/devkitPro/devkitARM/bin/../lib/gcc/arm-eabi/4.6.2/../../../../arm-eabi/lib/thumb/libsysbase.a(malloc_vars.o)
                              /home/woo/ndsdev/devkitPro/devkitARM/bin/../lib/gcc/arm-eabi/4.6.2/../../../../arm-eabi/lib/thumb/ds_arm9_crt0.o (fake_heap_start)
/home/woo/ndsdev/devkitPro/devkitARM/bin/../lib/gcc/arm-eabi/4.6.2/../../../../arm-eabi/lib/thumb/libsysbase.a(chdir.o)
                              /home/woo/ndsdev/devkitPro/libnds/lib/libfat.a(libfat.o) (chdir)
/home/woo/ndsdev/devkitPro/devkitARM/bin/../lib/gcc/arm-eabi/4.6.2/../../../../arm-eabi/lib/thumb/libsysbase.a(build_argv.o)
                              /home/woo/ndsdev/devkitPro/devkitARM/bin/../lib/gcc/arm-eabi/4.6.2/../../../../arm-eabi/lib/thumb/ds_arm9_crt0.o (build_argv)
/home/woo/ndsdev/devkitPro/devkitARM/bin/../lib/gcc/arm-eabi/4.6.2/../../../../arm-eabi/lib/thumb/libsysbase.a(syscall_support.o)
                              /home/woo/ndsdev/devkitPro/libnds/lib/libnds9.a(initSystem.o) (__syscalls)
/home/woo/ndsdev/devkitPro/devkitARM/bin/../lib/gcc/arm-eabi/4.6.2/../../../../arm-eabi/lib/thumb/libsysbase.a(handle_manager.o)
                              /home/woo/ndsdev/devkitPro/devkitARM/bin/../lib/gcc/arm-eabi/4.6.2/../../../../arm-eabi/lib/thumb/libsysbase.a(close.o) (__release_handle)
/home/woo/ndsdev/devkitPro/devkitARM/bin/../lib/gcc/arm-eabi/4.6.2/thumb/libgcc.a(_arm_addsubdf3.o)
                              /home/woo/ndsdev/devkitPro/devkitARM/bin/../lib/gcc/arm-eabi/4.6.2/../../../../arm-eabi/lib/thumb/libg.a(lib_a-dtoa.o) (__aeabi_dsub)
/home/woo/ndsdev/devkitPro/devkitARM/bin/../lib/gcc/arm-eabi/4.6.2/thumb/libgcc.a(_arm_muldivdf3.o)
                              /home/woo/ndsdev/devkitPro/devkitARM/bin/../lib/gcc/arm-eabi/4.6.2/../../../../arm-eabi/lib/thumb/libg.a(lib_a-dtoa.o) (__aeabi_dmul)
/home/woo/ndsdev/devkitPro/devkitARM/bin/../lib/gcc/arm-eabi/4.6.2/thumb/libgcc.a(_arm_cmpdf2.o)
                              /home/woo/ndsdev/devkitPro/devkitARM/bin/../lib/gcc/arm-eabi/4.6.2/../../../../arm-eabi/lib/thumb/libg.a(lib_a-svfprintf.o) (__aeabi_dcmpeq)
/home/woo/ndsdev/devkitPro/devkitARM/bin/../lib/gcc/arm-eabi/4.6.2/thumb/libgcc.a(_arm_fixdfsi.o)
                              /home/woo/ndsdev/devkitPro/devkitARM/bin/../lib/gcc/arm-eabi/4.6.2/../../../../arm-eabi/lib/thumb/libg.a(lib_a-dtoa.o) (__aeabi_d2iz)
/home/woo/ndsdev/devkitPro/devkitARM/bin/../lib/gcc/arm-eabi/4.6.2/thumb/libgcc.a(_arm_fixunsdfsi.o)
                              /home/woo/ndsdev/devkitPro/devkitARM/bin/../lib/gcc/arm-eabi/4.6.2/../../../../arm-eabi/lib/thumb/libg.a(lib_a-strtod.o) (__aeabi_d2uiz)
/home/woo/ndsdev/devkitPro/devkitARM/bin/../lib/gcc/arm-eabi/4.6.2/thumb/libgcc.a(_arm_truncdfsf2.o)
                              /home/woo/ndsdev/devkitPro/devkitARM/bin/../lib/gcc/arm-eabi/4.6.2/../../../../arm-eabi/lib/thumb/libg.a(lib_a-svfscanf.o) (__aeabi_d2f)
/home/woo/ndsdev/devkitPro/devkitARM/bin/../lib/gcc/arm-eabi/4.6.2/thumb/libgcc.a(_aeabi_uldivmod.o)
                              /home/woo/ndsdev/devkitPro/devkitARM/bin/../lib/gcc/arm-eabi/4.6.2/../../../../arm-eabi/lib/thumb/libg.a(lib_a-svfprintf.o) (__aeabi_uldivmod)
/home/woo/ndsdev/devkitPro/devkitARM/bin/../lib/gcc/arm-eabi/4.6.2/thumb/libgcc.a(bpabi.o)
                              /home/woo/ndsdev/devkitPro/devkitARM/bin/../lib/gcc/arm-eabi/4.6.2/thumb/libgcc.a(_aeabi_uldivmod.o) (__gnu_uldivmod_helper)
/home/woo/ndsdev/devkitPro/devkitARM/bin/../lib/gcc/arm-eabi/4.6.2/thumb/libgcc.a(_divdi3.o)
                              /home/woo/ndsdev/devkitPro/devkitARM/bin/../lib/gcc/arm-eabi/4.6.2/thumb/libgcc.a(bpabi.o) (__divdi3)
/home/woo/ndsdev/devkitPro/devkitARM/bin/../lib/gcc/arm-eabi/4.6.2/thumb/libgcc.a(_udivdi3.o)
                              /home/woo/ndsdev/devkitPro/devkitARM/bin/../lib/gcc/arm-eabi/4.6.2/thumb/libgcc.a(bpabi.o) (__udivdi3)
/home/woo/ndsdev/devkitPro/devkitARM/bin/../lib/gcc/arm-eabi/4.6.2/thumb/libgcc.a(_clzsi2.o)
                              /home/woo/ndsdev/devkitPro/devkitARM/bin/../lib/gcc/arm-eabi/4.6.2/thumb/libgcc.a(_divdi3.o) (__clzsi2)

Allocating common symbols
Common symbol       size              file

Wifi_Data_Struct    0x9f44            /home/woo/ndsdev/devkitPro/libnds/lib/libdswifi9.a(wifi_arm9.o)
dnsrecord_return    0x524             /home/woo/ndsdev/devkitPro/libnds/lib/libdswifi9.a(sgIP_DNS.o)
tcprecords          0x4               /home/woo/ndsdev/devkitPro/libnds/lib/libdswifi9.a(sgIP_TCP.o)
ProtocolInterfaces  0x8               /home/woo/ndsdev/devkitPro/libnds/lib/libdswifi9.a(sgIP_Hub.o)
currentCopy         0x5c              /home/woo/ndsdev/devkitPro/libnds/lib/libnds9.a(console.o)
udpport_counter     0x4               /home/woo/ndsdev/devkitPro/libnds/lib/libdswifi9.a(sgIP_UDP.o)
fifo_datamsg_data   0x40              /home/woo/ndsdev/devkitPro/libnds/lib/libnds9.a(fifosystem.o)
count_100ms         0x4               /home/woo/ndsdev/devkitPro/libnds/lib/libdswifi9.a(sgIP.o)
lasttime            0x4               /home/woo/ndsdev/devkitPro/libnds/lib/libdswifi9.a(sgIP_TCP.o)
__dsimode           0x1               /home/woo/ndsdev/devkitPro/libnds/lib/libnds9.a(initSystem.o)
dhcp_rcvd_dns       0xc               /home/woo/ndsdev/devkitPro/libnds/lib/libdswifi9.a(sgIP_DHCP.o)
bgState             0x140             /home/woo/ndsdev/devkitPro/libnds/lib/libnds9.a(background.o)
time_count          0x4               /home/woo/ndsdev/devkitPro/libnds/lib/libdswifi9.a(sgIP_DNS.o)
port_counter        0x4               /home/woo/ndsdev/devkitPro/libnds/lib/libdswifi9.a(sgIP_TCP.o)
dhcp_rcvd_snmask    0x4               /home/woo/ndsdev/devkitPro/libnds/lib/libdswifi9.a(sgIP_DHCP.o)
fifo_buffer         0x800             /home/woo/ndsdev/devkitPro/libnds/lib/libnds9.a(fifosystem.o)
NumHWInterfaces     0x4               /home/woo/ndsdev/devkitPro/libnds/lib/libdswifi9.a(sgIP_Hub.o)
dhcp_state          0x4               /home/woo/ndsdev/devkitPro/libnds/lib/libdswifi9.a(sgIP_DHCP.o)
alias_list          0x14              /home/woo/ndsdev/devkitPro/libnds/lib/libdswifi9.a(sgIP_DNS.o)
dhcp_p              0x4               /home/woo/ndsdev/devkitPro/libnds/lib/libdswifi9.a(sgIP_DHCP.o)
dhcp_optionptr      0x4               /home/woo/ndsdev/devkitPro/libnds/lib/libdswifi9.a(sgIP_DHCP.o)
socketlist          0x100             /home/woo/ndsdev/devkitPro/libnds/lib/libdswifi9.a(sgIP_sockets.o)
bgIsTextLut         0x8               /home/woo/ndsdev/devkitPro/libnds/lib/libnds9.a(background.o)
querydata           0x200             /home/woo/ndsdev/devkitPro/libnds/lib/libdswifi9.a(sgIP_DNS.o)
responsedata        0x200             /home/woo/ndsdev/devkitPro/libnds/lib/libdswifi9.a(sgIP_DNS.o)
dhcp_int            0x4               /home/woo/ndsdev/devkitPro/libnds/lib/libdswifi9.a(sgIP_DHCP.o)
fifo_value32_func   0x40              /home/woo/ndsdev/devkitPro/libnds/lib/libnds9.a(fifosystem.o)
fifo_address_func   0x40              /home/woo/ndsdev/devkitPro/libnds/lib/libnds9.a(fifosystem.o)
ap                  0x58              download.o
dnsrecords          0x5240            /home/woo/ndsdev/devkitPro/libnds/lib/libdswifi9.a(sgIP_DNS.o)
__hexdig            0x100             /home/woo/ndsdev/devkitPro/devkitARM/bin/../lib/gcc/arm-eabi/4.6.2/../../../../arm-eabi/lib/thumb/libg.a(lib_a-gdtoa-gethex.o)
wifi_hw             0x4               /home/woo/ndsdev/devkitPro/libnds/lib/libdswifi9.a(wifi_arm9.o)
dhcp_rcvd_ip        0x4               /home/woo/ndsdev/devkitPro/libnds/lib/libdswifi9.a(sgIP_DHCP.o)
dhcp_hostname       0x40              /home/woo/ndsdev/devkitPro/libnds/lib/libdswifi9.a(sgIP_DHCP.o)
dhcp_serverip       0x4               /home/woo/ndsdev/devkitPro/libnds/lib/libdswifi9.a(sgIP_DHCP.o)
HWInterfaces        0x30              /home/woo/ndsdev/devkitPro/libnds/lib/libdswifi9.a(sgIP_Hub.o)
ipaddr_ip           0x4               /home/woo/ndsdev/devkitPro/libnds/lib/libdswifi9.a(sgIP_DNS.o)
wHeapsize           0x4               /home/woo/ndsdev/devkitPro/libnds/lib/libdswifi9.a(wifi_arm9.o)
fifo_value32_data   0x40              /home/woo/ndsdev/devkitPro/libnds/lib/libnds9.a(fifosystem.o)
fifo_value32_queue  0x40              /home/woo/ndsdev/devkitPro/libnds/lib/libnds9.a(fifosystem.o)
fifo_data_queue     0x40              /home/woo/ndsdev/devkitPro/libnds/lib/libnds9.a(fifosystem.o)
count_1000ms        0x4               /home/woo/ndsdev/devkitPro/libnds/lib/libdswifi9.a(sgIP.o)
dhcp_tid            0x4               /home/woo/ndsdev/devkitPro/libnds/lib/libdswifi9.a(sgIP_DHCP.o)
sgIP_timems         0x4               /home/woo/ndsdev/devkitPro/libnds/lib/libdswifi9.a(sgIP.o)
ArpRecords          0x400             /home/woo/ndsdev/devkitPro/libnds/lib/libdswifi9.a(sgIP_ARP.o)
query_time_start    0x4               /home/woo/ndsdev/devkitPro/libnds/lib/libdswifi9.a(sgIP_DNS.o)
dhcp_requestDNS     0x4               /home/woo/ndsdev/devkitPro/libnds/lib/libdswifi9.a(sgIP_DHCP.o)
dhcp_socket         0x4               /home/woo/ndsdev/devkitPro/libnds/lib/libdswifi9.a(sgIP_DHCP.o)
wHeapFirst          0x4               /home/woo/ndsdev/devkitPro/libnds/lib/libdswifi9.a(wifi_arm9.o)
udprecords          0x4               /home/woo/ndsdev/devkitPro/libnds/lib/libdswifi9.a(sgIP_UDP.o)
wifi_connect_point  0x58              /home/woo/ndsdev/devkitPro/libnds/lib/libdswifi9.a(wifi_arm9.o)
numsynlist          0x4               /home/woo/ndsdev/devkitPro/libnds/lib/libdswifi9.a(sgIP_TCP.o)
CHANNELS            0x54              main.o
addr_list           0x14              /home/woo/ndsdev/devkitPro/libnds/lib/libdswifi9.a(sgIP_DNS.o)
XXX_BUF_            0x200000          download.o
punixTime           0x4               /home/woo/ndsdev/devkitPro/devkitARM/bin/../lib/gcc/arm-eabi/4.6.2/../../../../arm-eabi/lib/thumb/libsysbase.a(times.o)
synlist             0x800             /home/woo/ndsdev/devkitPro/libnds/lib/libdswifi9.a(sgIP_TCP.o)
fifo_address_data   0x40              /home/woo/ndsdev/devkitPro/libnds/lib/libnds9.a(fifosystem.o)
ipaddr_alias        0x100             /home/woo/ndsdev/devkitPro/libnds/lib/libdswifi9.a(sgIP_DNS.o)
dhcp_timestart      0x4               /home/woo/ndsdev/devkitPro/libnds/lib/libdswifi9.a(sgIP_DHCP.o)
dhcp_status         0x4               /home/woo/ndsdev/devkitPro/libnds/lib/libdswifi9.a(sgIP_DHCP.o)
dns_sock            0x4               /home/woo/ndsdev/devkitPro/libnds/lib/libdswifi9.a(sgIP_DNS.o)
wHeapStart          0x4               /home/woo/ndsdev/devkitPro/libnds/lib/libdswifi9.a(wifi_arm9.o)
last_id             0x4               /home/woo/ndsdev/devkitPro/libnds/lib/libdswifi9.a(sgIP_DNS.o)
sgIP_errno          0x4               /home/woo/ndsdev/devkitPro/libnds/lib/libdswifi9.a(sgIP.o)
dnsrecord_hostent   0x14              /home/woo/ndsdev/devkitPro/libnds/lib/libdswifi9.a(sgIP_DNS.o)
dhcp_rcvd_gateway   0x4               /home/woo/ndsdev/devkitPro/libnds/lib/libdswifi9.a(sgIP_DHCP.o)
NumProtocolInterfaces
                    0x4               /home/woo/ndsdev/devkitPro/libnds/lib/libdswifi9.a(sgIP_Hub.o)
fifo_datamsg_func   0x40              /home/woo/ndsdev/devkitPro/libnds/lib/libnds9.a(fifosystem.o)
idnum_count         0x4               /home/woo/ndsdev/devkitPro/libnds/lib/libdswifi9.a(sgIP_IP.o)
dhcp_timelastaction
                    0x4               /home/woo/ndsdev/devkitPro/libnds/lib/libdswifi9.a(sgIP_DHCP.o)
fifo_address_queue  0x40              /home/woo/ndsdev/devkitPro/libnds/lib/libnds9.a(fifosystem.o)

Memory Configuration

Name             Origin             Length             Attributes
rom              0x08000000         0x02000000
ewram            0x02000000         0x003ff000
dtcm             0x0b000000         0x00004000
vectors          0x01000000         0x00000100
itcm             0x01000100         0x00007f00
*default*        0x00000000         0xffffffff

Linker script and memory map

                0x01000000                __vectors_start = ORIGIN (vectors)
                0x01000100                __itcm_start = ORIGIN (itcm)
                0x023ff000                __ewram_end = (ORIGIN (ewram) + 0x3ff000)
                0x023ff000                __eheap_end = (ORIGIN (ewram) + 0x3ff000)
                0x0b000000                __dtcm_start = ORIGIN (dtcm)
                0x0b004000                __dtcm_top = (ORIGIN (dtcm) + 0x4000)
                0x0b003ff8                __irq_flags = (__dtcm_top - 0x8)
                0x0b003ffc                __irq_vector = (__dtcm_top - 0x4)
                0x0b003f00                __sp_svc = (__dtcm_top - 0x100)
                0x0b003e00                __sp_irq = (__sp_svc - 0x100)
                0x0b003d00                __sp_usr = (__sp_irq - 0x100)

.init           0x02000000      0x23c
                0x02000000                __text_start = .
 *(.init)
 .init          0x02000000      0x230 /home/woo/ndsdev/devkitPro/devkitARM/bin/../lib/gcc/arm-eabi/4.6.2/../../../../arm-eabi/lib/thumb/ds_arm9_crt0.o
                0x02000000                _start
 .init          0x02000230        0x4 /home/woo/ndsdev/devkitPro/devkitARM/bin/../lib/gcc/arm-eabi/4.6.2/thumb/crti.o
                0x02000230                _init
 .init          0x02000234        0x8 /home/woo/ndsdev/devkitPro/devkitARM/bin/../lib/gcc/arm-eabi/4.6.2/thumb/crtn.o
                0x0200023c                . = ALIGN (0x4)

.plt
 *(.plt)

.text           0x02000240    0x27030
 *(EXCLUDE_FILE(*.itcm*) .text)
 .text          0x02000240        0x0 /home/woo/ndsdev/devkitPro/devkitARM/bin/../lib/gcc/arm-eabi/4.6.2/../../../../arm-eabi/lib/thumb/ds_arm9_crt0.o
 .text          0x02000240        0x0 /home/woo/ndsdev/devkitPro/devkitARM/bin/../lib/gcc/arm-eabi/4.6.2/thumb/crti.o
 .text          0x02000240       0x6c /home/woo/ndsdev/devkitPro/devkitARM/bin/../lib/gcc/arm-eabi/4.6.2/thumb/crtbegin.o
 .text          0x020002ac      0x6dc download.o
                0x020003a0                download
 .text          0x02000988       0x30 main.o
                0x02000988                check_abort
                0x0200098c                confirm_error
                0x0200099c                channel_name
 .text          0x020009b8      0x464 wifi.o
                0x02000b60                wifi_init
 *fill*         0x02000e1c        0x4 ff
 .text          0x02000e20       0x50 jump.o
                0x02000e20                _copy_bin_and_jump
 .text          0x02000e70      0xa48 /home/woo/ndsdev/devkitPro/libnds/lib/libdswifi9.a(sgIP_DNS.o)
                0x02000f1c                sgIP_DNS_Init
                0x02000f54                sgIP_DNS_Timer1000ms
                0x02000fa4                sgIP_DNS_isipaddress
                0x020011b0                sgIP_DNS_FindDNSRecord
                0x020012b8                sgIP_DNS_GetUnusedRecord
                0x02001340                sgIP_DNS_GenerateHostent
                0x020013fc                sgIP_DNS_CopyAliasAt
                0x02001470                sgIP_DNS_gethostbyname
                0x0200186c                inet_addr
                0x02001888                inet_aton
                0x020018a8                inet_ntoa
 .text          0x020018b8      0x1ec /home/woo/ndsdev/devkitPro/libnds/lib/libdswifi9.a(sgIP_Hub.o)
                0x020018b8                sgIP_Hub_Init
                0x020018cc                sgIP_Hub_AddProtocolInterface
                0x02001908                sgIP_Hub_AddHardwareInterface
                0x02001944                sgIP_Hub_RemoveProtocolInterface
                0x02001964                sgIP_Hub_RemoveHardwareInterface
                0x02001984                sgIP_Hub_ReceiveHardwarePacket
                0x020019e0                sgIP_Hub_SendProtocolPacket
                0x02001a28                sgIP_Hub_SendRawPacket
                0x02001a50                sgIP_Hub_IPMaxMessageSize
                0x02001a58                sgIP_Hub_GetCompatibleIP
                0x02001a6c                sgIP_Hub_GetDefaultInterface
                0x02001a80                htons
                0x02001a8c                htonl
 .text          0x02001aa4      0x25c /home/woo/ndsdev/devkitPro/libnds/lib/libdswifi9.a(sgIP_memblock.o)
                0x02001aa4                sgIP_memblock_Init
                0x02001aa8                sgIP_memblock_allocHW
                0x02001acc                sgIP_memblock_alloc
                0x02001ad8                sgIP_memblock_free
                0x02001b00                sgIP_memblock_exposeheader
                0x02001b28                sgIP_memblock_trimsize
                0x02001b58                sgIP_memblock_IPChecksum
                0x02001c04                sgIP_memblock_CopyToLinear
                0x02001c80                sgIP_memblock_CopyFromLinear
                0x02001cfc                sgIP_memblock_CopyBlock
 .text          0x02001d00      0xd4c /home/woo/ndsdev/devkitPro/libnds/lib/libdswifi9.a(sgIP_sockets.o)
                0x02001d00                sgIP_sockets_Init
                0x02001d1c                spawn_socket
                0x02001d70                kill_socket
                0x02001da8                socket
                0x02001e38                forceclosesocket
                0x02001e8c                sgIP_sockets_Timer1000ms
                0x02001ef4                bind
                0x02001f70                connect
                0x0200207c                send
                0x02002130                recv
                0x020021e4                sendto
                0x0200226c                recvfrom
                0x02002340                listen
                0x020023b0                accept
                0x020024a8                shutdown
                0x02002508                closesocket
                0x02002590                ioctl
                0x02002640                setsockopt
                0x02002644                getsockopt
                0x02002648                getpeername
                0x020026ec                getsockname
                0x02002794                gethostbyname
                0x0200279c                select
 .text          0x02002a4c     0x14bc /home/woo/ndsdev/devkitPro/libnds/lib/libdswifi9.a(wifi_arm9.o)
                0x02002a4c                Wifi_Interface_Init
                0x02002a94                arm9_synctoarm7
                0x02002aa0                Wifi_TransmitFunction
                0x02002dec                sgIP_IntrWaitEvent
                0x02002df0                wHeapAllocInit
                0x02002e1c                wHeapAlloc
                0x02002ed4                wHeapFree
                0x02002ef4                sgIP_malloc
                0x02002efc                sgIP_free
                0x02002f1c                ethhdr_print
                0x02002f20                erasemem
                0x02002f34                Wifi_CopyMacAddr
                0x02002f44                Wifi_CmpMacAddr
                0x02002f68                Wifi_TxBufferWordsAvailable
                0x02002f90                Wifi_TxBufferWrite
                0x02002ff4                Wifi_RxRawReadPacket
                0x02003064                Wifi_RxReadOffset
                0x02003090                Wifi_RawTxFrame
                0x020031f4                Wifi_RawSetPacketHandler
                0x02003200                Wifi_SetSyncHandler
                0x0200320c                Wifi_DisableWifi
                0x02003224                Wifi_EnableWifi
                0x02003238                Wifi_SetPromiscuousMode
                0x0200325c                Wifi_ScanMode
                0x02003274                Wifi_SetChannel
                0x0200329c                Wifi_GetNumAP
                0x020032c4                Wifi_GetAPData
                0x02003364                Wifi_FindMatchingAP
                0x02003498                Wifi_ConnectAP
                0x020035a8                Wifi_AutoConnect
                0x020035d0                Wifi_DisconnectAP
                0x020035f4                Wifi_Init
                0x02003688                Wifi_CheckInit
                0x020036ac                Wifi_Update
                0x020039a4                Wifi_Timer
                0x020039b4                Timer_50ms
                0x020039c0                Wifi_GetIP
                0x020039d8                Wifi_GetIPInfo
                0x02003a10                Wifi_SetIP
                0x02003a34                Wifi_AssocStatus
                0x02003d90                Wifi_SetDHCP
                0x02003d94                Wifi_GetData
                0x02003e08                Wifi_GetStats
                0x02003e2c                Wifi_Sync
                0x02003e48                wifiValue32Handler
                0x02003e54                Wifi_InitDefault
 .text          0x02003f08       0x5c /home/woo/ndsdev/devkitPro/libnds/lib/libdswifi9.a(spinlock.o)
                0x02003f08                SLasm_Acquire
                0x02003f3c                SLasm_Release
 .text          0x02003f64       0xb0 /home/woo/ndsdev/devkitPro/libnds/lib/libdswifi9.a(sgIP.o)
                0x02003f64                sgIP_Init
                0x02003fa0                sgIP_Timer
 .text          0x02004014      0x668 /home/woo/ndsdev/devkitPro/libnds/lib/libdswifi9.a(sgIP_ARP.o)
                0x02004014                sgIP_FindArpSlot
                0x02004050                sgIP_GetArpSlot
                0x0200409c                sgIP_is_broadcast_address
                0x020040ac                sgIP_ARP_Check_isok
                0x020040b0                sgIP_ARP_Init
                0x020040d0                sgIP_ARP_FlushInterface
                0x02004104                sgIP_ARP_ProcessIPFrame
                0x02004108                sgIP_ARP_SendARPResponse
                0x020041e8                sgIP_ARP_SendGratARP
                0x020042c4                sgIP_ARP_SendARPRequest
                0x020043a4                sgIP_ARP_SendProtocolFrame
                0x020044d0                sgIP_ARP_ProcessARPFrame
                0x020045f0                sgIP_ARP_Timer100ms
 .text          0x0200467c      0x8c0 /home/woo/ndsdev/devkitPro/libnds/lib/libdswifi9.a(sgIP_DHCP.o)
                0x0200467c                sgIP_DHCP_Init
                0x020046c4                sgIP_DHCP_SetHostName
                0x020046e0                sgIP_DHCP_IsDhcpIp
                0x020046f0                sgIP_DHCP_SendDgram
                0x02004760                sgIP_DHCP_BeginDgram
                0x02004954                sgIP_DHCP_Terminate
                0x0200498c                sgIP_DHCP_Update
                0x02004d90                sgIP_DHCP_Release
                0x02004dc4                sgIP_DHCP_Start
                0x02004e84                gethostname
                0x02004ec4                sethostname
 .text          0x02004f3c      0x138 /home/woo/ndsdev/devkitPro/libnds/lib/libdswifi9.a(sgIP_IP.o)
                0x02004f3c                sgIP_IP_ReceivePacket
                0x02004fd0                sgIP_IP_MaxContentsSize
                0x02004fdc                sgIP_IP_RequiredHeaderSize
                0x02004fe0                sgIP_IP_SendViaIP
                0x02005064                sgIP_IP_GetLocalBindAddr
 .text          0x02005074     0x11b8 /home/woo/ndsdev/devkitPro/libnds/lib/libdswifi9.a(sgIP_TCP.o)
                0x02005074                sgIP_TCP_Init
                0x020050a8                sgIP_TCP_support_seqhash
                0x020050fc                sgIP_TCP_GetUnusedOutgoingPort
                0x02005164                sgIP_TCP_CalcChecksum
                0x020051c0                sgIP_TCP_GenHeader
                0x0200526c                sgIP_TCP_FixChecksum
                0x020052d0                sgIP_TCP_SendPacket
                0x020053b8                sgIP_TCP_SendSynReply
                0x02005468                sgIP_TCP_Timer
                0x020056c0                sgIP_TCP_AllocRecord
                0x0200570c                sgIP_TCP_ReceivePacket
                0x02005d60                sgIP_TCP_FreeRecord
                0x02005e60                sgIP_TCP_Bind
                0x02005e8c                sgIP_TCP_Listen
                0x02005ee4                sgIP_TCP_Accept
                0x02005f5c                sgIP_TCP_Close
                0x02005f90                sgIP_TCP_Connect
                0x0200601c                sgIP_TCP_Send
                0x02006128                sgIP_TCP_Recv
 .text          0x0200622c      0x474 /home/woo/ndsdev/devkitPro/libnds/lib/libdswifi9.a(sgIP_UDP.o)
                0x0200622c                sgIP_UDP_Init
                0x02006248                sgIP_UDP_GetUnusedOutgoingPort
                0x020062ac                sgIP_UDP_CalcChecksum
                0x02006314                sgIP_UDP_ReceivePacket
                0x020063c8                sgIP_UDP_SendPacket
                0x020064c0                sgIP_UDP_AllocRecord
                0x020064f8                sgIP_UDP_FreeRecord
                0x02006550                sgIP_UDP_Bind
                0x0200658c                sgIP_UDP_RecvFrom
                0x0200668c                sgIP_UDP_SendTo
 .text          0x020066a0       0x64 /home/woo/ndsdev/devkitPro/libnds/lib/libdswifi9.a(sgIP_ICMP.o)
                0x020066a0                sgIP_ICMP_Init
                0x020066a4                sgIP_ICMP_ReceivePacket
 .text          0x02006704      0x340 /home/woo/ndsdev/devkitPro/libnds/lib/libfat.a(libfat.o)
                0x02006704                fatMount
                0x020067b8                fatMountSimple
                0x020067cc                fatUnmount
                0x02006804                fatInit
                0x0200695c                fatInitDefault
                0x02006968                fatGetVolumeLabel
 .text          0x02006a44      0x754 /home/woo/ndsdev/devkitPro/libnds/lib/libfat.a(partition.o)
                0x02006a44                FindFirstValidPartition_buf
                0x02006be8                FindFirstValidPartition
                0x02006c10                _FAT_partition_getPartitionFromPath
                0x02006c24                _FAT_partition_createFSinfo
                0x02006ce4                _FAT_partition_readFSinfo
                0x02006da4                _FAT_partition_constructor_buf
                0x0200705c                _FAT_partition_constructor
                0x020070a0                _FAT_partition_writeFSinfo
                0x02007158                _FAT_partition_destructor
 .text          0x02007198      0x4d0 /home/woo/ndsdev/devkitPro/libnds/lib/libfat.a(cache.o)
                0x02007290                _FAT_cache_constructor
                0x0200732c                _FAT_cache_readSectors
                0x02007388                _FAT_cache_readPartialSector
                0x020073d4                _FAT_cache_readLittleEndianValue
                0x02007434                _FAT_cache_writePartialSector
                0x0200748c                _FAT_cache_writeLittleEndianValue
                0x020074d4                _FAT_cache_eraseWritePartialSector
                0x0200753c                _FAT_cache_writeSectors
                0x020075a4                _FAT_cache_flush
                0x02007608                _FAT_cache_destructor
                0x0200763c                _FAT_cache_invalidate
 .text          0x02007668     0x13b4 /home/woo/ndsdev/devkitPro/libnds/lib/libfat.a(directory.o)
                0x020078e0                _FAT_directory_entryGetCluster
                0x02007908                _FAT_directory_getNextEntry
                0x02007af0                _FAT_directory_getFirstEntry
                0x02007ba0                _FAT_directory_getRootEntry
                0x02007bfc                _FAT_directory_getVolumeLabel
                0x02007cac                _FAT_directory_entryFromPosition
                0x02007de0                _FAT_directory_entryFromPath
                0x02007fc4                _FAT_directory_removeEntry
                0x02008098                _FAT_directory_addEntry
                0x02008918                _FAT_directory_chdir
                0x02008954                _FAT_directory_entryStat
 .text          0x02008a1c        0x8 /home/woo/ndsdev/devkitPro/libnds/lib/libfat.a(disc.o)
 .text          0x02008a24      0x904 /home/woo/ndsdev/devkitPro/libnds/lib/libfat.a(fatdir.o)
                0x02008a24                _FAT_stat_r
                0x02008ab8                _FAT_link_r
                0x02008ac4                _FAT_unlink_r
                0x02008c38                _FAT_chdir_r
                0x02008ca8                _FAT_rename_r
                0x02008e74                _FAT_mkdir_r
                0x020090ec                _FAT_statvfs_r
                0x02009178                _FAT_diropen_r
                0x02009238                _FAT_dirreset_r
                0x02009284                _FAT_dirnext_r
                0x02009308                _FAT_dirclose_r
 .text          0x02009328     0x131c /home/woo/ndsdev/devkitPro/libnds/lib/libfat.a(fatfile.o)
                0x020095b0                _FAT_findEntry
                0x020095ec                FAT_getAttr
                0x02009614                FAT_setAttr
                0x02009634                _FAT_open_r
                0x0200995c                _FAT_syncToDisc
                0x02009a3c                _FAT_close_r
                0x02009aa8                _FAT_read_r
                0x02009e10                _FAT_write_r
                0x0200a2a8                _FAT_seek_r
                0x0200a3f8                _FAT_fstat_r
                0x0200a494                _FAT_ftruncate_r
                0x0200a604                _FAT_fsync_r
 .text          0x0200a644      0x4b0 /home/woo/ndsdev/devkitPro/libnds/lib/libfat.a(file_allocation_table.o)
                0x0200a794                _FAT_fat_nextCluster
                0x0200a8b0                _FAT_fat_linkFreeCluster
                0x0200a948                _FAT_fat_linkFreeClusterCleared
                0x0200a9b8                _FAT_fat_clearLinks
                0x0200aa14                _FAT_fat_trimChain
                0x0200aa98                _FAT_fat_lastCluster
                0x0200aacc                _FAT_fat_freeClusterCount
 .text          0x0200aaf4       0xb8 /home/woo/ndsdev/devkitPro/libnds/lib/libfat.a(filetime.o)
                0x0200aaf4                _FAT_filetime_getTimeFromRTC
                0x0200ab34                _FAT_filetime_getDateFromRTC
                0x0200ab74                _FAT_filetime_to_time_t
 .text          0x0200abac       0x10 /home/woo/ndsdev/devkitPro/libnds/lib/libfat.a(lock.o)
                0x0200abac                _FAT_lock_init
                0x0200abb0                _FAT_lock_deinit
                0x0200abb4                _FAT_lock
                0x0200abb8                _FAT_unlock
 .text          0x0200abbc      0xa34 /home/woo/ndsdev/devkitPro/libnds/lib/libnds9.a(console.o)
                0x0200abbc                nocash_write
                0x0200ac7c                consoleGetDefault
                0x0200ac88                consoleSelect
                0x0200ac98                consoleDebugInit
                0x0200ace8                consolePrintChar
                0x0200ae9c                consoleLoadFont
                0x0200b134                consoleSetFont
                0x0200b154                consoleInit
                0x0200b2b8                consoleDemoInit
                0x0200b2fc                con_write
                0x0200b5bc                consoleClear
                0x0200b5cc                consoleSetWindow
 .text          0x0200b5f0       0xf4 /home/woo/ndsdev/devkitPro/libnds/lib/libnds9.a(keys.o)
                0x0200b5f0                scanKeys
                0x0200b65c                keysHeld
                0x0200b668                keysDown
                0x0200b678                keysDownRepeat
                0x0200b688                keysSetRepeat
                0x0200b6a0                keysUp
                0x0200b6b0                keysCurrent
 .text          0x0200b6e4      0x23c /home/woo/ndsdev/devkitPro/libnds/lib/libnds9.a(dldi.o)
                0x0200b6e4                dldiGetInternal
                0x0200b71c                dldiIsValid
                0x0200b754                dldiFixDriverAddresses
                0x0200b82c                dldiLoadFromFile
                0x0200b914                dldiFree
 .text          0x0200b920      0x14c /home/woo/ndsdev/devkitPro/libnds/lib/libnds9.a(dsi_sd.o)
                0x0200b920                sdio_ClearStatus
                0x0200b930                sdio_Shutdown
                0x0200b940                sdio_WriteSectors
                0x0200b994                sdio_ReadSectors
                0x0200b9e8                sdio_IsInserted
                0x0200ba1c                sdio_Startup
 .text          0x0200ba6c      0x19c /home/woo/ndsdev/devkitPro/libnds/lib/libnds9.a(initSystem.o)
                0x0200ba6c                initSystem
 .text          0x0200bc08      0xc8c /home/woo/ndsdev/devkitPro/libnds/lib/libnds9.a(fifosystem.o)
                0x0200be68                fifoSendAddress
                0x0200be94                fifoSendValue32
                0x0200bed4                fifoSendDatamsg
                0x0200bf44                fifoGetAddress
                0x0200bfb8                fifoSetAddressHandler
                0x0200c02c                fifoGetValue32
                0x0200c0a0                fifoSetValue32Handler
                0x0200c114                fifoGetDatamsg
                0x0200c5bc                fifoSetDatamsgHandler
                0x0200c654                fifoCheckAddress
                0x0200c678                fifoCheckDatamsg
                0x0200c69c                fifoCheckValue32
                0x0200c6c0                fifoInit
 .text          0x0200c894      0x1f4 /home/woo/ndsdev/devkitPro/libnds/lib/libnds9.a(interrupts.o)
                0x0200c894                irqDummy
                0x0200c898                irqSet
                0x0200c908                irqInit
                0x0200c954                irqInitHandler
                0x0200c984                irqEnable
                0x0200c9e8                irqDisable
                0x0200ca4c                irqClear
 .text          0x0200ca88       0x40 /home/woo/ndsdev/devkitPro/libnds/lib/libnds9.a(libnds_exit.o)
                0x0200ca88                systemErrorExit
                0x0200ca8c                __libnds_exit
 .text          0x0200cac8       0x70 /home/woo/ndsdev/devkitPro/libnds/lib/libnds9.a(dcache.o)
                0x0200cac8                DC_FlushAll
                0x0200caf4                DC_FlushRange
                0x0200cb10                DC_InvalidateAll
                0x0200cb1c                DC_InvalidateRange
 *fill*         0x0200cb38        0x8 ff
 .text          0x0200cb40     0x8000 /home/woo/ndsdev/devkitPro/libnds/lib/libnds9.a(dldi_stub.o)
                0x0200cb40                _io_dldi_stub
 .text          0x02014b40      0x1b4 /home/woo/ndsdev/devkitPro/libnds/lib/libnds9.a(mpu_setup.o)
                0x02014b40                __libnds_mpu_setup
                0x02014c80                memCached
                0x02014c98                memUncached
 *fill*         0x02014cf4        0xc ff
 .text          0x02014d00       0x70 /home/woo/ndsdev/devkitPro/libnds/lib/libnds9.a(biosCalls.o)
                0x02014d00                swiDelay
                0x02014d04                swiIntrWait
                0x02014d08                swiWaitForVBlank
                0x02014d0c                swiSleep
                0x02014d10                swiChangeSoundBias
                0x02014d14                swiDivide
                0x02014d18                swiRemainder
                0x02014d1e                swiDivMod
                0x02014d2a                swiCopy
                0x02014d2e                swiFastCopy
                0x02014d32                swiSqrt
                0x02014d36                swiCRC16
                0x02014d3a                swiIsDebugger
                0x02014d3e                swiUnpackBits
                0x02014d42                swiDecompressLZSSWram
                0x02014d46                swiDecompressLZSSVramNTR
                0x02014d4a                swiDecompressLZSSVramTWL
                0x02014d4e                swiDecompressHuffman
                0x02014d52                swiDecompressRLEWram
                0x02014d56                swiDecompressRLEVram
                0x02014d5a                swiWaitForIRQ
                0x02014d5e                swiDecodeDelta8
                0x02014d62                swiDecodeDelta16
                0x02014d66                swiSetHaltCR
 .text          0x02014d70       0xa4 /home/woo/ndsdev/devkitPro/libnds/lib/libnds9.a(debugprint.o)
                0x02014d70                nocashWrite
                0x02014d72                nocashMessage
 .text          0x02014e14        0x0 /home/woo/ndsdev/devkitPro/libnds/lib/libnds9.a(interruptDispatcher.o)
 *fill*         0x02014e14        0xc ff
 .text          0x02014e20       0x30 /home/woo/ndsdev/devkitPro/libnds/lib/libnds9.a(swiSoftReset.o)
                0x02014e20                swiSoftReset
 .text          0x02014e50        0x0 /home/woo/ndsdev/devkitPro/libnds/lib/libnds9.a(default_font.bin.o)
 .text          0x02014e50      0x314 /home/woo/ndsdev/devkitPro/libnds/lib/libnds9.a(background.o)
                0x02014e50                bgIsText
                0x02014e5c                checkIfText
                0x02014ebc                bgUpdate
                0x02014fcc                bgInit_call
                0x02015090                bgInitSub_call
 .text          0x02015164       0xf0 /home/woo/ndsdev/devkitPro/libnds/lib/libnds9.a(system.o)
                0x02015164                systemMsgHandler
                0x020151a8                systemSleep
                0x020151c0                powerValueHandler
                0x020151d0                powerOn
                0x020151fc                powerOff
                0x02015224                ledBlink
                0x02015234                getBatteryLevel
 .text          0x02015254      0x248 /home/woo/ndsdev/devkitPro/libnds/lib/libnds9.a(trig.o)
                0x02015254                asinComp
                0x02015278                sinLutLookup
                0x020152b4                sinLerp
                0x020152ec                cosLerp
                0x02015300                tanLutLookup
                0x02015338                tanLerp
                0x020153e8                asinLerp
                0x02015464                acosLerp
                0x02015478                atanComp
 .text          0x0201549c      0x1f8 /home/woo/ndsdev/devkitPro/libnds/lib/libnds9.a(video.o)
                0x0201549c                vramSetPrimaryBanks
                0x020154e0                vramSetMainBanks
                0x02015524                vramSetBanks_EFG
                0x0201555c                vramRestorePrimaryBanks
                0x02015568                vramRestoreMainBanks
                0x02015574                vramRestoreBanks_EFG
                0x02015580                setBrightness
                0x020155c0                vramDefault
 .text          0x02015694      0x11c /home/woo/ndsdev/devkitPro/devkitARM/bin/../lib/gcc/arm-eabi/4.6.2/thumb/libgcc.a(_udivsi3.o)
                0x02015694                __udivsi3
                0x02015694                __aeabi_uidiv
                0x02015790                __aeabi_uidivmod
 .text          0x020157b0      0x150 /home/woo/ndsdev/devkitPro/devkitARM/bin/../lib/gcc/arm-eabi/4.6.2/thumb/libgcc.a(_divsi3.o)
                0x020157b0                __aeabi_idiv
                0x020157b0                __divsi3
                0x020158e0                __aeabi_idivmod
 .text          0x02015900        0x4 /home/woo/ndsdev/devkitPro/devkitARM/bin/../lib/gcc/arm-eabi/4.6.2/thumb/libgcc.a(_dvmd_tls.o)
                0x02015900                __aeabi_ldiv0
                0x02015900                __aeabi_idiv0
 .text          0x02015904       0x4c /home/woo/ndsdev/devkitPro/devkitARM/bin/../lib/gcc/arm-eabi/4.6.2/thumb/libgcc.a(_muldi3.o)
                0x02015904                __aeabi_lmul
                0x02015904                __muldi3
 .text          0x02015950       0x20 /home/woo/ndsdev/devkitPro/devkitARM/bin/../lib/gcc/arm-eabi/4.6.2/../../../../arm-eabi/lib/thumb/libg.a(lib_a-atoi.o)
                0x02015950                atoi
                0x02015960                _atoi_r
 .text          0x02015970       0x64 /home/woo/ndsdev/devkitPro/devkitARM/bin/../lib/gcc/arm-eabi/4.6.2/../../../../arm-eabi/lib/thumb/libg.a(lib_a-bsearch.o)
                0x02015970                bsearch
 .text          0x020159d4       0x10 /home/woo/ndsdev/devkitPro/devkitARM/bin/../lib/gcc/arm-eabi/4.6.2/../../../../arm-eabi/lib/thumb/libg.a(lib_a-ctype_.o)
                0x020159d4                __set_ctype
 .text          0x020159e4        0xc /home/woo/ndsdev/devkitPro/devkitARM/bin/../lib/gcc/arm-eabi/4.6.2/../../../../arm-eabi/lib/thumb/libg.a(lib_a-errno.o)
                0x020159e4                __errno
 .text          0x020159f0       0xb4 /home/woo/ndsdev/devkitPro/devkitARM/bin/../lib/gcc/arm-eabi/4.6.2/../../../../arm-eabi/lib/thumb/libg.a(lib_a-fclose.o)
                0x020159f0                _fclose_r
                0x02015a88                fclose
 .text          0x02015aa4      0x1a4 /home/woo/ndsdev/devkitPro/devkitARM/bin/../lib/gcc/arm-eabi/4.6.2/../../../../arm-eabi/lib/thumb/libg.a(lib_a-fflush.o)
                0x02015aa4                __sflush_r
                0x02015be8                _fflush_r
                0x02015c18                fflush
 .text          0x02015c48       0xd8 /home/woo/ndsdev/devkitPro/devkitARM/bin/../lib/gcc/arm-eabi/4.6.2/../../../../arm-eabi/lib/thumb/libg.a(lib_a-fgets.o)
                0x02015c48                _fgets_r
                0x02015d00                fgets
 .text          0x02015d20      0x1ec /home/woo/ndsdev/devkitPro/devkitARM/bin/../lib/gcc/arm-eabi/4.6.2/../../../../arm-eabi/lib/thumb/libg.a(lib_a-findfp.o)
                0x02015d28                _cleanup_r
                0x02015d88                __sfmoreglue
                0x02015db8                _cleanup
                0x02015dcc                __sinit
                0x02015e20                __sfp
                0x02015ec4                __sfp_lock_acquire
                0x02015ec8                __sfp_lock_release
                0x02015ecc                __sinit_lock_acquire
                0x02015ed0                __sinit_lock_release
                0x02015ed4                __fp_lock_all
                0x02015ef0                __fp_unlock_all
 .text          0x02015f0c       0xb0 /home/woo/ndsdev/devkitPro/devkitARM/bin/../lib/gcc/arm-eabi/4.6.2/../../../../arm-eabi/lib/thumb/libg.a(lib_a-fopen.o)
                0x02015f0c                _fopen_r
                0x02015fa0                fopen
 .text          0x02015fbc      0x248 /home/woo/ndsdev/devkitPro/devkitARM/bin/../lib/gcc/arm-eabi/4.6.2/../../../../arm-eabi/lib/thumb/libg.a(lib_a-freer.o)
                0x02015fbc                _malloc_trim_r
                0x02016068                _free_r
 .text          0x02016204      0x31c /home/woo/ndsdev/devkitPro/devkitARM/bin/../lib/gcc/arm-eabi/4.6.2/../../../../arm-eabi/lib/thumb/libg.a(lib_a-fseek.o)
                0x02016204                _fseek_r
                0x020164fc                fseek
 .text          0x02016520       0xb4 /home/woo/ndsdev/devkitPro/devkitARM/bin/../lib/gcc/arm-eabi/4.6.2/../../../../arm-eabi/lib/thumb/libg.a(lib_a-fwalk.o)
                0x02016520                _fwalk
                0x02016574                _fwalk_reent
 .text          0x020165d4       0x9c /home/woo/ndsdev/devkitPro/devkitARM/bin/../lib/gcc/arm-eabi/4.6.2/../../../../arm-eabi/lib/thumb/libg.a(lib_a-fwrite.o)
                0x020165d4                _fwrite_r
                0x02016648                fwrite
 .text          0x02016670        0x0 /home/woo/ndsdev/devkitPro/devkitARM/bin/../lib/gcc/arm-eabi/4.6.2/../../../../arm-eabi/lib/thumb/libg.a(lib_a-impure.o)
 .text          0x02016670       0x50 /home/woo/ndsdev/devkitPro/devkitARM/bin/../lib/gcc/arm-eabi/4.6.2/../../../../arm-eabi/lib/thumb/libg.a(lib_a-init.o)
                0x02016670                __libc_init_array
 .text          0x020166c0       0x40 /home/woo/ndsdev/devkitPro/devkitARM/bin/../lib/gcc/arm-eabi/4.6.2/../../../../arm-eabi/lib/thumb/libg.a(lib_a-iprintf.o)
                0x020166c0                iprintf
                0x020166e4                _iprintf_r
 .text          0x02016700       0x10 /home/woo/ndsdev/devkitPro/devkitARM/bin/../lib/gcc/arm-eabi/4.6.2/../../../../arm-eabi/lib/thumb/libg.a(lib_a-lcltime_r.o)
                0x02016700                localtime_r
 .text          0x02016710      0x93c /home/woo/ndsdev/devkitPro/devkitARM/bin/../lib/gcc/arm-eabi/4.6.2/../../../../arm-eabi/lib/thumb/libg.a(lib_a-locale.o)
                0x02016dd0                _setlocale_r
                0x02016fec                __locale_charset
                0x02016ff4                __locale_mb_cur_max
                0x02017000                __locale_msgcharset
                0x0201700c                __locale_cjk_lang
                0x02017018                _localeconv_r
                0x02017024                setlocale
                0x02017040                localeconv
 .text          0x0201704c       0xe4 /home/woo/ndsdev/devkitPro/devkitARM/bin/../lib/gcc/arm-eabi/4.6.2/../../../../arm-eabi/lib/thumb/libg.a(lib_a-makebuf.o)
                0x0201704c                __smakebuf_r
 .text          0x02017130       0x30 /home/woo/ndsdev/devkitPro/devkitARM/bin/../lib/gcc/arm-eabi/4.6.2/../../../../arm-eabi/lib/thumb/libg.a(lib_a-malloc.o)
                0x02017130                malloc
                0x02017148                free
 .text          0x02017160      0x514 /home/woo/ndsdev/devkitPro/devkitARM/bin/../lib/gcc/arm-eabi/4.6.2/../../../../arm-eabi/lib/thumb/libg.a(lib_a-mallocr.o)
                0x02017160                _malloc_r
 .text          0x02017674       0xfc /home/woo/ndsdev/devkitPro/devkitARM/bin/../lib/gcc/arm-eabi/4.6.2/../../../../arm-eabi/lib/thumb/libg.a(lib_a-mbrtowc.o)
                0x02017674                _mbrtowc_r
                0x020176e8                mbrtowc
 .text          0x02017770       0x40 /home/woo/ndsdev/devkitPro/devkitARM/bin/../lib/gcc/arm-eabi/4.6.2/../../../../arm-eabi/lib/thumb/libg.a(lib_a-mbsrtowcs.o)
                0x02017770                _mbsrtowcs_r
                0x02017788                mbsrtowcs
 .text          0x020177b0      0x5f8 /home/woo/ndsdev/devkitPro/devkitARM/bin/../lib/gcc/arm-eabi/4.6.2/../../../../arm-eabi/lib/thumb/libg.a(lib_a-mbtowc_r.o)
                0x020177b0                __utf8_mbtowc
                0x02017a78                _mbtowc_r
                0x02017ab4                __ascii_mbtowc
                0x02017ae0                __sjis_mbtowc
                0x02017b9c                __eucjp_mbtowc
                0x02017c7c                __jis_mbtowc
 .text          0x02017da8       0x94 /home/woo/ndsdev/devkitPro/devkitARM/bin/../lib/gcc/arm-eabi/4.6.2/../../../../arm-eabi/lib/thumb/libg.a(lib_a-memchr-stub.o)
                0x02017da8                memchr
 .text          0x02017e3c       0x64 /home/woo/ndsdev/devkitPro/devkitARM/bin/../lib/gcc/arm-eabi/4.6.2/../../../../arm-eabi/lib/thumb/libg.a(lib_a-memcmp.o)
                0x02017e3c                memcmp
 .text          0x02017ea0       0x80 /home/woo/ndsdev/devkitPro/devkitARM/bin/../lib/gcc/arm-eabi/4.6.2/../../../../arm-eabi/lib/thumb/libg.a(lib_a-memcpy-stub.o)
                0x02017ea0                memcpy
 .text          0x02017f20       0xa8 /home/woo/ndsdev/devkitPro/devkitARM/bin/../lib/gcc/arm-eabi/4.6.2/../../../../arm-eabi/lib/thumb/libg.a(lib_a-memmove.o)
                0x02017f20                memmove
 .text          0x02017fc8       0x98 /home/woo/ndsdev/devkitPro/devkitARM/bin/../lib/gcc/arm-eabi/4.6.2/../../../../arm-eabi/lib/thumb/libg.a(lib_a-memset.o)
                0x02017fc8                memset
 .text          0x02018060      0x544 /home/woo/ndsdev/devkitPro/devkitARM/bin/../lib/gcc/arm-eabi/4.6.2/../../../../arm-eabi/lib/thumb/libg.a(lib_a-mktime.o)
                0x02018240                mktime
 .text          0x020185a4      0x49c /home/woo/ndsdev/devkitPro/devkitARM/bin/../lib/gcc/arm-eabi/4.6.2/../../../../arm-eabi/lib/thumb/libg.a(lib_a-mktm_r.o)
                0x020185a4                __tzcalc_limits
                0x02018740                _mktm_r
 .text          0x02018a40        0x8 /home/woo/ndsdev/devkitPro/devkitARM/bin/../lib/gcc/arm-eabi/4.6.2/../../../../arm-eabi/lib/thumb/libg.a(lib_a-mlock.o)
                0x02018a40                __malloc_lock
                0x02018a44                __malloc_unlock
 .text          0x02018a48       0x40 /home/woo/ndsdev/devkitPro/devkitARM/bin/../lib/gcc/arm-eabi/4.6.2/../../../../arm-eabi/lib/thumb/libg.a(lib_a-printf.o)
                0x02018a48                _printf_r
                0x02018a64                printf
 .text          0x02018a88      0x150 /home/woo/ndsdev/devkitPro/devkitARM/bin/../lib/gcc/arm-eabi/4.6.2/../../../../arm-eabi/lib/thumb/libg.a(lib_a-refill.o)
                0x02018aa8                __srefill_r
 .text          0x02018bd8      0x118 /home/woo/ndsdev/devkitPro/devkitARM/bin/../lib/gcc/arm-eabi/4.6.2/../../../../arm-eabi/lib/thumb/libg.a(lib_a-setvbuf.o)
                0x02018bd8                setvbuf
 .text          0x02018cf0       0xa0 /home/woo/ndsdev/devkitPro/devkitARM/bin/../lib/gcc/arm-eabi/4.6.2/../../../../arm-eabi/lib/thumb/libg.a(lib_a-siscanf.o)
                0x02018cf0                siscanf
                0x02018d40                _siscanf_r
 .text          0x02018d90       0x84 /home/woo/ndsdev/devkitPro/devkitARM/bin/../lib/gcc/arm-eabi/4.6.2/../../../../arm-eabi/lib/thumb/libg.a(lib_a-sprintf.o)
                0x02018d90                _sprintf_r
                0x02018dd0                sprintf
 .text          0x02018e14       0xa0 /home/woo/ndsdev/devkitPro/devkitARM/bin/../lib/gcc/arm-eabi/4.6.2/../../../../arm-eabi/lib/thumb/libg.a(lib_a-sscanf.o)
                0x02018e14                sscanf
                0x02018e64                _sscanf_r
 .text          0x02018eb4       0xac /home/woo/ndsdev/devkitPro/devkitARM/bin/../lib/gcc/arm-eabi/4.6.2/../../../../arm-eabi/lib/thumb/libg.a(lib_a-stdio.o)
                0x02018eb4                __sread
                0x02018ee0                __seofread
                0x02018ee4                __swrite
                0x02018f20                __sseek
                0x02018f50                __sclose
 .text          0x02018f60       0x50 /home/woo/ndsdev/devkitPro/devkitARM/bin/../lib/gcc/arm-eabi/4.6.2/../../../../arm-eabi/lib/thumb/libg.a(lib_a-strcasecmp.o)
                0x02018f60                strcasecmp
 .text          0x02018fb0       0x58 /home/woo/ndsdev/devkitPro/devkitARM/bin/../lib/gcc/arm-eabi/4.6.2/../../../../arm-eabi/lib/thumb/libg.a(lib_a-strcat.o)
                0x02018fb0                strcat
 .text          0x02019008       0xe4 /home/woo/ndsdev/devkitPro/devkitARM/bin/../lib/gcc/arm-eabi/4.6.2/../../../../arm-eabi/lib/thumb/libg.a(lib_a-strchr.o)
                0x02019008                strchr
 .text          0x020190ec       0x14 /home/woo/ndsdev/devkitPro/devkitARM/bin/../lib/gcc/arm-eabi/4.6.2/../../../../arm-eabi/lib/thumb/libg.a(lib_a-strcmp.o)
                0x020190ec                strcmp
 .text          0x02019100       0x10 /home/woo/ndsdev/devkitPro/devkitARM/bin/../lib/gcc/arm-eabi/4.6.2/../../../../arm-eabi/lib/thumb/libg.a(lib_a-strcpy.o)
                0x02019100                strcpy
 .text          0x02019110       0x4c /home/woo/ndsdev/devkitPro/devkitARM/bin/../lib/gcc/arm-eabi/4.6.2/../../../../arm-eabi/lib/thumb/libg.a(lib_a-strlcpy.o)
                0x02019110                strlcpy
 .text          0x0201915c       0x10 /home/woo/ndsdev/devkitPro/devkitARM/bin/../lib/gcc/arm-eabi/4.6.2/../../../../arm-eabi/lib/thumb/libg.a(lib_a-strlen.o)
                0x0201915c                strlen
 .text          0x0201916c       0x60 /home/woo/ndsdev/devkitPro/devkitARM/bin/../lib/gcc/arm-eabi/4.6.2/../../../../arm-eabi/lib/thumb/libg.a(lib_a-strncasecmp.o)
                0x0201916c                strncasecmp
 .text          0x020191cc       0xc0 /home/woo/ndsdev/devkitPro/devkitARM/bin/../lib/gcc/arm-eabi/4.6.2/../../../../arm-eabi/lib/thumb/libg.a(lib_a-strncmp.o)
                0x020191cc                strncmp
 .text          0x0201928c       0x78 /home/woo/ndsdev/devkitPro/devkitARM/bin/../lib/gcc/arm-eabi/4.6.2/../../../../arm-eabi/lib/thumb/libg.a(lib_a-strncpy.o)
                0x0201928c                strncpy
 .text          0x02019304       0x30 /home/woo/ndsdev/devkitPro/devkitARM/bin/../lib/gcc/arm-eabi/4.6.2/../../../../arm-eabi/lib/thumb/libg.a(lib_a-strnlen.o)
                0x02019304                strnlen
 .text          0x02019334       0x50 /home/woo/ndsdev/devkitPro/devkitARM/bin/../lib/gcc/arm-eabi/4.6.2/../../../../arm-eabi/lib/thumb/libg.a(lib_a-strpbrk.o)
                0x02019334                strpbrk
 .text          0x02019384       0x2c /home/woo/ndsdev/devkitPro/devkitARM/bin/../lib/gcc/arm-eabi/4.6.2/../../../../arm-eabi/lib/thumb/libg.a(lib_a-strrchr.o)
                0x02019384                strrchr
 .text          0x020193b0      0x184 /home/woo/ndsdev/devkitPro/devkitARM/bin/../lib/gcc/arm-eabi/4.6.2/../../../../arm-eabi/lib/thumb/libg.a(lib_a-strtol.o)
                0x020193b0                _strtol_r
                0x02019514                strtol
 .text          0x02019534      0xa90 /home/woo/ndsdev/devkitPro/devkitARM/bin/../lib/gcc/arm-eabi/4.6.2/../../../../arm-eabi/lib/thumb/libg.a(lib_a-svfiscanf.o)
                0x02019534                _sungetc_r
                0x020195bc                __ssrefill_r
                0x02019600                _sfread_r
                0x0201968c                __ssvfiscanf_r
 *fill*         0x02019fc4        0x4 ff
 .text          0x02019fc8     0x1678 /home/woo/ndsdev/devkitPro/devkitARM/bin/../lib/gcc/arm-eabi/4.6.2/../../../../arm-eabi/lib/thumb/libg.a(lib_a-svfprintf.o)
                0x02019fc8                _svfprintf_r
 .text          0x0201b640      0xda8 /home/woo/ndsdev/devkitPro/devkitARM/bin/../lib/gcc/arm-eabi/4.6.2/../../../../arm-eabi/lib/thumb/libg.a(lib_a-svfscanf.o)
                0x0201b640                __ssvfscanf_r
 .text          0x0201c3e8       0x18 /home/woo/ndsdev/devkitPro/devkitARM/bin/../lib/gcc/arm-eabi/4.6.2/../../../../arm-eabi/lib/thumb/libg.a(lib_a-sysclose.o)
                0x0201c3e8                close
 .text          0x0201c400       0x20 /home/woo/ndsdev/devkitPro/devkitARM/bin/../lib/gcc/arm-eabi/4.6.2/../../../../arm-eabi/lib/thumb/libg.a(lib_a-syslseek.o)
                0x0201c400                lseek
 .text          0x0201c420       0x28 /home/woo/ndsdev/devkitPro/devkitARM/bin/../lib/gcc/arm-eabi/4.6.2/../../../../arm-eabi/lib/thumb/libg.a(lib_a-sysopen.o)
                0x0201c420                open
 .text          0x0201c448       0x20 /home/woo/ndsdev/devkitPro/devkitARM/bin/../lib/gcc/arm-eabi/4.6.2/../../../../arm-eabi/lib/thumb/libg.a(lib_a-sysread.o)
                0x0201c448                read
 .text          0x0201c468       0x30 /home/woo/ndsdev/devkitPro/devkitARM/bin/../lib/gcc/arm-eabi/4.6.2/../../../../arm-eabi/lib/thumb/libg.a(lib_a-time.o)
                0x0201c468                time
 .text          0x0201c498      0x728 /home/woo/ndsdev/devkitPro/devkitARM/bin/../lib/gcc/arm-eabi/4.6.2/../../../../arm-eabi/lib/thumb/libg.a(lib_a-towlower.o)
                0x0201c498                towlower
 .text          0x0201cbc0      0x9ec /home/woo/ndsdev/devkitPro/devkitARM/bin/../lib/gcc/arm-eabi/4.6.2/../../../../arm-eabi/lib/thumb/libg.a(lib_a-towupper.o)
                0x0201cbc0                towupper
 .text          0x0201d5ac        0x8 /home/woo/ndsdev/devkitPro/devkitARM/bin/../lib/gcc/arm-eabi/4.6.2/../../../../arm-eabi/lib/thumb/libg.a(lib_a-tzlock.o)
                0x0201d5ac                __tz_lock
                0x0201d5b0                __tz_unlock
 .text          0x0201d5b4        0x0 /home/woo/ndsdev/devkitPro/devkitARM/bin/../lib/gcc/arm-eabi/4.6.2/../../../../arm-eabi/lib/thumb/libg.a(lib_a-tzvars.o)
 .text          0x0201d5b4      0x180 /home/woo/ndsdev/devkitPro/devkitARM/bin/../lib/gcc/arm-eabi/4.6.2/../../../../arm-eabi/lib/thumb/libg.a(lib_a-ungetc.o)
                0x0201d5b4                __submore
                0x0201d63c                _ungetc_r
                0x0201d718                ungetc
 .text          0x0201d734      0xea8 /home/woo/ndsdev/devkitPro/devkitARM/bin/../lib/gcc/arm-eabi/4.6.2/../../../../arm-eabi/lib/thumb/libg.a(lib_a-vfiprintf.o)
                0x0201d734                __sprint_r
                0x0201d7b8                _vfiprintf_r
                0x0201e5b8                vfiprintf
 *fill*         0x0201e5dc        0x4 ff
 .text          0x0201e5e0     0x1898 /home/woo/ndsdev/devkitPro/devkitARM/bin/../lib/gcc/arm-eabi/4.6.2/../../../../arm-eabi/lib/thumb/libg.a(lib_a-vfprintf.o)
                0x0201e5e0                _vfprintf_r
                0x0201fe54                vfprintf
 .text          0x0201fe78       0xdc /home/woo/ndsdev/devkitPro/devkitARM/bin/../lib/gcc/arm-eabi/4.6.2/../../../../arm-eabi/lib/thumb/libg.a(lib_a-wcrtomb.o)
                0x0201fe78                _wcrtomb_r
                0x0201fedc                wcrtomb
 .text          0x0201ff54       0x40 /home/woo/ndsdev/devkitPro/devkitARM/bin/../lib/gcc/arm-eabi/4.6.2/../../../../arm-eabi/lib/thumb/libg.a(lib_a-wcsrtombs.o)
                0x0201ff54                _wcsrtombs_r
                0x0201ff6c                wcsrtombs
 .text          0x0201ff94       0x54 /home/woo/ndsdev/devkitPro/devkitARM/bin/../lib/gcc/arm-eabi/4.6.2/../../../../arm-eabi/lib/thumb/libg.a(lib_a-wctob.o)
                0x0201ff94                wctob
 .text          0x0201ffe8      0x27c /home/woo/ndsdev/devkitPro/devkitARM/bin/../lib/gcc/arm-eabi/4.6.2/../../../../arm-eabi/lib/thumb/libg.a(lib_a-wctomb_r.o)
                0x0201ffe8                __utf8_wctomb
                0x020200a8                _wctomb_r
                0x020200e0                __ascii_wctomb
                0x02020100                __sjis_wctomb
                0x0202016c                __eucjp_wctomb
                0x020201e8                __jis_wctomb
 .text          0x02020264       0xd0 /home/woo/ndsdev/devkitPro/devkitARM/bin/../lib/gcc/arm-eabi/4.6.2/../../../../arm-eabi/lib/thumb/libg.a(lib_a-wsetup.o)
                0x02020264                __swsetup_r
 .text          0x02020334       0x40 /home/woo/ndsdev/devkitPro/devkitARM/bin/../lib/gcc/arm-eabi/4.6.2/../../../../arm-eabi/lib/thumb/libg.a(lib_a-div.o)
                0x02020334                div
 *fill*         0x02020374        0x4 ff
 .text          0x02020378     0x1010 /home/woo/ndsdev/devkitPro/devkitARM/bin/../lib/gcc/arm-eabi/4.6.2/../../../../arm-eabi/lib/thumb/libg.a(lib_a-dtoa.o)
                0x020204d4                _dtoa_r
 .text          0x02021388       0x70 /home/woo/ndsdev/devkitPro/devkitARM/bin/../lib/gcc/arm-eabi/4.6.2/../../../../arm-eabi/lib/thumb/libg.a(lib_a-flags.o)
                0x02021388                __sflags
 .text          0x020213f8      0x108 /home/woo/ndsdev/devkitPro/devkitARM/bin/../lib/gcc/arm-eabi/4.6.2/../../../../arm-eabi/lib/thumb/libg.a(lib_a-fputwc.o)
                0x020213f8                _fputwc_r
                0x020214d4                fputwc
 .text          0x02021500      0x308 /home/woo/ndsdev/devkitPro/devkitARM/bin/../lib/gcc/arm-eabi/4.6.2/../../../../arm-eabi/lib/thumb/libg.a(lib_a-fvwrite.o)
                0x02021500                __sfvwrite_r
 .text          0x02021808       0xa8 /home/woo/ndsdev/devkitPro/devkitARM/bin/../lib/gcc/arm-eabi/4.6.2/../../../../arm-eabi/lib/thumb/libg.a(lib_a-getenv_r.o)
                0x02021808                _findenv_r
                0x020218a0                _getenv_r
 .text          0x020218b0        0x8 /home/woo/ndsdev/devkitPro/devkitARM/bin/../lib/gcc/arm-eabi/4.6.2/../../../../arm-eabi/lib/thumb/libg.a(lib_a-gettzinfo.o)
                0x020218b0                __gettzinfo
 .text          0x020218b8       0x84 /home/woo/ndsdev/devkitPro/devkitARM/bin/../lib/gcc/arm-eabi/4.6.2/../../../../arm-eabi/lib/thumb/libg.a(lib_a-iswspace.o)
                0x020218b8                iswspace
 .text          0x0202193c      0x1f4 /home/woo/ndsdev/devkitPro/devkitARM/bin/../lib/gcc/arm-eabi/4.6.2/../../../../arm-eabi/lib/thumb/libg.a(lib_a-jp2uc.o)
                0x02021acc                _jp2uc
 .text          0x02021b30       0xe4 /home/woo/ndsdev/devkitPro/devkitARM/bin/../lib/gcc/arm-eabi/4.6.2/../../../../arm-eabi/lib/thumb/libg.a(lib_a-mbsnrtowcs.o)
                0x02021b30                _mbsnrtowcs_r
                0x02021be8                mbsnrtowcs
 *fill*         0x02021c14        0x4 ff
 .text          0x02021c18      0x988 /home/woo/ndsdev/devkitPro/devkitARM/bin/../lib/gcc/arm-eabi/4.6.2/../../../../arm-eabi/lib/thumb/libg.a(lib_a-mprec.o)
                0x02021c18                _Balloc
                0x02021c6c                _Bfree
                0x02021c84                __multadd
                0x02021d18                __s2b
                0x02021dac                __hi0bits
                0x02021de4                __lo0bits
                0x02021e44                __i2b
                0x02021e5c                __multiply
                0x02021fcc                __pow5mult
                0x0202207c                __lshift
                0x0202214c                __mcmp
                0x02022188                __mdiff
                0x02022274                __ulp
                0x020222bc                __b2d
                0x02022378                __d2b
                0x02022448                __ratio
                0x020224b4                _mprec_log10
                0x020224f4                __copybits
                0x0202253c                __any_on
 .text          0x020225a0      0x3c4 /home/woo/ndsdev/devkitPro/devkitARM/bin/../lib/gcc/arm-eabi/4.6.2/../../../../arm-eabi/lib/thumb/libg.a(lib_a-reallocr.o)
                0x020225a0                _realloc_r
 .text          0x02022964       0x7c /home/woo/ndsdev/devkitPro/devkitARM/bin/../lib/gcc/arm-eabi/4.6.2/../../../../arm-eabi/lib/thumb/libg.a(lib_a-sccl.o)
                0x02022964                __sccl
 .text          0x020229e0        0x8 /home/woo/ndsdev/devkitPro/devkitARM/bin/../lib/gcc/arm-eabi/4.6.2/../../../../arm-eabi/lib/thumb/libg.a(lib_a-sf_nan.o)
                0x020229e0                nanf
 .text          0x020229e8       0x90 /home/woo/ndsdev/devkitPro/devkitARM/bin/../lib/gcc/arm-eabi/4.6.2/../../../../arm-eabi/lib/thumb/libg.a(lib_a-s_fpclassify.o)
                0x020229e8                __fpclassifyd
 .text          0x02022a78      0xe58 /home/woo/ndsdev/devkitPro/devkitARM/bin/../lib/gcc/arm-eabi/4.6.2/../../../../arm-eabi/lib/thumb/libg.a(lib_a-strtod.o)
                0x02022aa8                _strtod_r
                0x0202387c                strtod
                0x02023898                strtof
 .text          0x020238d0      0x210 /home/woo/ndsdev/devkitPro/devkitARM/bin/../lib/gcc/arm-eabi/4.6.2/../../../../arm-eabi/lib/thumb/libg.a(lib_a-strtoll_r.o)
                0x020238d0                _strtoll_r
 .text          0x02023ae0      0x220 /home/woo/ndsdev/devkitPro/devkitARM/bin/../lib/gcc/arm-eabi/4.6.2/../../../../arm-eabi/lib/thumb/libg.a(lib_a-strtoull_r.o)
                0x02023ae0                _strtoull_r
 .text          0x02023d00      0x198 /home/woo/ndsdev/devkitPro/devkitARM/bin/../lib/gcc/arm-eabi/4.6.2/../../../../arm-eabi/lib/thumb/libg.a(lib_a-strtoul.o)
                0x02023d00                _strtoul_r
                0x02023e78                strtoul
 .text          0x02023e98      0xd9c /home/woo/ndsdev/devkitPro/devkitARM/bin/../lib/gcc/arm-eabi/4.6.2/../../../../arm-eabi/lib/thumb/libg.a(lib_a-svfiprintf.o)
                0x02023e98                __ssprint_r
                0x02023fc8                _svfiprintf_r
 .text          0x02024c34       0xd4 /home/woo/ndsdev/devkitPro/devkitARM/bin/../lib/gcc/arm-eabi/4.6.2/../../../../arm-eabi/lib/thumb/libg.a(lib_a-wbuf.o)
                0x02024c34                __swbuf_r
                0x02024cec                __swbuf
 .text          0x02024d08      0x13c /home/woo/ndsdev/devkitPro/devkitARM/bin/../lib/gcc/arm-eabi/4.6.2/../../../../arm-eabi/lib/thumb/libg.a(lib_a-wcsnrtombs.o)
                0x02024d08                _wcsnrtombs_r
                0x02024e14                wcsnrtombs
 .text          0x02024e44       0x64 /home/woo/ndsdev/devkitPro/devkitARM/bin/../lib/gcc/arm-eabi/4.6.2/../../../../arm-eabi/lib/thumb/libg.a(lib_a-callocr.o)
                0x02024e44                _calloc_r
 .text          0x02024ea8        0x0 /home/woo/ndsdev/devkitPro/devkitARM/bin/../lib/gcc/arm-eabi/4.6.2/../../../../arm-eabi/lib/thumb/libg.a(lib_a-environ.o)
 .text          0x02024ea8        0x8 /home/woo/ndsdev/devkitPro/devkitARM/bin/../lib/gcc/arm-eabi/4.6.2/../../../../arm-eabi/lib/thumb/libg.a(lib_a-envlock.o)
                0x02024ea8                __env_lock
                0x02024eac                __env_unlock
 .text          0x02024eb0      0x64c /home/woo/ndsdev/devkitPro/devkitARM/bin/../lib/gcc/arm-eabi/4.6.2/../../../../arm-eabi/lib/thumb/libg.a(lib_a-gdtoa-gethex.o)
                0x02024f70                __hexdig_init
                0x02024fcc                __gethex
 .text          0x020254fc      0x1e0 /home/woo/ndsdev/devkitPro/devkitARM/bin/../lib/gcc/arm-eabi/4.6.2/../../../../arm-eabi/lib/thumb/libg.a(lib_a-gdtoa-hexnan.o)
                0x020254fc                __hexnan
 .text          0x020256dc      0x144 /home/woo/ndsdev/devkitPro/devkitARM/bin/../lib/gcc/arm-eabi/4.6.2/../../../../arm-eabi/lib/thumb/libsysbase.a(iosupport.o)
                0x020256dc                setDefaultDevice
                0x020256f0                FindDevice
                0x02025760                RemoveDevice
                0x02025784                AddDevice
                0x02025800                GetDeviceOpTab
 .text          0x02025820       0x50 /home/woo/ndsdev/devkitPro/devkitARM/bin/../lib/gcc/arm-eabi/4.6.2/../../../../arm-eabi/lib/thumb/libsysbase.a(close.o)
                0x02025820                _close_r
 .text          0x02025870       0x58 /home/woo/ndsdev/devkitPro/devkitARM/bin/../lib/gcc/arm-eabi/4.6.2/../../../../arm-eabi/lib/thumb/libsysbase.a(fstat.o)
                0x02025870                _fstat_r
 .text          0x020258c8        0x4 /home/woo/ndsdev/devkitPro/devkitARM/bin/../lib/gcc/arm-eabi/4.6.2/../../../../arm-eabi/lib/thumb/libsysbase.a(isatty.o)
                0x020258c8                _isatty_r
 .text          0x020258cc       0x54 /home/woo/ndsdev/devkitPro/devkitARM/bin/../lib/gcc/arm-eabi/4.6.2/../../../../arm-eabi/lib/thumb/libsysbase.a(lseek.o)
                0x020258cc                _lseek_r
 .text          0x02025920       0xa0 /home/woo/ndsdev/devkitPro/devkitARM/bin/../lib/gcc/arm-eabi/4.6.2/../../../../arm-eabi/lib/thumb/libsysbase.a(open.o)
                0x02025920                _open_r
 .text          0x020259c0       0x54 /home/woo/ndsdev/devkitPro/devkitARM/bin/../lib/gcc/arm-eabi/4.6.2/../../../../arm-eabi/lib/thumb/libsysbase.a(read.o)
                0x020259c0                _read_r
 .text          0x02025a14       0x54 /home/woo/ndsdev/devkitPro/devkitARM/bin/../lib/gcc/arm-eabi/4.6.2/../../../../arm-eabi/lib/thumb/libsysbase.a(sbrk.o)
                0x02025a14                _sbrk_r
 .text          0x02025a68       0x48 /home/woo/ndsdev/devkitPro/devkitARM/bin/../lib/gcc/arm-eabi/4.6.2/../../../../arm-eabi/lib/thumb/libsysbase.a(times.o)
                0x02025a68                _times
                0x02025a7c                _times_r
                0x02025a84                _gettimeofday_r
 .text          0x02025ab0       0x54 /home/woo/ndsdev/devkitPro/devkitARM/bin/../lib/gcc/arm-eabi/4.6.2/../../../../arm-eabi/lib/thumb/libsysbase.a(write.o)
                0x02025ab0                _write_r
 .text          0x02025b04        0x0 /home/woo/ndsdev/devkitPro/devkitARM/bin/../lib/gcc/arm-eabi/4.6.2/../../../../arm-eabi/lib/thumb/libsysbase.a(malloc_vars.o)
 .text          0x02025b04      0x248 /home/woo/ndsdev/devkitPro/devkitARM/bin/../lib/gcc/arm-eabi/4.6.2/../../../../arm-eabi/lib/thumb/libsysbase.a(chdir.o)
                0x02025b04                _concatenate_path
                0x02025c1c                chdir
                0x02025cfc                getcwd
 .text          0x02025d4c       0x48 /home/woo/ndsdev/devkitPro/devkitARM/bin/../lib/gcc/arm-eabi/4.6.2/../../../../arm-eabi/lib/thumb/libsysbase.a(build_argv.o)
                0x02025d4c                build_argv
 .text          0x02025d94        0x0 /home/woo/ndsdev/devkitPro/devkitARM/bin/../lib/gcc/arm-eabi/4.6.2/../../../../arm-eabi/lib/thumb/libsysbase.a(syscall_support.o)
 .text          0x02025d94       0x80 /home/woo/ndsdev/devkitPro/devkitARM/bin/../lib/gcc/arm-eabi/4.6.2/../../../../arm-eabi/lib/thumb/libsysbase.a(handle_manager.o)
                0x02025d94                __release_handle
                0x02025dc0                __alloc_handle
                0x02025df8                __get_handle
 .text          0x02025e14      0x41c /home/woo/ndsdev/devkitPro/devkitARM/bin/../lib/gcc/arm-eabi/4.6.2/thumb/libgcc.a(_arm_addsubdf3.o)
                0x02025e14                __aeabi_drsub
                0x02025e1c                __aeabi_dsub
                0x02025e1c                __subdf3
                0x02025e20                __adddf3
                0x02025e20                __aeabi_dadd
                0x02026130                __aeabi_ui2d
                0x02026130                __floatunsidf
                0x02026154                __floatsidf
                0x02026154                __aeabi_i2d
                0x0202617c                __extendsfdf2
                0x0202617c                __aeabi_f2d
                0x020261bc                __aeabi_ul2d
                0x020261bc                __floatundidf
                0x020261d0                __floatdidf
                0x020261d0                __aeabi_l2d
 .text          0x02026230      0x49c /home/woo/ndsdev/devkitPro/devkitARM/bin/../lib/gcc/arm-eabi/4.6.2/thumb/libgcc.a(_arm_muldivdf3.o)
                0x02026230                __aeabi_dmul
                0x02026230                __muldf3
                0x020264c0                __aeabi_ddiv
                0x020264c0                __divdf3
 .text          0x020266cc      0x144 /home/woo/ndsdev/devkitPro/devkitARM/bin/../lib/gcc/arm-eabi/4.6.2/thumb/libgcc.a(_arm_cmpdf2.o)
                0x020266cc                __gtdf2
                0x020266cc                __gedf2
                0x020266d4                __ltdf2
                0x020266d4                __ledf2
                0x020266dc                __cmpdf2
                0x020266dc                __eqdf2
                0x020266dc                __nedf2
                0x02026764                __aeabi_cdrcmple
                0x02026780                __aeabi_cdcmple
                0x02026780                __aeabi_cdcmpeq
                0x02026798                __aeabi_dcmpeq
                0x020267b0                __aeabi_dcmplt
                0x020267c8                __aeabi_dcmple
                0x020267e0                __aeabi_dcmpge
                0x020267f8                __aeabi_dcmpgt
 .text          0x02026810       0x5c /home/woo/ndsdev/devkitPro/devkitARM/bin/../lib/gcc/arm-eabi/4.6.2/thumb/libgcc.a(_arm_fixdfsi.o)
                0x02026810                __fixdfsi
                0x02026810                __aeabi_d2iz
 .text          0x0202686c       0x54 /home/woo/ndsdev/devkitPro/devkitARM/bin/../lib/gcc/arm-eabi/4.6.2/thumb/libgcc.a(_arm_fixunsdfsi.o)
                0x0202686c                __fixunsdfsi
                0x0202686c                __aeabi_d2uiz
 .text          0x020268c0       0xa0 /home/woo/ndsdev/devkitPro/devkitARM/bin/../lib/gcc/arm-eabi/4.6.2/thumb/libgcc.a(_arm_truncdfsf2.o)
                0x020268c0                __aeabi_d2f
                0x020268c0                __truncdfsf2
 .text          0x02026960       0x3c /home/woo/ndsdev/devkitPro/devkitARM/bin/../lib/gcc/arm-eabi/4.6.2/thumb/libgcc.a(_aeabi_uldivmod.o)
                0x02026960                __aeabi_uldivmod
 .text          0x0202699c       0x74 /home/woo/ndsdev/devkitPro/devkitARM/bin/../lib/gcc/arm-eabi/4.6.2/thumb/libgcc.a(bpabi.o)
                0x0202699c                __gnu_ldivmod_helper
                0x020269d8                __gnu_uldivmod_helper
 .text          0x02026a10      0x3c8 /home/woo/ndsdev/devkitPro/devkitARM/bin/../lib/gcc/arm-eabi/4.6.2/thumb/libgcc.a(_divdi3.o)
                0x02026a10                __divdi3
 .text          0x02026dd8      0x370 /home/woo/ndsdev/devkitPro/devkitARM/bin/../lib/gcc/arm-eabi/4.6.2/thumb/libgcc.a(_udivdi3.o)
                0x02026dd8                __udivdi3
 .text          0x02027148       0x48 /home/woo/ndsdev/devkitPro/devkitARM/bin/../lib/gcc/arm-eabi/4.6.2/thumb/libgcc.a(_clzsi2.o)
                0x02027148                __clzsi2
 .text          0x02027190        0x0 /home/woo/ndsdev/devkitPro/devkitARM/bin/../lib/gcc/arm-eabi/4.6.2/thumb/crtend.o
 .text          0x02027190        0x0 /home/woo/ndsdev/devkitPro/devkitARM/bin/../lib/gcc/arm-eabi/4.6.2/thumb/crtn.o
 *(.text.*)
 .text.startup  0x02027190       0xcc main.o
                0x02027190                main
 *fill*         0x0202725c        0x4 ff
 .text.startup.stub
                0x02027260       0x10 linker stubs
 *(.stub)
 *(.gnu.warning)
 *(.gnu.linkonce.t*)
 *(.glue_7)
 .glue_7        0x00000000        0x0 linker stubs
 *(.glue_7t)
 .glue_7t       0x00000000        0x0 linker stubs
                0x02027270                . = ALIGN (0x4)

.vfp11_veneer   0x02027270        0x0
 .vfp11_veneer  0x00000000        0x0 linker stubs

.v4_bx          0x02027270        0x0
 .v4_bx         0x00000000        0x0 linker stubs

.fini           0x02027270        0xc
 *(.fini)
 .fini          0x02027270        0x4 /home/woo/ndsdev/devkitPro/devkitARM/bin/../lib/gcc/arm-eabi/4.6.2/thumb/crti.o
                0x02027270                _fini
 .fini          0x02027274        0x8 /home/woo/ndsdev/devkitPro/devkitARM/bin/../lib/gcc/arm-eabi/4.6.2/thumb/crtn.o
                0x0202727c                __text_end = .

.rodata         0x02027280     0x8168
 *(.rodata)
 .rodata        0x02027280       0x2c download.o
 .rodata        0x020272ac        0xc main.o
 .rodata        0x020272b8       0x20 wifi.o
 .rodata        0x020272d8       0x30 /home/woo/ndsdev/devkitPro/libnds/lib/libdswifi9.a(wifi_arm9.o)
 .rodata        0x02027308       0x54 /home/woo/ndsdev/devkitPro/libnds/lib/libdswifi9.a(sgIP_TCP.o)
 .rodata        0x0202735c       0x64 /home/woo/ndsdev/devkitPro/libnds/lib/libfat.a(libfat.o)
 .rodata        0x020273c0        0xc /home/woo/ndsdev/devkitPro/libnds/lib/libfat.a(partition.o)
 .rodata        0x020273cc       0x54 /home/woo/ndsdev/devkitPro/libnds/lib/libfat.a(directory.o)
 .rodata        0x02027420       0x18 /home/woo/ndsdev/devkitPro/libnds/lib/libfat.a(disc.o)
                0x02027420                _FAT_disc_interfaces
 .rodata        0x02027438      0x200 /home/woo/ndsdev/devkitPro/libnds/lib/libnds9.a(console.o)
 .rodata        0x02027638        0xc /home/woo/ndsdev/devkitPro/libnds/lib/libnds9.a(dldi.o)
                0x02027638                DLDI_MAGIC_STRING_BACKWARDS
                0x02027640                DLDI_MAGIC_NUMBER
 .rodata        0x02027644       0x20 /home/woo/ndsdev/devkitPro/libnds/lib/libnds9.a(dsi_sd.o)
                0x02027644                __io_dsisd
 .rodata        0x02027664     0x2004 /home/woo/ndsdev/devkitPro/libnds/lib/libnds9.a(default_font.bin.o)
                0x02027664                default_font_bin
                0x02029664                default_font_bin_end
                0x02029664                default_font_bin_size
 .rodata        0x02029668      0x308 /home/woo/ndsdev/devkitPro/libnds/lib/libnds9.a(trig.o)
                0x02029668                SIN_LUT
                0x0202976c                TAN_LUT
 .rodata        0x02029970      0x104 /home/woo/ndsdev/devkitPro/devkitARM/bin/../lib/gcc/arm-eabi/4.6.2/../../../../arm-eabi/lib/thumb/libg.a(lib_a-ctype_.o)
                0x02029970                _ctype_
 .rodata        0x02029a74        0x4 /home/woo/ndsdev/devkitPro/devkitARM/bin/../lib/gcc/arm-eabi/4.6.2/../../../../arm-eabi/lib/thumb/libg.a(lib_a-impure.o)
                0x02029a74                _global_impure_ptr
 .rodata        0x02029a78       0xf0 /home/woo/ndsdev/devkitPro/devkitARM/bin/../lib/gcc/arm-eabi/4.6.2/../../../../arm-eabi/lib/thumb/libg.a(lib_a-locale.o)
 .rodata        0x02029b68       0xa8 /home/woo/ndsdev/devkitPro/devkitARM/bin/../lib/gcc/arm-eabi/4.6.2/../../../../arm-eabi/lib/thumb/libg.a(lib_a-mbtowc_r.o)
 .rodata        0x02029c10       0x60 /home/woo/ndsdev/devkitPro/devkitARM/bin/../lib/gcc/arm-eabi/4.6.2/../../../../arm-eabi/lib/thumb/libg.a(lib_a-mktime.o)
 .rodata        0x02029c70       0x68 /home/woo/ndsdev/devkitPro/devkitARM/bin/../lib/gcc/arm-eabi/4.6.2/../../../../arm-eabi/lib/thumb/libg.a(lib_a-mktm_r.o)
 .rodata        0x02029cd8      0x340 /home/woo/ndsdev/devkitPro/devkitARM/bin/../lib/gcc/arm-eabi/4.6.2/../../../../arm-eabi/lib/thumb/libg.a(lib_a-svfiscanf.o)
 .rodata        0x0202a018      0x184 /home/woo/ndsdev/devkitPro/devkitARM/bin/../lib/gcc/arm-eabi/4.6.2/../../../../arm-eabi/lib/thumb/libg.a(lib_a-svfprintf.o)
 .rodata        0x0202a19c      0x47c /home/woo/ndsdev/devkitPro/devkitARM/bin/../lib/gcc/arm-eabi/4.6.2/../../../../arm-eabi/lib/thumb/libg.a(lib_a-svfscanf.o)
 .rodata        0x0202a618      0x580 /home/woo/ndsdev/devkitPro/devkitARM/bin/../lib/gcc/arm-eabi/4.6.2/../../../../arm-eabi/lib/thumb/libg.a(lib_a-towlower.o)
 .rodata        0x0202ab98      0x3e4 /home/woo/ndsdev/devkitPro/devkitARM/bin/../lib/gcc/arm-eabi/4.6.2/../../../../arm-eabi/lib/thumb/libg.a(lib_a-towupper.o)
 .rodata        0x0202af7c      0x184 /home/woo/ndsdev/devkitPro/devkitARM/bin/../lib/gcc/arm-eabi/4.6.2/../../../../arm-eabi/lib/thumb/libg.a(lib_a-vfiprintf.o)
 .rodata        0x0202b100      0x184 /home/woo/ndsdev/devkitPro/devkitARM/bin/../lib/gcc/arm-eabi/4.6.2/../../../../arm-eabi/lib/thumb/libg.a(lib_a-vfprintf.o)
 .rodata        0x0202b284     0x34f0 /home/woo/ndsdev/devkitPro/devkitARM/bin/../lib/gcc/arm-eabi/4.6.2/../../../../arm-eabi/lib/thumb/libg.a(lib_a-jp2uc.o)
 *fill*         0x0202e774        0x4 ff
 .rodata        0x0202e778      0x128 /home/woo/ndsdev/devkitPro/devkitARM/bin/../lib/gcc/arm-eabi/4.6.2/../../../../arm-eabi/lib/thumb/libg.a(lib_a-mprec.o)
                0x0202e788                __mprec_tens
                0x0202e850                __mprec_tinytens
                0x0202e878                __mprec_bigtens
 .rodata        0x0202e8a0      0x100 /home/woo/ndsdev/devkitPro/devkitARM/bin/../lib/gcc/arm-eabi/4.6.2/../../../../arm-eabi/lib/thumb/libg.a(lib_a-strtod.o)
 .rodata        0x0202e9a0      0x184 /home/woo/ndsdev/devkitPro/devkitARM/bin/../lib/gcc/arm-eabi/4.6.2/../../../../arm-eabi/lib/thumb/libg.a(lib_a-svfiprintf.o)
 .rodata        0x0202eb24       0x64 /home/woo/ndsdev/devkitPro/devkitARM/bin/../lib/gcc/arm-eabi/4.6.2/../../../../arm-eabi/lib/thumb/libsysbase.a(iosupport.o)
                0x0202eb24                dotab_stdnull
 .rodata        0x0202eb88        0xc /home/woo/ndsdev/devkitPro/devkitARM/bin/../lib/gcc/arm-eabi/4.6.2/../../../../arm-eabi/lib/thumb/libsysbase.a(chdir.o)
                0x0202eb88                DIRECTORY_PARENT
                0x0202eb8c                DIRECTORY_THIS
                0x0202eb90                DIRECTORY_SEPARATOR
 *all.rodata*(*)
 *(.roda)
 *(.rodata.*)
 .rodata.str1.4
                0x0202eb94      0x341 download.o
                                0x344 (size before relaxing)
 *fill*         0x0202eed5        0x3 ff
 .rodata.str1.4
                0x0202eed8      0x10f main.o
                                0x110 (size before relaxing)
 *fill*         0x0202efe7        0x1 ff
 .rodata.str1.4
                0x0202efe8       0xfe wifi.o
                                0x108 (size before relaxing)
 *fill*         0x0202f0e6        0x2 ff
 .rodata.str1.4
                0x0202f0e8       0xb6 /home/woo/ndsdev/devkitPro/libnds/lib/libdswifi9.a(wifi_arm9.o)
                                 0xb8 (size before relaxing)
 *fill*         0x0202f19e        0x2 ff
 .rodata.str1.4
                0x0202f1a0       0x15 /home/woo/ndsdev/devkitPro/libnds/lib/libdswifi9.a(sgIP_DHCP.o)
                                 0x18 (size before relaxing)
 *fill*         0x0202f1b5        0x3 ff
 .rodata.str1.4
                0x0202f1b8       0x14 /home/woo/ndsdev/devkitPro/libnds/lib/libfat.a(libfat.o)
 .rodata.str1.4
                0x0202f1cc        0x7 /home/woo/ndsdev/devkitPro/libnds/lib/libfat.a(directory.o)
                                  0x8 (size before relaxing)
 *fill*         0x0202f1d3        0x1 ff
 .rodata.str1.4
                0x0202f1d4        0x3 /home/woo/ndsdev/devkitPro/libnds/lib/libfat.a(disc.o)
                                  0x8 (size before relaxing)
 *fill*         0x0202f1d7        0x1 ff
 .rodata.str1.4
                0x0202f1d8        0x5 /home/woo/ndsdev/devkitPro/libnds/lib/libfat.a(fatdir.o)
                                  0x8 (size before relaxing)
 *fill*         0x0202f1dd        0x3 ff
 .rodata.str1.4
                0x0202f1e0       0x49 /home/woo/ndsdev/devkitPro/libnds/lib/libnds9.a(console.o)
                                 0x4c (size before relaxing)
 *fill*         0x0202f229        0x3 ff
 .rodata.str1.4
                0x0202f22c        0x2 /home/woo/ndsdev/devkitPro/devkitARM/bin/../lib/gcc/arm-eabi/4.6.2/../../../../arm-eabi/lib/thumb/libg.a(lib_a-impure.o)
                                  0x4 (size before relaxing)
 *fill*         0x0202f22e        0x2 ff
 .rodata.str1.4
                0x0202f230      0x124 /home/woo/ndsdev/devkitPro/devkitARM/bin/../lib/gcc/arm-eabi/4.6.2/../../../../arm-eabi/lib/thumb/libg.a(lib_a-locale.o)
                                0x130 (size before relaxing)
 .rodata.str1.4
                0x00000000        0x4 /home/woo/ndsdev/devkitPro/devkitARM/bin/../lib/gcc/arm-eabi/4.6.2/../../../../arm-eabi/lib/thumb/libg.a(lib_a-mbrtowc.o)
 .rodata.str1.4
                0x0202f354       0x42 /home/woo/ndsdev/devkitPro/devkitARM/bin/../lib/gcc/arm-eabi/4.6.2/../../../../arm-eabi/lib/thumb/libg.a(lib_a-svfprintf.o)
                                 0x44 (size before relaxing)
 *fill*         0x0202f396        0x2 ff
 .rodata.str1.4
                0x0202f398        0x5 /home/woo/ndsdev/devkitPro/devkitARM/bin/../lib/gcc/arm-eabi/4.6.2/../../../../arm-eabi/lib/thumb/libg.a(lib_a-svfscanf.o)
                                  0x8 (size before relaxing)
 *fill*         0x0202f39d        0x3 ff
 .rodata.str1.4
                0x0202f3a0        0x4 /home/woo/ndsdev/devkitPro/devkitARM/bin/../lib/gcc/arm-eabi/4.6.2/../../../../arm-eabi/lib/thumb/libg.a(lib_a-tzvars.o)
 .rodata.str1.4
                0x00000000       0x30 /home/woo/ndsdev/devkitPro/devkitARM/bin/../lib/gcc/arm-eabi/4.6.2/../../../../arm-eabi/lib/thumb/libg.a(lib_a-vfiprintf.o)
 .rodata.str1.4
                0x00000000       0x44 /home/woo/ndsdev/devkitPro/devkitARM/bin/../lib/gcc/arm-eabi/4.6.2/../../../../arm-eabi/lib/thumb/libg.a(lib_a-vfprintf.o)
 .rodata.str1.4
                0x0202f3a4       0x10 /home/woo/ndsdev/devkitPro/devkitARM/bin/../lib/gcc/arm-eabi/4.6.2/../../../../arm-eabi/lib/thumb/libg.a(lib_a-dtoa.o)
                                 0x14 (size before relaxing)
 .rodata.str1.4
                0x00000000       0x14 /home/woo/ndsdev/devkitPro/devkitARM/bin/../lib/gcc/arm-eabi/4.6.2/../../../../arm-eabi/lib/thumb/libg.a(lib_a-jp2uc.o)
 .rodata.str1.4
                0x0202f3b4        0xf /home/woo/ndsdev/devkitPro/devkitARM/bin/../lib/gcc/arm-eabi/4.6.2/../../../../arm-eabi/lib/thumb/libg.a(lib_a-strtod.o)
                                 0x10 (size before relaxing)
 .rodata.str1.4
                0x00000000       0x30 /home/woo/ndsdev/devkitPro/devkitARM/bin/../lib/gcc/arm-eabi/4.6.2/../../../../arm-eabi/lib/thumb/libg.a(lib_a-svfiprintf.o)
 *fill*         0x0202f3c3        0x1 ff
 .rodata.str1.4
                0x0202f3c4       0x1b /home/woo/ndsdev/devkitPro/devkitARM/bin/../lib/gcc/arm-eabi/4.6.2/../../../../arm-eabi/lib/thumb/libg.a(lib_a-gdtoa-gethex.o)
                                 0x1c (size before relaxing)
 *fill*         0x0202f3df        0x1 ff
 .rodata.str1.4
                0x0202f3e0        0x8 /home/woo/ndsdev/devkitPro/devkitARM/bin/../lib/gcc/arm-eabi/4.6.2/../../../../arm-eabi/lib/thumb/libsysbase.a(iosupport.o)
 *(.gnu.linkonce.r*)
                0x0202f3e8                . = ALIGN (0x4)

.ARM.extab
 *(.ARM.extab* .gnu.linkonce.armextab.*)
                0x0202f3e8                __exidx_start = .

ARM.exidx
 *(.ARM.exidx* .gnu.linkonce.armexidx.*)
                0x0202f3e8                __exidx_end = .
                0x0202f3e8                . = ALIGN (0x4)
                0x0202f3e8                PROVIDE (__preinit_array_start, .)

.preinit_array
 *(.preinit_array)
                0x0202f3e8                PROVIDE (__preinit_array_end, .)
                0x0202f3e8                PROVIDE (__init_array_start, .)

.init_array     0x0202f3e8        0x4
 *(SORT(.init_array.*))
 *(.init_array)
 .init_array    0x0202f3e8        0x4 /home/woo/ndsdev/devkitPro/devkitARM/bin/../lib/gcc/arm-eabi/4.6.2/thumb/crtbegin.o
                0x0202f3ec                PROVIDE (__init_array_end, .)
                0x0202f3ec                PROVIDE (__fini_array_start, .)

.fini_array     0x0202f3ec        0x4
 *(.fini_array)
 .fini_array    0x0202f3ec        0x4 /home/woo/ndsdev/devkitPro/devkitARM/bin/../lib/gcc/arm-eabi/4.6.2/thumb/crtbegin.o
 *(SORT(.fini_array.*))
                0x0202f3f0                PROVIDE (__fini_array_end, .)

.ctors          0x0202f3f0        0x0
 *crtbegin.o(.ctors)
 *(EXCLUDE_FILE(*crtend.o) .ctors)
 *(SORT(.ctors.*))
 *(.ctors)
                0x0202f3f0                . = ALIGN (0x4)

.dtors          0x0202f3f0        0x0
 *crtbegin.o(.dtors)
 *(EXCLUDE_FILE(*crtend.o) .dtors)
 *(SORT(.dtors.*))
 *(.dtors)
                0x0202f3f0                . = ALIGN (0x4)

.eh_frame       0x0202f3f0        0x4
 *(.eh_frame)
 .eh_frame      0x0202f3f0        0x0 /home/woo/ndsdev/devkitPro/devkitARM/bin/../lib/gcc/arm-eabi/4.6.2/thumb/crtbegin.o
 .eh_frame      0x0202f3f0        0x4 /home/woo/ndsdev/devkitPro/devkitARM/bin/../lib/gcc/arm-eabi/4.6.2/thumb/crtend.o
                0x0202f3f4                . = ALIGN (0x4)

.gcc_except_table
                0x0202f3f4        0x0
 *(.gcc_except_table)
                0x0202f3f4                . = ALIGN (0x4)

.jcr            0x0202f3f4        0x4
 *(.jcr)
 .jcr           0x0202f3f4        0x0 /home/woo/ndsdev/devkitPro/devkitARM/bin/../lib/gcc/arm-eabi/4.6.2/thumb/crtbegin.o
 .jcr           0x0202f3f4        0x4 /home/woo/ndsdev/devkitPro/devkitARM/bin/../lib/gcc/arm-eabi/4.6.2/thumb/crtend.o

.got
 *(.got.plt)
 *(.got)
 *(.rel.got)

.ewram          0x0202f3f8        0x0
                0x0202f3f8                __ewram_start = ABSOLUTE (.)
 *(.ewram)
 *ewram.*(.text)
                0x0202f3f8                . = ALIGN (0x4)

.data           0x0202f3f8     0x1014
                0x0202f3f8                __data_start = ABSOLUTE (.)
 *(.data)
 .data          0x0202f3f8        0x0 /home/woo/ndsdev/devkitPro/devkitARM/bin/../lib/gcc/arm-eabi/4.6.2/../../../../arm-eabi/lib/thumb/ds_arm9_crt0.o
 .data          0x0202f3f8        0x0 /home/woo/ndsdev/devkitPro/devkitARM/bin/../lib/gcc/arm-eabi/4.6.2/thumb/crti.o
 .data          0x0202f3f8        0x4 /home/woo/ndsdev/devkitPro/devkitARM/bin/../lib/gcc/arm-eabi/4.6.2/thumb/crtbegin.o
                0x0202f3f8                __dso_handle
 .data          0x0202f3fc        0x0 download.o
 .data          0x0202f3fc       0x94 main.o
                0x0202f3fc                Config
 .data          0x0202f490        0x0 wifi.o
 .data          0x0202f490        0x0 jump.o
 .data          0x0202f490        0x0 /home/woo/ndsdev/devkitPro/libnds/lib/libdswifi9.a(sgIP_DNS.o)
 .data          0x0202f490        0x0 /home/woo/ndsdev/devkitPro/libnds/lib/libdswifi9.a(sgIP_Hub.o)
 .data          0x0202f490        0x0 /home/woo/ndsdev/devkitPro/libnds/lib/libdswifi9.a(sgIP_memblock.o)
 .data          0x0202f490        0x0 /home/woo/ndsdev/devkitPro/libnds/lib/libdswifi9.a(sgIP_sockets.o)
 .data          0x0202f490       0x1c /home/woo/ndsdev/devkitPro/libnds/lib/libdswifi9.a(wifi_arm9.o)
                0x0202f490                ASSOCSTATUS_STRINGS
 .data          0x0202f4ac        0x0 /home/woo/ndsdev/devkitPro/libnds/lib/libdswifi9.a(spinlock.o)
 .data          0x0202f4ac        0x0 /home/woo/ndsdev/devkitPro/libnds/lib/libdswifi9.a(sgIP.o)
 .data          0x0202f4ac        0x0 /home/woo/ndsdev/devkitPro/libnds/lib/libdswifi9.a(sgIP_ARP.o)
 .data          0x0202f4ac        0x0 /home/woo/ndsdev/devkitPro/libnds/lib/libdswifi9.a(sgIP_DHCP.o)
 .data          0x0202f4ac        0x0 /home/woo/ndsdev/devkitPro/libnds/lib/libdswifi9.a(sgIP_IP.o)
 .data          0x0202f4ac        0x0 /home/woo/ndsdev/devkitPro/libnds/lib/libdswifi9.a(sgIP_TCP.o)
 .data          0x0202f4ac        0x0 /home/woo/ndsdev/devkitPro/libnds/lib/libdswifi9.a(sgIP_UDP.o)
 .data          0x0202f4ac        0x0 /home/woo/ndsdev/devkitPro/libnds/lib/libdswifi9.a(sgIP_ICMP.o)
 .data          0x0202f4ac        0x0 /home/woo/ndsdev/devkitPro/libnds/lib/libfat.a(libfat.o)
 .data          0x0202f4ac        0x0 /home/woo/ndsdev/devkitPro/libnds/lib/libfat.a(partition.o)
 .data          0x0202f4ac        0x0 /home/woo/ndsdev/devkitPro/libnds/lib/libfat.a(cache.o)
 .data          0x0202f4ac        0x0 /home/woo/ndsdev/devkitPro/libnds/lib/libfat.a(directory.o)
 .data          0x0202f4ac        0x0 /home/woo/ndsdev/devkitPro/libnds/lib/libfat.a(disc.o)
 .data          0x0202f4ac        0x0 /home/woo/ndsdev/devkitPro/libnds/lib/libfat.a(fatdir.o)
 .data          0x0202f4ac        0x0 /home/woo/ndsdev/devkitPro/libnds/lib/libfat.a(fatfile.o)
 .data          0x0202f4ac        0x0 /home/woo/ndsdev/devkitPro/libnds/lib/libfat.a(file_allocation_table.o)
 .data          0x0202f4ac        0x0 /home/woo/ndsdev/devkitPro/libnds/lib/libfat.a(filetime.o)
 .data          0x0202f4ac        0x0 /home/woo/ndsdev/devkitPro/libnds/lib/libfat.a(lock.o)
 .data          0x0202f4ac       0x64 /home/woo/ndsdev/devkitPro/libnds/lib/libnds9.a(console.o)
                0x0202f4ac                currentConsole
                0x0202f4b0                defaultConsole
 .data          0x0202f510        0x3 /home/woo/ndsdev/devkitPro/libnds/lib/libnds9.a(keys.o)
 *fill*         0x0202f513        0x1 ff
 .data          0x0202f514        0x4 /home/woo/ndsdev/devkitPro/libnds/lib/libnds9.a(dldi.o)
                0x0202f514                io_dldi_data
 .data          0x0202f518        0x0 /home/woo/ndsdev/devkitPro/libnds/lib/libnds9.a(dsi_sd.o)
 .data          0x0202f518        0x0 /home/woo/ndsdev/devkitPro/libnds/lib/libnds9.a(initSystem.o)
 .data          0x0202f518       0x10 /home/woo/ndsdev/devkitPro/libnds/lib/libnds9.a(fifosystem.o)
                0x0202f518                fifo_freewords
                0x0202f51c                fifo_buffer_free
                0x0202f520                fifo_send_queue
                0x0202f524                fifo_receive_queue
 .data          0x0202f528        0x0 /home/woo/ndsdev/devkitPro/libnds/lib/libnds9.a(interrupts.o)
 .data          0x0202f528        0x0 /home/woo/ndsdev/devkitPro/libnds/lib/libnds9.a(libnds_exit.o)
 .data          0x0202f528        0x0 /home/woo/ndsdev/devkitPro/libnds/lib/libnds9.a(dcache.o)
 .data          0x0202f528        0x0 /home/woo/ndsdev/devkitPro/libnds/lib/libnds9.a(dldi_stub.o)
 .data          0x0202f528        0x0 /home/woo/ndsdev/devkitPro/libnds/lib/libnds9.a(mpu_setup.o)
 .data          0x0202f528        0x0 /home/woo/ndsdev/devkitPro/libnds/lib/libnds9.a(biosCalls.o)
 .data          0x0202f528        0x0 /home/woo/ndsdev/devkitPro/libnds/lib/libnds9.a(debugprint.o)
 .data          0x0202f528        0x0 /home/woo/ndsdev/devkitPro/libnds/lib/libnds9.a(interruptDispatcher.o)
 .data          0x0202f528        0x0 /home/woo/ndsdev/devkitPro/libnds/lib/libnds9.a(swiSoftReset.o)
 .data          0x0202f528        0x0 /home/woo/ndsdev/devkitPro/libnds/lib/libnds9.a(default_font.bin.o)
 .data          0x0202f528       0x60 /home/woo/ndsdev/devkitPro/libnds/lib/libnds9.a(background.o)
                0x0202f528                bgScrollTable
                0x0202f548                bgTransform
                0x0202f568                bgControl
 .data          0x0202f588        0x0 /home/woo/ndsdev/devkitPro/libnds/lib/libnds9.a(system.o)
 .data          0x0202f588        0x0 /home/woo/ndsdev/devkitPro/libnds/lib/libnds9.a(trig.o)
 .data          0x0202f588        0x0 /home/woo/ndsdev/devkitPro/libnds/lib/libnds9.a(video.o)
 .data          0x0202f588        0x0 /home/woo/ndsdev/devkitPro/devkitARM/bin/../lib/gcc/arm-eabi/4.6.2/thumb/libgcc.a(_udivsi3.o)
 .data          0x0202f588        0x0 /home/woo/ndsdev/devkitPro/devkitARM/bin/../lib/gcc/arm-eabi/4.6.2/thumb/libgcc.a(_divsi3.o)
 .data          0x0202f588        0x0 /home/woo/ndsdev/devkitPro/devkitARM/bin/../lib/gcc/arm-eabi/4.6.2/thumb/libgcc.a(_dvmd_tls.o)
 .data          0x0202f588        0x0 /home/woo/ndsdev/devkitPro/devkitARM/bin/../lib/gcc/arm-eabi/4.6.2/thumb/libgcc.a(_muldi3.o)
 .data          0x0202f588        0x0 /home/woo/ndsdev/devkitPro/devkitARM/bin/../lib/gcc/arm-eabi/4.6.2/../../../../arm-eabi/lib/thumb/libg.a(lib_a-atoi.o)
 .data          0x0202f588        0x0 /home/woo/ndsdev/devkitPro/devkitARM/bin/../lib/gcc/arm-eabi/4.6.2/../../../../arm-eabi/lib/thumb/libg.a(lib_a-bsearch.o)
 .data          0x0202f588        0x4 /home/woo/ndsdev/devkitPro/devkitARM/bin/../lib/gcc/arm-eabi/4.6.2/../../../../arm-eabi/lib/thumb/libg.a(lib_a-ctype_.o)
                0x0202f588                __ctype_ptr__
 .data          0x0202f58c        0x0 /home/woo/ndsdev/devkitPro/devkitARM/bin/../lib/gcc/arm-eabi/4.6.2/../../../../arm-eabi/lib/thumb/libg.a(lib_a-errno.o)
 .data          0x0202f58c        0x0 /home/woo/ndsdev/devkitPro/devkitARM/bin/../lib/gcc/arm-eabi/4.6.2/../../../../arm-eabi/lib/thumb/libg.a(lib_a-fclose.o)
 .data          0x0202f58c        0x0 /home/woo/ndsdev/devkitPro/devkitARM/bin/../lib/gcc/arm-eabi/4.6.2/../../../../arm-eabi/lib/thumb/libg.a(lib_a-fflush.o)
 .data          0x0202f58c        0x0 /home/woo/ndsdev/devkitPro/devkitARM/bin/../lib/gcc/arm-eabi/4.6.2/../../../../arm-eabi/lib/thumb/libg.a(lib_a-fgets.o)
 .data          0x0202f58c        0x0 /home/woo/ndsdev/devkitPro/devkitARM/bin/../lib/gcc/arm-eabi/4.6.2/../../../../arm-eabi/lib/thumb/libg.a(lib_a-findfp.o)
 .data          0x0202f58c        0x0 /home/woo/ndsdev/devkitPro/devkitARM/bin/../lib/gcc/arm-eabi/4.6.2/../../../../arm-eabi/lib/thumb/libg.a(lib_a-fopen.o)
 .data          0x0202f58c        0x0 /home/woo/ndsdev/devkitPro/devkitARM/bin/../lib/gcc/arm-eabi/4.6.2/../../../../arm-eabi/lib/thumb/libg.a(lib_a-freer.o)
 .data          0x0202f58c        0x0 /home/woo/ndsdev/devkitPro/devkitARM/bin/../lib/gcc/arm-eabi/4.6.2/../../../../arm-eabi/lib/thumb/libg.a(lib_a-fseek.o)
 .data          0x0202f58c        0x0 /home/woo/ndsdev/devkitPro/devkitARM/bin/../lib/gcc/arm-eabi/4.6.2/../../../../arm-eabi/lib/thumb/libg.a(lib_a-fwalk.o)
 .data          0x0202f58c        0x0 /home/woo/ndsdev/devkitPro/devkitARM/bin/../lib/gcc/arm-eabi/4.6.2/../../../../arm-eabi/lib/thumb/libg.a(lib_a-fwrite.o)
 *fill*         0x0202f58c        0x4 ff
 .data          0x0202f590      0x430 /home/woo/ndsdev/devkitPro/devkitARM/bin/../lib/gcc/arm-eabi/4.6.2/../../../../arm-eabi/lib/thumb/libg.a(lib_a-impure.o)
                0x0202f590                _impure_ptr
 .data          0x0202f9c0        0x0 /home/woo/ndsdev/devkitPro/devkitARM/bin/../lib/gcc/arm-eabi/4.6.2/../../../../arm-eabi/lib/thumb/libg.a(lib_a-init.o)
 .data          0x0202f9c0        0x0 /home/woo/ndsdev/devkitPro/devkitARM/bin/../lib/gcc/arm-eabi/4.6.2/../../../../arm-eabi/lib/thumb/libg.a(lib_a-iprintf.o)
 .data          0x0202f9c0        0x0 /home/woo/ndsdev/devkitPro/devkitARM/bin/../lib/gcc/arm-eabi/4.6.2/../../../../arm-eabi/lib/thumb/libg.a(lib_a-lcltime_r.o)
 .data          0x0202f9c0      0x17c /home/woo/ndsdev/devkitPro/devkitARM/bin/../lib/gcc/arm-eabi/4.6.2/../../../../arm-eabi/lib/thumb/libg.a(lib_a-locale.o)
                0x0202f9c0                __default_locale
                0x0202fae0                __mb_cur_max
 .data          0x0202fb3c        0x0 /home/woo/ndsdev/devkitPro/devkitARM/bin/../lib/gcc/arm-eabi/4.6.2/../../../../arm-eabi/lib/thumb/libg.a(lib_a-makebuf.o)
 .data          0x0202fb3c        0x0 /home/woo/ndsdev/devkitPro/devkitARM/bin/../lib/gcc/arm-eabi/4.6.2/../../../../arm-eabi/lib/thumb/libg.a(lib_a-malloc.o)
 .data          0x0202fb3c      0x410 /home/woo/ndsdev/devkitPro/devkitARM/bin/../lib/gcc/arm-eabi/4.6.2/../../../../arm-eabi/lib/thumb/libg.a(lib_a-mallocr.o)
                0x0202fb3c                __malloc_av_
                0x0202ff44                __malloc_sbrk_base
                0x0202ff48                __malloc_trim_threshold
 .data          0x0202ff4c        0x0 /home/woo/ndsdev/devkitPro/devkitARM/bin/../lib/gcc/arm-eabi/4.6.2/../../../../arm-eabi/lib/thumb/libg.a(lib_a-mbrtowc.o)
 .data          0x0202ff4c        0x0 /home/woo/ndsdev/devkitPro/devkitARM/bin/../lib/gcc/arm-eabi/4.6.2/../../../../arm-eabi/lib/thumb/libg.a(lib_a-mbsrtowcs.o)
 .data          0x0202ff4c        0x4 /home/woo/ndsdev/devkitPro/devkitARM/bin/../lib/gcc/arm-eabi/4.6.2/../../../../arm-eabi/lib/thumb/libg.a(lib_a-mbtowc_r.o)
                0x0202ff4c                __mbtowc
 .data          0x0202ff50        0x0 /home/woo/ndsdev/devkitPro/devkitARM/bin/../lib/gcc/arm-eabi/4.6.2/../../../../arm-eabi/lib/thumb/libg.a(lib_a-memchr-stub.o)
 .data          0x0202ff50        0x0 /home/woo/ndsdev/devkitPro/devkitARM/bin/../lib/gcc/arm-eabi/4.6.2/../../../../arm-eabi/lib/thumb/libg.a(lib_a-memcmp.o)
 .data          0x0202ff50        0x0 /home/woo/ndsdev/devkitPro/devkitARM/bin/../lib/gcc/arm-eabi/4.6.2/../../../../arm-eabi/lib/thumb/libg.a(lib_a-memcpy-stub.o)
 .data          0x0202ff50        0x0 /home/woo/ndsdev/devkitPro/devkitARM/bin/../lib/gcc/arm-eabi/4.6.2/../../../../arm-eabi/lib/thumb/libg.a(lib_a-memmove.o)
 .data          0x0202ff50        0x0 /home/woo/ndsdev/devkitPro/devkitARM/bin/../lib/gcc/arm-eabi/4.6.2/../../../../arm-eabi/lib/thumb/libg.a(lib_a-memset.o)
 .data          0x0202ff50        0x0 /home/woo/ndsdev/devkitPro/devkitARM/bin/../lib/gcc/arm-eabi/4.6.2/../../../../arm-eabi/lib/thumb/libg.a(lib_a-mktime.o)
 .data          0x0202ff50        0x0 /home/woo/ndsdev/devkitPro/devkitARM/bin/../lib/gcc/arm-eabi/4.6.2/../../../../arm-eabi/lib/thumb/libg.a(lib_a-mktm_r.o)
 .data          0x0202ff50        0x0 /home/woo/ndsdev/devkitPro/devkitARM/bin/../lib/gcc/arm-eabi/4.6.2/../../../../arm-eabi/lib/thumb/libg.a(lib_a-mlock.o)
 .data          0x0202ff50        0x0 /home/woo/ndsdev/devkitPro/devkitARM/bin/../lib/gcc/arm-eabi/4.6.2/../../../../arm-eabi/lib/thumb/libg.a(lib_a-printf.o)
 .data          0x0202ff50        0x0 /home/woo/ndsdev/devkitPro/devkitARM/bin/../lib/gcc/arm-eabi/4.6.2/../../../../arm-eabi/lib/thumb/libg.a(lib_a-refill.o)
 .data          0x0202ff50        0x0 /home/woo/ndsdev/devkitPro/devkitARM/bin/../lib/gcc/arm-eabi/4.6.2/../../../../arm-eabi/lib/thumb/libg.a(lib_a-setvbuf.o)
 .data          0x0202ff50        0x0 /home/woo/ndsdev/devkitPro/devkitARM/bin/../lib/gcc/arm-eabi/4.6.2/../../../../arm-eabi/lib/thumb/libg.a(lib_a-siscanf.o)
 .data          0x0202ff50        0x0 /home/woo/ndsdev/devkitPro/devkitARM/bin/../lib/gcc/arm-eabi/4.6.2/../../../../arm-eabi/lib/thumb/libg.a(lib_a-sprintf.o)
 .data          0x0202ff50        0x0 /home/woo/ndsdev/devkitPro/devkitARM/bin/../lib/gcc/arm-eabi/4.6.2/../../../../arm-eabi/lib/thumb/libg.a(lib_a-sscanf.o)
 .data          0x0202ff50        0x0 /home/woo/ndsdev/devkitPro/devkitARM/bin/../lib/gcc/arm-eabi/4.6.2/../../../../arm-eabi/lib/thumb/libg.a(lib_a-stdio.o)
 .data          0x0202ff50        0x0 /home/woo/ndsdev/devkitPro/devkitARM/bin/../lib/gcc/arm-eabi/4.6.2/../../../../arm-eabi/lib/thumb/libg.a(lib_a-strcasecmp.o)
 .data          0x0202ff50        0x0 /home/woo/ndsdev/devkitPro/devkitARM/bin/../lib/gcc/arm-eabi/4.6.2/../../../../arm-eabi/lib/thumb/libg.a(lib_a-strcat.o)
 .data          0x0202ff50        0x0 /home/woo/ndsdev/devkitPro/devkitARM/bin/../lib/gcc/arm-eabi/4.6.2/../../../../arm-eabi/lib/thumb/libg.a(lib_a-strchr.o)
 .data          0x0202ff50        0x0 /home/woo/ndsdev/devkitPro/devkitARM/bin/../lib/gcc/arm-eabi/4.6.2/../../../../arm-eabi/lib/thumb/libg.a(lib_a-strcmp.o)
 .data          0x0202ff50        0x0 /home/woo/ndsdev/devkitPro/devkitARM/bin/../lib/gcc/arm-eabi/4.6.2/../../../../arm-eabi/lib/thumb/libg.a(lib_a-strcpy.o)
 .data          0x0202ff50        0x0 /home/woo/ndsdev/devkitPro/devkitARM/bin/../lib/gcc/arm-eabi/4.6.2/../../../../arm-eabi/lib/thumb/libg.a(lib_a-strlcpy.o)
 .data          0x0202ff50        0x0 /home/woo/ndsdev/devkitPro/devkitARM/bin/../lib/gcc/arm-eabi/4.6.2/../../../../arm-eabi/lib/thumb/libg.a(lib_a-strlen.o)
 .data          0x0202ff50        0x0 /home/woo/ndsdev/devkitPro/devkitARM/bin/../lib/gcc/arm-eabi/4.6.2/../../../../arm-eabi/lib/thumb/libg.a(lib_a-strncasecmp.o)
 .data          0x0202ff50        0x0 /home/woo/ndsdev/devkitPro/devkitARM/bin/../lib/gcc/arm-eabi/4.6.2/../../../../arm-eabi/lib/thumb/libg.a(lib_a-strncmp.o)
 .data          0x0202ff50        0x0 /home/woo/ndsdev/devkitPro/devkitARM/bin/../lib/gcc/arm-eabi/4.6.2/../../../../arm-eabi/lib/thumb/libg.a(lib_a-strncpy.o)
 .data          0x0202ff50        0x0 /home/woo/ndsdev/devkitPro/devkitARM/bin/../lib/gcc/arm-eabi/4.6.2/../../../../arm-eabi/lib/thumb/libg.a(lib_a-strnlen.o)
 .data          0x0202ff50        0x0 /home/woo/ndsdev/devkitPro/devkitARM/bin/../lib/gcc/arm-eabi/4.6.2/../../../../arm-eabi/lib/thumb/libg.a(lib_a-strpbrk.o)
 .data          0x0202ff50        0x0 /home/woo/ndsdev/devkitPro/devkitARM/bin/../lib/gcc/arm-eabi/4.6.2/../../../../arm-eabi/lib/thumb/libg.a(lib_a-strrchr.o)
 .data          0x0202ff50        0x0 /home/woo/ndsdev/devkitPro/devkitARM/bin/../lib/gcc/arm-eabi/4.6.2/../../../../arm-eabi/lib/thumb/libg.a(lib_a-strtol.o)
 .data          0x0202ff50        0x0 /home/woo/ndsdev/devkitPro/devkitARM/bin/../lib/gcc/arm-eabi/4.6.2/../../../../arm-eabi/lib/thumb/libg.a(lib_a-svfiscanf.o)
 .data          0x0202ff50        0x0 /home/woo/ndsdev/devkitPro/devkitARM/bin/../lib/gcc/arm-eabi/4.6.2/../../../../arm-eabi/lib/thumb/libg.a(lib_a-svfprintf.o)
 .data          0x0202ff50        0x0 /home/woo/ndsdev/devkitPro/devkitARM/bin/../lib/gcc/arm-eabi/4.6.2/../../../../arm-eabi/lib/thumb/libg.a(lib_a-svfscanf.o)
 .data          0x0202ff50        0x0 /home/woo/ndsdev/devkitPro/devkitARM/bin/../lib/gcc/arm-eabi/4.6.2/../../../../arm-eabi/lib/thumb/libg.a(lib_a-sysclose.o)
 .data          0x0202ff50        0x0 /home/woo/ndsdev/devkitPro/devkitARM/bin/../lib/gcc/arm-eabi/4.6.2/../../../../arm-eabi/lib/thumb/libg.a(lib_a-syslseek.o)
 .data          0x0202ff50        0x0 /home/woo/ndsdev/devkitPro/devkitARM/bin/../lib/gcc/arm-eabi/4.6.2/../../../../arm-eabi/lib/thumb/libg.a(lib_a-sysopen.o)
 .data          0x0202ff50        0x0 /home/woo/ndsdev/devkitPro/devkitARM/bin/../lib/gcc/arm-eabi/4.6.2/../../../../arm-eabi/lib/thumb/libg.a(lib_a-sysread.o)
 .data          0x0202ff50        0x0 /home/woo/ndsdev/devkitPro/devkitARM/bin/../lib/gcc/arm-eabi/4.6.2/../../../../arm-eabi/lib/thumb/libg.a(lib_a-time.o)
 .data          0x0202ff50        0x0 /home/woo/ndsdev/devkitPro/devkitARM/bin/../lib/gcc/arm-eabi/4.6.2/../../../../arm-eabi/lib/thumb/libg.a(lib_a-towlower.o)
 .data          0x0202ff50        0x0 /home/woo/ndsdev/devkitPro/devkitARM/bin/../lib/gcc/arm-eabi/4.6.2/../../../../arm-eabi/lib/thumb/libg.a(lib_a-towupper.o)
 .data          0x0202ff50        0x0 /home/woo/ndsdev/devkitPro/devkitARM/bin/../lib/gcc/arm-eabi/4.6.2/../../../../arm-eabi/lib/thumb/libg.a(lib_a-tzlock.o)
 .data          0x0202ff50        0x8 /home/woo/ndsdev/devkitPro/devkitARM/bin/../lib/gcc/arm-eabi/4.6.2/../../../../arm-eabi/lib/thumb/libg.a(lib_a-tzvars.o)
                0x0202ff50                _tzname
 .data          0x0202ff58        0x0 /home/woo/ndsdev/devkitPro/devkitARM/bin/../lib/gcc/arm-eabi/4.6.2/../../../../arm-eabi/lib/thumb/libg.a(lib_a-ungetc.o)
 .data          0x0202ff58        0x0 /home/woo/ndsdev/devkitPro/devkitARM/bin/../lib/gcc/arm-eabi/4.6.2/../../../../arm-eabi/lib/thumb/libg.a(lib_a-vfiprintf.o)
 .data          0x0202ff58        0x0 /home/woo/ndsdev/devkitPro/devkitARM/bin/../lib/gcc/arm-eabi/4.6.2/../../../../arm-eabi/lib/thumb/libg.a(lib_a-vfprintf.o)
 .data          0x0202ff58        0x0 /home/woo/ndsdev/devkitPro/devkitARM/bin/../lib/gcc/arm-eabi/4.6.2/../../../../arm-eabi/lib/thumb/libg.a(lib_a-wcrtomb.o)
 .data          0x0202ff58        0x0 /home/woo/ndsdev/devkitPro/devkitARM/bin/../lib/gcc/arm-eabi/4.6.2/../../../../arm-eabi/lib/thumb/libg.a(lib_a-wcsrtombs.o)
 .data          0x0202ff58        0x0 /home/woo/ndsdev/devkitPro/devkitARM/bin/../lib/gcc/arm-eabi/4.6.2/../../../../arm-eabi/lib/thumb/libg.a(lib_a-wctob.o)
 .data          0x0202ff58        0x4 /home/woo/ndsdev/devkitPro/devkitARM/bin/../lib/gcc/arm-eabi/4.6.2/../../../../arm-eabi/lib/thumb/libg.a(lib_a-wctomb_r.o)
                0x0202ff58                __wctomb
 .data          0x0202ff5c        0x0 /home/woo/ndsdev/devkitPro/devkitARM/bin/../lib/gcc/arm-eabi/4.6.2/../../../../arm-eabi/lib/thumb/libg.a(lib_a-wsetup.o)
 .data          0x0202ff5c        0x0 /home/woo/ndsdev/devkitPro/devkitARM/bin/../lib/gcc/arm-eabi/4.6.2/../../../../arm-eabi/lib/thumb/libg.a(lib_a-div.o)
 .data          0x0202ff5c        0x0 /home/woo/ndsdev/devkitPro/devkitARM/bin/../lib/gcc/arm-eabi/4.6.2/../../../../arm-eabi/lib/thumb/libg.a(lib_a-dtoa.o)
 .data          0x0202ff5c        0x0 /home/woo/ndsdev/devkitPro/devkitARM/bin/../lib/gcc/arm-eabi/4.6.2/../../../../arm-eabi/lib/thumb/libg.a(lib_a-flags.o)
 .data          0x0202ff5c        0x0 /home/woo/ndsdev/devkitPro/devkitARM/bin/../lib/gcc/arm-eabi/4.6.2/../../../../arm-eabi/lib/thumb/libg.a(lib_a-fputwc.o)
 .data          0x0202ff5c        0x0 /home/woo/ndsdev/devkitPro/devkitARM/bin/../lib/gcc/arm-eabi/4.6.2/../../../../arm-eabi/lib/thumb/libg.a(lib_a-fvwrite.o)
 .data          0x0202ff5c        0x0 /home/woo/ndsdev/devkitPro/devkitARM/bin/../lib/gcc/arm-eabi/4.6.2/../../../../arm-eabi/lib/thumb/libg.a(lib_a-getenv_r.o)
 .data          0x0202ff5c       0x40 /home/woo/ndsdev/devkitPro/devkitARM/bin/../lib/gcc/arm-eabi/4.6.2/../../../../arm-eabi/lib/thumb/libg.a(lib_a-gettzinfo.o)
 .data          0x0202ff9c        0x0 /home/woo/ndsdev/devkitPro/devkitARM/bin/../lib/gcc/arm-eabi/4.6.2/../../../../arm-eabi/lib/thumb/libg.a(lib_a-iswspace.o)
 .data          0x0202ff9c        0x0 /home/woo/ndsdev/devkitPro/devkitARM/bin/../lib/gcc/arm-eabi/4.6.2/../../../../arm-eabi/lib/thumb/libg.a(lib_a-jp2uc.o)
 .data          0x0202ff9c        0x0 /home/woo/ndsdev/devkitPro/devkitARM/bin/../lib/gcc/arm-eabi/4.6.2/../../../../arm-eabi/lib/thumb/libg.a(lib_a-mbsnrtowcs.o)
 .data          0x0202ff9c        0x0 /home/woo/ndsdev/devkitPro/devkitARM/bin/../lib/gcc/arm-eabi/4.6.2/../../../../arm-eabi/lib/thumb/libg.a(lib_a-mprec.o)
 .data          0x0202ff9c        0x0 /home/woo/ndsdev/devkitPro/devkitARM/bin/../lib/gcc/arm-eabi/4.6.2/../../../../arm-eabi/lib/thumb/libg.a(lib_a-reallocr.o)
 .data          0x0202ff9c        0x0 /home/woo/ndsdev/devkitPro/devkitARM/bin/../lib/gcc/arm-eabi/4.6.2/../../../../arm-eabi/lib/thumb/libg.a(lib_a-sccl.o)
 .data          0x0202ff9c        0x0 /home/woo/ndsdev/devkitPro/devkitARM/bin/../lib/gcc/arm-eabi/4.6.2/../../../../arm-eabi/lib/thumb/libg.a(lib_a-sf_nan.o)
 .data          0x0202ff9c        0x0 /home/woo/ndsdev/devkitPro/devkitARM/bin/../lib/gcc/arm-eabi/4.6.2/../../../../arm-eabi/lib/thumb/libg.a(lib_a-s_fpclassify.o)
 .data          0x0202ff9c       0x28 /home/woo/ndsdev/devkitPro/devkitARM/bin/../lib/gcc/arm-eabi/4.6.2/../../../../arm-eabi/lib/thumb/libg.a(lib_a-strtod.o)
 .data          0x0202ffc4        0x0 /home/woo/ndsdev/devkitPro/devkitARM/bin/../lib/gcc/arm-eabi/4.6.2/../../../../arm-eabi/lib/thumb/libg.a(lib_a-strtoll_r.o)
 .data          0x0202ffc4        0x0 /home/woo/ndsdev/devkitPro/devkitARM/bin/../lib/gcc/arm-eabi/4.6.2/../../../../arm-eabi/lib/thumb/libg.a(lib_a-strtoull_r.o)
 .data          0x0202ffc4        0x0 /home/woo/ndsdev/devkitPro/devkitARM/bin/../lib/gcc/arm-eabi/4.6.2/../../../../arm-eabi/lib/thumb/libg.a(lib_a-strtoul.o)
 .data          0x0202ffc4        0x0 /home/woo/ndsdev/devkitPro/devkitARM/bin/../lib/gcc/arm-eabi/4.6.2/../../../../arm-eabi/lib/thumb/libg.a(lib_a-svfiprintf.o)
 .data          0x0202ffc4        0x0 /home/woo/ndsdev/devkitPro/devkitARM/bin/../lib/gcc/arm-eabi/4.6.2/../../../../arm-eabi/lib/thumb/libg.a(lib_a-wbuf.o)
 .data          0x0202ffc4        0x0 /home/woo/ndsdev/devkitPro/devkitARM/bin/../lib/gcc/arm-eabi/4.6.2/../../../../arm-eabi/lib/thumb/libg.a(lib_a-wcsnrtombs.o)
 .data          0x0202ffc4        0x0 /home/woo/ndsdev/devkitPro/devkitARM/bin/../lib/gcc/arm-eabi/4.6.2/../../../../arm-eabi/lib/thumb/libg.a(lib_a-callocr.o)
 .data          0x0202ffc4        0x4 /home/woo/ndsdev/devkitPro/devkitARM/bin/../lib/gcc/arm-eabi/4.6.2/../../../../arm-eabi/lib/thumb/libg.a(lib_a-environ.o)
                0x0202ffc4                environ
 .data          0x0202ffc8        0x0 /home/woo/ndsdev/devkitPro/devkitARM/bin/../lib/gcc/arm-eabi/4.6.2/../../../../arm-eabi/lib/thumb/libg.a(lib_a-envlock.o)
 .data          0x0202ffc8        0x0 /home/woo/ndsdev/devkitPro/devkitARM/bin/../lib/gcc/arm-eabi/4.6.2/../../../../arm-eabi/lib/thumb/libg.a(lib_a-gdtoa-gethex.o)
 .data          0x0202ffc8        0x0 /home/woo/ndsdev/devkitPro/devkitARM/bin/../lib/gcc/arm-eabi/4.6.2/../../../../arm-eabi/lib/thumb/libg.a(lib_a-gdtoa-hexnan.o)
 .data          0x0202ffc8       0x44 /home/woo/ndsdev/devkitPro/devkitARM/bin/../lib/gcc/arm-eabi/4.6.2/../../../../arm-eabi/lib/thumb/libsysbase.a(iosupport.o)
                0x0202ffcc                devoptab_list
 .data          0x0203000c        0x0 /home/woo/ndsdev/devkitPro/devkitARM/bin/../lib/gcc/arm-eabi/4.6.2/../../../../arm-eabi/lib/thumb/libsysbase.a(close.o)
 .data          0x0203000c        0x0 /home/woo/ndsdev/devkitPro/devkitARM/bin/../lib/gcc/arm-eabi/4.6.2/../../../../arm-eabi/lib/thumb/libsysbase.a(fstat.o)
 .data          0x0203000c        0x0 /home/woo/ndsdev/devkitPro/devkitARM/bin/../lib/gcc/arm-eabi/4.6.2/../../../../arm-eabi/lib/thumb/libsysbase.a(isatty.o)
 .data          0x0203000c        0x0 /home/woo/ndsdev/devkitPro/devkitARM/bin/../lib/gcc/arm-eabi/4.6.2/../../../../arm-eabi/lib/thumb/libsysbase.a(lseek.o)
 .data          0x0203000c        0x0 /home/woo/ndsdev/devkitPro/devkitARM/bin/../lib/gcc/arm-eabi/4.6.2/../../../../arm-eabi/lib/thumb/libsysbase.a(open.o)
 .data          0x0203000c        0x0 /home/woo/ndsdev/devkitPro/devkitARM/bin/../lib/gcc/arm-eabi/4.6.2/../../../../arm-eabi/lib/thumb/libsysbase.a(read.o)
 .data          0x0203000c        0x0 /home/woo/ndsdev/devkitPro/devkitARM/bin/../lib/gcc/arm-eabi/4.6.2/../../../../arm-eabi/lib/thumb/libsysbase.a(sbrk.o)
 .data          0x0203000c        0x0 /home/woo/ndsdev/devkitPro/devkitARM/bin/../lib/gcc/arm-eabi/4.6.2/../../../../arm-eabi/lib/thumb/libsysbase.a(times.o)
 .data          0x0203000c        0x0 /home/woo/ndsdev/devkitPro/devkitARM/bin/../lib/gcc/arm-eabi/4.6.2/../../../../arm-eabi/lib/thumb/libsysbase.a(write.o)
 .data          0x0203000c        0x0 /home/woo/ndsdev/devkitPro/devkitARM/bin/../lib/gcc/arm-eabi/4.6.2/../../../../arm-eabi/lib/thumb/libsysbase.a(malloc_vars.o)
 .data          0x0203000c      0x400 /home/woo/ndsdev/devkitPro/devkitARM/bin/../lib/gcc/arm-eabi/4.6.2/../../../../arm-eabi/lib/thumb/libsysbase.a(chdir.o)
 .data          0x0203040c        0x0 /home/woo/ndsdev/devkitPro/devkitARM/bin/../lib/gcc/arm-eabi/4.6.2/../../../../arm-eabi/lib/thumb/libsysbase.a(build_argv.o)
 .data          0x0203040c        0x0 /home/woo/ndsdev/devkitPro/devkitARM/bin/../lib/gcc/arm-eabi/4.6.2/../../../../arm-eabi/lib/thumb/libsysbase.a(syscall_support.o)
 .data          0x0203040c        0x0 /home/woo/ndsdev/devkitPro/devkitARM/bin/../lib/gcc/arm-eabi/4.6.2/../../../../arm-eabi/lib/thumb/libsysbase.a(handle_manager.o)
 .data          0x0203040c        0x0 /home/woo/ndsdev/devkitPro/devkitARM/bin/../lib/gcc/arm-eabi/4.6.2/thumb/libgcc.a(_arm_addsubdf3.o)
 .data          0x0203040c        0x0 /home/woo/ndsdev/devkitPro/devkitARM/bin/../lib/gcc/arm-eabi/4.6.2/thumb/libgcc.a(_arm_muldivdf3.o)
 .data          0x0203040c        0x0 /home/woo/ndsdev/devkitPro/devkitARM/bin/../lib/gcc/arm-eabi/4.6.2/thumb/libgcc.a(_arm_cmpdf2.o)
 .data          0x0203040c        0x0 /home/woo/ndsdev/devkitPro/devkitARM/bin/../lib/gcc/arm-eabi/4.6.2/thumb/libgcc.a(_arm_fixdfsi.o)
 .data          0x0203040c        0x0 /home/woo/ndsdev/devkitPro/devkitARM/bin/../lib/gcc/arm-eabi/4.6.2/thumb/libgcc.a(_arm_fixunsdfsi.o)
 .data          0x0203040c        0x0 /home/woo/ndsdev/devkitPro/devkitARM/bin/../lib/gcc/arm-eabi/4.6.2/thumb/libgcc.a(_arm_truncdfsf2.o)
 .data          0x0203040c        0x0 /home/woo/ndsdev/devkitPro/devkitARM/bin/../lib/gcc/arm-eabi/4.6.2/thumb/libgcc.a(_aeabi_uldivmod.o)
 .data          0x0203040c        0x0 /home/woo/ndsdev/devkitPro/devkitARM/bin/../lib/gcc/arm-eabi/4.6.2/thumb/libgcc.a(bpabi.o)
 .data          0x0203040c        0x0 /home/woo/ndsdev/devkitPro/devkitARM/bin/../lib/gcc/arm-eabi/4.6.2/thumb/libgcc.a(_divdi3.o)
 .data          0x0203040c        0x0 /home/woo/ndsdev/devkitPro/devkitARM/bin/../lib/gcc/arm-eabi/4.6.2/thumb/libgcc.a(_udivdi3.o)
 .data          0x0203040c        0x0 /home/woo/ndsdev/devkitPro/devkitARM/bin/../lib/gcc/arm-eabi/4.6.2/thumb/libgcc.a(_clzsi2.o)
 .data          0x0203040c        0x0 /home/woo/ndsdev/devkitPro/devkitARM/bin/../lib/gcc/arm-eabi/4.6.2/thumb/crtend.o
 .data          0x0203040c        0x0 /home/woo/ndsdev/devkitPro/devkitARM/bin/../lib/gcc/arm-eabi/4.6.2/thumb/crtn.o
 *(.data.*)
 *(.gnu.linkonce.d*)
                0x0203040c                . = ALIGN (0x4)
                0x0203040c                __data_end = ABSOLUTE (.)
                0x0203040c                __dtcm_lma = .
                0x0203040c                __bss_vma = .

.dtcm           0x0b000000        0x0 load address 0x0203040c
 *(.dtcm)
 *(.dtcm.*)
                0x0b000000                . = ALIGN (0x4)
                0x0b000000                __dtcm_end = ABSOLUTE (.)
                0x0203040c                __itcm_lma = (__dtcm_lma + SIZEOF (.dtcm))

.itcm           0x01000100      0x194 load address 0x0203040c
 *(.itcm)
 .itcm          0x01000100       0xc8 /home/woo/ndsdev/devkitPro/libnds/lib/libnds9.a(interrupts.o)
                0x01000100                irqTable
 .itcm          0x010001c8       0xcc /home/woo/ndsdev/devkitPro/libnds/lib/libnds9.a(interruptDispatcher.o)
                0x010001c8                IntrMain
 *itcm.*(.text)
                0x01000294                . = ALIGN (0x4)
                0x01000294                __itcm_end = ABSOLUTE (.)
                0x020305a0                __vectors_lma = (__itcm_lma + SIZEOF (.itcm))

.vectors        0x01000000        0x0 load address 0x020305a0
 *(.vectors)
 *vectors.*(.text)
                0x01000000                . = ALIGN (0x4)
                0x01000000                __vectors_end = ABSOLUTE (.)

.sbss           0x0b000000        0x0
                0x0b000000                __sbss_start = ABSOLUTE (.)
                0x0b000000                __sbss_start__ = ABSOLUTE (.)
 *(.sbss)
                0x0b000000                . = ALIGN (0x4)
                0x0b000000                __sbss_end = ABSOLUTE (.)

.bss            0x0203040c   0x212b5c
                0x0203040c                __bss_start = ABSOLUTE (.)
                0x0203040c                __bss_start__ = ABSOLUTE (.)
 *(.dynbss)
 *(.gnu.linkonce.b*)
 *(.bss*)
 .bss           0x0203040c        0x0 /home/woo/ndsdev/devkitPro/devkitARM/bin/../lib/gcc/arm-eabi/4.6.2/../../../../arm-eabi/lib/thumb/ds_arm9_crt0.o
 .bss           0x0203040c        0x0 /home/woo/ndsdev/devkitPro/devkitARM/bin/../lib/gcc/arm-eabi/4.6.2/thumb/crti.o
 .bss           0x0203040c       0x1c /home/woo/ndsdev/devkitPro/devkitARM/bin/../lib/gcc/arm-eabi/4.6.2/thumb/crtbegin.o
 .bss           0x02030428        0x4 download.o
 .bss           0x0203042c        0x0 main.o
 .bss           0x0203042c       0x18 wifi.o
 *fill*         0x02030444        0xc 00
 .bss           0x02030450        0x0 jump.o
 .bss           0x02030450        0x0 /home/woo/ndsdev/devkitPro/libnds/lib/libdswifi9.a(sgIP_DNS.o)
 .bss           0x02030450        0x0 /home/woo/ndsdev/devkitPro/libnds/lib/libdswifi9.a(sgIP_Hub.o)
 .bss           0x02030450        0x0 /home/woo/ndsdev/devkitPro/libnds/lib/libdswifi9.a(sgIP_memblock.o)
 .bss           0x02030450        0x0 /home/woo/ndsdev/devkitPro/libnds/lib/libdswifi9.a(sgIP_sockets.o)
 .bss           0x02030450       0x10 /home/woo/ndsdev/devkitPro/libnds/lib/libdswifi9.a(wifi_arm9.o)
                0x02030450                WifiData
                0x02030454                synchandler
                0x02030458                packethandler
                0x0203045c                wifi_connect_state
 .bss           0x02030460        0x0 /home/woo/ndsdev/devkitPro/libnds/lib/libdswifi9.a(spinlock.o)
 .bss           0x02030460        0x0 /home/woo/ndsdev/devkitPro/libnds/lib/libdswifi9.a(sgIP.o)
 .bss           0x02030460        0x0 /home/woo/ndsdev/devkitPro/libnds/lib/libdswifi9.a(sgIP_ARP.o)
 .bss           0x02030460        0x0 /home/woo/ndsdev/devkitPro/libnds/lib/libdswifi9.a(sgIP_DHCP.o)
 .bss           0x02030460        0x0 /home/woo/ndsdev/devkitPro/libnds/lib/libdswifi9.a(sgIP_IP.o)
 .bss           0x02030460        0x0 /home/woo/ndsdev/devkitPro/libnds/lib/libdswifi9.a(sgIP_TCP.o)
 .bss           0x02030460        0x0 /home/woo/ndsdev/devkitPro/libnds/lib/libdswifi9.a(sgIP_UDP.o)
 .bss           0x02030460        0x0 /home/woo/ndsdev/devkitPro/libnds/lib/libdswifi9.a(sgIP_ICMP.o)
 .bss           0x02030460        0x0 /home/woo/ndsdev/devkitPro/libnds/lib/libfat.a(libfat.o)
 .bss           0x02030460        0x0 /home/woo/ndsdev/devkitPro/libnds/lib/libfat.a(partition.o)
 .bss           0x02030460        0x4 /home/woo/ndsdev/devkitPro/libnds/lib/libfat.a(cache.o)
 .bss           0x02030464        0x0 /home/woo/ndsdev/devkitPro/libnds/lib/libfat.a(directory.o)
 .bss           0x02030464        0x0 /home/woo/ndsdev/devkitPro/libnds/lib/libfat.a(disc.o)
 .bss           0x02030464        0x0 /home/woo/ndsdev/devkitPro/libnds/lib/libfat.a(fatdir.o)
 .bss           0x02030464        0x0 /home/woo/ndsdev/devkitPro/libnds/lib/libfat.a(fatfile.o)
 .bss           0x02030464        0x0 /home/woo/ndsdev/devkitPro/libnds/lib/libfat.a(file_allocation_table.o)
 .bss           0x02030464        0x0 /home/woo/ndsdev/devkitPro/libnds/lib/libfat.a(filetime.o)
 .bss           0x02030464        0x0 /home/woo/ndsdev/devkitPro/libnds/lib/libfat.a(lock.o)
 .bss           0x02030464        0x0 /home/woo/ndsdev/devkitPro/libnds/lib/libnds9.a(console.o)
 .bss           0x02030464        0x6 /home/woo/ndsdev/devkitPro/libnds/lib/libnds9.a(keys.o)
 .bss           0x0203046a        0x0 /home/woo/ndsdev/devkitPro/libnds/lib/libnds9.a(dldi.o)
 .bss           0x0203046a        0x0 /home/woo/ndsdev/devkitPro/libnds/lib/libnds9.a(dsi_sd.o)
 .bss           0x0203046a        0x0 /home/woo/ndsdev/devkitPro/libnds/lib/libnds9.a(initSystem.o)
 *fill*         0x0203046a        0x2 00
 .bss           0x0203046c        0x8 /home/woo/ndsdev/devkitPro/libnds/lib/libnds9.a(fifosystem.o)
                0x02030470                processing
 .bss           0x02030474        0x0 /home/woo/ndsdev/devkitPro/libnds/lib/libnds9.a(interrupts.o)
 .bss           0x02030474        0x0 /home/woo/ndsdev/devkitPro/libnds/lib/libnds9.a(libnds_exit.o)
 .bss           0x02030474        0x0 /home/woo/ndsdev/devkitPro/libnds/lib/libnds9.a(dcache.o)
 .bss           0x02030474        0x0 /home/woo/ndsdev/devkitPro/libnds/lib/libnds9.a(dldi_stub.o)
 .bss           0x02030474        0x0 /home/woo/ndsdev/devkitPro/libnds/lib/libnds9.a(mpu_setup.o)
 .bss           0x02030474        0x0 /home/woo/ndsdev/devkitPro/libnds/lib/libnds9.a(biosCalls.o)
 .bss           0x02030474        0x0 /home/woo/ndsdev/devkitPro/libnds/lib/libnds9.a(debugprint.o)
 .bss           0x02030474        0x0 /home/woo/ndsdev/devkitPro/libnds/lib/libnds9.a(interruptDispatcher.o)
 .bss           0x02030474        0x0 /home/woo/ndsdev/devkitPro/libnds/lib/libnds9.a(swiSoftReset.o)
 .bss           0x02030474        0x0 /home/woo/ndsdev/devkitPro/libnds/lib/libnds9.a(default_font.bin.o)
 .bss           0x02030474        0x0 /home/woo/ndsdev/devkitPro/libnds/lib/libnds9.a(background.o)
 .bss           0x02030474        0x0 /home/woo/ndsdev/devkitPro/libnds/lib/libnds9.a(system.o)
 .bss           0x02030474        0x0 /home/woo/ndsdev/devkitPro/libnds/lib/libnds9.a(trig.o)
 .bss           0x02030474        0x0 /home/woo/ndsdev/devkitPro/libnds/lib/libnds9.a(video.o)
 .bss           0x02030474        0x0 /home/woo/ndsdev/devkitPro/devkitARM/bin/../lib/gcc/arm-eabi/4.6.2/thumb/libgcc.a(_udivsi3.o)
 .bss           0x02030474        0x0 /home/woo/ndsdev/devkitPro/devkitARM/bin/../lib/gcc/arm-eabi/4.6.2/thumb/libgcc.a(_divsi3.o)
 .bss           0x02030474        0x0 /home/woo/ndsdev/devkitPro/devkitARM/bin/../lib/gcc/arm-eabi/4.6.2/thumb/libgcc.a(_dvmd_tls.o)
 .bss           0x02030474        0x0 /home/woo/ndsdev/devkitPro/devkitARM/bin/../lib/gcc/arm-eabi/4.6.2/thumb/libgcc.a(_muldi3.o)
 .bss           0x02030474        0x0 /home/woo/ndsdev/devkitPro/devkitARM/bin/../lib/gcc/arm-eabi/4.6.2/../../../../arm-eabi/lib/thumb/libg.a(lib_a-atoi.o)
 .bss           0x02030474        0x0 /home/woo/ndsdev/devkitPro/devkitARM/bin/../lib/gcc/arm-eabi/4.6.2/../../../../arm-eabi/lib/thumb/libg.a(lib_a-bsearch.o)
 .bss           0x02030474        0x0 /home/woo/ndsdev/devkitPro/devkitARM/bin/../lib/gcc/arm-eabi/4.6.2/../../../../arm-eabi/lib/thumb/libg.a(lib_a-ctype_.o)
 .bss           0x02030474        0x0 /home/woo/ndsdev/devkitPro/devkitARM/bin/../lib/gcc/arm-eabi/4.6.2/../../../../arm-eabi/lib/thumb/libg.a(lib_a-errno.o)
 .bss           0x02030474        0x0 /home/woo/ndsdev/devkitPro/devkitARM/bin/../lib/gcc/arm-eabi/4.6.2/../../../../arm-eabi/lib/thumb/libg.a(lib_a-fclose.o)
 .bss           0x02030474        0x0 /home/woo/ndsdev/devkitPro/devkitARM/bin/../lib/gcc/arm-eabi/4.6.2/../../../../arm-eabi/lib/thumb/libg.a(lib_a-fflush.o)
 .bss           0x02030474        0x0 /home/woo/ndsdev/devkitPro/devkitARM/bin/../lib/gcc/arm-eabi/4.6.2/../../../../arm-eabi/lib/thumb/libg.a(lib_a-fgets.o)
 .bss           0x02030474        0x0 /home/woo/ndsdev/devkitPro/devkitARM/bin/../lib/gcc/arm-eabi/4.6.2/../../../../arm-eabi/lib/thumb/libg.a(lib_a-findfp.o)
 .bss           0x02030474        0x0 /home/woo/ndsdev/devkitPro/devkitARM/bin/../lib/gcc/arm-eabi/4.6.2/../../../../arm-eabi/lib/thumb/libg.a(lib_a-fopen.o)
 .bss           0x02030474        0x0 /home/woo/ndsdev/devkitPro/devkitARM/bin/../lib/gcc/arm-eabi/4.6.2/../../../../arm-eabi/lib/thumb/libg.a(lib_a-freer.o)
 .bss           0x02030474        0x0 /home/woo/ndsdev/devkitPro/devkitARM/bin/../lib/gcc/arm-eabi/4.6.2/../../../../arm-eabi/lib/thumb/libg.a(lib_a-fseek.o)
 .bss           0x02030474        0x0 /home/woo/ndsdev/devkitPro/devkitARM/bin/../lib/gcc/arm-eabi/4.6.2/../../../../arm-eabi/lib/thumb/libg.a(lib_a-fwalk.o)
 .bss           0x02030474        0x0 /home/woo/ndsdev/devkitPro/devkitARM/bin/../lib/gcc/arm-eabi/4.6.2/../../../../arm-eabi/lib/thumb/libg.a(lib_a-fwrite.o)
 .bss           0x02030474        0x0 /home/woo/ndsdev/devkitPro/devkitARM/bin/../lib/gcc/arm-eabi/4.6.2/../../../../arm-eabi/lib/thumb/libg.a(lib_a-impure.o)
 .bss           0x02030474        0x0 /home/woo/ndsdev/devkitPro/devkitARM/bin/../lib/gcc/arm-eabi/4.6.2/../../../../arm-eabi/lib/thumb/libg.a(lib_a-init.o)
 .bss           0x02030474        0x0 /home/woo/ndsdev/devkitPro/devkitARM/bin/../lib/gcc/arm-eabi/4.6.2/../../../../arm-eabi/lib/thumb/libg.a(lib_a-iprintf.o)
 .bss           0x02030474        0x0 /home/woo/ndsdev/devkitPro/devkitARM/bin/../lib/gcc/arm-eabi/4.6.2/../../../../arm-eabi/lib/thumb/libg.a(lib_a-lcltime_r.o)
 .bss           0x02030474      0x2b8 /home/woo/ndsdev/devkitPro/devkitARM/bin/../lib/gcc/arm-eabi/4.6.2/../../../../arm-eabi/lib/thumb/libg.a(lib_a-locale.o)
                0x02030720                _PathLocale
                0x02030724                __mlocale_changed
                0x02030728                __nlocale_changed
 .bss           0x0203072c        0x0 /home/woo/ndsdev/devkitPro/devkitARM/bin/../lib/gcc/arm-eabi/4.6.2/../../../../arm-eabi/lib/thumb/libg.a(lib_a-makebuf.o)
 .bss           0x0203072c        0x0 /home/woo/ndsdev/devkitPro/devkitARM/bin/../lib/gcc/arm-eabi/4.6.2/../../../../arm-eabi/lib/thumb/libg.a(lib_a-malloc.o)
 .bss           0x0203072c       0x34 /home/woo/ndsdev/devkitPro/devkitARM/bin/../lib/gcc/arm-eabi/4.6.2/../../../../arm-eabi/lib/thumb/libg.a(lib_a-mallocr.o)
                0x0203072c                __malloc_top_pad
                0x02030730                __malloc_current_mallinfo
                0x02030758                __malloc_max_sbrked_mem
                0x0203075c                __malloc_max_total_mem
 .bss           0x02030760        0x0 /home/woo/ndsdev/devkitPro/devkitARM/bin/../lib/gcc/arm-eabi/4.6.2/../../../../arm-eabi/lib/thumb/libg.a(lib_a-mbrtowc.o)
 .bss           0x02030760        0x0 /home/woo/ndsdev/devkitPro/devkitARM/bin/../lib/gcc/arm-eabi/4.6.2/../../../../arm-eabi/lib/thumb/libg.a(lib_a-mbsrtowcs.o)
 .bss           0x02030760        0x0 /home/woo/ndsdev/devkitPro/devkitARM/bin/../lib/gcc/arm-eabi/4.6.2/../../../../arm-eabi/lib/thumb/libg.a(lib_a-mbtowc_r.o)
 .bss           0x02030760        0x0 /home/woo/ndsdev/devkitPro/devkitARM/bin/../lib/gcc/arm-eabi/4.6.2/../../../../arm-eabi/lib/thumb/libg.a(lib_a-memchr-stub.o)
 .bss           0x02030760        0x0 /home/woo/ndsdev/devkitPro/devkitARM/bin/../lib/gcc/arm-eabi/4.6.2/../../../../arm-eabi/lib/thumb/libg.a(lib_a-memcmp.o)
 .bss           0x02030760        0x0 /home/woo/ndsdev/devkitPro/devkitARM/bin/../lib/gcc/arm-eabi/4.6.2/../../../../arm-eabi/lib/thumb/libg.a(lib_a-memcpy-stub.o)
 .bss           0x02030760        0x0 /home/woo/ndsdev/devkitPro/devkitARM/bin/../lib/gcc/arm-eabi/4.6.2/../../../../arm-eabi/lib/thumb/libg.a(lib_a-memmove.o)
 .bss           0x02030760        0x0 /home/woo/ndsdev/devkitPro/devkitARM/bin/../lib/gcc/arm-eabi/4.6.2/../../../../arm-eabi/lib/thumb/libg.a(lib_a-memset.o)
 .bss           0x02030760        0x0 /home/woo/ndsdev/devkitPro/devkitARM/bin/../lib/gcc/arm-eabi/4.6.2/../../../../arm-eabi/lib/thumb/libg.a(lib_a-mktime.o)
 .bss           0x02030760        0x0 /home/woo/ndsdev/devkitPro/devkitARM/bin/../lib/gcc/arm-eabi/4.6.2/../../../../arm-eabi/lib/thumb/libg.a(lib_a-mktm_r.o)
 .bss           0x02030760        0x0 /home/woo/ndsdev/devkitPro/devkitARM/bin/../lib/gcc/arm-eabi/4.6.2/../../../../arm-eabi/lib/thumb/libg.a(lib_a-mlock.o)
 .bss           0x02030760        0x0 /home/woo/ndsdev/devkitPro/devkitARM/bin/../lib/gcc/arm-eabi/4.6.2/../../../../arm-eabi/lib/thumb/libg.a(lib_a-printf.o)
 .bss           0x02030760        0x0 /home/woo/ndsdev/devkitPro/devkitARM/bin/../lib/gcc/arm-eabi/4.6.2/../../../../arm-eabi/lib/thumb/libg.a(lib_a-refill.o)
 .bss           0x02030760        0x0 /home/woo/ndsdev/devkitPro/devkitARM/bin/../lib/gcc/arm-eabi/4.6.2/../../../../arm-eabi/lib/thumb/libg.a(lib_a-setvbuf.o)
 .bss           0x02030760        0x0 /home/woo/ndsdev/devkitPro/devkitARM/bin/../lib/gcc/arm-eabi/4.6.2/../../../../arm-eabi/lib/thumb/libg.a(lib_a-siscanf.o)
 .bss           0x02030760        0x0 /home/woo/ndsdev/devkitPro/devkitARM/bin/../lib/gcc/arm-eabi/4.6.2/../../../../arm-eabi/lib/thumb/libg.a(lib_a-sprintf.o)
 .bss           0x02030760        0x0 /home/woo/ndsdev/devkitPro/devkitARM/bin/../lib/gcc/arm-eabi/4.6.2/../../../../arm-eabi/lib/thumb/libg.a(lib_a-sscanf.o)
 .bss           0x02030760        0x0 /home/woo/ndsdev/devkitPro/devkitARM/bin/../lib/gcc/arm-eabi/4.6.2/../../../../arm-eabi/lib/thumb/libg.a(lib_a-stdio.o)
 .bss           0x02030760        0x0 /home/woo/ndsdev/devkitPro/devkitARM/bin/../lib/gcc/arm-eabi/4.6.2/../../../../arm-eabi/lib/thumb/libg.a(lib_a-strcasecmp.o)
 .bss           0x02030760        0x0 /home/woo/ndsdev/devkitPro/devkitARM/bin/../lib/gcc/arm-eabi/4.6.2/../../../../arm-eabi/lib/thumb/libg.a(lib_a-strcat.o)
 .bss           0x02030760        0x0 /home/woo/ndsdev/devkitPro/devkitARM/bin/../lib/gcc/arm-eabi/4.6.2/../../../../arm-eabi/lib/thumb/libg.a(lib_a-strchr.o)
 .bss           0x02030760        0x0 /home/woo/ndsdev/devkitPro/devkitARM/bin/../lib/gcc/arm-eabi/4.6.2/../../../../arm-eabi/lib/thumb/libg.a(lib_a-strcmp.o)
 .bss           0x02030760        0x0 /home/woo/ndsdev/devkitPro/devkitARM/bin/../lib/gcc/arm-eabi/4.6.2/../../../../arm-eabi/lib/thumb/libg.a(lib_a-strcpy.o)
 .bss           0x02030760        0x0 /home/woo/ndsdev/devkitPro/devkitARM/bin/../lib/gcc/arm-eabi/4.6.2/../../../../arm-eabi/lib/thumb/libg.a(lib_a-strlcpy.o)
 .bss           0x02030760        0x0 /home/woo/ndsdev/devkitPro/devkitARM/bin/../lib/gcc/arm-eabi/4.6.2/../../../../arm-eabi/lib/thumb/libg.a(lib_a-strlen.o)
 .bss           0x02030760        0x0 /home/woo/ndsdev/devkitPro/devkitARM/bin/../lib/gcc/arm-eabi/4.6.2/../../../../arm-eabi/lib/thumb/libg.a(lib_a-strncasecmp.o)
 .bss           0x02030760        0x0 /home/woo/ndsdev/devkitPro/devkitARM/bin/../lib/gcc/arm-eabi/4.6.2/../../../../arm-eabi/lib/thumb/libg.a(lib_a-strncmp.o)
 .bss           0x02030760        0x0 /home/woo/ndsdev/devkitPro/devkitARM/bin/../lib/gcc/arm-eabi/4.6.2/../../../../arm-eabi/lib/thumb/libg.a(lib_a-strncpy.o)
 .bss           0x02030760        0x0 /home/woo/ndsdev/devkitPro/devkitARM/bin/../lib/gcc/arm-eabi/4.6.2/../../../../arm-eabi/lib/thumb/libg.a(lib_a-strnlen.o)
 .bss           0x02030760        0x0 /home/woo/ndsdev/devkitPro/devkitARM/bin/../lib/gcc/arm-eabi/4.6.2/../../../../arm-eabi/lib/thumb/libg.a(lib_a-strpbrk.o)
 .bss           0x02030760        0x0 /home/woo/ndsdev/devkitPro/devkitARM/bin/../lib/gcc/arm-eabi/4.6.2/../../../../arm-eabi/lib/thumb/libg.a(lib_a-strrchr.o)
 .bss           0x02030760        0x0 /home/woo/ndsdev/devkitPro/devkitARM/bin/../lib/gcc/arm-eabi/4.6.2/../../../../arm-eabi/lib/thumb/libg.a(lib_a-strtol.o)
 .bss           0x02030760        0x0 /home/woo/ndsdev/devkitPro/devkitARM/bin/../lib/gcc/arm-eabi/4.6.2/../../../../arm-eabi/lib/thumb/libg.a(lib_a-svfiscanf.o)
 .bss           0x02030760        0x0 /home/woo/ndsdev/devkitPro/devkitARM/bin/../lib/gcc/arm-eabi/4.6.2/../../../../arm-eabi/lib/thumb/libg.a(lib_a-svfprintf.o)
 .bss           0x02030760        0x0 /home/woo/ndsdev/devkitPro/devkitARM/bin/../lib/gcc/arm-eabi/4.6.2/../../../../arm-eabi/lib/thumb/libg.a(lib_a-svfscanf.o)
 .bss           0x02030760        0x0 /home/woo/ndsdev/devkitPro/devkitARM/bin/../lib/gcc/arm-eabi/4.6.2/../../../../arm-eabi/lib/thumb/libg.a(lib_a-sysclose.o)
 .bss           0x02030760        0x0 /home/woo/ndsdev/devkitPro/devkitARM/bin/../lib/gcc/arm-eabi/4.6.2/../../../../arm-eabi/lib/thumb/libg.a(lib_a-syslseek.o)
 .bss           0x02030760        0x0 /home/woo/ndsdev/devkitPro/devkitARM/bin/../lib/gcc/arm-eabi/4.6.2/../../../../arm-eabi/lib/thumb/libg.a(lib_a-sysopen.o)
 .bss           0x02030760        0x0 /home/woo/ndsdev/devkitPro/devkitARM/bin/../lib/gcc/arm-eabi/4.6.2/../../../../arm-eabi/lib/thumb/libg.a(lib_a-sysread.o)
 .bss           0x02030760        0x0 /home/woo/ndsdev/devkitPro/devkitARM/bin/../lib/gcc/arm-eabi/4.6.2/../../../../arm-eabi/lib/thumb/libg.a(lib_a-time.o)
 .bss           0x02030760        0x0 /home/woo/ndsdev/devkitPro/devkitARM/bin/../lib/gcc/arm-eabi/4.6.2/../../../../arm-eabi/lib/thumb/libg.a(lib_a-towlower.o)
 .bss           0x02030760        0x0 /home/woo/ndsdev/devkitPro/devkitARM/bin/../lib/gcc/arm-eabi/4.6.2/../../../../arm-eabi/lib/thumb/libg.a(lib_a-towupper.o)
 .bss           0x02030760        0x0 /home/woo/ndsdev/devkitPro/devkitARM/bin/../lib/gcc/arm-eabi/4.6.2/../../../../arm-eabi/lib/thumb/libg.a(lib_a-tzlock.o)
 .bss           0x02030760        0x8 /home/woo/ndsdev/devkitPro/devkitARM/bin/../lib/gcc/arm-eabi/4.6.2/../../../../arm-eabi/lib/thumb/libg.a(lib_a-tzvars.o)
                0x02030760                _timezone
                0x02030764                _daylight
 .bss           0x02030768        0x0 /home/woo/ndsdev/devkitPro/devkitARM/bin/../lib/gcc/arm-eabi/4.6.2/../../../../arm-eabi/lib/thumb/libg.a(lib_a-ungetc.o)
 .bss           0x02030768        0x0 /home/woo/ndsdev/devkitPro/devkitARM/bin/../lib/gcc/arm-eabi/4.6.2/../../../../arm-eabi/lib/thumb/libg.a(lib_a-vfiprintf.o)
 .bss           0x02030768        0x0 /home/woo/ndsdev/devkitPro/devkitARM/bin/../lib/gcc/arm-eabi/4.6.2/../../../../arm-eabi/lib/thumb/libg.a(lib_a-vfprintf.o)
 .bss           0x02030768        0x0 /home/woo/ndsdev/devkitPro/devkitARM/bin/../lib/gcc/arm-eabi/4.6.2/../../../../arm-eabi/lib/thumb/libg.a(lib_a-wcrtomb.o)
 .bss           0x02030768        0x0 /home/woo/ndsdev/devkitPro/devkitARM/bin/../lib/gcc/arm-eabi/4.6.2/../../../../arm-eabi/lib/thumb/libg.a(lib_a-wcsrtombs.o)
 .bss           0x02030768        0x0 /home/woo/ndsdev/devkitPro/devkitARM/bin/../lib/gcc/arm-eabi/4.6.2/../../../../arm-eabi/lib/thumb/libg.a(lib_a-wctob.o)
 .bss           0x02030768        0x0 /home/woo/ndsdev/devkitPro/devkitARM/bin/../lib/gcc/arm-eabi/4.6.2/../../../../arm-eabi/lib/thumb/libg.a(lib_a-wctomb_r.o)
 .bss           0x02030768        0x0 /home/woo/ndsdev/devkitPro/devkitARM/bin/../lib/gcc/arm-eabi/4.6.2/../../../../arm-eabi/lib/thumb/libg.a(lib_a-wsetup.o)
 .bss           0x02030768        0x0 /home/woo/ndsdev/devkitPro/devkitARM/bin/../lib/gcc/arm-eabi/4.6.2/../../../../arm-eabi/lib/thumb/libg.a(lib_a-div.o)
 .bss           0x02030768        0x0 /home/woo/ndsdev/devkitPro/devkitARM/bin/../lib/gcc/arm-eabi/4.6.2/../../../../arm-eabi/lib/thumb/libg.a(lib_a-dtoa.o)
 .bss           0x02030768        0x0 /home/woo/ndsdev/devkitPro/devkitARM/bin/../lib/gcc/arm-eabi/4.6.2/../../../../arm-eabi/lib/thumb/libg.a(lib_a-flags.o)
 .bss           0x02030768        0x0 /home/woo/ndsdev/devkitPro/devkitARM/bin/../lib/gcc/arm-eabi/4.6.2/../../../../arm-eabi/lib/thumb/libg.a(lib_a-fputwc.o)
 .bss           0x02030768        0x0 /home/woo/ndsdev/devkitPro/devkitARM/bin/../lib/gcc/arm-eabi/4.6.2/../../../../arm-eabi/lib/thumb/libg.a(lib_a-fvwrite.o)
 .bss           0x02030768        0x0 /home/woo/ndsdev/devkitPro/devkitARM/bin/../lib/gcc/arm-eabi/4.6.2/../../../../arm-eabi/lib/thumb/libg.a(lib_a-getenv_r.o)
 .bss           0x02030768        0x0 /home/woo/ndsdev/devkitPro/devkitARM/bin/../lib/gcc/arm-eabi/4.6.2/../../../../arm-eabi/lib/thumb/libg.a(lib_a-gettzinfo.o)
 .bss           0x02030768        0x0 /home/woo/ndsdev/devkitPro/devkitARM/bin/../lib/gcc/arm-eabi/4.6.2/../../../../arm-eabi/lib/thumb/libg.a(lib_a-iswspace.o)
 .bss           0x02030768        0x0 /home/woo/ndsdev/devkitPro/devkitARM/bin/../lib/gcc/arm-eabi/4.6.2/../../../../arm-eabi/lib/thumb/libg.a(lib_a-jp2uc.o)
 .bss           0x02030768        0x0 /home/woo/ndsdev/devkitPro/devkitARM/bin/../lib/gcc/arm-eabi/4.6.2/../../../../arm-eabi/lib/thumb/libg.a(lib_a-mbsnrtowcs.o)
 .bss           0x02030768        0x0 /home/woo/ndsdev/devkitPro/devkitARM/bin/../lib/gcc/arm-eabi/4.6.2/../../../../arm-eabi/lib/thumb/libg.a(lib_a-mprec.o)
 .bss           0x02030768        0x0 /home/woo/ndsdev/devkitPro/devkitARM/bin/../lib/gcc/arm-eabi/4.6.2/../../../../arm-eabi/lib/thumb/libg.a(lib_a-reallocr.o)
 .bss           0x02030768        0x0 /home/woo/ndsdev/devkitPro/devkitARM/bin/../lib/gcc/arm-eabi/4.6.2/../../../../arm-eabi/lib/thumb/libg.a(lib_a-sccl.o)
 .bss           0x02030768        0x0 /home/woo/ndsdev/devkitPro/devkitARM/bin/../lib/gcc/arm-eabi/4.6.2/../../../../arm-eabi/lib/thumb/libg.a(lib_a-sf_nan.o)
 .bss           0x02030768        0x0 /home/woo/ndsdev/devkitPro/devkitARM/bin/../lib/gcc/arm-eabi/4.6.2/../../../../arm-eabi/lib/thumb/libg.a(lib_a-s_fpclassify.o)
 .bss           0x02030768        0x0 /home/woo/ndsdev/devkitPro/devkitARM/bin/../lib/gcc/arm-eabi/4.6.2/../../../../arm-eabi/lib/thumb/libg.a(lib_a-strtod.o)
 .bss           0x02030768        0x0 /home/woo/ndsdev/devkitPro/devkitARM/bin/../lib/gcc/arm-eabi/4.6.2/../../../../arm-eabi/lib/thumb/libg.a(lib_a-strtoll_r.o)
 .bss           0x02030768        0x0 /home/woo/ndsdev/devkitPro/devkitARM/bin/../lib/gcc/arm-eabi/4.6.2/../../../../arm-eabi/lib/thumb/libg.a(lib_a-strtoull_r.o)
 .bss           0x02030768        0x0 /home/woo/ndsdev/devkitPro/devkitARM/bin/../lib/gcc/arm-eabi/4.6.2/../../../../arm-eabi/lib/thumb/libg.a(lib_a-strtoul.o)
 .bss           0x02030768        0x0 /home/woo/ndsdev/devkitPro/devkitARM/bin/../lib/gcc/arm-eabi/4.6.2/../../../../arm-eabi/lib/thumb/libg.a(lib_a-svfiprintf.o)
 .bss           0x02030768        0x0 /home/woo/ndsdev/devkitPro/devkitARM/bin/../lib/gcc/arm-eabi/4.6.2/../../../../arm-eabi/lib/thumb/libg.a(lib_a-wbuf.o)
 .bss           0x02030768        0x0 /home/woo/ndsdev/devkitPro/devkitARM/bin/../lib/gcc/arm-eabi/4.6.2/../../../../arm-eabi/lib/thumb/libg.a(lib_a-wcsnrtombs.o)
 .bss           0x02030768        0x0 /home/woo/ndsdev/devkitPro/devkitARM/bin/../lib/gcc/arm-eabi/4.6.2/../../../../arm-eabi/lib/thumb/libg.a(lib_a-callocr.o)
 .bss           0x02030768        0x4 /home/woo/ndsdev/devkitPro/devkitARM/bin/../lib/gcc/arm-eabi/4.6.2/../../../../arm-eabi/lib/thumb/libg.a(lib_a-environ.o)
 .bss           0x0203076c        0x0 /home/woo/ndsdev/devkitPro/devkitARM/bin/../lib/gcc/arm-eabi/4.6.2/../../../../arm-eabi/lib/thumb/libg.a(lib_a-envlock.o)
 .bss           0x0203076c        0x0 /home/woo/ndsdev/devkitPro/devkitARM/bin/../lib/gcc/arm-eabi/4.6.2/../../../../arm-eabi/lib/thumb/libg.a(lib_a-gdtoa-gethex.o)
 .bss           0x0203076c        0x0 /home/woo/ndsdev/devkitPro/devkitARM/bin/../lib/gcc/arm-eabi/4.6.2/../../../../arm-eabi/lib/thumb/libg.a(lib_a-gdtoa-hexnan.o)
 .bss           0x0203076c        0x0 /home/woo/ndsdev/devkitPro/devkitARM/bin/../lib/gcc/arm-eabi/4.6.2/../../../../arm-eabi/lib/thumb/libsysbase.a(iosupport.o)
 .bss           0x0203076c        0x0 /home/woo/ndsdev/devkitPro/devkitARM/bin/../lib/gcc/arm-eabi/4.6.2/../../../../arm-eabi/lib/thumb/libsysbase.a(close.o)
 .bss           0x0203076c        0x0 /home/woo/ndsdev/devkitPro/devkitARM/bin/../lib/gcc/arm-eabi/4.6.2/../../../../arm-eabi/lib/thumb/libsysbase.a(fstat.o)
 .bss           0x0203076c        0x0 /home/woo/ndsdev/devkitPro/devkitARM/bin/../lib/gcc/arm-eabi/4.6.2/../../../../arm-eabi/lib/thumb/libsysbase.a(isatty.o)
 .bss           0x0203076c        0x0 /home/woo/ndsdev/devkitPro/devkitARM/bin/../lib/gcc/arm-eabi/4.6.2/../../../../arm-eabi/lib/thumb/libsysbase.a(lseek.o)
 .bss           0x0203076c        0x0 /home/woo/ndsdev/devkitPro/devkitARM/bin/../lib/gcc/arm-eabi/4.6.2/../../../../arm-eabi/lib/thumb/libsysbase.a(open.o)
 .bss           0x0203076c        0x0 /home/woo/ndsdev/devkitPro/devkitARM/bin/../lib/gcc/arm-eabi/4.6.2/../../../../arm-eabi/lib/thumb/libsysbase.a(read.o)
 .bss           0x0203076c        0x4 /home/woo/ndsdev/devkitPro/devkitARM/bin/../lib/gcc/arm-eabi/4.6.2/../../../../arm-eabi/lib/thumb/libsysbase.a(sbrk.o)
 .bss           0x02030770        0x0 /home/woo/ndsdev/devkitPro/devkitARM/bin/../lib/gcc/arm-eabi/4.6.2/../../../../arm-eabi/lib/thumb/libsysbase.a(times.o)
 .bss           0x02030770        0x0 /home/woo/ndsdev/devkitPro/devkitARM/bin/../lib/gcc/arm-eabi/4.6.2/../../../../arm-eabi/lib/thumb/libsysbase.a(write.o)
 .bss           0x02030770        0x8 /home/woo/ndsdev/devkitPro/devkitARM/bin/../lib/gcc/arm-eabi/4.6.2/../../../../arm-eabi/lib/thumb/libsysbase.a(malloc_vars.o)
                0x02030770                fake_heap_start
                0x02030774                fake_heap_end
 .bss           0x02030778        0x0 /home/woo/ndsdev/devkitPro/devkitARM/bin/../lib/gcc/arm-eabi/4.6.2/../../../../arm-eabi/lib/thumb/libsysbase.a(chdir.o)
 .bss           0x02030778        0x0 /home/woo/ndsdev/devkitPro/devkitARM/bin/../lib/gcc/arm-eabi/4.6.2/../../../../arm-eabi/lib/thumb/libsysbase.a(build_argv.o)
 .bss           0x02030778        0x8 /home/woo/ndsdev/devkitPro/devkitARM/bin/../lib/gcc/arm-eabi/4.6.2/../../../../arm-eabi/lib/thumb/libsysbase.a(syscall_support.o)
                0x02030778                __syscalls
 .bss           0x02030780     0x1000 /home/woo/ndsdev/devkitPro/devkitARM/bin/../lib/gcc/arm-eabi/4.6.2/../../../../arm-eabi/lib/thumb/libsysbase.a(handle_manager.o)
 .bss           0x02031780        0x0 /home/woo/ndsdev/devkitPro/devkitARM/bin/../lib/gcc/arm-eabi/4.6.2/thumb/libgcc.a(_arm_addsubdf3.o)
 .bss           0x02031780        0x0 /home/woo/ndsdev/devkitPro/devkitARM/bin/../lib/gcc/arm-eabi/4.6.2/thumb/libgcc.a(_arm_muldivdf3.o)
 .bss           0x02031780        0x0 /home/woo/ndsdev/devkitPro/devkitARM/bin/../lib/gcc/arm-eabi/4.6.2/thumb/libgcc.a(_arm_cmpdf2.o)
 .bss           0x02031780        0x0 /home/woo/ndsdev/devkitPro/devkitARM/bin/../lib/gcc/arm-eabi/4.6.2/thumb/libgcc.a(_arm_fixdfsi.o)
 .bss           0x02031780        0x0 /home/woo/ndsdev/devkitPro/devkitARM/bin/../lib/gcc/arm-eabi/4.6.2/thumb/libgcc.a(_arm_fixunsdfsi.o)
 .bss           0x02031780        0x0 /home/woo/ndsdev/devkitPro/devkitARM/bin/../lib/gcc/arm-eabi/4.6.2/thumb/libgcc.a(_arm_truncdfsf2.o)
 .bss           0x02031780        0x0 /home/woo/ndsdev/devkitPro/devkitARM/bin/../lib/gcc/arm-eabi/4.6.2/thumb/libgcc.a(_aeabi_uldivmod.o)
 .bss           0x02031780        0x0 /home/woo/ndsdev/devkitPro/devkitARM/bin/../lib/gcc/arm-eabi/4.6.2/thumb/libgcc.a(bpabi.o)
 .bss           0x02031780        0x0 /home/woo/ndsdev/devkitPro/devkitARM/bin/../lib/gcc/arm-eabi/4.6.2/thumb/libgcc.a(_divdi3.o)
 .bss           0x02031780        0x0 /home/woo/ndsdev/devkitPro/devkitARM/bin/../lib/gcc/arm-eabi/4.6.2/thumb/libgcc.a(_udivdi3.o)
 .bss           0x02031780        0x0 /home/woo/ndsdev/devkitPro/devkitARM/bin/../lib/gcc/arm-eabi/4.6.2/thumb/libgcc.a(_clzsi2.o)
 .bss           0x02031780        0x0 /home/woo/ndsdev/devkitPro/devkitARM/bin/../lib/gcc/arm-eabi/4.6.2/thumb/crtend.o
 .bss           0x02031780        0x0 /home/woo/ndsdev/devkitPro/devkitARM/bin/../lib/gcc/arm-eabi/4.6.2/thumb/crtn.o
 *(COMMON)
 COMMON         0x02031780   0x200058 download.o
                0x02031780                ap
                0x020317d8                XXX_BUF_
 COMMON         0x022317d8       0x54 main.o
                0x022317d8                CHANNELS
 COMMON         0x0223182c     0x5cb4 /home/woo/ndsdev/devkitPro/libnds/lib/libdswifi9.a(sgIP_DNS.o)
                0x0223182c                dnsrecord_return
                0x02231d50                time_count
                0x02231d54                alias_list
                0x02231d68                querydata
                0x02231f68                responsedata
                0x02232168                dnsrecords
                0x022373a8                ipaddr_ip
                0x022373ac                query_time_start
                0x022373b0                addr_list
                0x022373c4                ipaddr_alias
                0x022374c4                dns_sock
                0x022374c8                last_id
                0x022374cc                dnsrecord_hostent
 COMMON         0x022374e0       0x40 /home/woo/ndsdev/devkitPro/libnds/lib/libdswifi9.a(sgIP_Hub.o)
                0x022374e0                ProtocolInterfaces
                0x022374e8                NumHWInterfaces
                0x022374ec                HWInterfaces
                0x0223751c                NumProtocolInterfaces
 COMMON         0x02237520      0x100 /home/woo/ndsdev/devkitPro/libnds/lib/libdswifi9.a(sgIP_sockets.o)
                0x02237520                socketlist
 COMMON         0x02237620     0x9fac /home/woo/ndsdev/devkitPro/libnds/lib/libdswifi9.a(wifi_arm9.o)
                0x02237620                Wifi_Data_Struct
                0x02241564                wifi_hw
                0x02241568                wHeapsize
                0x0224156c                wHeapFirst
                0x02241570                wifi_connect_point
                0x022415c8                wHeapStart
 COMMON         0x022415cc       0x10 /home/woo/ndsdev/devkitPro/libnds/lib/libdswifi9.a(sgIP.o)
                0x022415cc                count_100ms
                0x022415d0                count_1000ms
                0x022415d4                sgIP_timems
                0x022415d8                sgIP_errno
 COMMON         0x022415dc      0x400 /home/woo/ndsdev/devkitPro/libnds/lib/libdswifi9.a(sgIP_ARP.o)
                0x022415dc                ArpRecords
 COMMON         0x022419dc       0x84 /home/woo/ndsdev/devkitPro/libnds/lib/libdswifi9.a(sgIP_DHCP.o)
                0x022419dc                dhcp_rcvd_dns
                0x022419e8                dhcp_rcvd_snmask
                0x022419ec                dhcp_state
                0x022419f0                dhcp_p
                0x022419f4                dhcp_optionptr
                0x022419f8                dhcp_int
                0x022419fc                dhcp_rcvd_ip
                0x02241a00                dhcp_hostname
                0x02241a40                dhcp_serverip
                0x02241a44                dhcp_tid
                0x02241a48                dhcp_requestDNS
                0x02241a4c                dhcp_socket
                0x02241a50                dhcp_timestart
                0x02241a54                dhcp_status
                0x02241a58                dhcp_rcvd_gateway
                0x02241a5c                dhcp_timelastaction
 COMMON         0x02241a60        0x4 /home/woo/ndsdev/devkitPro/libnds/lib/libdswifi9.a(sgIP_IP.o)
                0x02241a60                idnum_count
 COMMON         0x02241a64      0x810 /home/woo/ndsdev/devkitPro/libnds/lib/libdswifi9.a(sgIP_TCP.o)
                0x02241a64                tcprecords
                0x02241a68                lasttime
                0x02241a6c                port_counter
                0x02241a70                numsynlist
                0x02241a74                synlist
 COMMON         0x02242274        0x8 /home/woo/ndsdev/devkitPro/libnds/lib/libdswifi9.a(sgIP_UDP.o)
                0x02242274                udpport_counter
                0x02242278                udprecords
 COMMON         0x0224227c       0x5c /home/woo/ndsdev/devkitPro/libnds/lib/libnds9.a(console.o)
                0x0224227c                currentCopy
 COMMON         0x022422d8        0x1 /home/woo/ndsdev/devkitPro/libnds/lib/libnds9.a(initSystem.o)
                0x022422d8                __dsimode
 *fill*         0x022422d9        0x3 00
 COMMON         0x022422dc      0xa40 /home/woo/ndsdev/devkitPro/libnds/lib/libnds9.a(fifosystem.o)
                0x022422dc                fifo_datamsg_data
                0x0224231c                fifo_buffer
                0x02242b1c                fifo_value32_func
                0x02242b5c                fifo_address_func
                0x02242b9c                fifo_value32_data
                0x02242bdc                fifo_value32_queue
                0x02242c1c                fifo_data_queue
                0x02242c5c                fifo_address_data
                0x02242c9c                fifo_datamsg_func
                0x02242cdc                fifo_address_queue
 COMMON         0x02242d1c      0x148 /home/woo/ndsdev/devkitPro/libnds/lib/libnds9.a(background.o)
                0x02242d1c                bgState
                0x02242e5c                bgIsTextLut
 COMMON         0x02242e64      0x100 /home/woo/ndsdev/devkitPro/devkitARM/bin/../lib/gcc/arm-eabi/4.6.2/../../../../arm-eabi/lib/thumb/libg.a(lib_a-gdtoa-gethex.o)
                0x02242e64                __hexdig
 COMMON         0x02242f64        0x4 /home/woo/ndsdev/devkitPro/devkitARM/bin/../lib/gcc/arm-eabi/4.6.2/../../../../arm-eabi/lib/thumb/libsysbase.a(times.o)
                0x02242f64                punixTime
                0x02242f68                . = ALIGN (0x4)
                0x02242f68                __bss_end__ = ABSOLUTE (.)
                0x02242f68                __end__ = ABSOLUTE (.)

.stab
 *(.stab)

.stabstr
 *(.stabstr)

.stab.excl
 *(.stab.excl)

.stab.exclstr
 *(.stab.exclstr)

.stab.index
 *(.stab.index)

.stab.indexstr
 *(.stab.indexstr)

.comment        0x00000000       0x66
 *(.comment)
 .comment       0x00000000       0x22 /home/woo/ndsdev/devkitPro/devkitARM/bin/../lib/gcc/arm-eabi/4.6.2/thumb/crtbegin.o
                                 0x23 (size before relaxing)
 .comment       0x00000000       0x23 download.o
 .comment       0x00000000       0x23 main.o
 .comment       0x00000000       0x23 wifi.o
 .comment       0x00000022       0x22 /home/woo/ndsdev/devkitPro/libnds/lib/libdswifi9.a(sgIP_DNS.o)
                                 0x23 (size before relaxing)
 .comment       0x00000000       0x23 /home/woo/ndsdev/devkitPro/libnds/lib/libdswifi9.a(sgIP_Hub.o)
 .comment       0x00000000       0x23 /home/woo/ndsdev/devkitPro/libnds/lib/libdswifi9.a(sgIP_memblock.o)
 .comment       0x00000000       0x23 /home/woo/ndsdev/devkitPro/libnds/lib/libdswifi9.a(sgIP_sockets.o)
 .comment       0x00000000       0x23 /home/woo/ndsdev/devkitPro/libnds/lib/libdswifi9.a(wifi_arm9.o)
 .comment       0x00000000       0x23 /home/woo/ndsdev/devkitPro/libnds/lib/libdswifi9.a(sgIP.o)
 .comment       0x00000000       0x23 /home/woo/ndsdev/devkitPro/libnds/lib/libdswifi9.a(sgIP_ARP.o)
 .comment       0x00000000       0x23 /home/woo/ndsdev/devkitPro/libnds/lib/libdswifi9.a(sgIP_DHCP.o)
 .comment       0x00000000       0x23 /home/woo/ndsdev/devkitPro/libnds/lib/libdswifi9.a(sgIP_IP.o)
 .comment       0x00000000       0x23 /home/woo/ndsdev/devkitPro/libnds/lib/libdswifi9.a(sgIP_TCP.o)
 .comment       0x00000000       0x23 /home/woo/ndsdev/devkitPro/libnds/lib/libdswifi9.a(sgIP_UDP.o)
 .comment       0x00000000       0x23 /home/woo/ndsdev/devkitPro/libnds/lib/libdswifi9.a(sgIP_ICMP.o)
 .comment       0x00000044       0x22 /home/woo/ndsdev/devkitPro/libnds/lib/libfat.a(libfat.o)
                                 0x23 (size before relaxing)
 .comment       0x00000000       0x23 /home/woo/ndsdev/devkitPro/libnds/lib/libfat.a(partition.o)
 .comment       0x00000000       0x23 /home/woo/ndsdev/devkitPro/libnds/lib/libfat.a(cache.o)
 .comment       0x00000000       0x23 /home/woo/ndsdev/devkitPro/libnds/lib/libfat.a(directory.o)
 .comment       0x00000000       0x23 /home/woo/ndsdev/devkitPro/libnds/lib/libfat.a(disc.o)
 .comment       0x00000000       0x23 /home/woo/ndsdev/devkitPro/libnds/lib/libfat.a(fatdir.o)
 .comment       0x00000000       0x23 /home/woo/ndsdev/devkitPro/libnds/lib/libfat.a(fatfile.o)
 .comment       0x00000000       0x23 /home/woo/ndsdev/devkitPro/libnds/lib/libfat.a(file_allocation_table.o)
 .comment       0x00000000       0x23 /home/woo/ndsdev/devkitPro/libnds/lib/libfat.a(filetime.o)
 .comment       0x00000000       0x23 /home/woo/ndsdev/devkitPro/libnds/lib/libfat.a(lock.o)
 .comment       0x00000000       0x23 /home/woo/ndsdev/devkitPro/libnds/lib/libnds9.a(console.o)
 .comment       0x00000000       0x23 /home/woo/ndsdev/devkitPro/libnds/lib/libnds9.a(keys.o)
 .comment       0x00000000       0x23 /home/woo/ndsdev/devkitPro/libnds/lib/libnds9.a(dldi.o)
 .comment       0x00000000       0x23 /home/woo/ndsdev/devkitPro/libnds/lib/libnds9.a(dsi_sd.o)
 .comment       0x00000000       0x23 /home/woo/ndsdev/devkitPro/libnds/lib/libnds9.a(initSystem.o)
 .comment       0x00000000       0x23 /home/woo/ndsdev/devkitPro/libnds/lib/libnds9.a(fifosystem.o)
 .comment       0x00000000       0x23 /home/woo/ndsdev/devkitPro/libnds/lib/libnds9.a(interrupts.o)
 .comment       0x00000000       0x23 /home/woo/ndsdev/devkitPro/libnds/lib/libnds9.a(libnds_exit.o)
 .comment       0x00000000       0x23 /home/woo/ndsdev/devkitPro/libnds/lib/libnds9.a(background.o)
 .comment       0x00000000       0x23 /home/woo/ndsdev/devkitPro/libnds/lib/libnds9.a(system.o)
 .comment       0x00000000       0x23 /home/woo/ndsdev/devkitPro/libnds/lib/libnds9.a(trig.o)
 .comment       0x00000000       0x23 /home/woo/ndsdev/devkitPro/libnds/lib/libnds9.a(video.o)
 .comment       0x00000000       0x23 /home/woo/ndsdev/devkitPro/devkitARM/bin/../lib/gcc/arm-eabi/4.6.2/thumb/libgcc.a(_muldi3.o)
 .comment       0x00000000       0x23 /home/woo/ndsdev/devkitPro/devkitARM/bin/../lib/gcc/arm-eabi/4.6.2/../../../../arm-eabi/lib/thumb/libg.a(lib_a-atoi.o)
 .comment       0x00000000       0x23 /home/woo/ndsdev/devkitPro/devkitARM/bin/../lib/gcc/arm-eabi/4.6.2/../../../../arm-eabi/lib/thumb/libg.a(lib_a-bsearch.o)
 .comment       0x00000000       0x23 /home/woo/ndsdev/devkitPro/devkitARM/bin/../lib/gcc/arm-eabi/4.6.2/../../../../arm-eabi/lib/thumb/libg.a(lib_a-ctype_.o)
 .comment       0x00000000       0x23 /home/woo/ndsdev/devkitPro/devkitARM/bin/../lib/gcc/arm-eabi/4.6.2/../../../../arm-eabi/lib/thumb/libg.a(lib_a-errno.o)
 .comment       0x00000000       0x23 /home/woo/ndsdev/devkitPro/devkitARM/bin/../lib/gcc/arm-eabi/4.6.2/../../../../arm-eabi/lib/thumb/libg.a(lib_a-fclose.o)
 .comment       0x00000000       0x23 /home/woo/ndsdev/devkitPro/devkitARM/bin/../lib/gcc/arm-eabi/4.6.2/../../../../arm-eabi/lib/thumb/libg.a(lib_a-fflush.o)
 .comment       0x00000000       0x23 /home/woo/ndsdev/devkitPro/devkitARM/bin/../lib/gcc/arm-eabi/4.6.2/../../../../arm-eabi/lib/thumb/libg.a(lib_a-fgets.o)
 .comment       0x00000000       0x23 /home/woo/ndsdev/devkitPro/devkitARM/bin/../lib/gcc/arm-eabi/4.6.2/../../../../arm-eabi/lib/thumb/libg.a(lib_a-findfp.o)
 .comment       0x00000000       0x23 /home/woo/ndsdev/devkitPro/devkitARM/bin/../lib/gcc/arm-eabi/4.6.2/../../../../arm-eabi/lib/thumb/libg.a(lib_a-fopen.o)
 .comment       0x00000000       0x23 /home/woo/ndsdev/devkitPro/devkitARM/bin/../lib/gcc/arm-eabi/4.6.2/../../../../arm-eabi/lib/thumb/libg.a(lib_a-freer.o)
 .comment       0x00000000       0x23 /home/woo/ndsdev/devkitPro/devkitARM/bin/../lib/gcc/arm-eabi/4.6.2/../../../../arm-eabi/lib/thumb/libg.a(lib_a-fseek.o)
 .comment       0x00000000       0x23 /home/woo/ndsdev/devkitPro/devkitARM/bin/../lib/gcc/arm-eabi/4.6.2/../../../../arm-eabi/lib/thumb/libg.a(lib_a-fwalk.o)
 .comment       0x00000000       0x23 /home/woo/ndsdev/devkitPro/devkitARM/bin/../lib/gcc/arm-eabi/4.6.2/../../../../arm-eabi/lib/thumb/libg.a(lib_a-fwrite.o)
 .comment       0x00000000       0x23 /home/woo/ndsdev/devkitPro/devkitARM/bin/../lib/gcc/arm-eabi/4.6.2/../../../../arm-eabi/lib/thumb/libg.a(lib_a-impure.o)
 .comment       0x00000000       0x23 /home/woo/ndsdev/devkitPro/devkitARM/bin/../lib/gcc/arm-eabi/4.6.2/../../../../arm-eabi/lib/thumb/libg.a(lib_a-init.o)
 .comment       0x00000000       0x23 /home/woo/ndsdev/devkitPro/devkitARM/bin/../lib/gcc/arm-eabi/4.6.2/../../../../arm-eabi/lib/thumb/libg.a(lib_a-iprintf.o)
 .comment       0x00000000       0x23 /home/woo/ndsdev/devkitPro/devkitARM/bin/../lib/gcc/arm-eabi/4.6.2/../../../../arm-eabi/lib/thumb/libg.a(lib_a-lcltime_r.o)
 .comment       0x00000000       0x23 /home/woo/ndsdev/devkitPro/devkitARM/bin/../lib/gcc/arm-eabi/4.6.2/../../../../arm-eabi/lib/thumb/libg.a(lib_a-locale.o)
 .comment       0x00000000       0x23 /home/woo/ndsdev/devkitPro/devkitARM/bin/../lib/gcc/arm-eabi/4.6.2/../../../../arm-eabi/lib/thumb/libg.a(lib_a-makebuf.o)
 .comment       0x00000000       0x23 /home/woo/ndsdev/devkitPro/devkitARM/bin/../lib/gcc/arm-eabi/4.6.2/../../../../arm-eabi/lib/thumb/libg.a(lib_a-malloc.o)
 .comment       0x00000000       0x23 /home/woo/ndsdev/devkitPro/devkitARM/bin/../lib/gcc/arm-eabi/4.6.2/../../../../arm-eabi/lib/thumb/libg.a(lib_a-mallocr.o)
 .comment       0x00000000       0x23 /home/woo/ndsdev/devkitPro/devkitARM/bin/../lib/gcc/arm-eabi/4.6.2/../../../../arm-eabi/lib/thumb/libg.a(lib_a-mbrtowc.o)
 .comment       0x00000000       0x23 /home/woo/ndsdev/devkitPro/devkitARM/bin/../lib/gcc/arm-eabi/4.6.2/../../../../arm-eabi/lib/thumb/libg.a(lib_a-mbsrtowcs.o)
 .comment       0x00000000       0x23 /home/woo/ndsdev/devkitPro/devkitARM/bin/../lib/gcc/arm-eabi/4.6.2/../../../../arm-eabi/lib/thumb/libg.a(lib_a-mbtowc_r.o)
 .comment       0x00000000       0x23 /home/woo/ndsdev/devkitPro/devkitARM/bin/../lib/gcc/arm-eabi/4.6.2/../../../../arm-eabi/lib/thumb/libg.a(lib_a-memchr-stub.o)
 .comment       0x00000000       0x23 /home/woo/ndsdev/devkitPro/devkitARM/bin/../lib/gcc/arm-eabi/4.6.2/../../../../arm-eabi/lib/thumb/libg.a(lib_a-memcmp.o)
 .comment       0x00000000       0x23 /home/woo/ndsdev/devkitPro/devkitARM/bin/../lib/gcc/arm-eabi/4.6.2/../../../../arm-eabi/lib/thumb/libg.a(lib_a-memcpy-stub.o)
 .comment       0x00000000       0x23 /home/woo/ndsdev/devkitPro/devkitARM/bin/../lib/gcc/arm-eabi/4.6.2/../../../../arm-eabi/lib/thumb/libg.a(lib_a-memmove.o)
 .comment       0x00000000       0x23 /home/woo/ndsdev/devkitPro/devkitARM/bin/../lib/gcc/arm-eabi/4.6.2/../../../../arm-eabi/lib/thumb/libg.a(lib_a-memset.o)
 .comment       0x00000000       0x23 /home/woo/ndsdev/devkitPro/devkitARM/bin/../lib/gcc/arm-eabi/4.6.2/../../../../arm-eabi/lib/thumb/libg.a(lib_a-mktime.o)
 .comment       0x00000000       0x23 /home/woo/ndsdev/devkitPro/devkitARM/bin/../lib/gcc/arm-eabi/4.6.2/../../../../arm-eabi/lib/thumb/libg.a(lib_a-mktm_r.o)
 .comment       0x00000000       0x23 /home/woo/ndsdev/devkitPro/devkitARM/bin/../lib/gcc/arm-eabi/4.6.2/../../../../arm-eabi/lib/thumb/libg.a(lib_a-mlock.o)
 .comment       0x00000000       0x23 /home/woo/ndsdev/devkitPro/devkitARM/bin/../lib/gcc/arm-eabi/4.6.2/../../../../arm-eabi/lib/thumb/libg.a(lib_a-printf.o)
 .comment       0x00000000       0x23 /home/woo/ndsdev/devkitPro/devkitARM/bin/../lib/gcc/arm-eabi/4.6.2/../../../../arm-eabi/lib/thumb/libg.a(lib_a-refill.o)
 .comment       0x00000000       0x23 /home/woo/ndsdev/devkitPro/devkitARM/bin/../lib/gcc/arm-eabi/4.6.2/../../../../arm-eabi/lib/thumb/libg.a(lib_a-setvbuf.o)
 .comment       0x00000000       0x23 /home/woo/ndsdev/devkitPro/devkitARM/bin/../lib/gcc/arm-eabi/4.6.2/../../../../arm-eabi/lib/thumb/libg.a(lib_a-siscanf.o)
 .comment       0x00000000       0x23 /home/woo/ndsdev/devkitPro/devkitARM/bin/../lib/gcc/arm-eabi/4.6.2/../../../../arm-eabi/lib/thumb/libg.a(lib_a-sprintf.o)
 .comment       0x00000000       0x23 /home/woo/ndsdev/devkitPro/devkitARM/bin/../lib/gcc/arm-eabi/4.6.2/../../../../arm-eabi/lib/thumb/libg.a(lib_a-sscanf.o)
 .comment       0x00000000       0x23 /home/woo/ndsdev/devkitPro/devkitARM/bin/../lib/gcc/arm-eabi/4.6.2/../../../../arm-eabi/lib/thumb/libg.a(lib_a-stdio.o)
 .comment       0x00000000       0x23 /home/woo/ndsdev/devkitPro/devkitARM/bin/../lib/gcc/arm-eabi/4.6.2/../../../../arm-eabi/lib/thumb/libg.a(lib_a-strcasecmp.o)
 .comment       0x00000000       0x23 /home/woo/ndsdev/devkitPro/devkitARM/bin/../lib/gcc/arm-eabi/4.6.2/../../../../arm-eabi/lib/thumb/libg.a(lib_a-strcat.o)
 .comment       0x00000000       0x23 /home/woo/ndsdev/devkitPro/devkitARM/bin/../lib/gcc/arm-eabi/4.6.2/../../../../arm-eabi/lib/thumb/libg.a(lib_a-strchr.o)
 .comment       0x00000000       0x23 /home/woo/ndsdev/devkitPro/devkitARM/bin/../lib/gcc/arm-eabi/4.6.2/../../../../arm-eabi/lib/thumb/libg.a(lib_a-strcmp.o)
 .comment       0x00000000       0x23 /home/woo/ndsdev/devkitPro/devkitARM/bin/../lib/gcc/arm-eabi/4.6.2/../../../../arm-eabi/lib/thumb/libg.a(lib_a-strcpy.o)
 .comment       0x00000000       0x23 /home/woo/ndsdev/devkitPro/devkitARM/bin/../lib/gcc/arm-eabi/4.6.2/../../../../arm-eabi/lib/thumb/libg.a(lib_a-strlcpy.o)
 .comment       0x00000000       0x23 /home/woo/ndsdev/devkitPro/devkitARM/bin/../lib/gcc/arm-eabi/4.6.2/../../../../arm-eabi/lib/thumb/libg.a(lib_a-strlen.o)
 .comment       0x00000000       0x23 /home/woo/ndsdev/devkitPro/devkitARM/bin/../lib/gcc/arm-eabi/4.6.2/../../../../arm-eabi/lib/thumb/libg.a(lib_a-strncasecmp.o)
 .comment       0x00000000       0x23 /home/woo/ndsdev/devkitPro/devkitARM/bin/../lib/gcc/arm-eabi/4.6.2/../../../../arm-eabi/lib/thumb/libg.a(lib_a-strncmp.o)
 .comment       0x00000000       0x23 /home/woo/ndsdev/devkitPro/devkitARM/bin/../lib/gcc/arm-eabi/4.6.2/../../../../arm-eabi/lib/thumb/libg.a(lib_a-strncpy.o)
 .comment       0x00000000       0x23 /home/woo/ndsdev/devkitPro/devkitARM/bin/../lib/gcc/arm-eabi/4.6.2/../../../../arm-eabi/lib/thumb/libg.a(lib_a-strnlen.o)
 .comment       0x00000000       0x23 /home/woo/ndsdev/devkitPro/devkitARM/bin/../lib/gcc/arm-eabi/4.6.2/../../../../arm-eabi/lib/thumb/libg.a(lib_a-strpbrk.o)
 .comment       0x00000000       0x23 /home/woo/ndsdev/devkitPro/devkitARM/bin/../lib/gcc/arm-eabi/4.6.2/../../../../arm-eabi/lib/thumb/libg.a(lib_a-strrchr.o)
 .comment       0x00000000       0x23 /home/woo/ndsdev/devkitPro/devkitARM/bin/../lib/gcc/arm-eabi/4.6.2/../../../../arm-eabi/lib/thumb/libg.a(lib_a-strtol.o)
 .comment       0x00000000       0x23 /home/woo/ndsdev/devkitPro/devkitARM/bin/../lib/gcc/arm-eabi/4.6.2/../../../../arm-eabi/lib/thumb/libg.a(lib_a-svfiscanf.o)
 .comment       0x00000000       0x23 /home/woo/ndsdev/devkitPro/devkitARM/bin/../lib/gcc/arm-eabi/4.6.2/../../../../arm-eabi/lib/thumb/libg.a(lib_a-svfprintf.o)
 .comment       0x00000000       0x23 /home/woo/ndsdev/devkitPro/devkitARM/bin/../lib/gcc/arm-eabi/4.6.2/../../../../arm-eabi/lib/thumb/libg.a(lib_a-svfscanf.o)
 .comment       0x00000000       0x23 /home/woo/ndsdev/devkitPro/devkitARM/bin/../lib/gcc/arm-eabi/4.6.2/../../../../arm-eabi/lib/thumb/libg.a(lib_a-sysclose.o)
 .comment       0x00000000       0x23 /home/woo/ndsdev/devkitPro/devkitARM/bin/../lib/gcc/arm-eabi/4.6.2/../../../../arm-eabi/lib/thumb/libg.a(lib_a-syslseek.o)
 .comment       0x00000000       0x23 /home/woo/ndsdev/devkitPro/devkitARM/bin/../lib/gcc/arm-eabi/4.6.2/../../../../arm-eabi/lib/thumb/libg.a(lib_a-sysopen.o)
 .comment       0x00000000       0x23 /home/woo/ndsdev/devkitPro/devkitARM/bin/../lib/gcc/arm-eabi/4.6.2/../../../../arm-eabi/lib/thumb/libg.a(lib_a-sysread.o)
 .comment       0x00000000       0x23 /home/woo/ndsdev/devkitPro/devkitARM/bin/../lib/gcc/arm-eabi/4.6.2/../../../../arm-eabi/lib/thumb/libg.a(lib_a-time.o)
 .comment       0x00000000       0x23 /home/woo/ndsdev/devkitPro/devkitARM/bin/../lib/gcc/arm-eabi/4.6.2/../../../../arm-eabi/lib/thumb/libg.a(lib_a-towlower.o)
 .comment       0x00000000       0x23 /home/woo/ndsdev/devkitPro/devkitARM/bin/../lib/gcc/arm-eabi/4.6.2/../../../../arm-eabi/lib/thumb/libg.a(lib_a-towupper.o)
 .comment       0x00000000       0x23 /home/woo/ndsdev/devkitPro/devkitARM/bin/../lib/gcc/arm-eabi/4.6.2/../../../../arm-eabi/lib/thumb/libg.a(lib_a-tzlock.o)
 .comment       0x00000000       0x23 /home/woo/ndsdev/devkitPro/devkitARM/bin/../lib/gcc/arm-eabi/4.6.2/../../../../arm-eabi/lib/thumb/libg.a(lib_a-tzvars.o)
 .comment       0x00000000       0x23 /home/woo/ndsdev/devkitPro/devkitARM/bin/../lib/gcc/arm-eabi/4.6.2/../../../../arm-eabi/lib/thumb/libg.a(lib_a-ungetc.o)
 .comment       0x00000000       0x23 /home/woo/ndsdev/devkitPro/devkitARM/bin/../lib/gcc/arm-eabi/4.6.2/../../../../arm-eabi/lib/thumb/libg.a(lib_a-vfiprintf.o)
 .comment       0x00000000       0x23 /home/woo/ndsdev/devkitPro/devkitARM/bin/../lib/gcc/arm-eabi/4.6.2/../../../../arm-eabi/lib/thumb/libg.a(lib_a-vfprintf.o)
 .comment       0x00000000       0x23 /home/woo/ndsdev/devkitPro/devkitARM/bin/../lib/gcc/arm-eabi/4.6.2/../../../../arm-eabi/lib/thumb/libg.a(lib_a-wcrtomb.o)
 .comment       0x00000000       0x23 /home/woo/ndsdev/devkitPro/devkitARM/bin/../lib/gcc/arm-eabi/4.6.2/../../../../arm-eabi/lib/thumb/libg.a(lib_a-wcsrtombs.o)
 .comment       0x00000000       0x23 /home/woo/ndsdev/devkitPro/devkitARM/bin/../lib/gcc/arm-eabi/4.6.2/../../../../arm-eabi/lib/thumb/libg.a(lib_a-wctob.o)
 .comment       0x00000000       0x23 /home/woo/ndsdev/devkitPro/devkitARM/bin/../lib/gcc/arm-eabi/4.6.2/../../../../arm-eabi/lib/thumb/libg.a(lib_a-wctomb_r.o)
 .comment       0x00000000       0x23 /home/woo/ndsdev/devkitPro/devkitARM/bin/../lib/gcc/arm-eabi/4.6.2/../../../../arm-eabi/lib/thumb/libg.a(lib_a-wsetup.o)
 .comment       0x00000000       0x23 /home/woo/ndsdev/devkitPro/devkitARM/bin/../lib/gcc/arm-eabi/4.6.2/../../../../arm-eabi/lib/thumb/libg.a(lib_a-div.o)
 .comment       0x00000000       0x23 /home/woo/ndsdev/devkitPro/devkitARM/bin/../lib/gcc/arm-eabi/4.6.2/../../../../arm-eabi/lib/thumb/libg.a(lib_a-dtoa.o)
 .comment       0x00000000       0x23 /home/woo/ndsdev/devkitPro/devkitARM/bin/../lib/gcc/arm-eabi/4.6.2/../../../../arm-eabi/lib/thumb/libg.a(lib_a-flags.o)
 .comment       0x00000000       0x23 /home/woo/ndsdev/devkitPro/devkitARM/bin/../lib/gcc/arm-eabi/4.6.2/../../../../arm-eabi/lib/thumb/libg.a(lib_a-fputwc.o)
 .comment       0x00000000       0x23 /home/woo/ndsdev/devkitPro/devkitARM/bin/../lib/gcc/arm-eabi/4.6.2/../../../../arm-eabi/lib/thumb/libg.a(lib_a-fvwrite.o)
 .comment       0x00000000       0x23 /home/woo/ndsdev/devkitPro/devkitARM/bin/../lib/gcc/arm-eabi/4.6.2/../../../../arm-eabi/lib/thumb/libg.a(lib_a-getenv_r.o)
 .comment       0x00000000       0x23 /home/woo/ndsdev/devkitPro/devkitARM/bin/../lib/gcc/arm-eabi/4.6.2/../../../../arm-eabi/lib/thumb/libg.a(lib_a-gettzinfo.o)
 .comment       0x00000000       0x23 /home/woo/ndsdev/devkitPro/devkitARM/bin/../lib/gcc/arm-eabi/4.6.2/../../../../arm-eabi/lib/thumb/libg.a(lib_a-iswspace.o)
 .comment       0x00000000       0x23 /home/woo/ndsdev/devkitPro/devkitARM/bin/../lib/gcc/arm-eabi/4.6.2/../../../../arm-eabi/lib/thumb/libg.a(lib_a-jp2uc.o)
 .comment       0x00000000       0x23 /home/woo/ndsdev/devkitPro/devkitARM/bin/../lib/gcc/arm-eabi/4.6.2/../../../../arm-eabi/lib/thumb/libg.a(lib_a-mbsnrtowcs.o)
 .comment       0x00000000       0x23 /home/woo/ndsdev/devkitPro/devkitARM/bin/../lib/gcc/arm-eabi/4.6.2/../../../../arm-eabi/lib/thumb/libg.a(lib_a-mprec.o)
 .comment       0x00000000       0x23 /home/woo/ndsdev/devkitPro/devkitARM/bin/../lib/gcc/arm-eabi/4.6.2/../../../../arm-eabi/lib/thumb/libg.a(lib_a-reallocr.o)
 .comment       0x00000000       0x23 /home/woo/ndsdev/devkitPro/devkitARM/bin/../lib/gcc/arm-eabi/4.6.2/../../../../arm-eabi/lib/thumb/libg.a(lib_a-sccl.o)
 .comment       0x00000000       0x23 /home/woo/ndsdev/devkitPro/devkitARM/bin/../lib/gcc/arm-eabi/4.6.2/../../../../arm-eabi/lib/thumb/libg.a(lib_a-sf_nan.o)
 .comment       0x00000000       0x23 /home/woo/ndsdev/devkitPro/devkitARM/bin/../lib/gcc/arm-eabi/4.6.2/../../../../arm-eabi/lib/thumb/libg.a(lib_a-s_fpclassify.o)
 .comment       0x00000000       0x23 /home/woo/ndsdev/devkitPro/devkitARM/bin/../lib/gcc/arm-eabi/4.6.2/../../../../arm-eabi/lib/thumb/libg.a(lib_a-strtod.o)
 .comment       0x00000000       0x23 /home/woo/ndsdev/devkitPro/devkitARM/bin/../lib/gcc/arm-eabi/4.6.2/../../../../arm-eabi/lib/thumb/libg.a(lib_a-strtoll_r.o)
 .comment       0x00000000       0x23 /home/woo/ndsdev/devkitPro/devkitARM/bin/../lib/gcc/arm-eabi/4.6.2/../../../../arm-eabi/lib/thumb/libg.a(lib_a-strtoull_r.o)
 .comment       0x00000000       0x23 /home/woo/ndsdev/devkitPro/devkitARM/bin/../lib/gcc/arm-eabi/4.6.2/../../../../arm-eabi/lib/thumb/libg.a(lib_a-strtoul.o)
 .comment       0x00000000       0x23 /home/woo/ndsdev/devkitPro/devkitARM/bin/../lib/gcc/arm-eabi/4.6.2/../../../../arm-eabi/lib/thumb/libg.a(lib_a-svfiprintf.o)
 .comment       0x00000000       0x23 /home/woo/ndsdev/devkitPro/devkitARM/bin/../lib/gcc/arm-eabi/4.6.2/../../../../arm-eabi/lib/thumb/libg.a(lib_a-wbuf.o)
 .comment       0x00000000       0x23 /home/woo/ndsdev/devkitPro/devkitARM/bin/../lib/gcc/arm-eabi/4.6.2/../../../../arm-eabi/lib/thumb/libg.a(lib_a-wcsnrtombs.o)
 .comment       0x00000000       0x23 /home/woo/ndsdev/devkitPro/devkitARM/bin/../lib/gcc/arm-eabi/4.6.2/../../../../arm-eabi/lib/thumb/libg.a(lib_a-callocr.o)
 .comment       0x00000000       0x23 /home/woo/ndsdev/devkitPro/devkitARM/bin/../lib/gcc/arm-eabi/4.6.2/../../../../arm-eabi/lib/thumb/libg.a(lib_a-environ.o)
 .comment       0x00000000       0x23 /home/woo/ndsdev/devkitPro/devkitARM/bin/../lib/gcc/arm-eabi/4.6.2/../../../../arm-eabi/lib/thumb/libg.a(lib_a-envlock.o)
 .comment       0x00000000       0x23 /home/woo/ndsdev/devkitPro/devkitARM/bin/../lib/gcc/arm-eabi/4.6.2/../../../../arm-eabi/lib/thumb/libg.a(lib_a-gdtoa-gethex.o)
 .comment       0x00000000       0x23 /home/woo/ndsdev/devkitPro/devkitARM/bin/../lib/gcc/arm-eabi/4.6.2/../../../../arm-eabi/lib/thumb/libg.a(lib_a-gdtoa-hexnan.o)
 .comment       0x00000000       0x23 /home/woo/ndsdev/devkitPro/devkitARM/bin/../lib/gcc/arm-eabi/4.6.2/../../../../arm-eabi/lib/thumb/libsysbase.a(iosupport.o)
 .comment       0x00000000       0x23 /home/woo/ndsdev/devkitPro/devkitARM/bin/../lib/gcc/arm-eabi/4.6.2/../../../../arm-eabi/lib/thumb/libsysbase.a(close.o)
 .comment       0x00000000       0x23 /home/woo/ndsdev/devkitPro/devkitARM/bin/../lib/gcc/arm-eabi/4.6.2/../../../../arm-eabi/lib/thumb/libsysbase.a(fstat.o)
 .comment       0x00000000       0x23 /home/woo/ndsdev/devkitPro/devkitARM/bin/../lib/gcc/arm-eabi/4.6.2/../../../../arm-eabi/lib/thumb/libsysbase.a(isatty.o)
 .comment       0x00000000       0x23 /home/woo/ndsdev/devkitPro/devkitARM/bin/../lib/gcc/arm-eabi/4.6.2/../../../../arm-eabi/lib/thumb/libsysbase.a(lseek.o)
 .comment       0x00000000       0x23 /home/woo/ndsdev/devkitPro/devkitARM/bin/../lib/gcc/arm-eabi/4.6.2/../../../../arm-eabi/lib/thumb/libsysbase.a(open.o)
 .comment       0x00000000       0x23 /home/woo/ndsdev/devkitPro/devkitARM/bin/../lib/gcc/arm-eabi/4.6.2/../../../../arm-eabi/lib/thumb/libsysbase.a(read.o)
 .comment       0x00000000       0x23 /home/woo/ndsdev/devkitPro/devkitARM/bin/../lib/gcc/arm-eabi/4.6.2/../../../../arm-eabi/lib/thumb/libsysbase.a(sbrk.o)
 .comment       0x00000000       0x23 /home/woo/ndsdev/devkitPro/devkitARM/bin/../lib/gcc/arm-eabi/4.6.2/../../../../arm-eabi/lib/thumb/libsysbase.a(times.o)
 .comment       0x00000000       0x23 /home/woo/ndsdev/devkitPro/devkitARM/bin/../lib/gcc/arm-eabi/4.6.2/../../../../arm-eabi/lib/thumb/libsysbase.a(write.o)
 .comment       0x00000000       0x23 /home/woo/ndsdev/devkitPro/devkitARM/bin/../lib/gcc/arm-eabi/4.6.2/../../../../arm-eabi/lib/thumb/libsysbase.a(malloc_vars.o)
 .comment       0x00000000       0x23 /home/woo/ndsdev/devkitPro/devkitARM/bin/../lib/gcc/arm-eabi/4.6.2/../../../../arm-eabi/lib/thumb/libsysbase.a(chdir.o)
 .comment       0x00000000       0x23 /home/woo/ndsdev/devkitPro/devkitARM/bin/../lib/gcc/arm-eabi/4.6.2/../../../../arm-eabi/lib/thumb/libsysbase.a(build_argv.o)
 .comment       0x00000000       0x23 /home/woo/ndsdev/devkitPro/devkitARM/bin/../lib/gcc/arm-eabi/4.6.2/../../../../arm-eabi/lib/thumb/libsysbase.a(syscall_support.o)
 .comment       0x00000000       0x23 /home/woo/ndsdev/devkitPro/devkitARM/bin/../lib/gcc/arm-eabi/4.6.2/../../../../arm-eabi/lib/thumb/libsysbase.a(handle_manager.o)
 .comment       0x00000000       0x23 /home/woo/ndsdev/devkitPro/devkitARM/bin/../lib/gcc/arm-eabi/4.6.2/thumb/libgcc.a(bpabi.o)
 .comment       0x00000000       0x23 /home/woo/ndsdev/devkitPro/devkitARM/bin/../lib/gcc/arm-eabi/4.6.2/thumb/libgcc.a(_divdi3.o)
 .comment       0x00000000       0x23 /home/woo/ndsdev/devkitPro/devkitARM/bin/../lib/gcc/arm-eabi/4.6.2/thumb/libgcc.a(_udivdi3.o)
 .comment       0x00000000       0x23 /home/woo/ndsdev/devkitPro/devkitARM/bin/../lib/gcc/arm-eabi/4.6.2/thumb/crtend.o

.ARM.attributes
                0x00000000       0x2f
 .ARM.attributes
                0x00000000       0x23 /home/woo/ndsdev/devkitPro/devkitARM/bin/../lib/gcc/arm-eabi/4.6.2/../../../../arm-eabi/lib/thumb/ds_arm9_crt0.o
 .ARM.attributes
                0x00000023       0x18 /home/woo/ndsdev/devkitPro/devkitARM/bin/../lib/gcc/arm-eabi/4.6.2/thumb/crti.o
 .ARM.attributes
                0x0000003b       0x32 /home/woo/ndsdev/devkitPro/devkitARM/bin/../lib/gcc/arm-eabi/4.6.2/thumb/crtbegin.o
 .ARM.attributes
                0x0000006d       0x29 download.o
 .ARM.attributes
                0x00000096       0x29 main.o
 .ARM.attributes
                0x000000bf       0x29 wifi.o
 .ARM.attributes
                0x000000e8       0x23 jump.o
 .ARM.attributes
                0x0000010b       0x29 /home/woo/ndsdev/devkitPro/libnds/lib/libdswifi9.a(sgIP_DNS.o)
 .ARM.attributes
                0x00000134       0x29 /home/woo/ndsdev/devkitPro/libnds/lib/libdswifi9.a(sgIP_Hub.o)
 .ARM.attributes
                0x0000015d       0x29 /home/woo/ndsdev/devkitPro/libnds/lib/libdswifi9.a(sgIP_memblock.o)
 .ARM.attributes
                0x00000186       0x29 /home/woo/ndsdev/devkitPro/libnds/lib/libdswifi9.a(sgIP_sockets.o)
 .ARM.attributes
                0x000001af       0x29 /home/woo/ndsdev/devkitPro/libnds/lib/libdswifi9.a(wifi_arm9.o)
 .ARM.attributes
                0x000001d8       0x18 /home/woo/ndsdev/devkitPro/libnds/lib/libdswifi9.a(spinlock.o)
 .ARM.attributes
                0x000001f0       0x29 /home/woo/ndsdev/devkitPro/libnds/lib/libdswifi9.a(sgIP.o)
 .ARM.attributes
                0x00000219       0x29 /home/woo/ndsdev/devkitPro/libnds/lib/libdswifi9.a(sgIP_ARP.o)
 .ARM.attributes
                0x00000242       0x29 /home/woo/ndsdev/devkitPro/libnds/lib/libdswifi9.a(sgIP_DHCP.o)
 .ARM.attributes
                0x0000026b       0x29 /home/woo/ndsdev/devkitPro/libnds/lib/libdswifi9.a(sgIP_IP.o)
 .ARM.attributes
                0x00000294       0x29 /home/woo/ndsdev/devkitPro/libnds/lib/libdswifi9.a(sgIP_TCP.o)
 .ARM.attributes
                0x000002bd       0x29 /home/woo/ndsdev/devkitPro/libnds/lib/libdswifi9.a(sgIP_UDP.o)
 .ARM.attributes
                0x000002e6       0x29 /home/woo/ndsdev/devkitPro/libnds/lib/libdswifi9.a(sgIP_ICMP.o)
 .ARM.attributes
                0x0000030f       0x29 /home/woo/ndsdev/devkitPro/libnds/lib/libfat.a(libfat.o)
 .ARM.attributes
                0x00000338       0x29 /home/woo/ndsdev/devkitPro/libnds/lib/libfat.a(partition.o)
 .ARM.attributes
                0x00000361       0x29 /home/woo/ndsdev/devkitPro/libnds/lib/libfat.a(cache.o)
 .ARM.attributes
                0x0000038a       0x29 /home/woo/ndsdev/devkitPro/libnds/lib/libfat.a(directory.o)
 .ARM.attributes
                0x000003b3       0x29 /home/woo/ndsdev/devkitPro/libnds/lib/libfat.a(disc.o)
 .ARM.attributes
                0x000003dc       0x29 /home/woo/ndsdev/devkitPro/libnds/lib/libfat.a(fatdir.o)
 .ARM.attributes
                0x00000405       0x29 /home/woo/ndsdev/devkitPro/libnds/lib/libfat.a(fatfile.o)
 .ARM.attributes
                0x0000042e       0x29 /home/woo/ndsdev/devkitPro/libnds/lib/libfat.a(file_allocation_table.o)
 .ARM.attributes
                0x00000457       0x29 /home/woo/ndsdev/devkitPro/libnds/lib/libfat.a(filetime.o)
 .ARM.attributes
                0x00000480       0x29 /home/woo/ndsdev/devkitPro/libnds/lib/libfat.a(lock.o)
 .ARM.attributes
                0x000004a9       0x29 /home/woo/ndsdev/devkitPro/libnds/lib/libnds9.a(console.o)
 .ARM.attributes
                0x000004d2       0x29 /home/woo/ndsdev/devkitPro/libnds/lib/libnds9.a(keys.o)
 .ARM.attributes
                0x000004fb       0x29 /home/woo/ndsdev/devkitPro/libnds/lib/libnds9.a(dldi.o)
 .ARM.attributes
                0x00000524       0x29 /home/woo/ndsdev/devkitPro/libnds/lib/libnds9.a(dsi_sd.o)
 .ARM.attributes
                0x0000054d       0x29 /home/woo/ndsdev/devkitPro/libnds/lib/libnds9.a(initSystem.o)
 .ARM.attributes
                0x00000576       0x29 /home/woo/ndsdev/devkitPro/libnds/lib/libnds9.a(fifosystem.o)
 .ARM.attributes
                0x0000059f       0x29 /home/woo/ndsdev/devkitPro/libnds/lib/libnds9.a(interrupts.o)
 .ARM.attributes
                0x000005c8       0x29 /home/woo/ndsdev/devkitPro/libnds/lib/libnds9.a(libnds_exit.o)
 .ARM.attributes
                0x000005f1       0x1d /home/woo/ndsdev/devkitPro/libnds/lib/libnds9.a(dcache.o)
 .ARM.attributes
                0x0000060e       0x1d /home/woo/ndsdev/devkitPro/libnds/lib/libnds9.a(dldi_stub.o)
 .ARM.attributes
                0x0000062b       0x23 /home/woo/ndsdev/devkitPro/libnds/lib/libnds9.a(mpu_setup.o)
 .ARM.attributes
                0x0000064e       0x1d /home/woo/ndsdev/devkitPro/libnds/lib/libnds9.a(biosCalls.o)
 .ARM.attributes
                0x0000066b       0x1d /home/woo/ndsdev/devkitPro/libnds/lib/libnds9.a(debugprint.o)
 .ARM.attributes
                0x00000688       0x1d /home/woo/ndsdev/devkitPro/libnds/lib/libnds9.a(interruptDispatcher.o)
 .ARM.attributes
                0x000006a5       0x23 /home/woo/ndsdev/devkitPro/libnds/lib/libnds9.a(swiSoftReset.o)
 .ARM.attributes
                0x000006c8       0x16 /home/woo/ndsdev/devkitPro/libnds/lib/libnds9.a(default_font.bin.o)
 .ARM.attributes
                0x000006de       0x29 /home/woo/ndsdev/devkitPro/libnds/lib/libnds9.a(background.o)
 .ARM.attributes
                0x00000707       0x29 /home/woo/ndsdev/devkitPro/libnds/lib/libnds9.a(system.o)
 .ARM.attributes
                0x00000730       0x29 /home/woo/ndsdev/devkitPro/libnds/lib/libnds9.a(trig.o)
 .ARM.attributes
                0x00000759       0x29 /home/woo/ndsdev/devkitPro/libnds/lib/libnds9.a(video.o)
 .ARM.attributes
                0x00000782       0x1a /home/woo/ndsdev/devkitPro/devkitARM/bin/../lib/gcc/arm-eabi/4.6.2/thumb/libgcc.a(_udivsi3.o)
 .ARM.attributes
                0x0000079c       0x1a /home/woo/ndsdev/devkitPro/devkitARM/bin/../lib/gcc/arm-eabi/4.6.2/thumb/libgcc.a(_divsi3.o)
 .ARM.attributes
                0x000007b6       0x18 /home/woo/ndsdev/devkitPro/devkitARM/bin/../lib/gcc/arm-eabi/4.6.2/thumb/libgcc.a(_dvmd_tls.o)
 .ARM.attributes
                0x000007ce       0x32 /home/woo/ndsdev/devkitPro/devkitARM/bin/../lib/gcc/arm-eabi/4.6.2/thumb/libgcc.a(_muldi3.o)
 .ARM.attributes
                0x00000800       0x32 /home/woo/ndsdev/devkitPro/devkitARM/bin/../lib/gcc/arm-eabi/4.6.2/../../../../arm-eabi/lib/thumb/libg.a(lib_a-atoi.o)
 .ARM.attributes
                0x00000832       0x32 /home/woo/ndsdev/devkitPro/devkitARM/bin/../lib/gcc/arm-eabi/4.6.2/../../../../arm-eabi/lib/thumb/libg.a(lib_a-bsearch.o)
 .ARM.attributes
                0x00000864       0x32 /home/woo/ndsdev/devkitPro/devkitARM/bin/../lib/gcc/arm-eabi/4.6.2/../../../../arm-eabi/lib/thumb/libg.a(lib_a-ctype_.o)
 .ARM.attributes
                0x00000896       0x32 /home/woo/ndsdev/devkitPro/devkitARM/bin/../lib/gcc/arm-eabi/4.6.2/../../../../arm-eabi/lib/thumb/libg.a(lib_a-errno.o)
 .ARM.attributes
                0x000008c8       0x32 /home/woo/ndsdev/devkitPro/devkitARM/bin/../lib/gcc/arm-eabi/4.6.2/../../../../arm-eabi/lib/thumb/libg.a(lib_a-fclose.o)
 .ARM.attributes
                0x000008fa       0x32 /home/woo/ndsdev/devkitPro/devkitARM/bin/../lib/gcc/arm-eabi/4.6.2/../../../../arm-eabi/lib/thumb/libg.a(lib_a-fflush.o)
 .ARM.attributes
                0x0000092c       0x32 /home/woo/ndsdev/devkitPro/devkitARM/bin/../lib/gcc/arm-eabi/4.6.2/../../../../arm-eabi/lib/thumb/libg.a(lib_a-fgets.o)
 .ARM.attributes
                0x0000095e       0x32 /home/woo/ndsdev/devkitPro/devkitARM/bin/../lib/gcc/arm-eabi/4.6.2/../../../../arm-eabi/lib/thumb/libg.a(lib_a-findfp.o)
 .ARM.attributes
                0x00000990       0x32 /home/woo/ndsdev/devkitPro/devkitARM/bin/../lib/gcc/arm-eabi/4.6.2/../../../../arm-eabi/lib/thumb/libg.a(lib_a-fopen.o)
 .ARM.attributes
                0x000009c2       0x32 /home/woo/ndsdev/devkitPro/devkitARM/bin/../lib/gcc/arm-eabi/4.6.2/../../../../arm-eabi/lib/thumb/libg.a(lib_a-freer.o)
 .ARM.attributes
                0x000009f4       0x32 /home/woo/ndsdev/devkitPro/devkitARM/bin/../lib/gcc/arm-eabi/4.6.2/../../../../arm-eabi/lib/thumb/libg.a(lib_a-fseek.o)
 .ARM.attributes
                0x00000a26       0x32 /home/woo/ndsdev/devkitPro/devkitARM/bin/../lib/gcc/arm-eabi/4.6.2/../../../../arm-eabi/lib/thumb/libg.a(lib_a-fwalk.o)
 .ARM.attributes
                0x00000a58       0x32 /home/woo/ndsdev/devkitPro/devkitARM/bin/../lib/gcc/arm-eabi/4.6.2/../../../../arm-eabi/lib/thumb/libg.a(lib_a-fwrite.o)
 .ARM.attributes
                0x00000a8a       0x32 /home/woo/ndsdev/devkitPro/devkitARM/bin/../lib/gcc/arm-eabi/4.6.2/../../../../arm-eabi/lib/thumb/libg.a(lib_a-impure.o)
 .ARM.attributes
                0x00000abc       0x32 /home/woo/ndsdev/devkitPro/devkitARM/bin/../lib/gcc/arm-eabi/4.6.2/../../../../arm-eabi/lib/thumb/libg.a(lib_a-init.o)
 .ARM.attributes
                0x00000aee       0x32 /home/woo/ndsdev/devkitPro/devkitARM/bin/../lib/gcc/arm-eabi/4.6.2/../../../../arm-eabi/lib/thumb/libg.a(lib_a-iprintf.o)
 .ARM.attributes
                0x00000b20       0x32 /home/woo/ndsdev/devkitPro/devkitARM/bin/../lib/gcc/arm-eabi/4.6.2/../../../../arm-eabi/lib/thumb/libg.a(lib_a-lcltime_r.o)
 .ARM.attributes
                0x00000b52       0x32 /home/woo/ndsdev/devkitPro/devkitARM/bin/../lib/gcc/arm-eabi/4.6.2/../../../../arm-eabi/lib/thumb/libg.a(lib_a-locale.o)
 .ARM.attributes
                0x00000b84       0x32 /home/woo/ndsdev/devkitPro/devkitARM/bin/../lib/gcc/arm-eabi/4.6.2/../../../../arm-eabi/lib/thumb/libg.a(lib_a-makebuf.o)
 .ARM.attributes
                0x00000bb6       0x32 /home/woo/ndsdev/devkitPro/devkitARM/bin/../lib/gcc/arm-eabi/4.6.2/../../../../arm-eabi/lib/thumb/libg.a(lib_a-malloc.o)
 .ARM.attributes
                0x00000be8       0x32 /home/woo/ndsdev/devkitPro/devkitARM/bin/../lib/gcc/arm-eabi/4.6.2/../../../../arm-eabi/lib/thumb/libg.a(lib_a-mallocr.o)
 .ARM.attributes
                0x00000c1a       0x32 /home/woo/ndsdev/devkitPro/devkitARM/bin/../lib/gcc/arm-eabi/4.6.2/../../../../arm-eabi/lib/thumb/libg.a(lib_a-mbrtowc.o)
 .ARM.attributes
                0x00000c4c       0x32 /home/woo/ndsdev/devkitPro/devkitARM/bin/../lib/gcc/arm-eabi/4.6.2/../../../../arm-eabi/lib/thumb/libg.a(lib_a-mbsrtowcs.o)
 .ARM.attributes
                0x00000c7e       0x32 /home/woo/ndsdev/devkitPro/devkitARM/bin/../lib/gcc/arm-eabi/4.6.2/../../../../arm-eabi/lib/thumb/libg.a(lib_a-mbtowc_r.o)
 .ARM.attributes
                0x00000cb0       0x32 /home/woo/ndsdev/devkitPro/devkitARM/bin/../lib/gcc/arm-eabi/4.6.2/../../../../arm-eabi/lib/thumb/libg.a(lib_a-memchr-stub.o)
 .ARM.attributes
                0x00000ce2       0x32 /home/woo/ndsdev/devkitPro/devkitARM/bin/../lib/gcc/arm-eabi/4.6.2/../../../../arm-eabi/lib/thumb/libg.a(lib_a-memcmp.o)
 .ARM.attributes
                0x00000d14       0x32 /home/woo/ndsdev/devkitPro/devkitARM/bin/../lib/gcc/arm-eabi/4.6.2/../../../../arm-eabi/lib/thumb/libg.a(lib_a-memcpy-stub.o)
 .ARM.attributes
                0x00000d46       0x32 /home/woo/ndsdev/devkitPro/devkitARM/bin/../lib/gcc/arm-eabi/4.6.2/../../../../arm-eabi/lib/thumb/libg.a(lib_a-memmove.o)
 .ARM.attributes
                0x00000d78       0x32 /home/woo/ndsdev/devkitPro/devkitARM/bin/../lib/gcc/arm-eabi/4.6.2/../../../../arm-eabi/lib/thumb/libg.a(lib_a-memset.o)
 .ARM.attributes
                0x00000daa       0x32 /home/woo/ndsdev/devkitPro/devkitARM/bin/../lib/gcc/arm-eabi/4.6.2/../../../../arm-eabi/lib/thumb/libg.a(lib_a-mktime.o)
 .ARM.attributes
                0x00000ddc       0x32 /home/woo/ndsdev/devkitPro/devkitARM/bin/../lib/gcc/arm-eabi/4.6.2/../../../../arm-eabi/lib/thumb/libg.a(lib_a-mktm_r.o)
 .ARM.attributes
                0x00000e0e       0x32 /home/woo/ndsdev/devkitPro/devkitARM/bin/../lib/gcc/arm-eabi/4.6.2/../../../../arm-eabi/lib/thumb/libg.a(lib_a-mlock.o)
 .ARM.attributes
                0x00000e40       0x32 /home/woo/ndsdev/devkitPro/devkitARM/bin/../lib/gcc/arm-eabi/4.6.2/../../../../arm-eabi/lib/thumb/libg.a(lib_a-printf.o)
 .ARM.attributes
                0x00000e72       0x32 /home/woo/ndsdev/devkitPro/devkitARM/bin/../lib/gcc/arm-eabi/4.6.2/../../../../arm-eabi/lib/thumb/libg.a(lib_a-refill.o)
 .ARM.attributes
                0x00000ea4       0x32 /home/woo/ndsdev/devkitPro/devkitARM/bin/../lib/gcc/arm-eabi/4.6.2/../../../../arm-eabi/lib/thumb/libg.a(lib_a-setvbuf.o)
 .ARM.attributes
                0x00000ed6       0x32 /home/woo/ndsdev/devkitPro/devkitARM/bin/../lib/gcc/arm-eabi/4.6.2/../../../../arm-eabi/lib/thumb/libg.a(lib_a-siscanf.o)
 .ARM.attributes
                0x00000f08       0x32 /home/woo/ndsdev/devkitPro/devkitARM/bin/../lib/gcc/arm-eabi/4.6.2/../../../../arm-eabi/lib/thumb/libg.a(lib_a-sprintf.o)
 .ARM.attributes
                0x00000f3a       0x32 /home/woo/ndsdev/devkitPro/devkitARM/bin/../lib/gcc/arm-eabi/4.6.2/../../../../arm-eabi/lib/thumb/libg.a(lib_a-sscanf.o)
 .ARM.attributes
                0x00000f6c       0x32 /home/woo/ndsdev/devkitPro/devkitARM/bin/../lib/gcc/arm-eabi/4.6.2/../../../../arm-eabi/lib/thumb/libg.a(lib_a-stdio.o)
 .ARM.attributes
                0x00000f9e       0x32 /home/woo/ndsdev/devkitPro/devkitARM/bin/../lib/gcc/arm-eabi/4.6.2/../../../../arm-eabi/lib/thumb/libg.a(lib_a-strcasecmp.o)
 .ARM.attributes
                0x00000fd0       0x32 /home/woo/ndsdev/devkitPro/devkitARM/bin/../lib/gcc/arm-eabi/4.6.2/../../../../arm-eabi/lib/thumb/libg.a(lib_a-strcat.o)
 .ARM.attributes
                0x00001002       0x32 /home/woo/ndsdev/devkitPro/devkitARM/bin/../lib/gcc/arm-eabi/4.6.2/../../../../arm-eabi/lib/thumb/libg.a(lib_a-strchr.o)
 .ARM.attributes
                0x00001034       0x32 /home/woo/ndsdev/devkitPro/devkitARM/bin/../lib/gcc/arm-eabi/4.6.2/../../../../arm-eabi/lib/thumb/libg.a(lib_a-strcmp.o)
 .ARM.attributes
                0x00001066       0x32 /home/woo/ndsdev/devkitPro/devkitARM/bin/../lib/gcc/arm-eabi/4.6.2/../../../../arm-eabi/lib/thumb/libg.a(lib_a-strcpy.o)
 .ARM.attributes
                0x00001098       0x32 /home/woo/ndsdev/devkitPro/devkitARM/bin/../lib/gcc/arm-eabi/4.6.2/../../../../arm-eabi/lib/thumb/libg.a(lib_a-strlcpy.o)
 .ARM.attributes
                0x000010ca       0x32 /home/woo/ndsdev/devkitPro/devkitARM/bin/../lib/gcc/arm-eabi/4.6.2/../../../../arm-eabi/lib/thumb/libg.a(lib_a-strlen.o)
 .ARM.attributes
                0x000010fc       0x32 /home/woo/ndsdev/devkitPro/devkitARM/bin/../lib/gcc/arm-eabi/4.6.2/../../../../arm-eabi/lib/thumb/libg.a(lib_a-strncasecmp.o)
 .ARM.attributes
                0x0000112e       0x32 /home/woo/ndsdev/devkitPro/devkitARM/bin/../lib/gcc/arm-eabi/4.6.2/../../../../arm-eabi/lib/thumb/libg.a(lib_a-strncmp.o)
 .ARM.attributes
                0x00001160       0x32 /home/woo/ndsdev/devkitPro/devkitARM/bin/../lib/gcc/arm-eabi/4.6.2/../../../../arm-eabi/lib/thumb/libg.a(lib_a-strncpy.o)
 .ARM.attributes
                0x00001192       0x32 /home/woo/ndsdev/devkitPro/devkitARM/bin/../lib/gcc/arm-eabi/4.6.2/../../../../arm-eabi/lib/thumb/libg.a(lib_a-strnlen.o)
 .ARM.attributes
                0x000011c4       0x32 /home/woo/ndsdev/devkitPro/devkitARM/bin/../lib/gcc/arm-eabi/4.6.2/../../../../arm-eabi/lib/thumb/libg.a(lib_a-strpbrk.o)
 .ARM.attributes
                0x000011f6       0x32 /home/woo/ndsdev/devkitPro/devkitARM/bin/../lib/gcc/arm-eabi/4.6.2/../../../../arm-eabi/lib/thumb/libg.a(lib_a-strrchr.o)
 .ARM.attributes
                0x00001228       0x32 /home/woo/ndsdev/devkitPro/devkitARM/bin/../lib/gcc/arm-eabi/4.6.2/../../../../arm-eabi/lib/thumb/libg.a(lib_a-strtol.o)
 .ARM.attributes
                0x0000125a       0x32 /home/woo/ndsdev/devkitPro/devkitARM/bin/../lib/gcc/arm-eabi/4.6.2/../../../../arm-eabi/lib/thumb/libg.a(lib_a-svfiscanf.o)
 .ARM.attributes
                0x0000128c       0x32 /home/woo/ndsdev/devkitPro/devkitARM/bin/../lib/gcc/arm-eabi/4.6.2/../../../../arm-eabi/lib/thumb/libg.a(lib_a-svfprintf.o)
 .ARM.attributes
                0x000012be       0x32 /home/woo/ndsdev/devkitPro/devkitARM/bin/../lib/gcc/arm-eabi/4.6.2/../../../../arm-eabi/lib/thumb/libg.a(lib_a-svfscanf.o)
 .ARM.attributes
                0x000012f0       0x32 /home/woo/ndsdev/devkitPro/devkitARM/bin/../lib/gcc/arm-eabi/4.6.2/../../../../arm-eabi/lib/thumb/libg.a(lib_a-sysclose.o)
 .ARM.attributes
                0x00001322       0x32 /home/woo/ndsdev/devkitPro/devkitARM/bin/../lib/gcc/arm-eabi/4.6.2/../../../../arm-eabi/lib/thumb/libg.a(lib_a-syslseek.o)
 .ARM.attributes
                0x00001354       0x32 /home/woo/ndsdev/devkitPro/devkitARM/bin/../lib/gcc/arm-eabi/4.6.2/../../../../arm-eabi/lib/thumb/libg.a(lib_a-sysopen.o)
 .ARM.attributes
                0x00001386       0x32 /home/woo/ndsdev/devkitPro/devkitARM/bin/../lib/gcc/arm-eabi/4.6.2/../../../../arm-eabi/lib/thumb/libg.a(lib_a-sysread.o)
 .ARM.attributes
                0x000013b8       0x32 /home/woo/ndsdev/devkitPro/devkitARM/bin/../lib/gcc/arm-eabi/4.6.2/../../../../arm-eabi/lib/thumb/libg.a(lib_a-time.o)
 .ARM.attributes
                0x000013ea       0x32 /home/woo/ndsdev/devkitPro/devkitARM/bin/../lib/gcc/arm-eabi/4.6.2/../../../../arm-eabi/lib/thumb/libg.a(lib_a-towlower.o)
 .ARM.attributes
                0x0000141c       0x32 /home/woo/ndsdev/devkitPro/devkitARM/bin/../lib/gcc/arm-eabi/4.6.2/../../../../arm-eabi/lib/thumb/libg.a(lib_a-towupper.o)
 .ARM.attributes
                0x0000144e       0x32 /home/woo/ndsdev/devkitPro/devkitARM/bin/../lib/gcc/arm-eabi/4.6.2/../../../../arm-eabi/lib/thumb/libg.a(lib_a-tzlock.o)
 .ARM.attributes
                0x00001480       0x32 /home/woo/ndsdev/devkitPro/devkitARM/bin/../lib/gcc/arm-eabi/4.6.2/../../../../arm-eabi/lib/thumb/libg.a(lib_a-tzvars.o)
 .ARM.attributes
                0x000014b2       0x32 /home/woo/ndsdev/devkitPro/devkitARM/bin/../lib/gcc/arm-eabi/4.6.2/../../../../arm-eabi/lib/thumb/libg.a(lib_a-ungetc.o)
 .ARM.attributes
                0x000014e4       0x32 /home/woo/ndsdev/devkitPro/devkitARM/bin/../lib/gcc/arm-eabi/4.6.2/../../../../arm-eabi/lib/thumb/libg.a(lib_a-vfiprintf.o)
 .ARM.attributes
                0x00001516       0x32 /home/woo/ndsdev/devkitPro/devkitARM/bin/../lib/gcc/arm-eabi/4.6.2/../../../../arm-eabi/lib/thumb/libg.a(lib_a-vfprintf.o)
 .ARM.attributes
                0x00001548       0x32 /home/woo/ndsdev/devkitPro/devkitARM/bin/../lib/gcc/arm-eabi/4.6.2/../../../../arm-eabi/lib/thumb/libg.a(lib_a-wcrtomb.o)
 .ARM.attributes
                0x0000157a       0x32 /home/woo/ndsdev/devkitPro/devkitARM/bin/../lib/gcc/arm-eabi/4.6.2/../../../../arm-eabi/lib/thumb/libg.a(lib_a-wcsrtombs.o)
 .ARM.attributes
                0x000015ac       0x32 /home/woo/ndsdev/devkitPro/devkitARM/bin/../lib/gcc/arm-eabi/4.6.2/../../../../arm-eabi/lib/thumb/libg.a(lib_a-wctob.o)
 .ARM.attributes
                0x000015de       0x32 /home/woo/ndsdev/devkitPro/devkitARM/bin/../lib/gcc/arm-eabi/4.6.2/../../../../arm-eabi/lib/thumb/libg.a(lib_a-wctomb_r.o)
 .ARM.attributes
                0x00001610       0x32 /home/woo/ndsdev/devkitPro/devkitARM/bin/../lib/gcc/arm-eabi/4.6.2/../../../../arm-eabi/lib/thumb/libg.a(lib_a-wsetup.o)
 .ARM.attributes
                0x00001642       0x32 /home/woo/ndsdev/devkitPro/devkitARM/bin/../lib/gcc/arm-eabi/4.6.2/../../../../arm-eabi/lib/thumb/libg.a(lib_a-div.o)
 .ARM.attributes
                0x00001674       0x32 /home/woo/ndsdev/devkitPro/devkitARM/bin/../lib/gcc/arm-eabi/4.6.2/../../../../arm-eabi/lib/thumb/libg.a(lib_a-dtoa.o)
 .ARM.attributes
                0x000016a6       0x32 /home/woo/ndsdev/devkitPro/devkitARM/bin/../lib/gcc/arm-eabi/4.6.2/../../../../arm-eabi/lib/thumb/libg.a(lib_a-flags.o)
 .ARM.attributes
                0x000016d8       0x32 /home/woo/ndsdev/devkitPro/devkitARM/bin/../lib/gcc/arm-eabi/4.6.2/../../../../arm-eabi/lib/thumb/libg.a(lib_a-fputwc.o)
 .ARM.attributes
                0x0000170a       0x32 /home/woo/ndsdev/devkitPro/devkitARM/bin/../lib/gcc/arm-eabi/4.6.2/../../../../arm-eabi/lib/thumb/libg.a(lib_a-fvwrite.o)
 .ARM.attributes
                0x0000173c       0x32 /home/woo/ndsdev/devkitPro/devkitARM/bin/../lib/gcc/arm-eabi/4.6.2/../../../../arm-eabi/lib/thumb/libg.a(lib_a-getenv_r.o)
 .ARM.attributes
                0x0000176e       0x32 /home/woo/ndsdev/devkitPro/devkitARM/bin/../lib/gcc/arm-eabi/4.6.2/../../../../arm-eabi/lib/thumb/libg.a(lib_a-gettzinfo.o)
 .ARM.attributes
                0x000017a0       0x32 /home/woo/ndsdev/devkitPro/devkitARM/bin/../lib/gcc/arm-eabi/4.6.2/../../../../arm-eabi/lib/thumb/libg.a(lib_a-iswspace.o)
 .ARM.attributes
                0x000017d2       0x32 /home/woo/ndsdev/devkitPro/devkitARM/bin/../lib/gcc/arm-eabi/4.6.2/../../../../arm-eabi/lib/thumb/libg.a(lib_a-jp2uc.o)
 .ARM.attributes
                0x00001804       0x32 /home/woo/ndsdev/devkitPro/devkitARM/bin/../lib/gcc/arm-eabi/4.6.2/../../../../arm-eabi/lib/thumb/libg.a(lib_a-mbsnrtowcs.o)
 .ARM.attributes
                0x00001836       0x32 /home/woo/ndsdev/devkitPro/devkitARM/bin/../lib/gcc/arm-eabi/4.6.2/../../../../arm-eabi/lib/thumb/libg.a(lib_a-mprec.o)
 .ARM.attributes
                0x00001868       0x32 /home/woo/ndsdev/devkitPro/devkitARM/bin/../lib/gcc/arm-eabi/4.6.2/../../../../arm-eabi/lib/thumb/libg.a(lib_a-reallocr.o)
 .ARM.attributes
                0x0000189a       0x32 /home/woo/ndsdev/devkitPro/devkitARM/bin/../lib/gcc/arm-eabi/4.6.2/../../../../arm-eabi/lib/thumb/libg.a(lib_a-sccl.o)
 .ARM.attributes
                0x000018cc       0x32 /home/woo/ndsdev/devkitPro/devkitARM/bin/../lib/gcc/arm-eabi/4.6.2/../../../../arm-eabi/lib/thumb/libg.a(lib_a-sf_nan.o)
 .ARM.attributes
                0x000018fe       0x32 /home/woo/ndsdev/devkitPro/devkitARM/bin/../lib/gcc/arm-eabi/4.6.2/../../../../arm-eabi/lib/thumb/libg.a(lib_a-s_fpclassify.o)
 .ARM.attributes
                0x00001930       0x32 /home/woo/ndsdev/devkitPro/devkitARM/bin/../lib/gcc/arm-eabi/4.6.2/../../../../arm-eabi/lib/thumb/libg.a(lib_a-strtod.o)
 .ARM.attributes
                0x00001962       0x32 /home/woo/ndsdev/devkitPro/devkitARM/bin/../lib/gcc/arm-eabi/4.6.2/../../../../arm-eabi/lib/thumb/libg.a(lib_a-strtoll_r.o)
 .ARM.attributes
                0x00001994       0x32 /home/woo/ndsdev/devkitPro/devkitARM/bin/../lib/gcc/arm-eabi/4.6.2/../../../../arm-eabi/lib/thumb/libg.a(lib_a-strtoull_r.o)
 .ARM.attributes
                0x000019c6       0x32 /home/woo/ndsdev/devkitPro/devkitARM/bin/../lib/gcc/arm-eabi/4.6.2/../../../../arm-eabi/lib/thumb/libg.a(lib_a-strtoul.o)
 .ARM.attributes
                0x000019f8       0x32 /home/woo/ndsdev/devkitPro/devkitARM/bin/../lib/gcc/arm-eabi/4.6.2/../../../../arm-eabi/lib/thumb/libg.a(lib_a-svfiprintf.o)
 .ARM.attributes
                0x00001a2a       0x32 /home/woo/ndsdev/devkitPro/devkitARM/bin/../lib/gcc/arm-eabi/4.6.2/../../../../arm-eabi/lib/thumb/libg.a(lib_a-wbuf.o)
 .ARM.attributes
                0x00001a5c       0x32 /home/woo/ndsdev/devkitPro/devkitARM/bin/../lib/gcc/arm-eabi/4.6.2/../../../../arm-eabi/lib/thumb/libg.a(lib_a-wcsnrtombs.o)
 .ARM.attributes
                0x00001a8e       0x32 /home/woo/ndsdev/devkitPro/devkitARM/bin/../lib/gcc/arm-eabi/4.6.2/../../../../arm-eabi/lib/thumb/libg.a(lib_a-callocr.o)
 .ARM.attributes
                0x00001ac0       0x32 /home/woo/ndsdev/devkitPro/devkitARM/bin/../lib/gcc/arm-eabi/4.6.2/../../../../arm-eabi/lib/thumb/libg.a(lib_a-environ.o)
 .ARM.attributes
                0x00001af2       0x32 /home/woo/ndsdev/devkitPro/devkitARM/bin/../lib/gcc/arm-eabi/4.6.2/../../../../arm-eabi/lib/thumb/libg.a(lib_a-envlock.o)
 .ARM.attributes
                0x00001b24       0x32 /home/woo/ndsdev/devkitPro/devkitARM/bin/../lib/gcc/arm-eabi/4.6.2/../../../../arm-eabi/lib/thumb/libg.a(lib_a-gdtoa-gethex.o)
 .ARM.attributes
                0x00001b56       0x32 /home/woo/ndsdev/devkitPro/devkitARM/bin/../lib/gcc/arm-eabi/4.6.2/../../../../arm-eabi/lib/thumb/libg.a(lib_a-gdtoa-hexnan.o)
 .ARM.attributes
                0x00001b88       0x32 /home/woo/ndsdev/devkitPro/devkitARM/bin/../lib/gcc/arm-eabi/4.6.2/../../../../arm-eabi/lib/thumb/libsysbase.a(iosupport.o)
 .ARM.attributes
                0x00001bba       0x32 /home/woo/ndsdev/devkitPro/devkitARM/bin/../lib/gcc/arm-eabi/4.6.2/../../../../arm-eabi/lib/thumb/libsysbase.a(close.o)
 .ARM.attributes
                0x00001bec       0x32 /home/woo/ndsdev/devkitPro/devkitARM/bin/../lib/gcc/arm-eabi/4.6.2/../../../../arm-eabi/lib/thumb/libsysbase.a(fstat.o)
 .ARM.attributes
                0x00001c1e       0x32 /home/woo/ndsdev/devkitPro/devkitARM/bin/../lib/gcc/arm-eabi/4.6.2/../../../../arm-eabi/lib/thumb/libsysbase.a(isatty.o)
 .ARM.attributes
                0x00001c50       0x32 /home/woo/ndsdev/devkitPro/devkitARM/bin/../lib/gcc/arm-eabi/4.6.2/../../../../arm-eabi/lib/thumb/libsysbase.a(lseek.o)
 .ARM.attributes
                0x00001c82       0x32 /home/woo/ndsdev/devkitPro/devkitARM/bin/../lib/gcc/arm-eabi/4.6.2/../../../../arm-eabi/lib/thumb/libsysbase.a(open.o)
 .ARM.attributes
                0x00001cb4       0x32 /home/woo/ndsdev/devkitPro/devkitARM/bin/../lib/gcc/arm-eabi/4.6.2/../../../../arm-eabi/lib/thumb/libsysbase.a(read.o)
 .ARM.attributes
                0x00001ce6       0x32 /home/woo/ndsdev/devkitPro/devkitARM/bin/../lib/gcc/arm-eabi/4.6.2/../../../../arm-eabi/lib/thumb/libsysbase.a(sbrk.o)
 .ARM.attributes
                0x00001d18       0x32 /home/woo/ndsdev/devkitPro/devkitARM/bin/../lib/gcc/arm-eabi/4.6.2/../../../../arm-eabi/lib/thumb/libsysbase.a(times.o)
 .ARM.attributes
                0x00001d4a       0x32 /home/woo/ndsdev/devkitPro/devkitARM/bin/../lib/gcc/arm-eabi/4.6.2/../../../../arm-eabi/lib/thumb/libsysbase.a(write.o)
 .ARM.attributes
                0x00001d7c       0x32 /home/woo/ndsdev/devkitPro/devkitARM/bin/../lib/gcc/arm-eabi/4.6.2/../../../../arm-eabi/lib/thumb/libsysbase.a(malloc_vars.o)
 .ARM.attributes
                0x00001dae       0x32 /home/woo/ndsdev/devkitPro/devkitARM/bin/../lib/gcc/arm-eabi/4.6.2/../../../../arm-eabi/lib/thumb/libsysbase.a(chdir.o)
 .ARM.attributes
                0x00001de0       0x32 /home/woo/ndsdev/devkitPro/devkitARM/bin/../lib/gcc/arm-eabi/4.6.2/../../../../arm-eabi/lib/thumb/libsysbase.a(build_argv.o)
 .ARM.attributes
                0x00001e12       0x32 /home/woo/ndsdev/devkitPro/devkitARM/bin/../lib/gcc/arm-eabi/4.6.2/../../../../arm-eabi/lib/thumb/libsysbase.a(syscall_support.o)
 .ARM.attributes
                0x00001e44       0x32 /home/woo/ndsdev/devkitPro/devkitARM/bin/../lib/gcc/arm-eabi/4.6.2/../../../../arm-eabi/lib/thumb/libsysbase.a(handle_manager.o)
 .ARM.attributes
                0x00001e76       0x1a /home/woo/ndsdev/devkitPro/devkitARM/bin/../lib/gcc/arm-eabi/4.6.2/thumb/libgcc.a(_arm_addsubdf3.o)
 .ARM.attributes
                0x00001e90       0x1a /home/woo/ndsdev/devkitPro/devkitARM/bin/../lib/gcc/arm-eabi/4.6.2/thumb/libgcc.a(_arm_muldivdf3.o)
 .ARM.attributes
                0x00001eaa       0x1a /home/woo/ndsdev/devkitPro/devkitARM/bin/../lib/gcc/arm-eabi/4.6.2/thumb/libgcc.a(_arm_cmpdf2.o)
 .ARM.attributes
                0x00001ec4       0x1a /home/woo/ndsdev/devkitPro/devkitARM/bin/../lib/gcc/arm-eabi/4.6.2/thumb/libgcc.a(_arm_fixdfsi.o)
 .ARM.attributes
                0x00001ede       0x1a /home/woo/ndsdev/devkitPro/devkitARM/bin/../lib/gcc/arm-eabi/4.6.2/thumb/libgcc.a(_arm_fixunsdfsi.o)
 .ARM.attributes
                0x00001ef8       0x1a /home/woo/ndsdev/devkitPro/devkitARM/bin/../lib/gcc/arm-eabi/4.6.2/thumb/libgcc.a(_arm_truncdfsf2.o)
 .ARM.attributes
                0x00001f12       0x1a /home/woo/ndsdev/devkitPro/devkitARM/bin/../lib/gcc/arm-eabi/4.6.2/thumb/libgcc.a(_aeabi_uldivmod.o)
 .ARM.attributes
                0x00001f2c       0x32 /home/woo/ndsdev/devkitPro/devkitARM/bin/../lib/gcc/arm-eabi/4.6.2/thumb/libgcc.a(bpabi.o)
 .ARM.attributes
                0x00001f5e       0x32 /home/woo/ndsdev/devkitPro/devkitARM/bin/../lib/gcc/arm-eabi/4.6.2/thumb/libgcc.a(_divdi3.o)
 .ARM.attributes
                0x00001f90       0x32 /home/woo/ndsdev/devkitPro/devkitARM/bin/../lib/gcc/arm-eabi/4.6.2/thumb/libgcc.a(_udivdi3.o)
 .ARM.attributes
                0x00001fc2       0x1a /home/woo/ndsdev/devkitPro/devkitARM/bin/../lib/gcc/arm-eabi/4.6.2/thumb/libgcc.a(_clzsi2.o)
 .ARM.attributes
                0x00001fdc       0x32 /home/woo/ndsdev/devkitPro/devkitARM/bin/../lib/gcc/arm-eabi/4.6.2/thumb/crtend.o
 .ARM.attributes
                0x0000200e       0x18 /home/woo/ndsdev/devkitPro/devkitARM/bin/../lib/gcc/arm-eabi/4.6.2/thumb/crtn.o

.debug
 *(.debug)

.line
 *(.line)

.debug_srcinfo
 *(.debug_srcinfo)

.debug_sfnames
 *(.debug_sfnames)

.debug_aranges  0x00000000      0x5c8
 *(.debug_aranges)
 .debug_aranges
                0x00000000       0x20 download.o
 .debug_aranges
                0x00000020       0x28 main.o
 .debug_aranges
                0x00000048       0x20 wifi.o
 .debug_aranges
                0x00000068       0x20 jump.o
 .debug_aranges
                0x00000088       0x20 /home/woo/ndsdev/devkitPro/libnds/lib/libdswifi9.a(sgIP_DNS.o)
 .debug_aranges
                0x000000a8       0x20 /home/woo/ndsdev/devkitPro/libnds/lib/libdswifi9.a(sgIP_Hub.o)
 .debug_aranges
                0x000000c8       0x20 /home/woo/ndsdev/devkitPro/libnds/lib/libdswifi9.a(sgIP_memblock.o)
 .debug_aranges
                0x000000e8       0x20 /home/woo/ndsdev/devkitPro/libnds/lib/libdswifi9.a(sgIP_sockets.o)
 .debug_aranges
                0x00000108       0x20 /home/woo/ndsdev/devkitPro/libnds/lib/libdswifi9.a(wifi_arm9.o)
 .debug_aranges
                0x00000128       0x20 /home/woo/ndsdev/devkitPro/libnds/lib/libdswifi9.a(spinlock.o)
 .debug_aranges
                0x00000148       0x20 /home/woo/ndsdev/devkitPro/libnds/lib/libdswifi9.a(sgIP.o)
 .debug_aranges
                0x00000168       0x20 /home/woo/ndsdev/devkitPro/libnds/lib/libdswifi9.a(sgIP_ARP.o)
 .debug_aranges
                0x00000188       0x20 /home/woo/ndsdev/devkitPro/libnds/lib/libdswifi9.a(sgIP_DHCP.o)
 .debug_aranges
                0x000001a8       0x20 /home/woo/ndsdev/devkitPro/libnds/lib/libdswifi9.a(sgIP_IP.o)
 .debug_aranges
                0x000001c8       0x20 /home/woo/ndsdev/devkitPro/libnds/lib/libdswifi9.a(sgIP_TCP.o)
 .debug_aranges
                0x000001e8       0x20 /home/woo/ndsdev/devkitPro/libnds/lib/libdswifi9.a(sgIP_UDP.o)
 .debug_aranges
                0x00000208       0x20 /home/woo/ndsdev/devkitPro/libnds/lib/libdswifi9.a(sgIP_ICMP.o)
 .debug_aranges
                0x00000228       0x20 /home/woo/ndsdev/devkitPro/libnds/lib/libfat.a(libfat.o)
 .debug_aranges
                0x00000248       0x20 /home/woo/ndsdev/devkitPro/libnds/lib/libfat.a(partition.o)
 .debug_aranges
                0x00000268       0x20 /home/woo/ndsdev/devkitPro/libnds/lib/libfat.a(cache.o)
 .debug_aranges
                0x00000288       0x20 /home/woo/ndsdev/devkitPro/libnds/lib/libfat.a(directory.o)
 .debug_aranges
                0x000002a8       0x20 /home/woo/ndsdev/devkitPro/libnds/lib/libfat.a(disc.o)
 .debug_aranges
                0x000002c8       0x20 /home/woo/ndsdev/devkitPro/libnds/lib/libfat.a(fatdir.o)
 .debug_aranges
                0x000002e8       0x20 /home/woo/ndsdev/devkitPro/libnds/lib/libfat.a(fatfile.o)
 .debug_aranges
                0x00000308       0x20 /home/woo/ndsdev/devkitPro/libnds/lib/libfat.a(file_allocation_table.o)
 .debug_aranges
                0x00000328       0x20 /home/woo/ndsdev/devkitPro/libnds/lib/libfat.a(filetime.o)
 .debug_aranges
                0x00000348       0x20 /home/woo/ndsdev/devkitPro/libnds/lib/libfat.a(lock.o)
 .debug_aranges
                0x00000368       0x20 /home/woo/ndsdev/devkitPro/libnds/lib/libnds9.a(console.o)
 .debug_aranges
                0x00000388       0x20 /home/woo/ndsdev/devkitPro/libnds/lib/libnds9.a(keys.o)
 .debug_aranges
                0x000003a8       0x20 /home/woo/ndsdev/devkitPro/libnds/lib/libnds9.a(dldi.o)
 .debug_aranges
                0x000003c8       0x20 /home/woo/ndsdev/devkitPro/libnds/lib/libnds9.a(dsi_sd.o)
 .debug_aranges
                0x000003e8       0x20 /home/woo/ndsdev/devkitPro/libnds/lib/libnds9.a(initSystem.o)
 .debug_aranges
                0x00000408       0x20 /home/woo/ndsdev/devkitPro/libnds/lib/libnds9.a(fifosystem.o)
 .debug_aranges
                0x00000428       0x20 /home/woo/ndsdev/devkitPro/libnds/lib/libnds9.a(interrupts.o)
 .debug_aranges
                0x00000448       0x20 /home/woo/ndsdev/devkitPro/libnds/lib/libnds9.a(libnds_exit.o)
 .debug_aranges
                0x00000468       0x20 /home/woo/ndsdev/devkitPro/libnds/lib/libnds9.a(dcache.o)
 .debug_aranges
                0x00000488       0x20 /home/woo/ndsdev/devkitPro/libnds/lib/libnds9.a(dldi_stub.o)
 .debug_aranges
                0x000004a8       0x20 /home/woo/ndsdev/devkitPro/libnds/lib/libnds9.a(mpu_setup.o)
 .debug_aranges
                0x000004c8       0x20 /home/woo/ndsdev/devkitPro/libnds/lib/libnds9.a(biosCalls.o)
 .debug_aranges
                0x000004e8       0x20 /home/woo/ndsdev/devkitPro/libnds/lib/libnds9.a(debugprint.o)
 .debug_aranges
                0x00000508       0x20 /home/woo/ndsdev/devkitPro/libnds/lib/libnds9.a(interruptDispatcher.o)
 .debug_aranges
                0x00000528       0x20 /home/woo/ndsdev/devkitPro/libnds/lib/libnds9.a(swiSoftReset.o)
 .debug_aranges
                0x00000548       0x20 /home/woo/ndsdev/devkitPro/libnds/lib/libnds9.a(background.o)
 .debug_aranges
                0x00000568       0x20 /home/woo/ndsdev/devkitPro/libnds/lib/libnds9.a(system.o)
 .debug_aranges
                0x00000588       0x20 /home/woo/ndsdev/devkitPro/libnds/lib/libnds9.a(trig.o)
 .debug_aranges
                0x000005a8       0x20 /home/woo/ndsdev/devkitPro/libnds/lib/libnds9.a(video.o)

.debug_pubnames
 *(.debug_pubnames)

.debug_info     0x00000000    0x21876
 *(.debug_info)
 .debug_info    0x00000000     0x1642 download.o
 .debug_info    0x00001642      0xb72 main.o
 .debug_info    0x000021b4     0x15b2 wifi.o
 .debug_info    0x00003766       0x90 jump.o
 .debug_info    0x000037f6     0x10b7 /home/woo/ndsdev/devkitPro/libnds/lib/libdswifi9.a(sgIP_DNS.o)
 .debug_info    0x000048ad      0x75b /home/woo/ndsdev/devkitPro/libnds/lib/libdswifi9.a(sgIP_Hub.o)
 .debug_info    0x00005008      0x58a /home/woo/ndsdev/devkitPro/libnds/lib/libdswifi9.a(sgIP_memblock.o)
 .debug_info    0x00005592     0x1ecc /home/woo/ndsdev/devkitPro/libnds/lib/libdswifi9.a(sgIP_sockets.o)
 .debug_info    0x0000745e     0x2e81 /home/woo/ndsdev/devkitPro/libnds/lib/libdswifi9.a(wifi_arm9.o)
 .debug_info    0x0000a2df       0xbe /home/woo/ndsdev/devkitPro/libnds/lib/libdswifi9.a(spinlock.o)
 .debug_info    0x0000a39d      0x35d /home/woo/ndsdev/devkitPro/libnds/lib/libdswifi9.a(sgIP.o)
 .debug_info    0x0000a6fa      0xbc3 /home/woo/ndsdev/devkitPro/libnds/lib/libdswifi9.a(sgIP_ARP.o)
 .debug_info    0x0000b2bd      0xd6c /home/woo/ndsdev/devkitPro/libnds/lib/libdswifi9.a(sgIP_DHCP.o)
 .debug_info    0x0000c029      0x5d1 /home/woo/ndsdev/devkitPro/libnds/lib/libdswifi9.a(sgIP_IP.o)
 .debug_info    0x0000c5fa     0x1852 /home/woo/ndsdev/devkitPro/libnds/lib/libdswifi9.a(sgIP_TCP.o)
 .debug_info    0x0000de4c      0xb80 /home/woo/ndsdev/devkitPro/libnds/lib/libdswifi9.a(sgIP_UDP.o)
 .debug_info    0x0000e9cc      0x28a /home/woo/ndsdev/devkitPro/libnds/lib/libdswifi9.a(sgIP_ICMP.o)
 .debug_info    0x0000ec56     0x19fc /home/woo/ndsdev/devkitPro/libnds/lib/libfat.a(libfat.o)
 .debug_info    0x00010652     0x21cf /home/woo/ndsdev/devkitPro/libnds/lib/libfat.a(partition.o)
 .debug_info    0x00012821      0xc24 /home/woo/ndsdev/devkitPro/libnds/lib/libfat.a(cache.o)
 .debug_info    0x00013445     0x1c5a /home/woo/ndsdev/devkitPro/libnds/lib/libfat.a(directory.o)
 .debug_info    0x0001509f      0x275 /home/woo/ndsdev/devkitPro/libnds/lib/libfat.a(disc.o)
 .debug_info    0x00015314     0x1a11 /home/woo/ndsdev/devkitPro/libnds/lib/libfat.a(fatdir.o)
 .debug_info    0x00016d25     0x22fd /home/woo/ndsdev/devkitPro/libnds/lib/libfat.a(fatfile.o)
 .debug_info    0x00019022      0x938 /home/woo/ndsdev/devkitPro/libnds/lib/libfat.a(file_allocation_table.o)
 .debug_info    0x0001995a      0x1d3 /home/woo/ndsdev/devkitPro/libnds/lib/libfat.a(filetime.o)
 .debug_info    0x00019b2d      0x11b /home/woo/ndsdev/devkitPro/libnds/lib/libfat.a(lock.o)
 .debug_info    0x00019c48     0x20dc /home/woo/ndsdev/devkitPro/libnds/lib/libnds9.a(console.o)
 .debug_info    0x0001bd24      0x3d0 /home/woo/ndsdev/devkitPro/libnds/lib/libnds9.a(keys.o)
 .debug_info    0x0001c0f4      0x5e2 /home/woo/ndsdev/devkitPro/libnds/lib/libnds9.a(dldi.o)
 .debug_info    0x0001c6d6      0x7c9 /home/woo/ndsdev/devkitPro/libnds/lib/libnds9.a(dsi_sd.o)
 .debug_info    0x0001ce9f      0xeb7 /home/woo/ndsdev/devkitPro/libnds/lib/libnds9.a(initSystem.o)
 .debug_info    0x0001dd56     0x11c9 /home/woo/ndsdev/devkitPro/libnds/lib/libnds9.a(fifosystem.o)
 .debug_info    0x0001ef1f      0x5c9 /home/woo/ndsdev/devkitPro/libnds/lib/libnds9.a(interrupts.o)
 .debug_info    0x0001f4e8      0x2a6 /home/woo/ndsdev/devkitPro/libnds/lib/libnds9.a(libnds_exit.o)
 .debug_info    0x0001f78e       0xba /home/woo/ndsdev/devkitPro/libnds/lib/libnds9.a(dcache.o)
 .debug_info    0x0001f848       0xc2 /home/woo/ndsdev/devkitPro/libnds/lib/libnds9.a(dldi_stub.o)
 .debug_info    0x0001f90a       0xc4 /home/woo/ndsdev/devkitPro/libnds/lib/libnds9.a(mpu_setup.o)
 .debug_info    0x0001f9ce       0xbf /home/woo/ndsdev/devkitPro/libnds/lib/libnds9.a(biosCalls.o)
 .debug_info    0x0001fa8d       0xc0 /home/woo/ndsdev/devkitPro/libnds/lib/libnds9.a(debugprint.o)
 .debug_info    0x0001fb4d       0xc9 /home/woo/ndsdev/devkitPro/libnds/lib/libnds9.a(interruptDispatcher.o)
 .debug_info    0x0001fc16       0xc2 /home/woo/ndsdev/devkitPro/libnds/lib/libnds9.a(swiSoftReset.o)
 .debug_info    0x0001fcd8      0x8f0 /home/woo/ndsdev/devkitPro/libnds/lib/libnds9.a(background.o)
 .debug_info    0x000205c8      0x6db /home/woo/ndsdev/devkitPro/libnds/lib/libnds9.a(system.o)
 .debug_info    0x00020ca3      0x4c4 /home/woo/ndsdev/devkitPro/libnds/lib/libnds9.a(trig.o)
 .debug_info    0x00021167      0x70f /home/woo/ndsdev/devkitPro/libnds/lib/libnds9.a(video.o)

.debug_abbrev   0x00000000     0x5f32
 *(.debug_abbrev)
 .debug_abbrev  0x00000000      0x2cc download.o
 .debug_abbrev  0x000002cc      0x217 main.o
 .debug_abbrev  0x000004e3      0x302 wifi.o
 .debug_abbrev  0x000007e5       0x14 jump.o
 .debug_abbrev  0x000007f9      0x390 /home/woo/ndsdev/devkitPro/libnds/lib/libdswifi9.a(sgIP_DNS.o)
 .debug_abbrev  0x00000b89      0x226 /home/woo/ndsdev/devkitPro/libnds/lib/libdswifi9.a(sgIP_Hub.o)
 .debug_abbrev  0x00000daf      0x256 /home/woo/ndsdev/devkitPro/libnds/lib/libdswifi9.a(sgIP_memblock.o)
 .debug_abbrev  0x00001005      0x3cb /home/woo/ndsdev/devkitPro/libnds/lib/libdswifi9.a(sgIP_sockets.o)
 .debug_abbrev  0x000013d0      0x620 /home/woo/ndsdev/devkitPro/libnds/lib/libdswifi9.a(wifi_arm9.o)
 .debug_abbrev  0x000019f0       0x14 /home/woo/ndsdev/devkitPro/libnds/lib/libdswifi9.a(spinlock.o)
 .debug_abbrev  0x00001a04      0x144 /home/woo/ndsdev/devkitPro/libnds/lib/libdswifi9.a(sgIP.o)
 .debug_abbrev  0x00001b48      0x320 /home/woo/ndsdev/devkitPro/libnds/lib/libdswifi9.a(sgIP_ARP.o)
 .debug_abbrev  0x00001e68      0x30f /home/woo/ndsdev/devkitPro/libnds/lib/libdswifi9.a(sgIP_DHCP.o)
 .debug_abbrev  0x00002177      0x190 /home/woo/ndsdev/devkitPro/libnds/lib/libdswifi9.a(sgIP_IP.o)
 .debug_abbrev  0x00002307      0x3ba /home/woo/ndsdev/devkitPro/libnds/lib/libdswifi9.a(sgIP_TCP.o)
 .debug_abbrev  0x000026c1      0x2d3 /home/woo/ndsdev/devkitPro/libnds/lib/libdswifi9.a(sgIP_UDP.o)
 .debug_abbrev  0x00002994      0x142 /home/woo/ndsdev/devkitPro/libnds/lib/libdswifi9.a(sgIP_ICMP.o)
 .debug_abbrev  0x00002ad6      0x303 /home/woo/ndsdev/devkitPro/libnds/lib/libfat.a(libfat.o)
 .debug_abbrev  0x00002dd9      0x39e /home/woo/ndsdev/devkitPro/libnds/lib/libfat.a(partition.o)
 .debug_abbrev  0x00003177      0x297 /home/woo/ndsdev/devkitPro/libnds/lib/libfat.a(cache.o)
 .debug_abbrev  0x0000340e      0x421 /home/woo/ndsdev/devkitPro/libnds/lib/libfat.a(directory.o)
 .debug_abbrev  0x0000382f       0xf6 /home/woo/ndsdev/devkitPro/libnds/lib/libfat.a(disc.o)
 .debug_abbrev  0x00003925      0x35a /home/woo/ndsdev/devkitPro/libnds/lib/libfat.a(fatdir.o)
 .debug_abbrev  0x00003c7f      0x3fb /home/woo/ndsdev/devkitPro/libnds/lib/libfat.a(fatfile.o)
 .debug_abbrev  0x0000407a      0x277 /home/woo/ndsdev/devkitPro/libnds/lib/libfat.a(file_allocation_table.o)
 .debug_abbrev  0x000042f1       0xa1 /home/woo/ndsdev/devkitPro/libnds/lib/libfat.a(filetime.o)
 .debug_abbrev  0x00004392       0x79 /home/woo/ndsdev/devkitPro/libnds/lib/libfat.a(lock.o)
 .debug_abbrev  0x0000440b      0x478 /home/woo/ndsdev/devkitPro/libnds/lib/libnds9.a(console.o)
 .debug_abbrev  0x00004883      0x176 /home/woo/ndsdev/devkitPro/libnds/lib/libnds9.a(keys.o)
 .debug_abbrev  0x000049f9      0x1e2 /home/woo/ndsdev/devkitPro/libnds/lib/libnds9.a(dldi.o)
 .debug_abbrev  0x00004bdb      0x1ba /home/woo/ndsdev/devkitPro/libnds/lib/libnds9.a(dsi_sd.o)
 .debug_abbrev  0x00004d95      0x242 /home/woo/ndsdev/devkitPro/libnds/lib/libnds9.a(initSystem.o)
 .debug_abbrev  0x00004fd7      0x3c8 /home/woo/ndsdev/devkitPro/libnds/lib/libnds9.a(fifosystem.o)
 .debug_abbrev  0x0000539f      0x21e /home/woo/ndsdev/devkitPro/libnds/lib/libnds9.a(interrupts.o)
 .debug_abbrev  0x000055bd      0x131 /home/woo/ndsdev/devkitPro/libnds/lib/libnds9.a(libnds_exit.o)
 .debug_abbrev  0x000056ee       0x14 /home/woo/ndsdev/devkitPro/libnds/lib/libnds9.a(dcache.o)
 .debug_abbrev  0x00005702       0x14 /home/woo/ndsdev/devkitPro/libnds/lib/libnds9.a(dldi_stub.o)
 .debug_abbrev  0x00005716       0x14 /home/woo/ndsdev/devkitPro/libnds/lib/libnds9.a(mpu_setup.o)
 .debug_abbrev  0x0000572a       0x14 /home/woo/ndsdev/devkitPro/libnds/lib/libnds9.a(biosCalls.o)
 .debug_abbrev  0x0000573e       0x14 /home/woo/ndsdev/devkitPro/libnds/lib/libnds9.a(debugprint.o)
 .debug_abbrev  0x00005752       0x14 /home/woo/ndsdev/devkitPro/libnds/lib/libnds9.a(interruptDispatcher.o)
 .debug_abbrev  0x00005766       0x14 /home/woo/ndsdev/devkitPro/libnds/lib/libnds9.a(swiSoftReset.o)
 .debug_abbrev  0x0000577a      0x278 /home/woo/ndsdev/devkitPro/libnds/lib/libnds9.a(background.o)
 .debug_abbrev  0x000059f2      0x19a /home/woo/ndsdev/devkitPro/libnds/lib/libnds9.a(system.o)
 .debug_abbrev  0x00005b8c      0x1ac /home/woo/ndsdev/devkitPro/libnds/lib/libnds9.a(trig.o)
 .debug_abbrev  0x00005d38      0x1fa /home/woo/ndsdev/devkitPro/libnds/lib/libnds9.a(video.o)

.debug_line     0x00000000     0xa1d5
 *(.debug_line)
 .debug_line    0x00000000      0x627 download.o
 .debug_line    0x00000627      0x24a main.o
 .debug_line    0x00000871      0x413 wifi.o
 .debug_line    0x00000c84       0x77 jump.o
 .debug_line    0x00000cfb      0x646 /home/woo/ndsdev/devkitPro/libnds/lib/libdswifi9.a(sgIP_DNS.o)
 .debug_line    0x00001341      0x13e /home/woo/ndsdev/devkitPro/libnds/lib/libdswifi9.a(sgIP_Hub.o)
 .debug_line    0x0000147f      0x288 /home/woo/ndsdev/devkitPro/libnds/lib/libdswifi9.a(sgIP_memblock.o)
 .debug_line    0x00001707      0xabd /home/woo/ndsdev/devkitPro/libnds/lib/libdswifi9.a(sgIP_sockets.o)
 .debug_line    0x000021c4      0xbdb /home/woo/ndsdev/devkitPro/libnds/lib/libdswifi9.a(wifi_arm9.o)
 .debug_line    0x00002d9f       0x99 /home/woo/ndsdev/devkitPro/libnds/lib/libdswifi9.a(spinlock.o)
 .debug_line    0x00002e38      0x12e /home/woo/ndsdev/devkitPro/libnds/lib/libdswifi9.a(sgIP.o)
 .debug_line    0x00002f66      0x40d /home/woo/ndsdev/devkitPro/libnds/lib/libdswifi9.a(sgIP_ARP.o)
 .debug_line    0x00003373      0x4fa /home/woo/ndsdev/devkitPro/libnds/lib/libdswifi9.a(sgIP_DHCP.o)
 .debug_line    0x0000386d      0x11e /home/woo/ndsdev/devkitPro/libnds/lib/libdswifi9.a(sgIP_IP.o)
 .debug_line    0x0000398b      0x94a /home/woo/ndsdev/devkitPro/libnds/lib/libdswifi9.a(sgIP_TCP.o)
 .debug_line    0x000042d5      0x441 /home/woo/ndsdev/devkitPro/libnds/lib/libdswifi9.a(sgIP_UDP.o)
 .debug_line    0x00004716       0xc5 /home/woo/ndsdev/devkitPro/libnds/lib/libdswifi9.a(sgIP_ICMP.o)
 .debug_line    0x000047db      0x3ea /home/woo/ndsdev/devkitPro/libnds/lib/libfat.a(libfat.o)
 .debug_line    0x00004bc5      0x6cc /home/woo/ndsdev/devkitPro/libnds/lib/libfat.a(partition.o)
 .debug_line    0x00005291      0x3ad /home/woo/ndsdev/devkitPro/libnds/lib/libfat.a(cache.o)
 .debug_line    0x0000563e      0xabb /home/woo/ndsdev/devkitPro/libnds/lib/libfat.a(directory.o)
 .debug_line    0x000060f9      0x11b /home/woo/ndsdev/devkitPro/libnds/lib/libfat.a(disc.o)
 .debug_line    0x00006214      0x645 /home/woo/ndsdev/devkitPro/libnds/lib/libfat.a(fatdir.o)
 .debug_line    0x00006859      0x96f /home/woo/ndsdev/devkitPro/libnds/lib/libfat.a(fatfile.o)
 .debug_line    0x000071c8      0x34d /home/woo/ndsdev/devkitPro/libnds/lib/libfat.a(file_allocation_table.o)
 .debug_line    0x00007515      0x168 /home/woo/ndsdev/devkitPro/libnds/lib/libfat.a(filetime.o)
 .debug_line    0x0000767d       0x80 /home/woo/ndsdev/devkitPro/libnds/lib/libfat.a(lock.o)
 .debug_line    0x000076fd      0x71d /home/woo/ndsdev/devkitPro/libnds/lib/libnds9.a(console.o)
 .debug_line    0x00007e1a      0x242 /home/woo/ndsdev/devkitPro/libnds/lib/libnds9.a(keys.o)
 .debug_line    0x0000805c      0x2ff /home/woo/ndsdev/devkitPro/libnds/lib/libnds9.a(dldi.o)
 .debug_line    0x0000835b      0x1c6 /home/woo/ndsdev/devkitPro/libnds/lib/libnds9.a(dsi_sd.o)
 .debug_line    0x00008521      0x355 /home/woo/ndsdev/devkitPro/libnds/lib/libnds9.a(initSystem.o)
 .debug_line    0x00008876      0x719 /home/woo/ndsdev/devkitPro/libnds/lib/libnds9.a(fifosystem.o)
 .debug_line    0x00008f8f      0x238 /home/woo/ndsdev/devkitPro/libnds/lib/libnds9.a(interrupts.o)
 .debug_line    0x000091c7      0x1ca /home/woo/ndsdev/devkitPro/libnds/lib/libnds9.a(libnds_exit.o)
 .debug_line    0x00009391       0xa2 /home/woo/ndsdev/devkitPro/libnds/lib/libnds9.a(dcache.o)
 .debug_line    0x00009433       0x8b /home/woo/ndsdev/devkitPro/libnds/lib/libnds9.a(dldi_stub.o)
 .debug_line    0x000094be       0xe1 /home/woo/ndsdev/devkitPro/libnds/lib/libnds9.a(mpu_setup.o)
 .debug_line    0x0000959f       0xc3 /home/woo/ndsdev/devkitPro/libnds/lib/libnds9.a(biosCalls.o)
 .debug_line    0x00009662       0x9c /home/woo/ndsdev/devkitPro/libnds/lib/libnds9.a(debugprint.o)
 .debug_line    0x000096fe       0xc2 /home/woo/ndsdev/devkitPro/libnds/lib/libnds9.a(interruptDispatcher.o)
 .debug_line    0x000097c0       0x91 /home/woo/ndsdev/devkitPro/libnds/lib/libnds9.a(swiSoftReset.o)
 .debug_line    0x00009851      0x2af /home/woo/ndsdev/devkitPro/libnds/lib/libnds9.a(background.o)
 .debug_line    0x00009b00      0x25c /home/woo/ndsdev/devkitPro/libnds/lib/libnds9.a(system.o)
 .debug_line    0x00009d5c      0x23d /home/woo/ndsdev/devkitPro/libnds/lib/libnds9.a(trig.o)
 .debug_line    0x00009f99      0x23c /home/woo/ndsdev/devkitPro/libnds/lib/libnds9.a(video.o)

.debug_frame    0x00000000     0x2b3c
 *(.debug_frame)
 .debug_frame   0x00000000       0x78 download.o
 .debug_frame   0x00000078       0x70 main.o
 .debug_frame   0x000000e8       0xd4 wifi.o
 .debug_frame   0x000001bc      0x1a4 /home/woo/ndsdev/devkitPro/libnds/lib/libdswifi9.a(sgIP_DNS.o)
 .debug_frame   0x00000360      0x13c /home/woo/ndsdev/devkitPro/libnds/lib/libdswifi9.a(sgIP_Hub.o)
 .debug_frame   0x0000049c      0x120 /home/woo/ndsdev/devkitPro/libnds/lib/libdswifi9.a(sgIP_memblock.o)
 .debug_frame   0x000005bc      0x314 /home/woo/ndsdev/devkitPro/libnds/lib/libdswifi9.a(sgIP_sockets.o)
 .debug_frame   0x000008d0      0x4b8 /home/woo/ndsdev/devkitPro/libnds/lib/libdswifi9.a(wifi_arm9.o)
 .debug_frame   0x00000d88       0x40 /home/woo/ndsdev/devkitPro/libnds/lib/libdswifi9.a(sgIP.o)
 .debug_frame   0x00000dc8      0x18c /home/woo/ndsdev/devkitPro/libnds/lib/libdswifi9.a(sgIP_ARP.o)
 .debug_frame   0x00000f54      0x150 /home/woo/ndsdev/devkitPro/libnds/lib/libdswifi9.a(sgIP_DHCP.o)
 .debug_frame   0x000010a4       0x98 /home/woo/ndsdev/devkitPro/libnds/lib/libdswifi9.a(sgIP_IP.o)
 .debug_frame   0x0000113c      0x28c /home/woo/ndsdev/devkitPro/libnds/lib/libdswifi9.a(sgIP_TCP.o)
 .debug_frame   0x000013c8      0x144 /home/woo/ndsdev/devkitPro/libnds/lib/libdswifi9.a(sgIP_UDP.o)
 .debug_frame   0x0000150c       0x40 /home/woo/ndsdev/devkitPro/libnds/lib/libdswifi9.a(sgIP_ICMP.o)
 .debug_frame   0x0000154c       0xd4 /home/woo/ndsdev/devkitPro/libnds/lib/libfat.a(libfat.o)
 .debug_frame   0x00001620      0x134 /home/woo/ndsdev/devkitPro/libnds/lib/libfat.a(partition.o)
 .debug_frame   0x00001754      0x1c0 /home/woo/ndsdev/devkitPro/libnds/lib/libfat.a(cache.o)
 .debug_frame   0x00001914      0x270 /home/woo/ndsdev/devkitPro/libnds/lib/libfat.a(directory.o)
 .debug_frame   0x00001b84       0x20 /home/woo/ndsdev/devkitPro/libnds/lib/libfat.a(disc.o)
 .debug_frame   0x00001ba4      0x17c /home/woo/ndsdev/devkitPro/libnds/lib/libfat.a(fatdir.o)
 .debug_frame   0x00001d20      0x214 /home/woo/ndsdev/devkitPro/libnds/lib/libfat.a(fatfile.o)
 .debug_frame   0x00001f34      0x120 /home/woo/ndsdev/devkitPro/libnds/lib/libfat.a(file_allocation_table.o)
 .debug_frame   0x00002054       0x60 /home/woo/ndsdev/devkitPro/libnds/lib/libfat.a(filetime.o)
 .debug_frame   0x000020b4       0x50 /home/woo/ndsdev/devkitPro/libnds/lib/libfat.a(lock.o)
 .debug_frame   0x00002104      0x1a8 /home/woo/ndsdev/devkitPro/libnds/lib/libnds9.a(console.o)
 .debug_frame   0x000022ac       0x8c /home/woo/ndsdev/devkitPro/libnds/lib/libnds9.a(keys.o)
 .debug_frame   0x00002338       0x94 /home/woo/ndsdev/devkitPro/libnds/lib/libnds9.a(dldi.o)
 .debug_frame   0x000023cc       0xa0 /home/woo/ndsdev/devkitPro/libnds/lib/libnds9.a(dsi_sd.o)
 .debug_frame   0x0000246c       0x28 /home/woo/ndsdev/devkitPro/libnds/lib/libnds9.a(initSystem.o)
 .debug_frame   0x00002494      0x2a4 /home/woo/ndsdev/devkitPro/libnds/lib/libnds9.a(fifosystem.o)
 .debug_frame   0x00002738       0xb8 /home/woo/ndsdev/devkitPro/libnds/lib/libnds9.a(interrupts.o)
 .debug_frame   0x000027f0       0x38 /home/woo/ndsdev/devkitPro/libnds/lib/libnds9.a(libnds_exit.o)
 .debug_frame   0x00002828       0xa4 /home/woo/ndsdev/devkitPro/libnds/lib/libnds9.a(background.o)
 .debug_frame   0x000028cc       0xb8 /home/woo/ndsdev/devkitPro/libnds/lib/libnds9.a(system.o)
 .debug_frame   0x00002984       0xf4 /home/woo/ndsdev/devkitPro/libnds/lib/libnds9.a(trig.o)
 .debug_frame   0x00002a78       0xc4 /home/woo/ndsdev/devkitPro/libnds/lib/libnds9.a(video.o)

.debug_str      0x00000000     0x7798
 *(.debug_str)
 .debug_str     0x00000000      0xb3c download.o
                                0xc8c (size before relaxing)
 .debug_str     0x00000b3c       0xd2 main.o
                                0x72b (size before relaxing)
 .debug_str     0x00000c0e      0x23c wifi.o
                                0xc81 (size before relaxing)
 .debug_str     0x00000e4a      0x447 /home/woo/ndsdev/devkitPro/libnds/lib/libdswifi9.a(sgIP_DNS.o)
                                0x5b8 (size before relaxing)
 .debug_str     0x00001291      0x242 /home/woo/ndsdev/devkitPro/libnds/lib/libdswifi9.a(sgIP_Hub.o)
                                0x410 (size before relaxing)
 .debug_str     0x000014d3      0x1ce /home/woo/ndsdev/devkitPro/libnds/lib/libdswifi9.a(sgIP_memblock.o)
                                0x347 (size before relaxing)
 .debug_str     0x000016a1      0x5f3 /home/woo/ndsdev/devkitPro/libnds/lib/libdswifi9.a(sgIP_sockets.o)
                                0x8d1 (size before relaxing)
 .debug_str     0x00001c94      0xfaf /home/woo/ndsdev/devkitPro/libnds/lib/libdswifi9.a(wifi_arm9.o)
                               0x182e (size before relaxing)
 .debug_str     0x00002c43       0xc8 /home/woo/ndsdev/devkitPro/libnds/lib/libdswifi9.a(sgIP.o)
                                0x2b4 (size before relaxing)
 .debug_str     0x00002d0b      0x218 /home/woo/ndsdev/devkitPro/libnds/lib/libdswifi9.a(sgIP_ARP.o)
                                0x47c (size before relaxing)
 .debug_str     0x00002f23      0x23b /home/woo/ndsdev/devkitPro/libnds/lib/libdswifi9.a(sgIP_DHCP.o)
                                0x5ab (size before relaxing)
 .debug_str     0x0000315e      0x197 /home/woo/ndsdev/devkitPro/libnds/lib/libdswifi9.a(sgIP_IP.o)
                                0x38a (size before relaxing)
 .debug_str     0x000032f5      0x247 /home/woo/ndsdev/devkitPro/libnds/lib/libdswifi9.a(sgIP_TCP.o)
                                0x834 (size before relaxing)
 .debug_str     0x0000353c      0x11b /home/woo/ndsdev/devkitPro/libnds/lib/libdswifi9.a(sgIP_UDP.o)
                                0x49e (size before relaxing)
 .debug_str     0x00003657       0x83 /home/woo/ndsdev/devkitPro/libnds/lib/libdswifi9.a(sgIP_ICMP.o)
                                0x1f4 (size before relaxing)
 .debug_str     0x000036da      0x6a4 /home/woo/ndsdev/devkitPro/libnds/lib/libfat.a(libfat.o)
                                0xcad (size before relaxing)
 .debug_str     0x00003d7e      0x54a /home/woo/ndsdev/devkitPro/libnds/lib/libfat.a(partition.o)
                               0x1073 (size before relaxing)
 .debug_str     0x000042c8      0x209 /home/woo/ndsdev/devkitPro/libnds/lib/libfat.a(cache.o)
                                0x510 (size before relaxing)
 .debug_str     0x000044d1      0x77d /home/woo/ndsdev/devkitPro/libnds/lib/libfat.a(directory.o)
                                0xd49 (size before relaxing)
 .debug_str     0x00004c4e       0x62 /home/woo/ndsdev/devkitPro/libnds/lib/libfat.a(disc.o)
                                0x241 (size before relaxing)
 .debug_str     0x00004cb0      0x1c2 /home/woo/ndsdev/devkitPro/libnds/lib/libfat.a(fatdir.o)
                                0xcc1 (size before relaxing)
 .debug_str     0x00004e72      0x211 /home/woo/ndsdev/devkitPro/libnds/lib/libfat.a(fatfile.o)
                                0xd6c (size before relaxing)
 .debug_str     0x00005083      0x167 /home/woo/ndsdev/devkitPro/libnds/lib/libfat.a(file_allocation_table.o)
                                0x592 (size before relaxing)
 .debug_str     0x000051ea       0xb4 /home/woo/ndsdev/devkitPro/libnds/lib/libfat.a(filetime.o)
                                0x1ac (size before relaxing)
 .debug_str     0x0000529e       0x86 /home/woo/ndsdev/devkitPro/libnds/lib/libfat.a(lock.o)
                                0x127 (size before relaxing)
 .debug_str     0x00005324      0x89d /home/woo/ndsdev/devkitPro/libnds/lib/libnds9.a(console.o)
                               0x1072 (size before relaxing)
 .debug_str     0x00005bc1      0x1e3 /home/woo/ndsdev/devkitPro/libnds/lib/libnds9.a(keys.o)
                                0x2da (size before relaxing)
 .debug_str     0x00005da4      0x1f4 /home/woo/ndsdev/devkitPro/libnds/lib/libnds9.a(dldi.o)
                                0x3d6 (size before relaxing)
 .debug_str     0x00005f98      0x257 /home/woo/ndsdev/devkitPro/libnds/lib/libnds9.a(dsi_sd.o)
                                0x520 (size before relaxing)
 .debug_str     0x000061ef      0x131 /home/woo/ndsdev/devkitPro/libnds/lib/libnds9.a(initSystem.o)
                                0x94f (size before relaxing)
 .debug_str     0x00006320      0x48a /home/woo/ndsdev/devkitPro/libnds/lib/libnds9.a(fifosystem.o)
                                0x740 (size before relaxing)
 .debug_str     0x000067aa      0x11c /home/woo/ndsdev/devkitPro/libnds/lib/libnds9.a(interrupts.o)
                                0x379 (size before relaxing)
 .debug_str     0x000068c6      0x136 /home/woo/ndsdev/devkitPro/libnds/lib/libnds9.a(libnds_exit.o)
                                0x296 (size before relaxing)
 .debug_str     0x000069fc      0x2e4 /home/woo/ndsdev/devkitPro/libnds/lib/libnds9.a(background.o)
                                0x66e (size before relaxing)
 .debug_str     0x00006ce0       0xca /home/woo/ndsdev/devkitPro/libnds/lib/libnds9.a(system.o)
                                0x506 (size before relaxing)
 .debug_str     0x00006daa       0xe8 /home/woo/ndsdev/devkitPro/libnds/lib/libnds9.a(trig.o)
                                0x1d1 (size before relaxing)
 .debug_str     0x00006e92      0x906 /home/woo/ndsdev/devkitPro/libnds/lib/libnds9.a(video.o)
                                0xb35 (size before relaxing)

.debug_loc      0x00000000    0x17560
 *(.debug_loc)
 .debug_loc     0x00000000      0xa43 download.o
 .debug_loc     0x00000a43      0x109 main.o
 .debug_loc     0x00000b4c      0x359 wifi.o
 .debug_loc     0x00000ea5     0x1082 /home/woo/ndsdev/devkitPro/libnds/lib/libdswifi9.a(sgIP_DNS.o)
 .debug_loc     0x00001f27      0x5dd /home/woo/ndsdev/devkitPro/libnds/lib/libdswifi9.a(sgIP_Hub.o)
 .debug_loc     0x00002504      0x758 /home/woo/ndsdev/devkitPro/libnds/lib/libdswifi9.a(sgIP_memblock.o)
 .debug_loc     0x00002c5c     0x23c9 /home/woo/ndsdev/devkitPro/libnds/lib/libdswifi9.a(sgIP_sockets.o)
 .debug_loc     0x00005025     0x220e /home/woo/ndsdev/devkitPro/libnds/lib/libdswifi9.a(wifi_arm9.o)
 .debug_loc     0x00007233       0x85 /home/woo/ndsdev/devkitPro/libnds/lib/libdswifi9.a(sgIP.o)
 .debug_loc     0x000072b8      0xaff /home/woo/ndsdev/devkitPro/libnds/lib/libdswifi9.a(sgIP_ARP.o)
 .debug_loc     0x00007db7      0x77f /home/woo/ndsdev/devkitPro/libnds/lib/libdswifi9.a(sgIP_DHCP.o)
 .debug_loc     0x00008536      0x29e /home/woo/ndsdev/devkitPro/libnds/lib/libdswifi9.a(sgIP_IP.o)
 .debug_loc     0x000087d4     0x24b8 /home/woo/ndsdev/devkitPro/libnds/lib/libdswifi9.a(sgIP_TCP.o)
 .debug_loc     0x0000ac8c      0xae9 /home/woo/ndsdev/devkitPro/libnds/lib/libdswifi9.a(sgIP_UDP.o)
 .debug_loc     0x0000b775      0x13b /home/woo/ndsdev/devkitPro/libnds/lib/libdswifi9.a(sgIP_ICMP.o)
 .debug_loc     0x0000b8b0      0x4cc /home/woo/ndsdev/devkitPro/libnds/lib/libfat.a(libfat.o)
 .debug_loc     0x0000bd7c      0xc63 /home/woo/ndsdev/devkitPro/libnds/lib/libfat.a(partition.o)
 .debug_loc     0x0000c9df      0xd95 /home/woo/ndsdev/devkitPro/libnds/lib/libfat.a(cache.o)
 .debug_loc     0x0000d774     0x271d /home/woo/ndsdev/devkitPro/libnds/lib/libfat.a(directory.o)
 .debug_loc     0x0000fe91      0xe20 /home/woo/ndsdev/devkitPro/libnds/lib/libfat.a(fatdir.o)
 .debug_loc     0x00010cb1     0x27d3 /home/woo/ndsdev/devkitPro/libnds/lib/libfat.a(fatfile.o)
 .debug_loc     0x00013484      0x9f1 /home/woo/ndsdev/devkitPro/libnds/lib/libfat.a(file_allocation_table.o)
 .debug_loc     0x00013e75       0xaa /home/woo/ndsdev/devkitPro/libnds/lib/libfat.a(filetime.o)
 .debug_loc     0x00013f1f      0xe61 /home/woo/ndsdev/devkitPro/libnds/lib/libnds9.a(console.o)
 .debug_loc     0x00014d80       0x20 /home/woo/ndsdev/devkitPro/libnds/lib/libnds9.a(keys.o)
 .debug_loc     0x00014da0      0x28e /home/woo/ndsdev/devkitPro/libnds/lib/libnds9.a(dldi.o)
 .debug_loc     0x0001502e      0x2a9 /home/woo/ndsdev/devkitPro/libnds/lib/libnds9.a(dsi_sd.o)
 .debug_loc     0x000152d7       0x64 /home/woo/ndsdev/devkitPro/libnds/lib/libnds9.a(initSystem.o)
 .debug_loc     0x0001533b     0x11b6 /home/woo/ndsdev/devkitPro/libnds/lib/libnds9.a(fifosystem.o)
 .debug_loc     0x000164f1      0x220 /home/woo/ndsdev/devkitPro/libnds/lib/libnds9.a(interrupts.o)
 .debug_loc     0x00016711       0x5c /home/woo/ndsdev/devkitPro/libnds/lib/libnds9.a(libnds_exit.o)
 .debug_loc     0x0001676d      0x379 /home/woo/ndsdev/devkitPro/libnds/lib/libnds9.a(background.o)
 .debug_loc     0x00016ae6      0x1ba /home/woo/ndsdev/devkitPro/libnds/lib/libnds9.a(system.o)
 .debug_loc     0x00016ca0      0x6d3 /home/woo/ndsdev/devkitPro/libnds/lib/libnds9.a(trig.o)
 .debug_loc     0x00017373      0x1ed /home/woo/ndsdev/devkitPro/libnds/lib/libnds9.a(video.o)

.debug_macinfo
 *(.debug_macinfo)

.debug_weaknames
 *(.debug_weaknames)

.debug_funcnames
 *(.debug_funcnames)

.debug_typenames
 *(.debug_typenames)

.debug_varnames
 *(.debug_varnames)

.stack          0x00080000        0x0
                0x00080000                _stack = .
 *(.stack)
LOAD /home/woo/ndsdev/devkitPro/devkitARM/bin/../lib/gcc/arm-eabi/4.6.2/../../../../arm-eabi/lib/thumb/ds_arm9_crt0.o
LOAD /home/woo/ndsdev/devkitPro/devkitARM/bin/../lib/gcc/arm-eabi/4.6.2/thumb/crti.o
LOAD /home/woo/ndsdev/devkitPro/devkitARM/bin/../lib/gcc/arm-eabi/4.6.2/thumb/crtbegin.o
LOAD download.o
LOAD main.o
LOAD wifi.o
LOAD jump.o
LOAD /home/woo/ndsdev/devkitPro/libnds/lib/libdswifi9.a
LOAD /home/woo/ndsdev/devkitPro/libnds/lib/libfat.a
LOAD /home/woo/ndsdev/devkitPro/libnds/lib/libnds9.a
START GROUP
LOAD /home/woo/ndsdev/devkitPro/devkitARM/bin/../lib/gcc/arm-eabi/4.6.2/thumb/libgcc.a
LOAD /home/woo/ndsdev/devkitPro/devkitARM/bin/../lib/gcc/arm-eabi/4.6.2/../../../../arm-eabi/lib/thumb/libg.a
LOAD /home/woo/ndsdev/devkitPro/devkitARM/bin/../lib/gcc/arm-eabi/4.6.2/../../../../arm-eabi/lib/thumb/libc.a
LOAD /home/woo/ndsdev/devkitPro/devkitARM/bin/../lib/gcc/arm-eabi/4.6.2/../../../../arm-eabi/lib/thumb/libsysbase.a
END GROUP
LOAD /home/woo/ndsdev/devkitPro/devkitARM/bin/../lib/gcc/arm-eabi/4.6.2/thumb/crtend.o
LOAD /home/woo/ndsdev/devkitPro/devkitARM/bin/../lib/gcc/arm-eabi/4.6.2/thumb/crtn.o
OUTPUT(/home/woo/nds-ide/dshdown_ver3.0/wifidown/wifidown.elf elf32-littlearm)

.debug_ranges   0x00000000     0x22c0
 .debug_ranges  0x00000000       0x30 main.o
 .debug_ranges  0x00000030      0x150 /home/woo/ndsdev/devkitPro/libnds/lib/libdswifi9.a(sgIP_DNS.o)
 .debug_ranges  0x00000180       0x18 /home/woo/ndsdev/devkitPro/libnds/lib/libdswifi9.a(sgIP_Hub.o)
 .debug_ranges  0x00000198       0x58 /home/woo/ndsdev/devkitPro/libnds/lib/libdswifi9.a(sgIP_memblock.o)
 .debug_ranges  0x000001f0      0x458 /home/woo/ndsdev/devkitPro/libnds/lib/libdswifi9.a(sgIP_sockets.o)
 .debug_ranges  0x00000648      0x470 /home/woo/ndsdev/devkitPro/libnds/lib/libdswifi9.a(wifi_arm9.o)
 .debug_ranges  0x00000ab8       0xa8 /home/woo/ndsdev/devkitPro/libnds/lib/libdswifi9.a(sgIP_ARP.o)
 .debug_ranges  0x00000b60      0x1e8 /home/woo/ndsdev/devkitPro/libnds/lib/libdswifi9.a(sgIP_TCP.o)
 .debug_ranges  0x00000d48      0x118 /home/woo/ndsdev/devkitPro/libnds/lib/libdswifi9.a(sgIP_UDP.o)
 .debug_ranges  0x00000e60       0x60 /home/woo/ndsdev/devkitPro/libnds/lib/libfat.a(libfat.o)
 .debug_ranges  0x00000ec0      0x1e8 /home/woo/ndsdev/devkitPro/libnds/lib/libfat.a(partition.o)
 .debug_ranges  0x000010a8       0x18 /home/woo/ndsdev/devkitPro/libnds/lib/libfat.a(cache.o)
 .debug_ranges  0x000010c0      0x360 /home/woo/ndsdev/devkitPro/libnds/lib/libfat.a(directory.o)
 .debug_ranges  0x00001420      0x170 /home/woo/ndsdev/devkitPro/libnds/lib/libfat.a(fatdir.o)
 .debug_ranges  0x00001590      0x2c8 /home/woo/ndsdev/devkitPro/libnds/lib/libfat.a(fatfile.o)
 .debug_ranges  0x00001858       0xb0 /home/woo/ndsdev/devkitPro/libnds/lib/libfat.a(file_allocation_table.o)
 .debug_ranges  0x00001908      0x2f8 /home/woo/ndsdev/devkitPro/libnds/lib/libnds9.a(console.o)
 .debug_ranges  0x00001c00       0x30 /home/woo/ndsdev/devkitPro/libnds/lib/libnds9.a(dldi.o)
 .debug_ranges  0x00001c30      0x4b0 /home/woo/ndsdev/devkitPro/libnds/lib/libnds9.a(fifosystem.o)
 .debug_ranges  0x000020e0       0x60 /home/woo/ndsdev/devkitPro/libnds/lib/libnds9.a(interrupts.o)
 .debug_ranges  0x00002140       0x88 /home/woo/ndsdev/devkitPro/libnds/lib/libnds9.a(background.o)
 .debug_ranges  0x000021c8       0x80 /home/woo/ndsdev/devkitPro/libnds/lib/libnds9.a(trig.o)
 .debug_ranges  0x00002248       0x78 /home/woo/ndsdev/devkitPro/libnds/lib/libnds9.a(video.o)
