Archive member included because of file (symbol)

c:/devkitPro/PAlib/lib\libpa9.a(PA.o)
                              main.o (PA_CheckLid)
c:/devkitPro/PAlib/lib\libpa9.a(PA_BgEasy.o)
                              main.o (PA_StoreEasyBgInfos)
c:/devkitPro/PAlib/lib\libpa9.a(PA_BgLargeMap.o)
                              c:/devkitPro/PAlib/lib\libpa9.a(PA_BgEasy.o) (PA_InfLargeScrollXN)
c:/devkitPro/PAlib/lib\libpa9.a(PA_BgTiles.o)
                              main.o (PA_BgInfo)
c:/devkitPro/PAlib/lib\libpa9.a(PA_Error.o)
                              c:/devkitPro/PAlib/lib\libpa9.a(PA_BgTiles.o) (PA_Error)
c:/devkitPro/PAlib/lib\libpa9.a(PA_Inits.o)
                              c:/devkitPro/PAlib/lib\libpa9.a(PA_Error.o) (PA_Init2D)
c:/devkitPro/PAlib/lib\libpa9.a(PA_Interrupt.o)
                              main.o (PA_VBLCountersReset)
c:/devkitPro/PAlib/lib\libpa9.a(PA_Keys.o)
                              c:/devkitPro/PAlib/lib\libpa9.a(PA_Interrupt.o) (PA_UpdatePad)
c:/devkitPro/PAlib/lib\libpa9.a(PA_Math.o)
                              main.o (RandomValue)
c:/devkitPro/PAlib/lib\libpa9.a(PA_Palette.o)
                              main.o (PA_LoadSpriteExtPal)
c:/devkitPro/PAlib/lib\libpa9.a(PA_RTC.o)
                              c:/devkitPro/PAlib/lib\libpa9.a(PA_Inits.o) (PA_UpdateUserInfo)
c:/devkitPro/PAlib/lib\libpa9.a(PA_Reco.o)
                              c:/devkitPro/PAlib/lib\libpa9.a(PA_Inits.o) (PA_UseGraffiti)
c:/devkitPro/PAlib/lib\libpa9.a(PA_Sprite.o)
                              main.o (PA_ResetSpriteSysScreen)
c:/devkitPro/PAlib/lib\libpa9.a(PA_SpriteAnim.o)
                              main.o (PA_StartSpriteAnimEx)
c:/devkitPro/PAlib/lib\libpa9.a(PA_Stuff.o)
                              c:/devkitPro/PAlib/lib\libpa9.a(PA_BgTiles.o) (PA_SetVideoMode)
c:/devkitPro/PAlib/lib\libpa9.a(PA_Text.o)
                              c:/devkitPro/PAlib/lib\libpa9.a(PA_Inits.o) (PA_textpal)
c:/devkitPro/PAlib/lib\libpa9.a(PA_TextBits.o)
                              c:/devkitPro/PAlib/lib\libpa9.a(PA_Inits.o) (pa_bittextpoliceheight)
c:/devkitPro/PAlib/lib\libpa9.a(as_lib9.o)
                              main.o (AS_SoundPlay)
c:/devkitPro/PAlib/lib\libpa9.a(PA_TiledFont.o)
                              c:/devkitPro/PAlib/lib\libpa9.a(PA_Text.o) (PA_TiledFont)
c:/devkitPro/PAlib/lib\libpa9.a(PA_BmpFont0.o)
                              c:/devkitPro/PAlib/lib\libpa9.a(PA_Inits.o) (PA_BmpFont0)
c:/devkitPro/PAlib/lib\libpa9.a(PA_BmpFont1.o)
                              c:/devkitPro/PAlib/lib\libpa9.a(PA_Inits.o) (PA_BmpFont1)
c:/devkitPro/PAlib/lib\libpa9.a(PA_BmpFont2.o)
                              c:/devkitPro/PAlib/lib\libpa9.a(PA_Inits.o) (PA_BmpFont2)
c:/devkitPro/PAlib/lib\libpa9.a(PA_BmpFont3.o)
                              c:/devkitPro/PAlib/lib\libpa9.a(PA_Inits.o) (PA_BmpFont3)
c:/devkitPro/PAlib/lib\libpa9.a(PA_BmpFont4.o)
                              c:/devkitPro/PAlib/lib\libpa9.a(PA_Inits.o) (PA_BmpFont4)
c:/devkitPro/PAlib/lib\libpa9.a(PA_TiledFont_Map.bin.o)
                              c:/devkitPro/PAlib/lib\libpa9.a(PA_Inits.o) (PA_TiledFont_Map)
c:/devkitPro/PAlib/lib\libpa9.a(PA_TiledFont_Pal.bin.o)
                              c:/devkitPro/PAlib/lib\libpa9.a(PA_Inits.o) (PA_TiledFont_Pal)
c:/devkitPro/PAlib/lib\libpa9.a(PA_TiledFont_Tiles.bin.o)
                              c:/devkitPro/PAlib/lib\libpa9.a(PA_Inits.o) (PA_TiledFont_Tiles)
c:/devkitPro/PAlib/lib\libpa9.a(PA_BmpFont0_Map.bin.o)
                              c:/devkitPro/PAlib/lib\libpa9.a(PA_TextBits.o) (PA_BmpFont0_Map)
c:/devkitPro/PAlib/lib\libpa9.a(PA_BmpFont0_Sizes.bin.o)
                              c:/devkitPro/PAlib/lib\libpa9.a(PA_TextBits.o) (PA_BmpFont0_Sizes)
c:/devkitPro/PAlib/lib\libpa9.a(PA_BmpFont0_Tiles.bin.o)
                              c:/devkitPro/PAlib/lib\libpa9.a(PA_Inits.o) (PA_BmpFont0_Tiles_size)
c:/devkitPro/PAlib/lib\libpa9.a(PA_BmpFont1_Map.bin.o)
                              c:/devkitPro/PAlib/lib\libpa9.a(PA_TextBits.o) (PA_BmpFont1_Map)
c:/devkitPro/PAlib/lib\libpa9.a(PA_BmpFont1_Sizes.bin.o)
                              c:/devkitPro/PAlib/lib\libpa9.a(PA_TextBits.o) (PA_BmpFont1_Sizes)
c:/devkitPro/PAlib/lib\libpa9.a(PA_BmpFont1_Tiles.bin.o)
                              c:/devkitPro/PAlib/lib\libpa9.a(PA_Inits.o) (PA_BmpFont1_Tiles_size)
c:/devkitPro/PAlib/lib\libpa9.a(PA_BmpFont2_Map.bin.o)
                              c:/devkitPro/PAlib/lib\libpa9.a(PA_TextBits.o) (PA_BmpFont2_Map)
c:/devkitPro/PAlib/lib\libpa9.a(PA_BmpFont2_Sizes.bin.o)
                              c:/devkitPro/PAlib/lib\libpa9.a(PA_TextBits.o) (PA_BmpFont2_Sizes)
c:/devkitPro/PAlib/lib\libpa9.a(PA_BmpFont2_Tiles.bin.o)
                              c:/devkitPro/PAlib/lib\libpa9.a(PA_Inits.o) (PA_BmpFont2_Tiles_size)
c:/devkitPro/PAlib/lib\libpa9.a(PA_BmpFont3_Map.bin.o)
                              c:/devkitPro/PAlib/lib\libpa9.a(PA_TextBits.o) (PA_BmpFont3_Map)
c:/devkitPro/PAlib/lib\libpa9.a(PA_BmpFont3_Sizes.bin.o)
                              c:/devkitPro/PAlib/lib\libpa9.a(PA_TextBits.o) (PA_BmpFont3_Sizes)
c:/devkitPro/PAlib/lib\libpa9.a(PA_BmpFont3_Tiles.bin.o)
                              c:/devkitPro/PAlib/lib\libpa9.a(PA_Inits.o) (PA_BmpFont3_Tiles_size)
c:/devkitPro/PAlib/lib\libpa9.a(PA_BmpFont4_Map.bin.o)
                              c:/devkitPro/PAlib/lib\libpa9.a(PA_TextBits.o) (PA_BmpFont4_Map)
c:/devkitPro/PAlib/lib\libpa9.a(PA_BmpFont4_Sizes.bin.o)
                              c:/devkitPro/PAlib/lib\libpa9.a(PA_TextBits.o) (PA_BmpFont4_Sizes)
c:/devkitPro/PAlib/lib\libpa9.a(PA_BmpFont4_Tiles.bin.o)
                              c:/devkitPro/PAlib/lib\libpa9.a(PA_Inits.o) (PA_BmpFont4_Tiles_size)
c:/devkitPro/PAlib/lib\libpa9.a(PA_Fifo.o)
                              c:/devkitPro/PAlib/lib\libpa9.a(PA_Inits.o) (PA_InitFifo)
c:/devkitPro/PAlib/lib\libpa9.a(PA_NewBg.o)
                              c:/devkitPro/PAlib/lib\libpa9.a(PA_Text.o) (PA_LoadText)
c:/devkitPro/PAlib/lib\libpa9.a(PA_PaletteEx.o)
                              c:/devkitPro/PAlib/lib\libpa9.a(PA_Text.o) (PA_SetBgPalNCol)
c:/devkitPro/PAlib/lib\libpa9.a(PA_Text8bit.o)
                              c:/devkitPro/PAlib/lib\libpa9.a(PA_NewBg.o) (bit8_tiles)
c:/devkitPro/PAlib/lib\libpa9.a(PA_16c.o)
                              c:/devkitPro/PAlib/lib\libpa9.a(PA_NewBg.o) (c16_tiles)
c:/devkitPro/PAlib/lib\libpa9.a(PA_BgRot.o)
                              c:/devkitPro/PAlib/lib\libpa9.a(PA_NewBg.o) (PA_LoadRotBgMap)
c:/devkitPro/PAlib/lib\libpa9.a(PA_Draw.o)
                              c:/devkitPro/PAlib/lib\libpa9.a(PA_Text8bit.o) (PA_DrawBg)
c:/devkitPro/PAlib/lib\libpa9.a(PA_Keyboard.o)
                              c:/devkitPro/PAlib/lib\libpa9.a(PA_NewBg.o) (PA_Keyboard_Struct)
c:/devkitPro/PAlib/lib\libpa9.a(keyboard.map.o)
                              c:/devkitPro/PAlib/lib\libpa9.a(PA_Keyboard.o) (keyboard_Map)
c:/devkitPro/PAlib/lib\libpa9.a(keyboard.pal.o)
                              c:/devkitPro/PAlib/lib\libpa9.a(PA_Keyboard.o) (keyboard_Palette)
c:/devkitPro/PAlib/lib\libpa9.a(keyboard.raw.o)
                              c:/devkitPro/PAlib/lib\libpa9.a(PA_Keyboard.o) (keyboard_Tiles)
c:/devkitPro/libnds/lib\libnds9.a(keys.o)
                              c:/devkitPro/PAlib/lib\libpa9.a(PA_Keys.o) (scanKeys)
c:/devkitPro/libnds/lib\libnds9.a(system.o)
                              c:/devkitPro/PAlib/lib\libpa9.a(PA_Inits.o) (powerOn)
c:/devkitPro/libnds/lib\libnds9.a(touch.o)
                              c:/devkitPro/PAlib/lib\libpa9.a(PA_Keys.o) (touchRead)
c:/devkitPro/libnds/lib\libnds9.a(video.o)
                              c:/devkitPro/PAlib/lib\libpa9.a(PA_Inits.o) (vramSetMainBanks)
c:/devkitPro/libnds/lib\libnds9.a(initSystem.o)
                              c:/devkitpro/devkitarm/bin/../lib/gcc/arm-eabi/4.5.1/../../../../arm-eabi/lib/thumb/ds_arm9_crt0.o (initSystem)
c:/devkitPro/libnds/lib\libnds9.a(fifosystem.o)
                              c:/devkitPro/PAlib/lib\libpa9.a(PA.o) (fifoSendValue32)
c:/devkitPro/libnds/lib\libnds9.a(interrupts.o)
                              c:/devkitPro/PAlib/lib\libpa9.a(PA.o) (irqSet)
c:/devkitPro/libnds/lib\libnds9.a(libnds_exit.o)
                              c:/devkitpro/devkitarm/bin/../lib/gcc/arm-eabi/4.5.1/../../../../arm-eabi/lib/thumb/ds_arm9_crt0.o (__libnds_exit)
c:/devkitPro/libnds/lib\libnds9.a(dcache.o)
                              c:/devkitPro/PAlib/lib\libpa9.a(PA_BgTiles.o) (DC_FlushRange)
c:/devkitPro/libnds/lib\libnds9.a(mpu_setup.o)
                              c:/devkitpro/devkitarm/bin/../lib/gcc/arm-eabi/4.5.1/../../../../arm-eabi/lib/thumb/ds_arm9_crt0.o (__libnds_mpu_setup)
c:/devkitPro/libnds/lib\libnds9.a(biosCalls.o)
                              c:/devkitPro/PAlib/lib\libpa9.a(PA.o) (swiDelay)
c:/devkitPro/libnds/lib\libnds9.a(interruptDispatcher.o)
                              c:/devkitPro/libnds/lib\libnds9.a(interrupts.o) (IntrMain)
c:/devkitPro/libnds/lib\libnds9.a(swiSoftReset.o)
                              c:/devkitPro/libnds/lib\libnds9.a(fifosystem.o) (swiSoftReset)
c:/devkitpro/devkitarm/bin/../lib/gcc/arm-eabi/4.5.1/thumb\libgcc.a(_udivsi3.o)
                              main.o (__aeabi_uidivmod)
c:/devkitpro/devkitarm/bin/../lib/gcc/arm-eabi/4.5.1/thumb\libgcc.a(_divsi3.o)
                              main.o (__aeabi_idiv)
c:/devkitpro/devkitarm/bin/../lib/gcc/arm-eabi/4.5.1/thumb\libgcc.a(_dvmd_tls.o)
                              c:/devkitpro/devkitarm/bin/../lib/gcc/arm-eabi/4.5.1/thumb\libgcc.a(_udivsi3.o) (__aeabi_idiv0)
c:/devkitpro/devkitarm/bin/../lib/gcc/arm-eabi/4.5.1/thumb\libgcc.a(_arm_addsubdf3.o)
                              c:/devkitPro/PAlib/lib\libpa9.a(PA_Text.o) (__aeabi_dsub)
c:/devkitpro/devkitarm/bin/../lib/gcc/arm-eabi/4.5.1/thumb\libgcc.a(_arm_muldivdf3.o)
                              c:/devkitPro/PAlib/lib\libpa9.a(PA_Text.o) (__aeabi_dmul)
c:/devkitpro/devkitarm/bin/../lib/gcc/arm-eabi/4.5.1/thumb\libgcc.a(_arm_cmpdf2.o)
                              c:/devkitPro/PAlib/lib\libpa9.a(PA_Text.o) (__aeabi_dcmplt)
c:/devkitpro/devkitarm/bin/../lib/gcc/arm-eabi/4.5.1/thumb\libgcc.a(_arm_fixdfsi.o)
                              c:/devkitPro/PAlib/lib\libpa9.a(PA_Text.o) (__aeabi_d2iz)
c:/devkitpro/devkitarm/bin/../lib/gcc/arm-eabi/4.5.1/thumb\libgcc.a(_muldi3.o)
                              c:/devkitPro/PAlib/lib\libpa9.a(PA_Math.o) (__aeabi_lmul)
c:/devkitpro/devkitarm/bin/../lib/gcc/arm-eabi/4.5.1/../../../../arm-eabi/lib/thumb\libg.a(lib_a-fclose.o)
                              c:/devkitPro/PAlib/lib\libpa9.a(as_lib9.o) (fclose)
c:/devkitpro/devkitarm/bin/../lib/gcc/arm-eabi/4.5.1/../../../../arm-eabi/lib/thumb\libg.a(lib_a-fflush.o)
                              c:/devkitpro/devkitarm/bin/../lib/gcc/arm-eabi/4.5.1/../../../../arm-eabi/lib/thumb\libg.a(lib_a-fclose.o) (_fflush_r)
c:/devkitpro/devkitarm/bin/../lib/gcc/arm-eabi/4.5.1/../../../../arm-eabi/lib/thumb\libg.a(lib_a-findfp.o)
                              c:/devkitpro/devkitarm/bin/../lib/gcc/arm-eabi/4.5.1/../../../../arm-eabi/lib/thumb\libg.a(lib_a-fclose.o) (__sinit)
c:/devkitpro/devkitarm/bin/../lib/gcc/arm-eabi/4.5.1/../../../../arm-eabi/lib/thumb\libg.a(lib_a-fopen.o)
                              c:/devkitPro/PAlib/lib\libpa9.a(as_lib9.o) (fopen)
c:/devkitpro/devkitarm/bin/../lib/gcc/arm-eabi/4.5.1/../../../../arm-eabi/lib/thumb\libg.a(lib_a-fread.o)
                              c:/devkitPro/PAlib/lib\libpa9.a(as_lib9.o) (fread)
c:/devkitpro/devkitarm/bin/../lib/gcc/arm-eabi/4.5.1/../../../../arm-eabi/lib/thumb\libg.a(lib_a-freer.o)
                              c:/devkitpro/devkitarm/bin/../lib/gcc/arm-eabi/4.5.1/../../../../arm-eabi/lib/thumb\libg.a(lib_a-fclose.o) (_free_r)
c:/devkitpro/devkitarm/bin/../lib/gcc/arm-eabi/4.5.1/../../../../arm-eabi/lib/thumb\libg.a(lib_a-fseek.o)
                              c:/devkitpro/devkitarm/bin/../lib/gcc/arm-eabi/4.5.1/../../../../arm-eabi/lib/thumb\libg.a(lib_a-fopen.o) (_fseek_r)
c:/devkitpro/devkitarm/bin/../lib/gcc/arm-eabi/4.5.1/../../../../arm-eabi/lib/thumb\libg.a(lib_a-ftell.o)
                              c:/devkitPro/PAlib/lib\libpa9.a(as_lib9.o) (ftell)
c:/devkitpro/devkitarm/bin/../lib/gcc/arm-eabi/4.5.1/../../../../arm-eabi/lib/thumb\libg.a(lib_a-fwalk.o)
                              c:/devkitpro/devkitarm/bin/../lib/gcc/arm-eabi/4.5.1/../../../../arm-eabi/lib/thumb\libg.a(lib_a-findfp.o) (_fwalk)
c:/devkitpro/devkitarm/bin/../lib/gcc/arm-eabi/4.5.1/../../../../arm-eabi/lib/thumb\libg.a(lib_a-gmtime.o)
                              c:/devkitPro/PAlib/lib\libpa9.a(PA_RTC.o) (gmtime)
c:/devkitpro/devkitarm/bin/../lib/gcc/arm-eabi/4.5.1/../../../../arm-eabi/lib/thumb\libg.a(lib_a-gmtime_r.o)
                              c:/devkitpro/devkitarm/bin/../lib/gcc/arm-eabi/4.5.1/../../../../arm-eabi/lib/thumb\libg.a(lib_a-gmtime.o) (gmtime_r)
c:/devkitpro/devkitarm/bin/../lib/gcc/arm-eabi/4.5.1/../../../../arm-eabi/lib/thumb\libg.a(lib_a-impure.o)
                              c:/devkitpro/devkitarm/bin/../lib/gcc/arm-eabi/4.5.1/../../../../arm-eabi/lib/thumb\libg.a(lib_a-fclose.o) (_impure_ptr)
c:/devkitpro/devkitarm/bin/../lib/gcc/arm-eabi/4.5.1/../../../../arm-eabi/lib/thumb\libg.a(lib_a-init.o)
                              c:/devkitpro/devkitarm/bin/../lib/gcc/arm-eabi/4.5.1/../../../../arm-eabi/lib/thumb/ds_arm9_crt0.o (__libc_init_array)
c:/devkitpro/devkitarm/bin/../lib/gcc/arm-eabi/4.5.1/../../../../arm-eabi/lib/thumb\libg.a(lib_a-locale.o)
                              c:/devkitPro/PAlib/lib\libpa9.a(PA_Inits.o) (setlocale)
c:/devkitpro/devkitarm/bin/../lib/gcc/arm-eabi/4.5.1/../../../../arm-eabi/lib/thumb\libg.a(lib_a-makebuf.o)
                              c:/devkitpro/devkitarm/bin/../lib/gcc/arm-eabi/4.5.1/../../../../arm-eabi/lib/thumb\libg.a(lib_a-fseek.o) (__smakebuf_r)
c:/devkitpro/devkitarm/bin/../lib/gcc/arm-eabi/4.5.1/../../../../arm-eabi/lib/thumb\libg.a(lib_a-malign.o)
                              c:/devkitPro/PAlib/lib\libpa9.a(as_lib9.o) (memalign)
c:/devkitpro/devkitarm/bin/../lib/gcc/arm-eabi/4.5.1/../../../../arm-eabi/lib/thumb\libg.a(lib_a-malignr.o)
                              c:/devkitpro/devkitarm/bin/../lib/gcc/arm-eabi/4.5.1/../../../../arm-eabi/lib/thumb\libg.a(lib_a-malign.o) (_memalign_r)
c:/devkitpro/devkitarm/bin/../lib/gcc/arm-eabi/4.5.1/../../../../arm-eabi/lib/thumb\libg.a(lib_a-malloc.o)
                              c:/devkitPro/PAlib/lib\libpa9.a(PA_Text8bit.o) (malloc)
c:/devkitpro/devkitarm/bin/../lib/gcc/arm-eabi/4.5.1/../../../../arm-eabi/lib/thumb\libg.a(lib_a-mallocr.o)
                              c:/devkitpro/devkitarm/bin/../lib/gcc/arm-eabi/4.5.1/../../../../arm-eabi/lib/thumb\libg.a(lib_a-findfp.o) (_malloc_r)
c:/devkitpro/devkitarm/bin/../lib/gcc/arm-eabi/4.5.1/../../../../arm-eabi/lib/thumb\libg.a(lib_a-mbtowc_r.o)
                              c:/devkitpro/devkitarm/bin/../lib/gcc/arm-eabi/4.5.1/../../../../arm-eabi/lib/thumb\libg.a(lib_a-locale.o) (__utf8_mbtowc)
c:/devkitpro/devkitarm/bin/../lib/gcc/arm-eabi/4.5.1/../../../../arm-eabi/lib/thumb\libg.a(lib_a-memcpy.o)
                              c:/devkitPro/PAlib/lib\libpa9.a(PA_Stuff.o) (memcpy)
c:/devkitpro/devkitarm/bin/../lib/gcc/arm-eabi/4.5.1/../../../../arm-eabi/lib/thumb\libg.a(lib_a-memset.o)
                              c:/devkitpro/devkitarm/bin/../lib/gcc/arm-eabi/4.5.1/../../../../arm-eabi/lib/thumb\libg.a(lib_a-findfp.o) (memset)
c:/devkitpro/devkitarm/bin/../lib/gcc/arm-eabi/4.5.1/../../../../arm-eabi/lib/thumb\libg.a(lib_a-mktm_r.o)
                              c:/devkitpro/devkitarm/bin/../lib/gcc/arm-eabi/4.5.1/../../../../arm-eabi/lib/thumb\libg.a(lib_a-gmtime_r.o) (_mktm_r)
c:/devkitpro/devkitarm/bin/../lib/gcc/arm-eabi/4.5.1/../../../../arm-eabi/lib/thumb\libg.a(lib_a-mlock.o)
                              c:/devkitpro/devkitarm/bin/../lib/gcc/arm-eabi/4.5.1/../../../../arm-eabi/lib/thumb\libg.a(lib_a-freer.o) (__malloc_lock)
c:/devkitpro/devkitarm/bin/../lib/gcc/arm-eabi/4.5.1/../../../../arm-eabi/lib/thumb\libg.a(lib_a-refill.o)
                              c:/devkitpro/devkitarm/bin/../lib/gcc/arm-eabi/4.5.1/../../../../arm-eabi/lib/thumb\libg.a(lib_a-fread.o) (__srefill_r)
c:/devkitpro/devkitarm/bin/../lib/gcc/arm-eabi/4.5.1/../../../../arm-eabi/lib/thumb\libg.a(lib_a-stdio.o)
                              c:/devkitpro/devkitarm/bin/../lib/gcc/arm-eabi/4.5.1/../../../../arm-eabi/lib/thumb\libg.a(lib_a-findfp.o) (__sread)
c:/devkitpro/devkitarm/bin/../lib/gcc/arm-eabi/4.5.1/../../../../arm-eabi/lib/thumb\libg.a(lib_a-strcasecmp.o)
                              c:/devkitPro/PAlib/lib\libpa9.a(PA_Stuff.o) (strcasecmp)
c:/devkitpro/devkitarm/bin/../lib/gcc/arm-eabi/4.5.1/../../../../arm-eabi/lib/thumb\libg.a(lib_a-strcat.o)
                              c:/devkitPro/PAlib/lib\libpa9.a(PA_Stuff.o) (strcat)
c:/devkitpro/devkitarm/bin/../lib/gcc/arm-eabi/4.5.1/../../../../arm-eabi/lib/thumb\libg.a(lib_a-strchr.o)
                              c:/devkitpro/devkitarm/bin/../lib/gcc/arm-eabi/4.5.1/../../../../arm-eabi/lib/thumb\libg.a(lib_a-locale.o) (strchr)
c:/devkitpro/devkitarm/bin/../lib/gcc/arm-eabi/4.5.1/../../../../arm-eabi/lib/thumb\libg.a(lib_a-strcmp.o)
                              c:/devkitPro/PAlib/lib\libpa9.a(PA_Stuff.o) (strcmp)
c:/devkitpro/devkitarm/bin/../lib/gcc/arm-eabi/4.5.1/../../../../arm-eabi/lib/thumb\libg.a(lib_a-strcpy.o)
                              c:/devkitPro/PAlib/lib\libpa9.a(PA_Stuff.o) (strcpy)
c:/devkitpro/devkitarm/bin/../lib/gcc/arm-eabi/4.5.1/../../../../arm-eabi/lib/thumb\libg.a(lib_a-strlcpy.o)
                              c:/devkitpro/devkitarm/bin/../lib/gcc/arm-eabi/4.5.1/../../../../arm-eabi/lib/thumb\libg.a(lib_a-locale.o) (strlcpy)
c:/devkitpro/devkitarm/bin/../lib/gcc/arm-eabi/4.5.1/../../../../arm-eabi/lib/thumb\libg.a(lib_a-strlen.o)
                              c:/devkitPro/PAlib/lib\libpa9.a(PA_Stuff.o) (strlen)
c:/devkitpro/devkitarm/bin/../lib/gcc/arm-eabi/4.5.1/../../../../arm-eabi/lib/thumb\libg.a(lib_a-strncasecmp.o)
                              c:/devkitpro/devkitarm/bin/../lib/gcc/arm-eabi/4.5.1/../../../../arm-eabi/lib/thumb\libg.a(lib_a-locale.o) (strncasecmp)
c:/devkitpro/devkitarm/bin/../lib/gcc/arm-eabi/4.5.1/../../../../arm-eabi/lib/thumb\libg.a(lib_a-strncmp.o)
                              c:/devkitpro/devkitarm/bin/../lib/gcc/arm-eabi/4.5.1/../../../../arm-eabi/lib/thumb\libg.a(lib_a-locale.o) (strncmp)
c:/devkitpro/devkitarm/bin/../lib/gcc/arm-eabi/4.5.1/../../../../arm-eabi/lib/thumb\libg.a(lib_a-strncpy.o)
                              c:/devkitpro/devkitarm/bin/../lib/gcc/arm-eabi/4.5.1/../../../../arm-eabi/lib/thumb\libg.a(lib_a-locale.o) (strncpy)
c:/devkitpro/devkitarm/bin/../lib/gcc/arm-eabi/4.5.1/../../../../arm-eabi/lib/thumb\libg.a(lib_a-strtol.o)
                              c:/devkitpro/devkitarm/bin/../lib/gcc/arm-eabi/4.5.1/../../../../arm-eabi/lib/thumb\libg.a(lib_a-locale.o) (_strtol_r)
c:/devkitpro/devkitarm/bin/../lib/gcc/arm-eabi/4.5.1/../../../../arm-eabi/lib/thumb\libg.a(lib_a-sysstat.o)
                              c:/devkitPro/PAlib/lib\libpa9.a(PA_Stuff.o) (stat)
c:/devkitpro/devkitarm/bin/../lib/gcc/arm-eabi/4.5.1/../../../../arm-eabi/lib/thumb\libg.a(lib_a-time.o)
                              c:/devkitPro/PAlib/lib\libpa9.a(PA_RTC.o) (time)
c:/devkitpro/devkitarm/bin/../lib/gcc/arm-eabi/4.5.1/../../../../arm-eabi/lib/thumb\libg.a(lib_a-tzlock.o)
                              c:/devkitpro/devkitarm/bin/../lib/gcc/arm-eabi/4.5.1/../../../../arm-eabi/lib/thumb\libg.a(lib_a-mktm_r.o) (__tz_lock)
c:/devkitpro/devkitarm/bin/../lib/gcc/arm-eabi/4.5.1/../../../../arm-eabi/lib/thumb\libg.a(lib_a-tzvars.o)
                              c:/devkitpro/devkitarm/bin/../lib/gcc/arm-eabi/4.5.1/../../../../arm-eabi/lib/thumb\libg.a(lib_a-mktm_r.o) (_daylight)
c:/devkitpro/devkitarm/bin/../lib/gcc/arm-eabi/4.5.1/../../../../arm-eabi/lib/thumb\libg.a(lib_a-wctomb_r.o)
                              c:/devkitpro/devkitarm/bin/../lib/gcc/arm-eabi/4.5.1/../../../../arm-eabi/lib/thumb\libg.a(lib_a-locale.o) (__utf8_wctomb)
c:/devkitpro/devkitarm/bin/../lib/gcc/arm-eabi/4.5.1/../../../../arm-eabi/lib/thumb\libg.a(lib_a-ctype_.o)
                              c:/devkitpro/devkitarm/bin/../lib/gcc/arm-eabi/4.5.1/../../../../arm-eabi/lib/thumb\libg.a(lib_a-locale.o) (__set_ctype)
c:/devkitpro/devkitarm/bin/../lib/gcc/arm-eabi/4.5.1/../../../../arm-eabi/lib/thumb\libg.a(lib_a-flags.o)
                              c:/devkitpro/devkitarm/bin/../lib/gcc/arm-eabi/4.5.1/../../../../arm-eabi/lib/thumb\libg.a(lib_a-fopen.o) (__sflags)
c:/devkitpro/devkitarm/bin/../lib/gcc/arm-eabi/4.5.1/../../../../arm-eabi/lib/thumb\libg.a(lib_a-getenv_r.o)
                              c:/devkitpro/devkitarm/bin/../lib/gcc/arm-eabi/4.5.1/../../../../arm-eabi/lib/thumb\libg.a(lib_a-locale.o) (_getenv_r)
c:/devkitpro/devkitarm/bin/../lib/gcc/arm-eabi/4.5.1/../../../../arm-eabi/lib/thumb\libg.a(lib_a-gettzinfo.o)
                              c:/devkitpro/devkitarm/bin/../lib/gcc/arm-eabi/4.5.1/../../../../arm-eabi/lib/thumb\libg.a(lib_a-mktm_r.o) (__gettzinfo)
c:/devkitpro/devkitarm/bin/../lib/gcc/arm-eabi/4.5.1/../../../../arm-eabi/lib/thumb\libg.a(lib_a-environ.o)
                              c:/devkitpro/devkitarm/bin/../lib/gcc/arm-eabi/4.5.1/../../../../arm-eabi/lib/thumb\libg.a(lib_a-getenv_r.o) (environ)
c:/devkitpro/devkitarm/bin/../lib/gcc/arm-eabi/4.5.1/../../../../arm-eabi/lib/thumb\libg.a(lib_a-envlock.o)
                              c:/devkitpro/devkitarm/bin/../lib/gcc/arm-eabi/4.5.1/../../../../arm-eabi/lib/thumb\libg.a(lib_a-getenv_r.o) (__env_lock)
c:/devkitpro/devkitarm/bin/../lib/gcc/arm-eabi/4.5.1/../../../../arm-eabi/lib/thumb\libsysbase.a(close.o)
                              c:/devkitpro/devkitarm/bin/../lib/gcc/arm-eabi/4.5.1/../../../../arm-eabi/lib/thumb\libg.a(lib_a-stdio.o) (_close_r)
c:/devkitpro/devkitarm/bin/../lib/gcc/arm-eabi/4.5.1/../../../../arm-eabi/lib/thumb\libsysbase.a(fstat.o)
                              c:/devkitpro/devkitarm/bin/../lib/gcc/arm-eabi/4.5.1/../../../../arm-eabi/lib/thumb\libg.a(lib_a-fseek.o) (_fstat_r)
c:/devkitpro/devkitarm/bin/../lib/gcc/arm-eabi/4.5.1/../../../../arm-eabi/lib/thumb\libsysbase.a(isatty.o)
                              c:/devkitpro/devkitarm/bin/../lib/gcc/arm-eabi/4.5.1/../../../../arm-eabi/lib/thumb\libg.a(lib_a-makebuf.o) (_isatty_r)
c:/devkitpro/devkitarm/bin/../lib/gcc/arm-eabi/4.5.1/../../../../arm-eabi/lib/thumb\libsysbase.a(lseek.o)
                              c:/devkitpro/devkitarm/bin/../lib/gcc/arm-eabi/4.5.1/../../../../arm-eabi/lib/thumb\libg.a(lib_a-stdio.o) (_lseek_r)
c:/devkitpro/devkitarm/bin/../lib/gcc/arm-eabi/4.5.1/../../../../arm-eabi/lib/thumb\libsysbase.a(open.o)
                              c:/devkitpro/devkitarm/bin/../lib/gcc/arm-eabi/4.5.1/../../../../arm-eabi/lib/thumb\libg.a(lib_a-fopen.o) (_open_r)
c:/devkitpro/devkitarm/bin/../lib/gcc/arm-eabi/4.5.1/../../../../arm-eabi/lib/thumb\libsysbase.a(read.o)
                              c:/devkitpro/devkitarm/bin/../lib/gcc/arm-eabi/4.5.1/../../../../arm-eabi/lib/thumb\libg.a(lib_a-stdio.o) (_read_r)
c:/devkitpro/devkitarm/bin/../lib/gcc/arm-eabi/4.5.1/../../../../arm-eabi/lib/thumb\libsysbase.a(sbrk.o)
                              c:/devkitpro/devkitarm/bin/../lib/gcc/arm-eabi/4.5.1/../../../../arm-eabi/lib/thumb\libg.a(lib_a-freer.o) (_sbrk_r)
c:/devkitpro/devkitarm/bin/../lib/gcc/arm-eabi/4.5.1/../../../../arm-eabi/lib/thumb\libsysbase.a(stat.o)
                              c:/devkitpro/devkitarm/bin/../lib/gcc/arm-eabi/4.5.1/../../../../arm-eabi/lib/thumb\libg.a(lib_a-sysstat.o) (_stat_r)
c:/devkitpro/devkitarm/bin/../lib/gcc/arm-eabi/4.5.1/../../../../arm-eabi/lib/thumb\libsysbase.a(times.o)
                              c:/devkitpro/devkitarm/bin/../lib/gcc/arm-eabi/4.5.1/../../../../arm-eabi/lib/thumb\libg.a(lib_a-time.o) (_gettimeofday_r)
c:/devkitpro/devkitarm/bin/../lib/gcc/arm-eabi/4.5.1/../../../../arm-eabi/lib/thumb\libsysbase.a(write.o)
                              c:/devkitpro/devkitarm/bin/../lib/gcc/arm-eabi/4.5.1/../../../../arm-eabi/lib/thumb\libg.a(lib_a-stdio.o) (_write_r)
c:/devkitpro/devkitarm/bin/../lib/gcc/arm-eabi/4.5.1/../../../../arm-eabi/lib/thumb\libsysbase.a(malloc_vars.o)
                              c:/devkitpro/devkitarm/bin/../lib/gcc/arm-eabi/4.5.1/../../../../arm-eabi/lib/thumb/ds_arm9_crt0.o (fake_heap_end)
c:/devkitpro/devkitarm/bin/../lib/gcc/arm-eabi/4.5.1/../../../../arm-eabi/lib/thumb\libsysbase.a(build_argv.o)
                              c:/devkitpro/devkitarm/bin/../lib/gcc/arm-eabi/4.5.1/../../../../arm-eabi/lib/thumb/ds_arm9_crt0.o (build_argv)
c:/devkitpro/devkitarm/bin/../lib/gcc/arm-eabi/4.5.1/../../../../arm-eabi/lib/thumb\libsysbase.a(syscall_support.o)
                              c:/devkitPro/libnds/lib\libnds9.a(initSystem.o) (__syscalls)
c:/devkitpro/devkitarm/bin/../lib/gcc/arm-eabi/4.5.1/../../../../arm-eabi/lib/thumb\libsysbase.a(handle_manager.o)
                              c:/devkitpro/devkitarm/bin/../lib/gcc/arm-eabi/4.5.1/../../../../arm-eabi/lib/thumb\libsysbase.a(close.o) (__release_handle)
c:/devkitpro/devkitarm/bin/../lib/gcc/arm-eabi/4.5.1/../../../../arm-eabi/lib/thumb\libsysbase.a(dirent.o)
                              c:/devkitPro/PAlib/lib\libpa9.a(PA_Stuff.o) (opendir)
c:/devkitpro/devkitarm/bin/../lib/gcc/arm-eabi/4.5.1/../../../../arm-eabi/lib/thumb\libsysbase.a(iosupport.o)
                              c:/devkitpro/devkitarm/bin/../lib/gcc/arm-eabi/4.5.1/../../../../arm-eabi/lib/thumb\libsysbase.a(open.o) (FindDevice)
c:/devkitpro/devkitarm/bin/../lib/gcc/arm-eabi/4.5.1/../../../../arm-eabi/lib/thumb\libsysbase.a(dir.o)
                              c:/devkitpro/devkitarm/bin/../lib/gcc/arm-eabi/4.5.1/../../../../arm-eabi/lib/thumb\libsysbase.a(dirent.o) (diropen)
c:/devkitpro/devkitarm/bin/../lib/gcc/arm-eabi/4.5.1/../../../../arm-eabi/lib/thumb\libg.a(lib_a-errno.o)
                              c:/devkitpro/devkitarm/bin/../lib/gcc/arm-eabi/4.5.1/../../../../arm-eabi/lib/thumb\libsysbase.a(times.o) (__errno)
c:/devkitpro/devkitarm/bin/../lib/gcc/arm-eabi/4.5.1/../../../../arm-eabi/lib/thumb\libg.a(lib_a-strnlen.o)
                              c:/devkitpro/devkitarm/bin/../lib/gcc/arm-eabi/4.5.1/../../../../arm-eabi/lib/thumb\libsysbase.a(dirent.o) (strnlen)

Allocating common symbols
Common symbol       size              file

PA_ScreenSpace      0x2               c:/devkitPro/PAlib/lib\libpa9.a(PA.o)
PA_Reco             0xc               c:/devkitPro/PAlib/lib\libpa9.a(PA_Reco.o)
fifo_datamsg_data   0x40              c:/devkitPro/libnds/lib\libnds9.a(fifosystem.o)
PA_Draw16           0x8               c:/devkitPro/PAlib/lib\libpa9.a(PA_16c.o)
PA_RTC              0x8               c:/devkitPro/PAlib/lib\libpa9.a(PA_RTC.o)
free_mem            0x2000            c:/devkitPro/PAlib/lib\libpa9.a(PA_Sprite.o)
PadPointer          0x4               c:/devkitPro/PAlib/lib\libpa9.a(PA.o)
destroy             0x90              main.o
fifo_buffer         0x800             c:/devkitPro/libnds/lib\libnds9.a(fifosystem.o)
PA_texttiles        0x8               c:/devkitPro/PAlib/lib\libpa9.a(PA_Text.o)
n_free_mem          0x4               c:/devkitPro/PAlib/lib\libpa9.a(PA_Sprite.o)
PA_SpritePrio       0x100             c:/devkitPro/PAlib/lib\libpa9.a(PA_Sprite.o)
PA_LetterPos        0x3004            c:/devkitPro/PAlib/lib\libpa9.a(PA_TextBits.o)
PA_olddowntime      0x4               c:/devkitPro/PAlib/lib\libpa9.a(PA_Draw.o)
PA_Keyboard_Struct  0x12              c:/devkitPro/PAlib/lib\libpa9.a(PA_Keyboard.o)
PA_VBLCounter       0x40              c:/devkitPro/PAlib/lib\libpa9.a(PA_Interrupt.o)
PA_parallaxY        0x20              c:/devkitPro/PAlib/lib\libpa9.a(PA_BgTiles.o)
as_default_delay    0x1               c:/devkitPro/PAlib/lib\libpa9.a(as_lib9.o)
as_default_rate     0x4               c:/devkitPro/PAlib/lib\libpa9.a(as_lib9.o)
used_mem            0x800             c:/devkitPro/PAlib/lib\libpa9.a(PA_Sprite.o)
fifo_value32_func   0x40              c:/devkitPro/libnds/lib\libnds9.a(fifosystem.o)
fifo_address_func   0x40              c:/devkitPro/libnds/lib\libnds9.a(fifosystem.o)
PA_parallaxX        0x20              c:/devkitPro/PAlib/lib\libpa9.a(PA_BgTiles.o)
PA_DrawBg32         0x8               c:/devkitPro/PAlib/lib\libpa9.a(PA_Draw.o)
pa_checklid         0x1               c:/devkitPro/PAlib/lib\libpa9.a(PA.o)
PA_RecoInfo         0x18              c:/devkitPro/PAlib/lib\libpa9.a(PA_Reco.o)
spriteanims         0x2400            c:/devkitPro/PAlib/lib\libpa9.a(PA_Sprite.o)
PA_SpriteAnimP      0x2000            c:/devkitPro/PAlib/lib\libpa9.a(PA_Sprite.o)
PA_IPC              0x198             c:/devkitPro/PAlib/lib\libpa9.a(PA.o)
Pad                 0x27              c:/devkitPro/PAlib/lib\libpa9.a(PA.o)
PA_TextBox          0x8               c:/devkitPro/PAlib/lib\libpa9.a(PA_Text.o)
PAbgtext            0x2               c:/devkitPro/PAlib/lib\libpa9.a(PA_Text.o)
blocks              0x90              main.o
tempsize            0x2               c:/devkitPro/PAlib/lib\libpa9.a(PA_BgTiles.o)
uinfo               0x2c              main.o
pa_printx           0x8               c:/devkitPro/PAlib/lib\libpa9.a(PA_Text.o)
pa_bittextpoliceheight
                    0xa               c:/devkitPro/PAlib/lib\libpa9.a(PA_TextBits.o)
Stylus              0x1c              c:/devkitPro/PAlib/lib\libpa9.a(PA.o)
as_default_format   0x1               c:/devkitPro/PAlib/lib\libpa9.a(as_lib9.o)
PA_first            0x200             c:/devkitPro/PAlib/lib\libpa9.a(PA_Sprite.o)
pa_bittextsizes     0xa               c:/devkitPro/PAlib/lib\libpa9.a(PA_TextBits.o)
fifo_value32_data   0x40              c:/devkitPro/libnds/lib\libnds9.a(fifosystem.o)
charblocks          0x8c              c:/devkitPro/PAlib/lib\libpa9.a(PA_BgTiles.o)
PA_next             0x100             c:/devkitPro/PAlib/lib\libpa9.a(PA_Sprite.o)
PA_bgmap            0x20              c:/devkitPro/PAlib/lib\libpa9.a(PA.o)
PA_GifInfo          0x14              c:/devkitPro/PAlib/lib\libpa9.a(PA.o)
fifo_value32_queue  0x40              c:/devkitPro/libnds/lib\libnds9.a(fifosystem.o)
PA_StylusPos        0x9c40            c:/devkitPro/PAlib/lib\libpa9.a(PA_Reco.o)
fifo_data_queue     0x40              c:/devkitPro/libnds/lib\libnds9.a(fifosystem.o)
rotbg_size          0x8               c:/devkitPro/PAlib/lib\libpa9.a(PA_BgRot.o)
PA_VBLCounterOn     0x10              c:/devkitPro/PAlib/lib\libpa9.a(PA_Interrupt.o)
pa_printy           0x8               c:/devkitPro/PAlib/lib\libpa9.a(PA_Text.o)
PA_DrawBg           0x8               c:/devkitPro/PAlib/lib\libpa9.a(PA_Draw.o)
PA_oldx             0x4               c:/devkitPro/PAlib/lib\libpa9.a(PA_Draw.o)
textcol             0x4               c:/devkitPro/PAlib/lib\libpa9.a(PA_Text.o)
Blksprite           0x90              main.o
PA_drawsize         0x2               c:/devkitPro/PAlib/lib\libpa9.a(PA_Draw.o)
obj_per_gfx         0x800             c:/devkitPro/PAlib/lib\libpa9.a(PA_Sprite.o)
PA_CustomShape      0xd48             c:/devkitPro/PAlib/lib\libpa9.a(PA_Reco.o)
PA_RecoShape        0x10              c:/devkitPro/PAlib/lib\libpa9.a(PA_Reco.o)
pa_printscroll      0x4               c:/devkitPro/PAlib/lib\libpa9.a(PA_Text.o)
PA_oldy             0x4               c:/devkitPro/PAlib/lib\libpa9.a(PA_Draw.o)
PA_MovedSprite      0x10              c:/devkitPro/PAlib/lib\libpa9.a(PA.o)
PA_BgInfo           0x220             c:/devkitPro/PAlib/lib\libpa9.a(PA_BgTiles.o)
tempvar             0x2               c:/devkitPro/PAlib/lib\libpa9.a(PA_Draw.o)
punixTime           0x4               c:/devkitpro/devkitarm/bin/../lib/gcc/arm-eabi/4.5.1/../../../../arm-eabi/lib/thumb\libsysbase.a(times.o)
fifo_address_data   0x40              c:/devkitPro/libnds/lib\libnds9.a(fifosystem.o)
_PA_LidDown         0x1               c:/devkitPro/PAlib/lib\libpa9.a(PA_Keys.o)
PA_temppal          0x200             c:/devkitPro/PAlib/lib\libpa9.a(PA_Draw.o)
PA_UserInfo         0x52              c:/devkitPro/PAlib/lib\libpa9.a(PA_RTC.o)
scrollpos           0xe0              c:/devkitPro/PAlib/lib\libpa9.a(PA_BgTiles.o)
PA_obj              0x800             c:/devkitPro/PAlib/lib\libpa9.a(PA_Sprite.o)
DualSpriteX         0x100             c:/devkitPro/PAlib/lib\libpa9.a(PA_Sprite.o)
PA_textpal          0x8               c:/devkitPro/PAlib/lib\libpa9.a(PA_Text.o)
PA_nBit             0x2               c:/devkitPro/PAlib/lib\libpa9.a(PA_Draw.o)
fifo_datamsg_func   0x40              c:/devkitPro/libnds/lib\libnds9.a(fifosystem.o)
PA_Draw1632         0x8               c:/devkitPro/PAlib/lib\libpa9.a(PA_16c.o)
pa_obj_created      0x100             c:/devkitPro/PAlib/lib\libpa9.a(PA_Sprite.o)
fifo_address_queue  0x40              c:/devkitPro/libnds/lib\libnds9.a(fifosystem.o)
PA_textmap          0x8               c:/devkitPro/PAlib/lib\libpa9.a(PA_Text.o)
PA_ExtPal           0x4               c:/devkitPro/PAlib/lib\libpa9.a(PA_Palette.o)

Memory Configuration

Name             Origin             Length             Attributes
rom              0x08000000         0x02000000
ewram            0x02000000         0x003ff000
dtcm             0x0b000000         0x00004000
vectors          0x01000000         0x00000100
itcm             0x01000100         0x00007f00
*default*        0x00000000         0xffffffff

Linker script and memory map

                0x01000000                __vectors_start = 0x1000000
                0x01000100                __itcm_start = 0x1000100
                0x023ff000                __ewram_end = 0x23ff000
                0x023ff000                __eheap_end = 0x23ff000
                0x0b000000                __dtcm_start = 0xb000000
                0x0b004000                __dtcm_top = 0xb004000
                0x0b003ff8                __irq_flags = (__dtcm_top - 0x8)
                0x0b003ffc                __irq_vector = (__dtcm_top - 0x4)
                0x0b003f00                __sp_svc = (__dtcm_top - 0x100)
                0x0b003e00                __sp_irq = (__sp_svc - 0x100)
                0x0b003d00                __sp_usr = (__sp_irq - 0x100)

.init           0x02000000      0x23c
                0x02000000                __text_start = .
 *(.init)
 .init          0x02000000      0x230 c:/devkitpro/devkitarm/bin/../lib/gcc/arm-eabi/4.5.1/../../../../arm-eabi/lib/thumb/ds_arm9_crt0.o
                0x02000000                _start
 .init          0x02000230        0x4 c:/devkitpro/devkitarm/bin/../lib/gcc/arm-eabi/4.5.1/thumb/crti.o
                0x02000230                _init
 .init          0x02000234        0x8 c:/devkitpro/devkitarm/bin/../lib/gcc/arm-eabi/4.5.1/thumb/crtn.o
                0x0200023c                . = ALIGN (0x4)

.plt
 *(.plt)

.text           0x02000240    0x11ab8
 *(EXCLUDE_FILE(*.itcm*) .text)
 .text          0x02000240        0x0 c:/devkitpro/devkitarm/bin/../lib/gcc/arm-eabi/4.5.1/../../../../arm-eabi/lib/thumb/ds_arm9_crt0.o
 .text          0x02000240        0x0 c:/devkitpro/devkitarm/bin/../lib/gcc/arm-eabi/4.5.1/thumb/crti.o
 .text          0x02000240       0x6c c:/devkitpro/devkitarm/bin/../lib/gcc/arm-eabi/4.5.1/thumb/crtbegin.o
 .text          0x020002ac        0x0 Startup.o
 .text          0x020002ac        0x0 trapcard.o
 .text          0x020002ac     0x42e4 main.o
                0x020002ac                stage_init
                0x0200036c                gettouchcol
                0x020003a8                gettouchrow
                0x020003e4                UnLoad_Screen
                0x02000400                scr_Gameover
                0x02000784                scr_Season
                0x02000b30                scr_Main
                0x02000eac                isNearBlock
                0x02000ee4                swapsprite
                0x02000f94                swapBlock
                0x02000fdc                item_init
                0x02001304                scr_Shop
                0x020018a4                block_init
                0x02001a98                block_reload
                0x02001c5c                checkRow
                0x02001d3c                checkCol
                0x02001e1c                blocksCrack
                0x02001f40                itemgettouchrow
                0x02001f74                useOneClickItem
                0x0200211c                useTwoClickItem
                0x02002c98                scr_Game
                0x020044b0                getitemindex
                0x020044cc                user_init
                0x020044f0                main
 .text          0x02004590       0xbc c:/devkitPro/PAlib/lib\libpa9.a(PA.o)
                0x02004590                PA_SetBrightness
                0x020045d0                PA_Nothing
                0x020045d4                PA_CheckLid
 .text          0x0200464c      0x338 c:/devkitPro/PAlib/lib\libpa9.a(PA_BgEasy.o)
                0x0200464c                PA_EasyBgScrollX
                0x020046d8                PA_EasyBgScrollY
                0x02004764                PA_StoreEasyBgInfos
                0x020047a0                PA_EasyBgLoadEx
 .text          0x02004984      0xccc c:/devkitPro/PAlib/lib\libpa9.a(PA_BgLargeMap.o)
                0x02004984                PA_LargeScrollXN
                0x02004b40                PA_LargeScrollYN
                0x02004cf0                PA_InfLargeScrollXN
                0x02004ed4                PA_InfLargeScrollYN
                0x020050bc                PA_UpdateTileEngineX
                0x020051f8                PA_UpdateTileEngineY
                0x02005330                PA_InfTilesScrollX
                0x020053c0                PA_InfTilesScrollY
                0x02005450                PA_InitLargeBg
 .text          0x02005650      0x6f0 c:/devkitPro/PAlib/lib\libpa9.a(PA_BgTiles.o)
                0x02005650                PA_ReLoadBgTiles
                0x02005698                PA_InitBg
                0x02005780                PA_DeleteTiles
                0x02005814                PA_LoadBgTilesEx
                0x02005a24                PA_DeleteMap
                0x02005aa0                PA_LoadBgMap
                0x02005c1c                PA_ResetBgSysScreen
                0x02005d30                PA_ResetBgSys
 .text          0x02005d40       0x84 c:/devkitPro/PAlib/lib\libpa9.a(PA_Error.o)
                0x02005d40                PA_Error
                0x02005d60                _PA_Assert
 .text          0x02005dc4      0x278 c:/devkitPro/PAlib/lib\libpa9.a(PA_Inits.o)
                0x02005dc4                PA_Init2D
                0x02005e20                PA_Init
 .text          0x0200603c       0x78 c:/devkitPro/PAlib/lib\libpa9.a(PA_Interrupt.o)
                0x0200603c                PA_VBLCountersReset
                0x0200605c                PA_vblFunc
 .text          0x020060b4      0x2e0 c:/devkitPro/PAlib/lib\libpa9.a(PA_Keys.o)
                0x020060b4                PA_UpdatePad
                0x020062cc                PA_UpdateStylus
 .text          0x02006394      0x158 c:/devkitPro/PAlib/lib\libpa9.a(PA_Math.o)
                0x02006394                PA_AdjustAngle
 .text          0x020064ec      0x244 c:/devkitPro/PAlib/lib\libpa9.a(PA_Palette.o)
                0x020064ec                PA_LoadSpriteExtPal
                0x020065a4                PA_InitSpriteExtPal
                0x020065fc                PA_LoadBgPalN
                0x020066cc                PA_InitBgExtPal
 .text          0x02006730       0xc4 c:/devkitPro/PAlib/lib\libpa9.a(PA_RTC.o)
                0x02006730                PA_UpdateUserInfo
                0x020067b4                PA_UpdateRTC
 .text          0x020067f4      0x4e4 c:/devkitPro/PAlib/lib\libpa9.a(PA_Reco.o)
                0x020067f4                PA_StylusLine
                0x02006954                PA_AnalyzeShape
                0x02006c54                PA_CheckLetter
 .text          0x02006cd8      0x7dc c:/devkitPro/PAlib/lib\libpa9.a(PA_Sprite.o)
                0x02006cd8                PA_InitSpriteExtPrio
                0x02006d0c                PA_ResetSpriteSysScreen
                0x02006e60                PA_ResetSpriteSys
                0x02006e7c                PA_CreateGfx
                0x02006fd8                PA_DeleteGfx
                0x02007174                PA_DeleteSprite
                0x020072c8                PA_InitSpriteDraw
                0x02007328                PA_UpdateOAM
                0x0200747c                PA_UpdateSpriteVBL
 .text          0x020074b4      0x3d8 c:/devkitPro/PAlib/lib\libpa9.a(PA_SpriteAnim.o)
                0x020074b4                PA_UpdateSpriteAnims
                0x020076cc                PA_StartSpriteAnimEx
 .text          0x0200788c      0x1b4 c:/devkitPro/PAlib/lib\libpa9.a(PA_Stuff.o)
                0x0200788c                PA_SetVideoMode
                0x020078b0                PA_Locate
 .text          0x02007a40      0xa98 c:/devkitPro/PAlib/lib\libpa9.a(PA_Text.o)
                0x02007a40                PA_CreateTextPal
                0x02007aec                PA_LoadDefaultText
                0x02007bb4                PA_OutputSimpleText
                0x02007c90                PA_OutputText
                0x02008430                PA_ClearTextBg
 .text          0x020084d8      0x428 c:/devkitPro/PAlib/lib\libpa9.a(PA_TextBits.o)
                0x020084d8                PA_DoAlign
                0x0200862c                PA_DoLetterPos
 .text          0x02008900      0x6a4 c:/devkitPro/PAlib/lib\libpa9.a(as_lib9.o)
                0x02008900                AS_SetSoundPan
                0x020089c0                AS_SetSoundVolume
                0x02008a18                AS_SetSoundRate
                0x02008a60                AS_SoundDirectPlay
                0x02008b78                AS_SoundPlay
                0x02008c34                AS_MP3FillBuffer
                0x02008c78                AS_MP3DirectPlay
                0x02008c98                AS_MP3StreamPlay
                0x02008d1c                AS_SetMP3Pan
                0x02008dcc                AS_Init
                0x02008f7c                AS_SoundVBL
 .text          0x02008fa4        0x0 c:/devkitPro/PAlib/lib\libpa9.a(PA_TiledFont.o)
 .text          0x02008fa4        0x0 c:/devkitPro/PAlib/lib\libpa9.a(PA_BmpFont0.o)
 .text          0x02008fa4        0x0 c:/devkitPro/PAlib/lib\libpa9.a(PA_BmpFont1.o)
 .text          0x02008fa4        0x0 c:/devkitPro/PAlib/lib\libpa9.a(PA_BmpFont2.o)
 .text          0x02008fa4        0x0 c:/devkitPro/PAlib/lib\libpa9.a(PA_BmpFont3.o)
 .text          0x02008fa4        0x0 c:/devkitPro/PAlib/lib\libpa9.a(PA_BmpFont4.o)
 .text          0x02008fa4        0x0 c:/devkitPro/PAlib/lib\libpa9.a(PA_TiledFont_Map.bin.o)
 .text          0x02008fa4        0x0 c:/devkitPro/PAlib/lib\libpa9.a(PA_TiledFont_Pal.bin.o)
 .text          0x02008fa4        0x0 c:/devkitPro/PAlib/lib\libpa9.a(PA_TiledFont_Tiles.bin.o)
 .text          0x02008fa4        0x0 c:/devkitPro/PAlib/lib\libpa9.a(PA_BmpFont0_Map.bin.o)
 .text          0x02008fa4        0x0 c:/devkitPro/PAlib/lib\libpa9.a(PA_BmpFont0_Sizes.bin.o)
 .text          0x02008fa4        0x0 c:/devkitPro/PAlib/lib\libpa9.a(PA_BmpFont0_Tiles.bin.o)
 .text          0x02008fa4        0x0 c:/devkitPro/PAlib/lib\libpa9.a(PA_BmpFont1_Map.bin.o)
 .text          0x02008fa4        0x0 c:/devkitPro/PAlib/lib\libpa9.a(PA_BmpFont1_Sizes.bin.o)
 .text          0x02008fa4        0x0 c:/devkitPro/PAlib/lib\libpa9.a(PA_BmpFont1_Tiles.bin.o)
 .text          0x02008fa4        0x0 c:/devkitPro/PAlib/lib\libpa9.a(PA_BmpFont2_Map.bin.o)
 .text          0x02008fa4        0x0 c:/devkitPro/PAlib/lib\libpa9.a(PA_BmpFont2_Sizes.bin.o)
 .text          0x02008fa4        0x0 c:/devkitPro/PAlib/lib\libpa9.a(PA_BmpFont2_Tiles.bin.o)
 .text          0x02008fa4        0x0 c:/devkitPro/PAlib/lib\libpa9.a(PA_BmpFont3_Map.bin.o)
 .text          0x02008fa4        0x0 c:/devkitPro/PAlib/lib\libpa9.a(PA_BmpFont3_Sizes.bin.o)
 .text          0x02008fa4        0x0 c:/devkitPro/PAlib/lib\libpa9.a(PA_BmpFont3_Tiles.bin.o)
 .text          0x02008fa4        0x0 c:/devkitPro/PAlib/lib\libpa9.a(PA_BmpFont4_Map.bin.o)
 .text          0x02008fa4        0x0 c:/devkitPro/PAlib/lib\libpa9.a(PA_BmpFont4_Sizes.bin.o)
 .text          0x02008fa4        0x0 c:/devkitPro/PAlib/lib\libpa9.a(PA_BmpFont4_Tiles.bin.o)
 .text          0x02008fa4       0x50 c:/devkitPro/PAlib/lib\libpa9.a(PA_Fifo.o)
                0x02008fa4                PA_FifoMsgHandler
                0x02008fe0                PA_InitFifo
 .text          0x02008ff4      0x824 c:/devkitPro/PAlib/lib\libpa9.a(PA_NewBg.o)
                0x02008ff4                PA_LoadBackground
                0x020094f0                PA_LoadText
                0x02009624                PA_LoadKeyboard
                0x02009778                PA_AddBitmapFont
                0x020097c8                PA_Add16cFont
 .text          0x02009818      0x1e8 c:/devkitPro/PAlib/lib\libpa9.a(PA_PaletteEx.o)
                0x02009818                PA_CreatePalBright
                0x020098dc                PA_CreatePalTransition
                0x02009944                PA_SetBgPalNCol
                0x02009994                PA_SetSpritePalCol
                0x020099dc                PA_3DSetSpritePalCol
 .text          0x02009a00     0x1230 c:/devkitPro/PAlib/lib\libpa9.a(PA_Text8bit.o)
                0x02009a00                NoLetter
                0x02009a04                Letter
                0x02009df4                RotLetter2
                0x0200a238                RotLetter
                0x0200a680                TranspLetter
                0x0200aaa4                pa_8bitTextDecompress
                0x0200ab1c                PA_8bitText
                0x0200abcc                PA_CenterSmartText
 .text          0x0200ac30      0x6d0 c:/devkitPro/PAlib/lib\libpa9.a(PA_16c.o)
                0x0200ac30                PA_16c8X8Color
                0x0200ad88                PA_Init16cBgEx
                0x0200af28                pa_16cTextDecompress
                0x0200afb4                PA_16cText
                0x0200b138                PA_16cErase
                0x0200b170                PA_16cClearZone
 .text          0x0200b300      0x188 c:/devkitPro/PAlib/lib\libpa9.a(PA_BgRot.o)
                0x0200b300                PA_LoadRotBgMap
 .text          0x0200b488      0x2b4 c:/devkitPro/PAlib/lib\libpa9.a(PA_Draw.o)
                0x0200b488                PA_LoadBmpToBuffer
 .text          0x0200b73c      0x604 c:/devkitPro/PAlib/lib\libpa9.a(PA_Keyboard.o)
                0x0200b73c                PA_ReloadKeyboardCol
                0x0200b81c                PA_LoadDefaultKeyboard
                0x0200b978                PA_ChangeKeyboardType
                0x0200baf8                PA_SetLetterPal
                0x0200bc18                PA_CheckKeyboard
 .text          0x0200bd40        0x0 c:/devkitPro/PAlib/lib\libpa9.a(keyboard.map.o)
 .text          0x0200bd40        0x0 c:/devkitPro/PAlib/lib\libpa9.a(keyboard.pal.o)
 .text          0x0200bd40        0x0 c:/devkitPro/PAlib/lib\libpa9.a(keyboard.raw.o)
 .text          0x0200bd40       0xf8 c:/devkitPro/libnds/lib\libnds9.a(keys.o)
                0x0200bd40                scanKeys
                0x0200bdb0                keysHeld
                0x0200bdbc                keysDown
                0x0200bdcc                keysDownRepeat
                0x0200bddc                keysSetRepeat
                0x0200bdf4                keysUp
                0x0200be04                keysCurrent
 .text          0x0200be38       0xf4 c:/devkitPro/libnds/lib\libnds9.a(system.o)
                0x0200be38                systemMsgHandler
                0x0200be7c                systemSleep
                0x0200be94                powerValueHandler
                0x0200bea4                powerOn
                0x0200bed0                powerOff
                0x0200bef8                ledBlink
                0x0200bf0c                getBatteryLevel
 .text          0x0200bf2c       0x4c c:/devkitPro/libnds/lib\libnds9.a(touch.o)
                0x0200bf2c                touchRead
                0x0200bf54                touchReadXY
 .text          0x0200bf78       0xb4 c:/devkitPro/libnds/lib\libnds9.a(video.o)
                0x0200bf78                vramSetMainBanks
                0x0200bfbc                vramRestoreMainBanks
                0x0200bfc8                setBrightness
                0x0200c008                vramDefault
 .text          0x0200c02c      0x140 c:/devkitPro/libnds/lib\libnds9.a(initSystem.o)
                0x0200c02c                initSystem
 .text          0x0200c16c      0xc98 c:/devkitPro/libnds/lib\libnds9.a(fifosystem.o)
                0x0200c3dc                fifoSendAddress
                0x0200c408                fifoSendValue32
                0x0200c448                fifoSendDatamsg
                0x0200c4c0                fifoGetAddress
                0x0200c530                fifoSetAddressHandler
                0x0200c5a4                fifoGetValue32
                0x0200c610                fifoSetValue32Handler
                0x0200c684                fifoGetDatamsg
                0x0200cb14                fifoSetDatamsgHandler
                0x0200cbac                fifoCheckAddress
                0x0200cbd0                fifoCheckDatamsg
                0x0200cbf4                fifoCheckValue32
                0x0200cc18                fifoInit
 .text          0x0200ce04      0x1cc c:/devkitPro/libnds/lib\libnds9.a(interrupts.o)
                0x0200ce04                irqDummy
                0x0200ce08                irqSet
                0x0200ce74                irqInit
                0x0200cec0                irqInitHandler
                0x0200cef0                irqEnable
                0x0200cf50                irqDisable
                0x0200cfa4                irqClear
 .text          0x0200cfd0       0x40 c:/devkitPro/libnds/lib\libnds9.a(libnds_exit.o)
                0x0200cfd0                systemErrorExit
                0x0200cfd4                __libnds_exit
 .text          0x0200d010       0x70 c:/devkitPro/libnds/lib\libnds9.a(dcache.o)
                0x0200d010                DC_FlushAll
                0x0200d03c                DC_FlushRange
                0x0200d058                DC_InvalidateAll
                0x0200d064                DC_InvalidateRange
 .text          0x0200d080      0x1b4 c:/devkitPro/libnds/lib\libnds9.a(mpu_setup.o)
                0x0200d080                __libnds_mpu_setup
                0x0200d1c0                memCached
                0x0200d1d8                memUncached
 *fill*         0x0200d234        0xc ff
 .text          0x0200d240       0x70 c:/devkitPro/libnds/lib\libnds9.a(biosCalls.o)
                0x0200d240                swiDelay
                0x0200d244                swiIntrWait
                0x0200d248                swiWaitForVBlank
                0x0200d24c                swiSleep
                0x0200d250                swiChangeSoundBias
                0x0200d254                swiDivide
                0x0200d258                swiRemainder
                0x0200d25e                swiDivMod
                0x0200d26a                swiCopy
                0x0200d26e                swiFastCopy
                0x0200d272                swiSqrt
                0x0200d276                swiCRC16
                0x0200d27a                swiIsDebugger
                0x0200d27e                swiUnpackBits
                0x0200d282                swiDecompressLZSSWram
                0x0200d286                swiDecompressLZSSVram
                0x0200d28a                swiDecompressHuffman
                0x0200d28e                swiDecompressRLEWram
                0x0200d292                swiDecompressRLEVram
                0x0200d296                swiWaitForIRQ
                0x0200d29a                swiDecodeDelta8
                0x0200d29e                swiDecodeDelta16
                0x0200d2a2                swiSetHaltCR
 .text          0x0200d2b0        0x0 c:/devkitPro/libnds/lib\libnds9.a(interruptDispatcher.o)
 .text          0x0200d2b0       0x30 c:/devkitPro/libnds/lib\libnds9.a(swiSoftReset.o)
                0x0200d2b0                swiSoftReset
 .text          0x0200d2e0      0x11c c:/devkitpro/devkitarm/bin/../lib/gcc/arm-eabi/4.5.1/thumb\libgcc.a(_udivsi3.o)
                0x0200d2e0                __aeabi_uidiv
                0x0200d2e0                __udivsi3
                0x0200d3dc                __aeabi_uidivmod
 .text          0x0200d3fc      0x150 c:/devkitpro/devkitarm/bin/../lib/gcc/arm-eabi/4.5.1/thumb\libgcc.a(_divsi3.o)
                0x0200d3fc                __divsi3
                0x0200d3fc                __aeabi_idiv
                0x0200d52c                __aeabi_idivmod
 .text          0x0200d54c        0x4 c:/devkitpro/devkitarm/bin/../lib/gcc/arm-eabi/4.5.1/thumb\libgcc.a(_dvmd_tls.o)
                0x0200d54c                __aeabi_idiv0
                0x0200d54c                __aeabi_ldiv0
 .text          0x0200d550      0x41c c:/devkitpro/devkitarm/bin/../lib/gcc/arm-eabi/4.5.1/thumb\libgcc.a(_arm_addsubdf3.o)
                0x0200d550                __aeabi_drsub
                0x0200d558                __aeabi_dsub
                0x0200d558                __subdf3
                0x0200d55c                __aeabi_dadd
                0x0200d55c                __adddf3
                0x0200d86c                __floatunsidf
                0x0200d86c                __aeabi_ui2d
                0x0200d890                __floatsidf
                0x0200d890                __aeabi_i2d
                0x0200d8b8                __aeabi_f2d
                0x0200d8b8                __extendsfdf2
                0x0200d8f8                __floatundidf
                0x0200d8f8                __aeabi_ul2d
                0x0200d90c                __floatdidf
                0x0200d90c                __aeabi_l2d
 .text          0x0200d96c      0x49c c:/devkitpro/devkitarm/bin/../lib/gcc/arm-eabi/4.5.1/thumb\libgcc.a(_arm_muldivdf3.o)
                0x0200d96c                __aeabi_dmul
                0x0200d96c                __muldf3
                0x0200dbfc                __divdf3
                0x0200dbfc                __aeabi_ddiv
 .text          0x0200de08      0x144 c:/devkitpro/devkitarm/bin/../lib/gcc/arm-eabi/4.5.1/thumb\libgcc.a(_arm_cmpdf2.o)
                0x0200de08                __gtdf2
                0x0200de08                __gedf2
                0x0200de10                __ltdf2
                0x0200de10                __ledf2
                0x0200de18                __nedf2
                0x0200de18                __eqdf2
                0x0200de18                __cmpdf2
                0x0200dea0                __aeabi_cdrcmple
                0x0200debc                __aeabi_cdcmpeq
                0x0200debc                __aeabi_cdcmple
                0x0200ded4                __aeabi_dcmpeq
                0x0200deec                __aeabi_dcmplt
                0x0200df04                __aeabi_dcmple
                0x0200df1c                __aeabi_dcmpge
                0x0200df34                __aeabi_dcmpgt
 .text          0x0200df4c       0x5c c:/devkitpro/devkitarm/bin/../lib/gcc/arm-eabi/4.5.1/thumb\libgcc.a(_arm_fixdfsi.o)
                0x0200df4c                __aeabi_d2iz
                0x0200df4c                __fixdfsi
 .text          0x0200dfa8       0x4c c:/devkitpro/devkitarm/bin/../lib/gcc/arm-eabi/4.5.1/thumb\libgcc.a(_muldi3.o)
                0x0200dfa8                __muldi3
                0x0200dfa8                __aeabi_lmul
 .text          0x0200dff4       0xc0 c:/devkitpro/devkitarm/bin/../lib/gcc/arm-eabi/4.5.1/../../../../arm-eabi/lib/thumb\libg.a(lib_a-fclose.o)
                0x0200dff4                _fclose_r
                0x0200e098                fclose
 .text          0x0200e0b4      0x18c c:/devkitpro/devkitarm/bin/../lib/gcc/arm-eabi/4.5.1/../../../../arm-eabi/lib/thumb\libg.a(lib_a-fflush.o)
                0x0200e0b4                _fflush_r
                0x0200e210                fflush
 .text          0x0200e240      0x238 c:/devkitpro/devkitarm/bin/../lib/gcc/arm-eabi/4.5.1/../../../../arm-eabi/lib/thumb\libg.a(lib_a-findfp.o)
                0x0200e248                _cleanup_r
                0x0200e25c                __sfmoreglue
                0x0200e28c                _cleanup
                0x0200e2a0                __sinit
                0x0200e3a0                __sfp
                0x0200e430                __sfp_lock_acquire
                0x0200e434                __sfp_lock_release
                0x0200e438                __sinit_lock_acquire
                0x0200e43c                __sinit_lock_release
                0x0200e440                __fp_lock_all
                0x0200e45c                __fp_unlock_all
 .text          0x0200e478       0xb0 c:/devkitpro/devkitarm/bin/../lib/gcc/arm-eabi/4.5.1/../../../../arm-eabi/lib/thumb\libg.a(lib_a-fopen.o)
                0x0200e478                _fopen_r
                0x0200e50c                fopen
 .text          0x0200e528      0x1a8 c:/devkitpro/devkitarm/bin/../lib/gcc/arm-eabi/4.5.1/../../../../arm-eabi/lib/thumb\libg.a(lib_a-fread.o)
                0x0200e528                _fread_r
                0x0200e6a8                fread
 .text          0x0200e6d0      0x244 c:/devkitpro/devkitarm/bin/../lib/gcc/arm-eabi/4.5.1/../../../../arm-eabi/lib/thumb\libg.a(lib_a-freer.o)
                0x0200e6d0                _malloc_trim_r
                0x0200e774                _free_r
 .text          0x0200e914      0x33c c:/devkitpro/devkitarm/bin/../lib/gcc/arm-eabi/4.5.1/../../../../arm-eabi/lib/thumb\libg.a(lib_a-fseek.o)
                0x0200e914                _fseek_r
                0x0200ec2c                fseek
 .text          0x0200ec50       0x9c c:/devkitpro/devkitarm/bin/../lib/gcc/arm-eabi/4.5.1/../../../../arm-eabi/lib/thumb\libg.a(lib_a-ftell.o)
                0x0200ec50                _ftell_r
                0x0200ecd0                ftell
 .text          0x0200ecec       0xbc c:/devkitpro/devkitarm/bin/../lib/gcc/arm-eabi/4.5.1/../../../../arm-eabi/lib/thumb\libg.a(lib_a-fwalk.o)
                0x0200ecec                _fwalk
                0x0200ed44                _fwalk_reent
 .text          0x0200eda8       0x18 c:/devkitpro/devkitarm/bin/../lib/gcc/arm-eabi/4.5.1/../../../../arm-eabi/lib/thumb\libg.a(lib_a-gmtime.o)
                0x0200eda8                gmtime
 .text          0x0200edc0       0x10 c:/devkitpro/devkitarm/bin/../lib/gcc/arm-eabi/4.5.1/../../../../arm-eabi/lib/thumb\libg.a(lib_a-gmtime_r.o)
                0x0200edc0                gmtime_r
 .text          0x0200edd0        0x0 c:/devkitpro/devkitarm/bin/../lib/gcc/arm-eabi/4.5.1/../../../../arm-eabi/lib/thumb\libg.a(lib_a-impure.o)
 .text          0x0200edd0       0x88 c:/devkitpro/devkitarm/bin/../lib/gcc/arm-eabi/4.5.1/../../../../arm-eabi/lib/thumb\libg.a(lib_a-init.o)
                0x0200edd0                __libc_init_array
                0x0200ee20                __libc_fini_array
 .text          0x0200ee58      0x7dc c:/devkitpro/devkitarm/bin/../lib/gcc/arm-eabi/4.5.1/../../../../arm-eabi/lib/thumb\libg.a(lib_a-locale.o)
                0x0200f3c8                _setlocale_r
                0x0200f5e4                __locale_charset
                0x0200f5f0                __locale_msgcharset
                0x0200f5fc                __locale_cjk_lang
                0x0200f608                _localeconv_r
                0x0200f610                setlocale
                0x0200f62c                localeconv
 .text          0x0200f634       0xe8 c:/devkitpro/devkitarm/bin/../lib/gcc/arm-eabi/4.5.1/../../../../arm-eabi/lib/thumb\libg.a(lib_a-makebuf.o)
                0x0200f634                __smakebuf_r
 .text          0x0200f71c       0x1c c:/devkitpro/devkitarm/bin/../lib/gcc/arm-eabi/4.5.1/../../../../arm-eabi/lib/thumb\libg.a(lib_a-malign.o)
                0x0200f71c                memalign
 .text          0x0200f738       0xf4 c:/devkitpro/devkitarm/bin/../lib/gcc/arm-eabi/4.5.1/../../../../arm-eabi/lib/thumb\libg.a(lib_a-malignr.o)
                0x0200f738                _memalign_r
 .text          0x0200f82c       0x30 c:/devkitpro/devkitarm/bin/../lib/gcc/arm-eabi/4.5.1/../../../../arm-eabi/lib/thumb\libg.a(lib_a-malloc.o)
                0x0200f82c                malloc
                0x0200f844                free
 .text          0x0200f85c      0x518 c:/devkitpro/devkitarm/bin/../lib/gcc/arm-eabi/4.5.1/../../../../arm-eabi/lib/thumb\libg.a(lib_a-mallocr.o)
                0x0200f85c                _malloc_r
 .text          0x0200fd74      0x5e0 c:/devkitpro/devkitarm/bin/../lib/gcc/arm-eabi/4.5.1/../../../../arm-eabi/lib/thumb\libg.a(lib_a-mbtowc_r.o)
                0x0200fd74                __utf8_mbtowc
                0x02010018                _mbtowc_r
                0x02010054                __ascii_mbtowc
                0x02010084                __sjis_mbtowc
                0x02010148                __eucjp_mbtowc
                0x02010238                __jis_mbtowc
 .text          0x02010354       0x84 c:/devkitpro/devkitarm/bin/../lib/gcc/arm-eabi/4.5.1/../../../../arm-eabi/lib/thumb\libg.a(lib_a-memcpy.o)
                0x02010354                memcpy
 .text          0x020103d8       0x94 c:/devkitpro/devkitarm/bin/../lib/gcc/arm-eabi/4.5.1/../../../../arm-eabi/lib/thumb\libg.a(lib_a-memset.o)
                0x020103d8                memset
 .text          0x0201046c      0x47c c:/devkitpro/devkitarm/bin/../lib/gcc/arm-eabi/4.5.1/../../../../arm-eabi/lib/thumb\libg.a(lib_a-mktm_r.o)
                0x0201046c                __tzcalc_limits
                0x020105f4                _mktm_r
 .text          0x020108e8        0x8 c:/devkitpro/devkitarm/bin/../lib/gcc/arm-eabi/4.5.1/../../../../arm-eabi/lib/thumb\libg.a(lib_a-mlock.o)
                0x020108e8                __malloc_lock
                0x020108ec                __malloc_unlock
 .text          0x020108f0      0x134 c:/devkitpro/devkitarm/bin/../lib/gcc/arm-eabi/4.5.1/../../../../arm-eabi/lib/thumb\libg.a(lib_a-refill.o)
                0x02010910                __srefill_r
 .text          0x02010a24       0xac c:/devkitpro/devkitarm/bin/../lib/gcc/arm-eabi/4.5.1/../../../../arm-eabi/lib/thumb\libg.a(lib_a-stdio.o)
                0x02010a24                __sread
                0x02010a50                __seofread
                0x02010a54                __swrite
                0x02010a90                __sseek
                0x02010ac0                __sclose
 .text          0x02010ad0       0x54 c:/devkitpro/devkitarm/bin/../lib/gcc/arm-eabi/4.5.1/../../../../arm-eabi/lib/thumb\libg.a(lib_a-strcasecmp.o)
                0x02010ad0                strcasecmp
 .text          0x02010b24       0x48 c:/devkitpro/devkitarm/bin/../lib/gcc/arm-eabi/4.5.1/../../../../arm-eabi/lib/thumb\libg.a(lib_a-strcat.o)
                0x02010b24                strcat
 .text          0x02010b6c       0xe8 c:/devkitpro/devkitarm/bin/../lib/gcc/arm-eabi/4.5.1/../../../../arm-eabi/lib/thumb\libg.a(lib_a-strchr.o)
                0x02010b6c                strchr
 .text          0x02010c54       0x14 c:/devkitpro/devkitarm/bin/../lib/gcc/arm-eabi/4.5.1/../../../../arm-eabi/lib/thumb\libg.a(lib_a-strcmp.o)
                0x02010c54                strcmp
 .text          0x02010c68       0x10 c:/devkitpro/devkitarm/bin/../lib/gcc/arm-eabi/4.5.1/../../../../arm-eabi/lib/thumb\libg.a(lib_a-strcpy.o)
                0x02010c68                strcpy
 .text          0x02010c78       0x4c c:/devkitpro/devkitarm/bin/../lib/gcc/arm-eabi/4.5.1/../../../../arm-eabi/lib/thumb\libg.a(lib_a-strlcpy.o)
                0x02010c78                strlcpy
 .text          0x02010cc4       0x10 c:/devkitpro/devkitarm/bin/../lib/gcc/arm-eabi/4.5.1/../../../../arm-eabi/lib/thumb\libg.a(lib_a-strlen.o)
                0x02010cc4                strlen
 .text          0x02010cd4       0x60 c:/devkitpro/devkitarm/bin/../lib/gcc/arm-eabi/4.5.1/../../../../arm-eabi/lib/thumb\libg.a(lib_a-strncasecmp.o)
                0x02010cd4                strncasecmp
 .text          0x02010d34       0xc0 c:/devkitpro/devkitarm/bin/../lib/gcc/arm-eabi/4.5.1/../../../../arm-eabi/lib/thumb\libg.a(lib_a-strncmp.o)
                0x02010d34                strncmp
 .text          0x02010df4       0x6c c:/devkitpro/devkitarm/bin/../lib/gcc/arm-eabi/4.5.1/../../../../arm-eabi/lib/thumb\libg.a(lib_a-strncpy.o)
                0x02010df4                strncpy
 .text          0x02010e60      0x188 c:/devkitpro/devkitarm/bin/../lib/gcc/arm-eabi/4.5.1/../../../../arm-eabi/lib/thumb\libg.a(lib_a-strtol.o)
                0x02010e60                _strtol_r
                0x02010fc8                strtol
 .text          0x02010fe8       0x1c c:/devkitpro/devkitarm/bin/../lib/gcc/arm-eabi/4.5.1/../../../../arm-eabi/lib/thumb\libg.a(lib_a-sysstat.o)
                0x02010fe8                stat
 .text          0x02011004       0x34 c:/devkitpro/devkitarm/bin/../lib/gcc/arm-eabi/4.5.1/../../../../arm-eabi/lib/thumb\libg.a(lib_a-time.o)
                0x02011004                time
 .text          0x02011038        0x8 c:/devkitpro/devkitarm/bin/../lib/gcc/arm-eabi/4.5.1/../../../../arm-eabi/lib/thumb\libg.a(lib_a-tzlock.o)
                0x02011038                __tz_lock
                0x0201103c                __tz_unlock
 .text          0x02011040        0x0 c:/devkitpro/devkitarm/bin/../lib/gcc/arm-eabi/4.5.1/../../../../arm-eabi/lib/thumb\libg.a(lib_a-tzvars.o)
 .text          0x02011040      0x294 c:/devkitpro/devkitarm/bin/../lib/gcc/arm-eabi/4.5.1/../../../../arm-eabi/lib/thumb\libg.a(lib_a-wctomb_r.o)
                0x02011040                __utf8_wctomb
                0x02011104                _wctomb_r
                0x0201113c                __ascii_wctomb
                0x0201115c                __sjis_wctomb
                0x020111cc                __eucjp_wctomb
                0x02011250                __jis_wctomb
 .text          0x020112d4       0x10 c:/devkitpro/devkitarm/bin/../lib/gcc/arm-eabi/4.5.1/../../../../arm-eabi/lib/thumb\libg.a(lib_a-ctype_.o)
                0x020112d4                __set_ctype
 .text          0x020112e4       0x70 c:/devkitpro/devkitarm/bin/../lib/gcc/arm-eabi/4.5.1/../../../../arm-eabi/lib/thumb\libg.a(lib_a-flags.o)
                0x020112e4                __sflags
 .text          0x02011354       0xa8 c:/devkitpro/devkitarm/bin/../lib/gcc/arm-eabi/4.5.1/../../../../arm-eabi/lib/thumb\libg.a(lib_a-getenv_r.o)
                0x02011354                _findenv_r
                0x020113ec                _getenv_r
 .text          0x020113fc        0x8 c:/devkitpro/devkitarm/bin/../lib/gcc/arm-eabi/4.5.1/../../../../arm-eabi/lib/thumb\libg.a(lib_a-gettzinfo.o)
                0x020113fc                __gettzinfo
 .text          0x02011404        0x0 c:/devkitpro/devkitarm/bin/../lib/gcc/arm-eabi/4.5.1/../../../../arm-eabi/lib/thumb\libg.a(lib_a-environ.o)
 .text          0x02011404        0x8 c:/devkitpro/devkitarm/bin/../lib/gcc/arm-eabi/4.5.1/../../../../arm-eabi/lib/thumb\libg.a(lib_a-envlock.o)
                0x02011404                __env_lock
                0x02011408                __env_unlock
 .text          0x0201140c       0x54 c:/devkitpro/devkitarm/bin/../lib/gcc/arm-eabi/4.5.1/../../../../arm-eabi/lib/thumb\libsysbase.a(close.o)
                0x0201140c                _close_r
 .text          0x02011460       0x58 c:/devkitpro/devkitarm/bin/../lib/gcc/arm-eabi/4.5.1/../../../../arm-eabi/lib/thumb\libsysbase.a(fstat.o)
                0x02011460                _fstat_r
 .text          0x020114b8        0x4 c:/devkitpro/devkitarm/bin/../lib/gcc/arm-eabi/4.5.1/../../../../arm-eabi/lib/thumb\libsysbase.a(isatty.o)
                0x020114b8                _isatty_r
 .text          0x020114bc       0x54 c:/devkitpro/devkitarm/bin/../lib/gcc/arm-eabi/4.5.1/../../../../arm-eabi/lib/thumb\libsysbase.a(lseek.o)
                0x020114bc                _lseek_r
 .text          0x02011510       0xa0 c:/devkitpro/devkitarm/bin/../lib/gcc/arm-eabi/4.5.1/../../../../arm-eabi/lib/thumb\libsysbase.a(open.o)
                0x02011510                _open_r
 .text          0x020115b0       0x54 c:/devkitpro/devkitarm/bin/../lib/gcc/arm-eabi/4.5.1/../../../../arm-eabi/lib/thumb\libsysbase.a(read.o)
                0x020115b0                _read_r
 .text          0x02011604       0x54 c:/devkitpro/devkitarm/bin/../lib/gcc/arm-eabi/4.5.1/../../../../arm-eabi/lib/thumb\libsysbase.a(sbrk.o)
                0x02011604                _sbrk_r
 .text          0x02011658       0x40 c:/devkitpro/devkitarm/bin/../lib/gcc/arm-eabi/4.5.1/../../../../arm-eabi/lib/thumb\libsysbase.a(stat.o)
                0x02011658                _stat_r
 .text          0x02011698       0x48 c:/devkitpro/devkitarm/bin/../lib/gcc/arm-eabi/4.5.1/../../../../arm-eabi/lib/thumb\libsysbase.a(times.o)
                0x02011698                _times
                0x020116ac                _times_r
                0x020116b4                _gettimeofday_r
 .text          0x020116e0       0x54 c:/devkitpro/devkitarm/bin/../lib/gcc/arm-eabi/4.5.1/../../../../arm-eabi/lib/thumb\libsysbase.a(write.o)
                0x020116e0                _write_r
 .text          0x02011734        0x0 c:/devkitpro/devkitarm/bin/../lib/gcc/arm-eabi/4.5.1/../../../../arm-eabi/lib/thumb\libsysbase.a(malloc_vars.o)
 .text          0x02011734       0x4c c:/devkitpro/devkitarm/bin/../lib/gcc/arm-eabi/4.5.1/../../../../arm-eabi/lib/thumb\libsysbase.a(build_argv.o)
                0x02011734                build_argv
 .text          0x02011780        0x0 c:/devkitpro/devkitarm/bin/../lib/gcc/arm-eabi/4.5.1/../../../../arm-eabi/lib/thumb\libsysbase.a(syscall_support.o)
 .text          0x02011780       0x80 c:/devkitpro/devkitarm/bin/../lib/gcc/arm-eabi/4.5.1/../../../../arm-eabi/lib/thumb\libsysbase.a(handle_manager.o)
                0x02011780                __release_handle
                0x020117ac                __alloc_handle
                0x020117e4                __get_handle
 .text          0x02011800      0x228 c:/devkitpro/devkitarm/bin/../lib/gcc/arm-eabi/4.5.1/../../../../arm-eabi/lib/thumb\libsysbase.a(dirent.o)
                0x02011800                opendir
                0x02011844                closedir
                0x02011870                readdir
                0x02011908                readdir_r
                0x020119a8                rewinddir
                0x020119c0                seekdir
                0x02011a14                telldir
 .text          0x02011a28      0x144 c:/devkitpro/devkitarm/bin/../lib/gcc/arm-eabi/4.5.1/../../../../arm-eabi/lib/thumb\libsysbase.a(iosupport.o)
                0x02011a28                setDefaultDevice
                0x02011a3c                FindDevice
                0x02011aac                RemoveDevice
                0x02011ad0                AddDevice
                0x02011b4c                GetDeviceOpTab
 .text          0x02011b6c      0x148 c:/devkitpro/devkitarm/bin/../lib/gcc/arm-eabi/4.5.1/../../../../arm-eabi/lib/thumb\libsysbase.a(dir.o)
                0x02011b6c                diropen
                0x02011be4                dirreset
                0x02011c20                dirnext
                0x02011c64                dirclose
 .text          0x02011cb4        0xc c:/devkitpro/devkitarm/bin/../lib/gcc/arm-eabi/4.5.1/../../../../arm-eabi/lib/thumb\libg.a(lib_a-errno.o)
                0x02011cb4                __errno
 .text          0x02011cc0       0x2c c:/devkitpro/devkitarm/bin/../lib/gcc/arm-eabi/4.5.1/../../../../arm-eabi/lib/thumb\libg.a(lib_a-strnlen.o)
                0x02011cc0                strnlen
 .text          0x02011cec        0x0 c:/devkitpro/devkitarm/bin/../lib/gcc/arm-eabi/4.5.1/thumb/crtend.o
 .text          0x02011cec        0x0 c:/devkitpro/devkitarm/bin/../lib/gcc/arm-eabi/4.5.1/thumb/crtn.o
 *fill*         0x02011cec        0x4 ff
 .text.stub     0x02011cf0        0x8 linker stubs
 *(.text.*)
 *(.stub)
 *(.gnu.warning)
 *(.gnu.linkonce.t*)
 *(.glue_7)
 .glue_7        0x00000000        0x0 linker stubs
 *(.glue_7t)
 .glue_7t       0x00000000        0x0 linker stubs
                0x02011cf8                . = ALIGN (0x4)

.vfp11_veneer   0x00000000        0x0 load address 0x02011cf8
 .vfp11_veneer  0x00000000        0x0 linker stubs

.v4_bx          0x00000000        0x0 load address 0x02011cf8
 .v4_bx         0x00000000        0x0 linker stubs

.fini           0x02011cf8        0xc
 *(.fini)
 .fini          0x02011cf8        0x4 c:/devkitpro/devkitarm/bin/../lib/gcc/arm-eabi/4.5.1/thumb/crti.o
                0x02011cf8                _fini
 .fini          0x02011cfc        0x8 c:/devkitpro/devkitarm/bin/../lib/gcc/arm-eabi/4.5.1/thumb/crtn.o
                0x02011d04                __text_end = .

.rodata         0x02011d04    0x8188c
 *(.rodata)
 .rodata        0x02011d04     0xcf58 Startup.o
                0x02011d04                Startup
                0x0201ec57                Startup_end
                0x0201ec58                Startup_size
 .rodata        0x0201ec5c    0x11ec8 trapcard.o
                0x0201ec5c                trapcard
                0x02030b20                trapcard_end
                0x02030b20                trapcard_size
 .rodata        0x02030b24    0x55c24 main.o
                0x02030b64                number_Sprite
                0x02034f64                Title_Tiles
                0x0203c1a4                Title_Map
                0x0203c7a4                Title_Pal
                0x0203c848                Gameover_Tiles
                0x02048748                Gameover_Map
                0x02048d48                Gameover_Pal
                0x02048e48                Season_Tiles
                0x02054a88                Season_Map
                0x02055088                Season_Pal
                0x02055178                Title_Down_Tiles
                0x0205dd78                Title_Down_Map
                0x0205e378                Title_Down_Pal
                0x0205e47c                item_Sprite
                0x0206187c                Shop_Tiles
                0x0206d57c                Shop_Map
                0x0206db7c                Shop_Pal
                0x0206dc78                item_Pal
                0x0206dd34                number_Pal
                0x0206de30                Play_Down_Tiles
                0x02079af0                Play_Down_Map
                0x0207a0f0                Play_Down_Pal
                0x0207a1f0                Pause_Down_Tiles
                0x02085ff0                Pause_Down_Map
                0x020865f0                Pause_Down_Pal
                0x020866f4                Gameover_Info
                0x02086700                Pause_Down_Info
                0x0208670c                Play_Down_Info
                0x02086718                Season_Info
                0x02086724                Shop_Info
                0x02086730                Title_Info
                0x0208673c                Title_Down_Info
 .rodata        0x02086748       0x40 c:/devkitPro/PAlib/lib\libpa9.a(PA_Inits.o)
                0x02086748                winfades
 .rodata        0x02086788      0x400 c:/devkitPro/PAlib/lib\libpa9.a(PA_Math.o)
                0x02086788                PA_SIN
 .rodata        0x02086b88       0x30 c:/devkitPro/PAlib/lib\libpa9.a(PA_Sprite.o)
                0x02086b88                PA_obj_sizes
                0x02086ba0                PA_size
 .rodata        0x02086bb8       0x20 c:/devkitPro/PAlib/lib\libpa9.a(PA_TiledFont.o)
                0x02086bb8                PA_TiledFont
 .rodata        0x02086bd8       0x20 c:/devkitPro/PAlib/lib\libpa9.a(PA_BmpFont0.o)
                0x02086bd8                PA_BmpFont0
 .rodata        0x02086bf8       0x20 c:/devkitPro/PAlib/lib\libpa9.a(PA_BmpFont1.o)
                0x02086bf8                PA_BmpFont1
 .rodata        0x02086c18       0x20 c:/devkitPro/PAlib/lib\libpa9.a(PA_BmpFont2.o)
                0x02086c18                PA_BmpFont2
 .rodata        0x02086c38       0x20 c:/devkitPro/PAlib/lib\libpa9.a(PA_BmpFont3.o)
                0x02086c38                PA_BmpFont3
 .rodata        0x02086c58       0x20 c:/devkitPro/PAlib/lib\libpa9.a(PA_BmpFont4.o)
                0x02086c58                PA_BmpFont4
 .rodata        0x02086c78      0x604 c:/devkitPro/PAlib/lib\libpa9.a(PA_TiledFont_Map.bin.o)
                0x02086c78                PA_TiledFont_Map
                0x02087278                PA_TiledFont_Map_size
                0x02087278                PA_TiledFont_Map_end
 .rodata        0x0208727c      0x204 c:/devkitPro/PAlib/lib\libpa9.a(PA_TiledFont_Pal.bin.o)
                0x0208727c                PA_TiledFont_Pal
                0x0208747c                PA_TiledFont_Pal_end
                0x0208747c                PA_TiledFont_Pal_size
 .rodata        0x02087480     0x33c4 c:/devkitPro/PAlib/lib\libpa9.a(PA_TiledFont_Tiles.bin.o)
                0x02087480                PA_TiledFont_Tiles
                0x0208a840                PA_TiledFont_Tiles_size
                0x0208a840                PA_TiledFont_Tiles_end
 .rodata        0x0208a844      0x204 c:/devkitPro/PAlib/lib\libpa9.a(PA_BmpFont0_Map.bin.o)
                0x0208a844                PA_BmpFont0_Map
                0x0208aa44                PA_BmpFont0_Map_end
                0x0208aa44                PA_BmpFont0_Map_size
 .rodata        0x0208aa48      0x104 c:/devkitPro/PAlib/lib\libpa9.a(PA_BmpFont0_Sizes.bin.o)
                0x0208aa48                PA_BmpFont0_Sizes
                0x0208ab48                PA_BmpFont0_Sizes_size
                0x0208ab48                PA_BmpFont0_Sizes_end
 .rodata        0x0208ab4c      0x324 c:/devkitPro/PAlib/lib\libpa9.a(PA_BmpFont0_Tiles.bin.o)
                0x0208ab4c                PA_BmpFont0_Tiles
                0x0208ae6c                PA_BmpFont0_Tiles_size
                0x0208ae6c                PA_BmpFont0_Tiles_end
 .rodata        0x0208ae70      0x204 c:/devkitPro/PAlib/lib\libpa9.a(PA_BmpFont1_Map.bin.o)
                0x0208ae70                PA_BmpFont1_Map
                0x0208b070                PA_BmpFont1_Map_end
                0x0208b070                PA_BmpFont1_Map_size
 .rodata        0x0208b074      0x104 c:/devkitPro/PAlib/lib\libpa9.a(PA_BmpFont1_Sizes.bin.o)
                0x0208b074                PA_BmpFont1_Sizes
                0x0208b174                PA_BmpFont1_Sizes_size
                0x0208b174                PA_BmpFont1_Sizes_end
 .rodata        0x0208b178      0x34c c:/devkitPro/PAlib/lib\libpa9.a(PA_BmpFont1_Tiles.bin.o)
                0x0208b178                PA_BmpFont1_Tiles
                0x0208b4c0                PA_BmpFont1_Tiles_end
                0x0208b4c0                PA_BmpFont1_Tiles_size
 .rodata        0x0208b4c4      0x804 c:/devkitPro/PAlib/lib\libpa9.a(PA_BmpFont2_Map.bin.o)
                0x0208b4c4                PA_BmpFont2_Map
                0x0208bcc4                PA_BmpFont2_Map_size
                0x0208bcc4                PA_BmpFont2_Map_end
 .rodata        0x0208bcc8      0x104 c:/devkitPro/PAlib/lib\libpa9.a(PA_BmpFont2_Sizes.bin.o)
                0x0208bcc8                PA_BmpFont2_Sizes
                0x0208bdc8                PA_BmpFont2_Sizes_end
                0x0208bdc8                PA_BmpFont2_Sizes_size
 .rodata        0x0208bdcc      0x39c c:/devkitPro/PAlib/lib\libpa9.a(PA_BmpFont2_Tiles.bin.o)
                0x0208bdcc                PA_BmpFont2_Tiles
                0x0208c164                PA_BmpFont2_Tiles_size
                0x0208c164                PA_BmpFont2_Tiles_end
 .rodata        0x0208c168      0x804 c:/devkitPro/PAlib/lib\libpa9.a(PA_BmpFont3_Map.bin.o)
                0x0208c168                PA_BmpFont3_Map
                0x0208c968                PA_BmpFont3_Map_end
                0x0208c968                PA_BmpFont3_Map_size
 .rodata        0x0208c96c      0x104 c:/devkitPro/PAlib/lib\libpa9.a(PA_BmpFont3_Sizes.bin.o)
                0x0208c96c                PA_BmpFont3_Sizes
                0x0208ca6c                PA_BmpFont3_Sizes_end
                0x0208ca6c                PA_BmpFont3_Sizes_size
 .rodata        0x0208ca70      0x624 c:/devkitPro/PAlib/lib\libpa9.a(PA_BmpFont3_Tiles.bin.o)
                0x0208ca70                PA_BmpFont3_Tiles
                0x0208d090                PA_BmpFont3_Tiles_end
                0x0208d090                PA_BmpFont3_Tiles_size
 .rodata        0x0208d094      0x804 c:/devkitPro/PAlib/lib\libpa9.a(PA_BmpFont4_Map.bin.o)
                0x0208d094                PA_BmpFont4_Map
                0x0208d894                PA_BmpFont4_Map_size
                0x0208d894                PA_BmpFont4_Map_end
 .rodata        0x0208d898      0x104 c:/devkitPro/PAlib/lib\libpa9.a(PA_BmpFont4_Sizes.bin.o)
                0x0208d898                PA_BmpFont4_Sizes
                0x0208d998                PA_BmpFont4_Sizes_end
                0x0208d998                PA_BmpFont4_Sizes_size
 .rodata        0x0208d99c      0x834 c:/devkitPro/PAlib/lib\libpa9.a(PA_BmpFont4_Tiles.bin.o)
                0x0208d99c                PA_BmpFont4_Tiles
                0x0208e1cc                PA_BmpFont4_Tiles_size
                0x0208e1cc                PA_BmpFont4_Tiles_end
 .rodata        0x0208e1d0       0xf0 c:/devkitPro/PAlib/lib\libpa9.a(PA_Keyboard.o)
                0x0208e1d0                PA_Keyboard
 .rodata        0x0208e2c0     0x2000 c:/devkitPro/PAlib/lib\libpa9.a(keyboard.map.o)
                0x0208e2c0                keyboard_Map
 .rodata        0x020902c0       0x20 c:/devkitPro/PAlib/lib\libpa9.a(keyboard.pal.o)
                0x020902c0                keyboard_Palette
 .rodata        0x020902e0     0x28a0 c:/devkitPro/PAlib/lib\libpa9.a(keyboard.raw.o)
                0x020902e0                keyboard_Tiles
 .rodata        0x02092b80        0x4 c:/devkitpro/devkitarm/bin/../lib/gcc/arm-eabi/4.5.1/../../../../arm-eabi/lib/thumb\libg.a(lib_a-impure.o)
                0x02092b80                _global_impure_ptr
 .rodata        0x02092b84      0x128 c:/devkitpro/devkitarm/bin/../lib/gcc/arm-eabi/4.5.1/../../../../arm-eabi/lib/thumb\libg.a(lib_a-locale.o)
 .rodata        0x02092cac       0xa8 c:/devkitpro/devkitarm/bin/../lib/gcc/arm-eabi/4.5.1/../../../../arm-eabi/lib/thumb\libg.a(lib_a-mbtowc_r.o)
 .rodata        0x02092d54       0x68 c:/devkitpro/devkitarm/bin/../lib/gcc/arm-eabi/4.5.1/../../../../arm-eabi/lib/thumb\libg.a(lib_a-mktm_r.o)
 .rodata        0x02092dbc      0x104 c:/devkitpro/devkitarm/bin/../lib/gcc/arm-eabi/4.5.1/../../../../arm-eabi/lib/thumb\libg.a(lib_a-ctype_.o)
                0x02092dbc                _ctype_
 .rodata        0x02092ec0       0x64 c:/devkitpro/devkitarm/bin/../lib/gcc/arm-eabi/4.5.1/../../../../arm-eabi/lib/thumb\libsysbase.a(iosupport.o)
                0x02092ec0                dotab_stdnull
 *all.rodata*(*)
 *(.roda)
 *(.rodata.*)
 .rodata.str1.4
                0x02092f24       0x5c main.o
 .rodata.str1.4
                0x02092f80      0x18b c:/devkitPro/PAlib/lib\libpa9.a(PA_BgTiles.o)
                                0x190 (size before relaxing)
 *fill*         0x0209310b        0x1 ff
 .rodata.str1.4
                0x0209310c       0x26 c:/devkitPro/PAlib/lib\libpa9.a(PA_Error.o)
                                 0x28 (size before relaxing)
 *fill*         0x02093132        0x2 ff
 .rodata.str1.4
                0x02093134        0x2 c:/devkitPro/PAlib/lib\libpa9.a(PA_Inits.o)
                                  0x4 (size before relaxing)
 *fill*         0x02093136        0x2 ff
 .rodata.str1.4
                0x02093138      0x234 c:/devkitPro/PAlib/lib\libpa9.a(PA_Sprite.o)
 .rodata.str1.4
                0x0209336c        0xa c:/devkitPro/PAlib/lib\libpa9.a(PA_Stuff.o)
                                  0xc (size before relaxing)
 *fill*         0x02093376        0x2 ff
 .rodata.str1.4
                0x02093378        0x3 c:/devkitPro/PAlib/lib\libpa9.a(as_lib9.o)
                                  0x4 (size before relaxing)
 *fill*         0x0209337b        0x1 ff
 .rodata.str1.4
                0x0209337c      0x128 c:/devkitPro/PAlib/lib\libpa9.a(PA_NewBg.o)
 .rodata.str1.4
                0x00000000        0x4 c:/devkitpro/devkitarm/bin/../lib/gcc/arm-eabi/4.5.1/../../../../arm-eabi/lib/thumb\libg.a(lib_a-impure.o)
 .rodata.str1.4
                0x020934a4       0xe0 c:/devkitpro/devkitarm/bin/../lib/gcc/arm-eabi/4.5.1/../../../../arm-eabi/lib/thumb\libg.a(lib_a-locale.o)
                                 0xf0 (size before relaxing)
 .rodata.str1.4
                0x02093584        0x4 c:/devkitpro/devkitarm/bin/../lib/gcc/arm-eabi/4.5.1/../../../../arm-eabi/lib/thumb\libg.a(lib_a-tzvars.o)
 .rodata.str1.4
                0x02093588        0x8 c:/devkitpro/devkitarm/bin/../lib/gcc/arm-eabi/4.5.1/../../../../arm-eabi/lib/thumb\libsysbase.a(iosupport.o)
 *(.gnu.linkonce.r*)
                0x02093590                . = ALIGN (0x4)

.ARM.extab
 *(.ARM.extab* .gnu.linkonce.armextab.*)
                0x02093590                __exidx_start = .

.ARM.exidx
 *(.ARM.exidx* .gnu.linkonce.armexidx.*)
                0x02093590                __exidx_end = .
                0x02093590                . = ALIGN (0x4)
                0x02093590                PROVIDE (__preinit_array_start, .)

.preinit_array
 *(.preinit_array)
                0x02093590                PROVIDE (__preinit_array_end, .)
                0x02093590                PROVIDE (__init_array_start, .)

.init_array     0x02093590        0x4
 *(SORT(.init_array.*))
 *(.init_array)
 .init_array    0x02093590        0x4 c:/devkitpro/devkitarm/bin/../lib/gcc/arm-eabi/4.5.1/thumb/crtbegin.o
                0x02093594                PROVIDE (__init_array_end, .)
                0x02093594                PROVIDE (__fini_array_start, .)

.fini_array     0x02093594        0x4
 *(.fini_array)
 .fini_array    0x02093594        0x4 c:/devkitpro/devkitarm/bin/../lib/gcc/arm-eabi/4.5.1/thumb/crtbegin.o
 *(SORT(.fini_array.*))
                0x02093598                PROVIDE (__fini_array_end, .)

.ctors          0x02093598        0x0
 *crtbegin.o(.ctors)
 *(EXCLUDE_FILE(*crtend.o) .ctors)
 *(SORT(.ctors.*))
 *(.ctors)
                0x02093598                . = ALIGN (0x4)

.dtors          0x02093598        0x0
 *crtbegin.o(.dtors)
 *(EXCLUDE_FILE(*crtend.o) .dtors)
 *(SORT(.dtors.*))
 *(.dtors)
                0x02093598                . = ALIGN (0x4)

.eh_frame       0x02093598        0x4
 *(.eh_frame)
 .eh_frame      0x02093598        0x0 c:/devkitpro/devkitarm/bin/../lib/gcc/arm-eabi/4.5.1/thumb/crtbegin.o
 .eh_frame      0x02093598        0x4 c:/devkitpro/devkitarm/bin/../lib/gcc/arm-eabi/4.5.1/thumb/crtend.o
                0x0209359c                . = ALIGN (0x4)

.gcc_except_table
                0x0209359c        0x0
 *(.gcc_except_table)
                0x0209359c                . = ALIGN (0x4)

.jcr            0x0209359c        0x4
 *(.jcr)
 .jcr           0x0209359c        0x0 c:/devkitpro/devkitarm/bin/../lib/gcc/arm-eabi/4.5.1/thumb/crtbegin.o
 .jcr           0x0209359c        0x4 c:/devkitpro/devkitarm/bin/../lib/gcc/arm-eabi/4.5.1/thumb/crtend.o

.got
 *(.got.plt)
 *(.got)
 *(.rel.got)

.ewram          0x020935a0        0x0
                0x020935a0                __ewram_start = ABSOLUTE (.)
 *(.ewram)
 *ewram.*(.text)
                0x020935a0                . = ALIGN (0x4)

.data           0x020935a0      0xe08
                0x020935a0                __data_start = ABSOLUTE (.)
 *(.data)
 .data          0x020935a0        0x0 c:/devkitpro/devkitarm/bin/../lib/gcc/arm-eabi/4.5.1/../../../../arm-eabi/lib/thumb/ds_arm9_crt0.o
 .data          0x020935a0        0x0 c:/devkitpro/devkitarm/bin/../lib/gcc/arm-eabi/4.5.1/thumb/crti.o
 .data          0x020935a0        0x4 c:/devkitpro/devkitarm/bin/../lib/gcc/arm-eabi/4.5.1/thumb/crtbegin.o
                0x020935a0                __dso_handle
 .data          0x020935a4        0x0 Startup.o
 .data          0x020935a4        0x0 trapcard.o
 .data          0x020935a4       0xb4 main.o
                0x020935ac                newGame
                0x020935b0                Gameover
                0x020935c8                Pause_Down
                0x020935e0                Play_Down
                0x020935f8                Season
                0x02093610                Shop
                0x02093628                Title
                0x02093640                Title_Down
 .data          0x02093658        0x0 c:/devkitPro/PAlib/lib\libpa9.a(PA.o)
 .data          0x02093658        0x0 c:/devkitPro/PAlib/lib\libpa9.a(PA_BgEasy.o)
 .data          0x02093658        0x0 c:/devkitPro/PAlib/lib\libpa9.a(PA_BgLargeMap.o)
 .data          0x02093658       0x10 c:/devkitPro/PAlib/lib\libpa9.a(PA_BgTiles.o)
                0x02093658                charsetstart
                0x0209365c                bg_place
                0x02093660                bg_sizes
 .data          0x02093668        0x0 c:/devkitPro/PAlib/lib\libpa9.a(PA_Error.o)
 .data          0x02093668        0x0 c:/devkitPro/PAlib/lib\libpa9.a(PA_Inits.o)
 .data          0x02093668       0x14 c:/devkitPro/PAlib/lib\libpa9.a(PA_Interrupt.o)
                0x02093668                SpriteVBL
                0x0209366c                MotionVBL
                0x02093670                GHPadVBL
                0x02093674                PaddleVBL
                0x02093678                CustomVBL
 .data          0x0209367c        0x0 c:/devkitPro/PAlib/lib\libpa9.a(PA_Keys.o)
 .data          0x0209367c        0x4 c:/devkitPro/PAlib/lib\libpa9.a(PA_Math.o)
                0x0209367c                RandomValue
 .data          0x02093680        0x0 c:/devkitPro/PAlib/lib\libpa9.a(PA_Palette.o)
 .data          0x02093680        0x0 c:/devkitPro/PAlib/lib\libpa9.a(PA_RTC.o)
 .data          0x02093680      0x204 c:/devkitPro/PAlib/lib\libpa9.a(PA_Reco.o)
                0x02093680                PA_UseGraffiti
                0x02093684                PA_Graffiti
 .data          0x02093884        0x4 c:/devkitPro/PAlib/lib\libpa9.a(PA_Sprite.o)
                0x02093884                VBLSpriteAnims
 .data          0x02093888        0x0 c:/devkitPro/PAlib/lib\libpa9.a(PA_SpriteAnim.o)
 .data          0x02093888        0x0 c:/devkitPro/PAlib/lib\libpa9.a(PA_Stuff.o)
 .data          0x02093888        0x0 c:/devkitPro/PAlib/lib\libpa9.a(PA_Text.o)
 .data          0x02093888       0x7c c:/devkitPro/PAlib/lib\libpa9.a(PA_TextBits.o)
                0x02093888                textinfo
                0x0209388c                pa_bittextdefaultsize
                0x020938b4                bittext_maps
                0x020938dc                bittext_tiles_blank
 .data          0x02093904        0x0 c:/devkitPro/PAlib/lib\libpa9.a(as_lib9.o)
 .data          0x02093904        0x0 c:/devkitPro/PAlib/lib\libpa9.a(PA_TiledFont.o)
 .data          0x02093904        0x0 c:/devkitPro/PAlib/lib\libpa9.a(PA_BmpFont0.o)
 .data          0x02093904        0x0 c:/devkitPro/PAlib/lib\libpa9.a(PA_BmpFont1.o)
 .data          0x02093904        0x0 c:/devkitPro/PAlib/lib\libpa9.a(PA_BmpFont2.o)
 .data          0x02093904        0x0 c:/devkitPro/PAlib/lib\libpa9.a(PA_BmpFont3.o)
 .data          0x02093904        0x0 c:/devkitPro/PAlib/lib\libpa9.a(PA_BmpFont4.o)
 .data          0x02093904        0x0 c:/devkitPro/PAlib/lib\libpa9.a(PA_TiledFont_Map.bin.o)
 .data          0x02093904        0x0 c:/devkitPro/PAlib/lib\libpa9.a(PA_TiledFont_Pal.bin.o)
 .data          0x02093904        0x0 c:/devkitPro/PAlib/lib\libpa9.a(PA_TiledFont_Tiles.bin.o)
 .data          0x02093904        0x0 c:/devkitPro/PAlib/lib\libpa9.a(PA_BmpFont0_Map.bin.o)
 .data          0x02093904        0x0 c:/devkitPro/PAlib/lib\libpa9.a(PA_BmpFont0_Sizes.bin.o)
 .data          0x02093904        0x0 c:/devkitPro/PAlib/lib\libpa9.a(PA_BmpFont0_Tiles.bin.o)
 .data          0x02093904        0x0 c:/devkitPro/PAlib/lib\libpa9.a(PA_BmpFont1_Map.bin.o)
 .data          0x02093904        0x0 c:/devkitPro/PAlib/lib\libpa9.a(PA_BmpFont1_Sizes.bin.o)
 .data          0x02093904        0x0 c:/devkitPro/PAlib/lib\libpa9.a(PA_BmpFont1_Tiles.bin.o)
 .data          0x02093904        0x0 c:/devkitPro/PAlib/lib\libpa9.a(PA_BmpFont2_Map.bin.o)
 .data          0x02093904        0x0 c:/devkitPro/PAlib/lib\libpa9.a(PA_BmpFont2_Sizes.bin.o)
 .data          0x02093904        0x0 c:/devkitPro/PAlib/lib\libpa9.a(PA_BmpFont2_Tiles.bin.o)
 .data          0x02093904        0x0 c:/devkitPro/PAlib/lib\libpa9.a(PA_BmpFont3_Map.bin.o)
 .data          0x02093904        0x0 c:/devkitPro/PAlib/lib\libpa9.a(PA_BmpFont3_Sizes.bin.o)
 .data          0x02093904        0x0 c:/devkitPro/PAlib/lib\libpa9.a(PA_BmpFont3_Tiles.bin.o)
 .data          0x02093904        0x0 c:/devkitPro/PAlib/lib\libpa9.a(PA_BmpFont4_Map.bin.o)
 .data          0x02093904        0x0 c:/devkitPro/PAlib/lib\libpa9.a(PA_BmpFont4_Sizes.bin.o)
 .data          0x02093904        0x0 c:/devkitPro/PAlib/lib\libpa9.a(PA_BmpFont4_Tiles.bin.o)
 .data          0x02093904        0x0 c:/devkitPro/PAlib/lib\libpa9.a(PA_Fifo.o)
 .data          0x02093904        0x0 c:/devkitPro/PAlib/lib\libpa9.a(PA_NewBg.o)
 .data          0x02093904        0x0 c:/devkitPro/PAlib/lib\libpa9.a(PA_PaletteEx.o)
 .data          0x02093904       0x3c c:/devkitPro/PAlib/lib\libpa9.a(PA_Text8bit.o)
                0x02093904                bit8_tiles
                0x0209392c                letters
 .data          0x02093940       0x28 c:/devkitPro/PAlib/lib\libpa9.a(PA_16c.o)
                0x02093940                c16_tiles
 .data          0x02093968        0xc c:/devkitPro/PAlib/lib\libpa9.a(PA_BgRot.o)
                0x02093968                rotbg_place
                0x0209396c                rotbg_sizes
 .data          0x02093974        0x0 c:/devkitPro/PAlib/lib\libpa9.a(PA_Draw.o)
 .data          0x02093974        0x0 c:/devkitPro/PAlib/lib\libpa9.a(PA_Keyboard.o)
 .data          0x02093974        0x0 c:/devkitPro/PAlib/lib\libpa9.a(keyboard.map.o)
 .data          0x02093974        0x0 c:/devkitPro/PAlib/lib\libpa9.a(keyboard.pal.o)
 .data          0x02093974        0x0 c:/devkitPro/PAlib/lib\libpa9.a(keyboard.raw.o)
 .data          0x02093974        0x3 c:/devkitPro/libnds/lib\libnds9.a(keys.o)
 .data          0x02093977        0x0 c:/devkitPro/libnds/lib\libnds9.a(system.o)
 .data          0x02093977        0x0 c:/devkitPro/libnds/lib\libnds9.a(touch.o)
 .data          0x02093977        0x0 c:/devkitPro/libnds/lib\libnds9.a(video.o)
 .data          0x02093977        0x0 c:/devkitPro/libnds/lib\libnds9.a(initSystem.o)
 *fill*         0x02093977        0x1 ff
 .data          0x02093978       0x10 c:/devkitPro/libnds/lib\libnds9.a(fifosystem.o)
                0x02093978                fifo_freewords
                0x0209397c                fifo_buffer_free
                0x02093980                fifo_send_queue
                0x02093984                fifo_receive_queue
 .data          0x02093988        0x0 c:/devkitPro/libnds/lib\libnds9.a(interrupts.o)
 .data          0x02093988        0x0 c:/devkitPro/libnds/lib\libnds9.a(libnds_exit.o)
 .data          0x02093988        0x0 c:/devkitPro/libnds/lib\libnds9.a(dcache.o)
 .data          0x02093988        0x0 c:/devkitPro/libnds/lib\libnds9.a(mpu_setup.o)
 .data          0x02093988        0x0 c:/devkitPro/libnds/lib\libnds9.a(biosCalls.o)
 .data          0x02093988        0x0 c:/devkitPro/libnds/lib\libnds9.a(interruptDispatcher.o)
 .data          0x02093988        0x0 c:/devkitPro/libnds/lib\libnds9.a(swiSoftReset.o)
 .data          0x02093988        0x0 c:/devkitpro/devkitarm/bin/../lib/gcc/arm-eabi/4.5.1/thumb\libgcc.a(_udivsi3.o)
 .data          0x02093988        0x0 c:/devkitpro/devkitarm/bin/../lib/gcc/arm-eabi/4.5.1/thumb\libgcc.a(_divsi3.o)
 .data          0x02093988        0x0 c:/devkitpro/devkitarm/bin/../lib/gcc/arm-eabi/4.5.1/thumb\libgcc.a(_dvmd_tls.o)
 .data          0x02093988        0x0 c:/devkitpro/devkitarm/bin/../lib/gcc/arm-eabi/4.5.1/thumb\libgcc.a(_arm_addsubdf3.o)
 .data          0x02093988        0x0 c:/devkitpro/devkitarm/bin/../lib/gcc/arm-eabi/4.5.1/thumb\libgcc.a(_arm_muldivdf3.o)
 .data          0x02093988        0x0 c:/devkitpro/devkitarm/bin/../lib/gcc/arm-eabi/4.5.1/thumb\libgcc.a(_arm_cmpdf2.o)
 .data          0x02093988        0x0 c:/devkitpro/devkitarm/bin/../lib/gcc/arm-eabi/4.5.1/thumb\libgcc.a(_arm_fixdfsi.o)
 .data          0x02093988        0x0 c:/devkitpro/devkitarm/bin/../lib/gcc/arm-eabi/4.5.1/thumb\libgcc.a(_muldi3.o)
 .data          0x02093988        0x0 c:/devkitpro/devkitarm/bin/../lib/gcc/arm-eabi/4.5.1/../../../../arm-eabi/lib/thumb\libg.a(lib_a-fclose.o)
 .data          0x02093988        0x0 c:/devkitpro/devkitarm/bin/../lib/gcc/arm-eabi/4.5.1/../../../../arm-eabi/lib/thumb\libg.a(lib_a-fflush.o)
 .data          0x02093988        0x0 c:/devkitpro/devkitarm/bin/../lib/gcc/arm-eabi/4.5.1/../../../../arm-eabi/lib/thumb\libg.a(lib_a-findfp.o)
 .data          0x02093988        0x0 c:/devkitpro/devkitarm/bin/../lib/gcc/arm-eabi/4.5.1/../../../../arm-eabi/lib/thumb\libg.a(lib_a-fopen.o)
 .data          0x02093988        0x0 c:/devkitpro/devkitarm/bin/../lib/gcc/arm-eabi/4.5.1/../../../../arm-eabi/lib/thumb\libg.a(lib_a-fread.o)
 .data          0x02093988        0x0 c:/devkitpro/devkitarm/bin/../lib/gcc/arm-eabi/4.5.1/../../../../arm-eabi/lib/thumb\libg.a(lib_a-freer.o)
 .data          0x02093988        0x0 c:/devkitpro/devkitarm/bin/../lib/gcc/arm-eabi/4.5.1/../../../../arm-eabi/lib/thumb\libg.a(lib_a-fseek.o)
 .data          0x02093988        0x0 c:/devkitpro/devkitarm/bin/../lib/gcc/arm-eabi/4.5.1/../../../../arm-eabi/lib/thumb\libg.a(lib_a-ftell.o)
 .data          0x02093988        0x0 c:/devkitpro/devkitarm/bin/../lib/gcc/arm-eabi/4.5.1/../../../../arm-eabi/lib/thumb\libg.a(lib_a-fwalk.o)
 .data          0x02093988        0x0 c:/devkitpro/devkitarm/bin/../lib/gcc/arm-eabi/4.5.1/../../../../arm-eabi/lib/thumb\libg.a(lib_a-gmtime.o)
 .data          0x02093988        0x0 c:/devkitpro/devkitarm/bin/../lib/gcc/arm-eabi/4.5.1/../../../../arm-eabi/lib/thumb\libg.a(lib_a-gmtime_r.o)
 *fill*         0x02093988        0x0 ff
 .data          0x02093988      0x430 c:/devkitpro/devkitarm/bin/../lib/gcc/arm-eabi/4.5.1/../../../../arm-eabi/lib/thumb\libg.a(lib_a-impure.o)
                0x02093988                _impure_ptr
 .data          0x02093db8        0x0 c:/devkitpro/devkitarm/bin/../lib/gcc/arm-eabi/4.5.1/../../../../arm-eabi/lib/thumb\libg.a(lib_a-init.o)
 .data          0x02093db8      0x144 c:/devkitpro/devkitarm/bin/../lib/gcc/arm-eabi/4.5.1/../../../../arm-eabi/lib/thumb\libg.a(lib_a-locale.o)
                0x02093db8                __default_locale
                0x02093df8                __mb_cur_max
 .data          0x02093efc        0x0 c:/devkitpro/devkitarm/bin/../lib/gcc/arm-eabi/4.5.1/../../../../arm-eabi/lib/thumb\libg.a(lib_a-makebuf.o)
 .data          0x02093efc        0x0 c:/devkitpro/devkitarm/bin/../lib/gcc/arm-eabi/4.5.1/../../../../arm-eabi/lib/thumb\libg.a(lib_a-malign.o)
 .data          0x02093efc        0x0 c:/devkitpro/devkitarm/bin/../lib/gcc/arm-eabi/4.5.1/../../../../arm-eabi/lib/thumb\libg.a(lib_a-malignr.o)
 .data          0x02093efc        0x0 c:/devkitpro/devkitarm/bin/../lib/gcc/arm-eabi/4.5.1/../../../../arm-eabi/lib/thumb\libg.a(lib_a-malloc.o)
 .data          0x02093efc      0x410 c:/devkitpro/devkitarm/bin/../lib/gcc/arm-eabi/4.5.1/../../../../arm-eabi/lib/thumb\libg.a(lib_a-mallocr.o)
                0x02093efc                __malloc_av_
                0x02094304                __malloc_sbrk_base
                0x02094308                __malloc_trim_threshold
 .data          0x0209430c        0x4 c:/devkitpro/devkitarm/bin/../lib/gcc/arm-eabi/4.5.1/../../../../arm-eabi/lib/thumb\libg.a(lib_a-mbtowc_r.o)
                0x0209430c                __mbtowc
 .data          0x02094310        0x0 c:/devkitpro/devkitarm/bin/../lib/gcc/arm-eabi/4.5.1/../../../../arm-eabi/lib/thumb\libg.a(lib_a-memcpy.o)
 .data          0x02094310        0x0 c:/devkitpro/devkitarm/bin/../lib/gcc/arm-eabi/4.5.1/../../../../arm-eabi/lib/thumb\libg.a(lib_a-memset.o)
 .data          0x02094310        0x0 c:/devkitpro/devkitarm/bin/../lib/gcc/arm-eabi/4.5.1/../../../../arm-eabi/lib/thumb\libg.a(lib_a-mktm_r.o)
 .data          0x02094310        0x0 c:/devkitpro/devkitarm/bin/../lib/gcc/arm-eabi/4.5.1/../../../../arm-eabi/lib/thumb\libg.a(lib_a-mlock.o)
 .data          0x02094310        0x0 c:/devkitpro/devkitarm/bin/../lib/gcc/arm-eabi/4.5.1/../../../../arm-eabi/lib/thumb\libg.a(lib_a-refill.o)
 .data          0x02094310        0x0 c:/devkitpro/devkitarm/bin/../lib/gcc/arm-eabi/4.5.1/../../../../arm-eabi/lib/thumb\libg.a(lib_a-stdio.o)
 .data          0x02094310        0x0 c:/devkitpro/devkitarm/bin/../lib/gcc/arm-eabi/4.5.1/../../../../arm-eabi/lib/thumb\libg.a(lib_a-strcasecmp.o)
 .data          0x02094310        0x0 c:/devkitpro/devkitarm/bin/../lib/gcc/arm-eabi/4.5.1/../../../../arm-eabi/lib/thumb\libg.a(lib_a-strcat.o)
 .data          0x02094310        0x0 c:/devkitpro/devkitarm/bin/../lib/gcc/arm-eabi/4.5.1/../../../../arm-eabi/lib/thumb\libg.a(lib_a-strchr.o)
 .data          0x02094310        0x0 c:/devkitpro/devkitarm/bin/../lib/gcc/arm-eabi/4.5.1/../../../../arm-eabi/lib/thumb\libg.a(lib_a-strcmp.o)
 .data          0x02094310        0x0 c:/devkitpro/devkitarm/bin/../lib/gcc/arm-eabi/4.5.1/../../../../arm-eabi/lib/thumb\libg.a(lib_a-strcpy.o)
 .data          0x02094310        0x0 c:/devkitpro/devkitarm/bin/../lib/gcc/arm-eabi/4.5.1/../../../../arm-eabi/lib/thumb\libg.a(lib_a-strlcpy.o)
 .data          0x02094310        0x0 c:/devkitpro/devkitarm/bin/../lib/gcc/arm-eabi/4.5.1/../../../../arm-eabi/lib/thumb\libg.a(lib_a-strlen.o)
 .data          0x02094310        0x0 c:/devkitpro/devkitarm/bin/../lib/gcc/arm-eabi/4.5.1/../../../../arm-eabi/lib/thumb\libg.a(lib_a-strncasecmp.o)
 .data          0x02094310        0x0 c:/devkitpro/devkitarm/bin/../lib/gcc/arm-eabi/4.5.1/../../../../arm-eabi/lib/thumb\libg.a(lib_a-strncmp.o)
 .data          0x02094310        0x0 c:/devkitpro/devkitarm/bin/../lib/gcc/arm-eabi/4.5.1/../../../../arm-eabi/lib/thumb\libg.a(lib_a-strncpy.o)
 .data          0x02094310        0x0 c:/devkitpro/devkitarm/bin/../lib/gcc/arm-eabi/4.5.1/../../../../arm-eabi/lib/thumb\libg.a(lib_a-strtol.o)
 .data          0x02094310        0x0 c:/devkitpro/devkitarm/bin/../lib/gcc/arm-eabi/4.5.1/../../../../arm-eabi/lib/thumb\libg.a(lib_a-sysstat.o)
 .data          0x02094310        0x0 c:/devkitpro/devkitarm/bin/../lib/gcc/arm-eabi/4.5.1/../../../../arm-eabi/lib/thumb\libg.a(lib_a-time.o)
 .data          0x02094310        0x0 c:/devkitpro/devkitarm/bin/../lib/gcc/arm-eabi/4.5.1/../../../../arm-eabi/lib/thumb\libg.a(lib_a-tzlock.o)
 .data          0x02094310        0x8 c:/devkitpro/devkitarm/bin/../lib/gcc/arm-eabi/4.5.1/../../../../arm-eabi/lib/thumb\libg.a(lib_a-tzvars.o)
                0x02094310                _tzname
 .data          0x02094318        0x4 c:/devkitpro/devkitarm/bin/../lib/gcc/arm-eabi/4.5.1/../../../../arm-eabi/lib/thumb\libg.a(lib_a-wctomb_r.o)
                0x02094318                __wctomb
 .data          0x0209431c        0x4 c:/devkitpro/devkitarm/bin/../lib/gcc/arm-eabi/4.5.1/../../../../arm-eabi/lib/thumb\libg.a(lib_a-ctype_.o)
                0x0209431c                __ctype_ptr__
 .data          0x02094320        0x0 c:/devkitpro/devkitarm/bin/../lib/gcc/arm-eabi/4.5.1/../../../../arm-eabi/lib/thumb\libg.a(lib_a-flags.o)
 .data          0x02094320        0x0 c:/devkitpro/devkitarm/bin/../lib/gcc/arm-eabi/4.5.1/../../../../arm-eabi/lib/thumb\libg.a(lib_a-getenv_r.o)
 .data          0x02094320       0x40 c:/devkitpro/devkitarm/bin/../lib/gcc/arm-eabi/4.5.1/../../../../arm-eabi/lib/thumb\libg.a(lib_a-gettzinfo.o)
 .data          0x02094360        0x4 c:/devkitpro/devkitarm/bin/../lib/gcc/arm-eabi/4.5.1/../../../../arm-eabi/lib/thumb\libg.a(lib_a-environ.o)
                0x02094360                environ
 .data          0x02094364        0x0 c:/devkitpro/devkitarm/bin/../lib/gcc/arm-eabi/4.5.1/../../../../arm-eabi/lib/thumb\libg.a(lib_a-envlock.o)
 .data          0x02094364        0x0 c:/devkitpro/devkitarm/bin/../lib/gcc/arm-eabi/4.5.1/../../../../arm-eabi/lib/thumb\libsysbase.a(close.o)
 .data          0x02094364        0x0 c:/devkitpro/devkitarm/bin/../lib/gcc/arm-eabi/4.5.1/../../../../arm-eabi/lib/thumb\libsysbase.a(fstat.o)
 .data          0x02094364        0x0 c:/devkitpro/devkitarm/bin/../lib/gcc/arm-eabi/4.5.1/../../../../arm-eabi/lib/thumb\libsysbase.a(isatty.o)
 .data          0x02094364        0x0 c:/devkitpro/devkitarm/bin/../lib/gcc/arm-eabi/4.5.1/../../../../arm-eabi/lib/thumb\libsysbase.a(lseek.o)
 .data          0x02094364        0x0 c:/devkitpro/devkitarm/bin/../lib/gcc/arm-eabi/4.5.1/../../../../arm-eabi/lib/thumb\libsysbase.a(open.o)
 .data          0x02094364        0x0 c:/devkitpro/devkitarm/bin/../lib/gcc/arm-eabi/4.5.1/../../../../arm-eabi/lib/thumb\libsysbase.a(read.o)
 .data          0x02094364        0x0 c:/devkitpro/devkitarm/bin/../lib/gcc/arm-eabi/4.5.1/../../../../arm-eabi/lib/thumb\libsysbase.a(sbrk.o)
 .data          0x02094364        0x0 c:/devkitpro/devkitarm/bin/../lib/gcc/arm-eabi/4.5.1/../../../../arm-eabi/lib/thumb\libsysbase.a(stat.o)
 .data          0x02094364        0x0 c:/devkitpro/devkitarm/bin/../lib/gcc/arm-eabi/4.5.1/../../../../arm-eabi/lib/thumb\libsysbase.a(times.o)
 .data          0x02094364        0x0 c:/devkitpro/devkitarm/bin/../lib/gcc/arm-eabi/4.5.1/../../../../arm-eabi/lib/thumb\libsysbase.a(write.o)
 .data          0x02094364        0x0 c:/devkitpro/devkitarm/bin/../lib/gcc/arm-eabi/4.5.1/../../../../arm-eabi/lib/thumb\libsysbase.a(malloc_vars.o)
 .data          0x02094364        0x0 c:/devkitpro/devkitarm/bin/../lib/gcc/arm-eabi/4.5.1/../../../../arm-eabi/lib/thumb\libsysbase.a(build_argv.o)
 .data          0x02094364        0x0 c:/devkitpro/devkitarm/bin/../lib/gcc/arm-eabi/4.5.1/../../../../arm-eabi/lib/thumb\libsysbase.a(syscall_support.o)
 .data          0x02094364        0x0 c:/devkitpro/devkitarm/bin/../lib/gcc/arm-eabi/4.5.1/../../../../arm-eabi/lib/thumb\libsysbase.a(handle_manager.o)
 .data          0x02094364        0x0 c:/devkitpro/devkitarm/bin/../lib/gcc/arm-eabi/4.5.1/../../../../arm-eabi/lib/thumb\libsysbase.a(dirent.o)
 .data          0x02094364       0x44 c:/devkitpro/devkitarm/bin/../lib/gcc/arm-eabi/4.5.1/../../../../arm-eabi/lib/thumb\libsysbase.a(iosupport.o)
                0x02094368                devoptab_list
 .data          0x020943a8        0x0 c:/devkitpro/devkitarm/bin/../lib/gcc/arm-eabi/4.5.1/../../../../arm-eabi/lib/thumb\libsysbase.a(dir.o)
 .data          0x020943a8        0x0 c:/devkitpro/devkitarm/bin/../lib/gcc/arm-eabi/4.5.1/../../../../arm-eabi/lib/thumb\libg.a(lib_a-errno.o)
 .data          0x020943a8        0x0 c:/devkitpro/devkitarm/bin/../lib/gcc/arm-eabi/4.5.1/../../../../arm-eabi/lib/thumb\libg.a(lib_a-strnlen.o)
 .data          0x020943a8        0x0 c:/devkitpro/devkitarm/bin/../lib/gcc/arm-eabi/4.5.1/thumb/crtend.o
 .data          0x020943a8        0x0 c:/devkitpro/devkitarm/bin/../lib/gcc/arm-eabi/4.5.1/thumb/crtn.o
 *(.data.*)
 *(.gnu.linkonce.d*)
                0x020943a8                . = ALIGN (0x4)
                0x020943a8                __data_end = ABSOLUTE (.)
                0x020943a8                __dtcm_lma = .
                0x020943a8                __bss_vma = .

.dtcm           0x0b000000        0x0 load address 0x020943a8
 *(.dtcm)
 *(.dtcm.*)
                0x0b000000                . = ALIGN (0x4)
                0x0b000000                __dtcm_end = ABSOLUTE (.)
                0x020943a8                __itcm_lma = (__dtcm_lma + SIZEOF (.dtcm))

.itcm           0x01000100      0x194 load address 0x020943a8
 *(.itcm)
 .itcm          0x01000100       0xc8 c:/devkitPro/libnds/lib\libnds9.a(interrupts.o)
                0x01000100                irqTable
 .itcm          0x010001c8       0xcc c:/devkitPro/libnds/lib\libnds9.a(interruptDispatcher.o)
                0x010001c8                IntrMain
 *itcm.*(.text)
                0x01000294                . = ALIGN (0x4)
                0x01000294                __itcm_end = ABSOLUTE (.)
                0x0209453c                __vectors_lma = (__itcm_lma + SIZEOF (.itcm))

.vectors        0x01000000        0x0 load address 0x0209453c
 *(.vectors)
 *vectors.*(.text)
                0x01000000                . = ALIGN (0x4)
                0x01000000                __vectors_end = ABSOLUTE (.)

.sbss           0x0b000000        0x0
                0x0b000000                __sbss_start = ABSOLUTE (.)
                0x0b000000                __sbss_start__ = ABSOLUTE (.)
 *(.sbss)
                0x0b000000                . = ALIGN (0x4)
                0x0b000000                __sbss_end = ABSOLUTE (.)

.bss            0x020943a8    0x184ac
                0x020943a8                __bss_start = ABSOLUTE (.)
                0x020943a8                __bss_start__ = ABSOLUTE (.)
 *(.dynbss)
 *(.gnu.linkonce.b*)
 *(.bss*)
 .bss           0x020943a8        0x0 c:/devkitpro/devkitarm/bin/../lib/gcc/arm-eabi/4.5.1/../../../../arm-eabi/lib/thumb/ds_arm9_crt0.o
 .bss           0x020943a8        0x0 c:/devkitpro/devkitarm/bin/../lib/gcc/arm-eabi/4.5.1/thumb/crti.o
 .bss           0x020943a8       0x1c c:/devkitpro/devkitarm/bin/../lib/gcc/arm-eabi/4.5.1/thumb/crtbegin.o
 .bss           0x020943c4        0x0 Startup.o
 .bss           0x020943c4        0x0 trapcard.o
 .bss           0x020943c4        0x8 main.o
                0x020943c8                isplaying
 .bss           0x020943cc        0x4 c:/devkitPro/PAlib/lib\libpa9.a(PA.o)
                0x020943cc                pa_giftotexcolor
                0x020943ce                PA_Screen
                0x020943cf                PA_MoveSpriteType
 .bss           0x020943d0        0x0 c:/devkitPro/PAlib/lib\libpa9.a(PA_BgEasy.o)
 .bss           0x020943d0        0x0 c:/devkitPro/PAlib/lib\libpa9.a(PA_BgLargeMap.o)
 .bss           0x020943d0        0x0 c:/devkitPro/PAlib/lib\libpa9.a(PA_BgTiles.o)
 .bss           0x020943d0        0x0 c:/devkitPro/PAlib/lib\libpa9.a(PA_Error.o)
 .bss           0x020943d0        0x0 c:/devkitPro/PAlib/lib\libpa9.a(PA_Inits.o)
 .bss           0x020943d0        0x0 c:/devkitPro/PAlib/lib\libpa9.a(PA_Interrupt.o)
 .bss           0x020943d0        0x0 c:/devkitPro/PAlib/lib\libpa9.a(PA_Keys.o)
 .bss           0x020943d0        0x0 c:/devkitPro/PAlib/lib\libpa9.a(PA_Math.o)
 .bss           0x020943d0        0x0 c:/devkitPro/PAlib/lib\libpa9.a(PA_Palette.o)
 .bss           0x020943d0        0x0 c:/devkitPro/PAlib/lib\libpa9.a(PA_RTC.o)
 .bss           0x020943d0        0x1 c:/devkitPro/PAlib/lib\libpa9.a(PA_Reco.o)
                0x020943d0                PA_CustomReco
 *fill*         0x020943d1        0x3 00
 .bss           0x020943d4        0xc c:/devkitPro/PAlib/lib\libpa9.a(PA_Sprite.o)
                0x020943d4                PA_SpriteExtPrio
                0x020943d8                FirstGfx
                0x020943dc                nspriteanims
 .bss           0x020943e0        0x0 c:/devkitPro/PAlib/lib\libpa9.a(PA_SpriteAnim.o)
 .bss           0x020943e0        0x0 c:/devkitPro/PAlib/lib\libpa9.a(PA_Stuff.o)
 .bss           0x020943e0        0x8 c:/devkitPro/PAlib/lib\libpa9.a(PA_Text.o)
                0x020943e0                PAtext_pal
                0x020943e4                PA_font
 .bss           0x020943e8        0x0 c:/devkitPro/PAlib/lib\libpa9.a(PA_TextBits.o)
 .bss           0x020943e8        0x8 c:/devkitPro/PAlib/lib\libpa9.a(as_lib9.o)
                0x020943e8                mp3file
                0x020943ec                mp3filebuffer
 .bss           0x020943f0        0x0 c:/devkitPro/PAlib/lib\libpa9.a(PA_TiledFont.o)
 .bss           0x020943f0        0x0 c:/devkitPro/PAlib/lib\libpa9.a(PA_BmpFont0.o)
 .bss           0x020943f0        0x0 c:/devkitPro/PAlib/lib\libpa9.a(PA_BmpFont1.o)
 .bss           0x020943f0        0x0 c:/devkitPro/PAlib/lib\libpa9.a(PA_BmpFont2.o)
 .bss           0x020943f0        0x0 c:/devkitPro/PAlib/lib\libpa9.a(PA_BmpFont3.o)
 .bss           0x020943f0        0x0 c:/devkitPro/PAlib/lib\libpa9.a(PA_BmpFont4.o)
 .bss           0x020943f0        0x0 c:/devkitPro/PAlib/lib\libpa9.a(PA_TiledFont_Map.bin.o)
 .bss           0x020943f0        0x0 c:/devkitPro/PAlib/lib\libpa9.a(PA_TiledFont_Pal.bin.o)
 .bss           0x020943f0        0x0 c:/devkitPro/PAlib/lib\libpa9.a(PA_TiledFont_Tiles.bin.o)
 .bss           0x020943f0        0x0 c:/devkitPro/PAlib/lib\libpa9.a(PA_BmpFont0_Map.bin.o)
 .bss           0x020943f0        0x0 c:/devkitPro/PAlib/lib\libpa9.a(PA_BmpFont0_Sizes.bin.o)
 .bss           0x020943f0        0x0 c:/devkitPro/PAlib/lib\libpa9.a(PA_BmpFont0_Tiles.bin.o)
 .bss           0x020943f0        0x0 c:/devkitPro/PAlib/lib\libpa9.a(PA_BmpFont1_Map.bin.o)
 .bss           0x020943f0        0x0 c:/devkitPro/PAlib/lib\libpa9.a(PA_BmpFont1_Sizes.bin.o)
 .bss           0x020943f0        0x0 c:/devkitPro/PAlib/lib\libpa9.a(PA_BmpFont1_Tiles.bin.o)
 .bss           0x020943f0        0x0 c:/devkitPro/PAlib/lib\libpa9.a(PA_BmpFont2_Map.bin.o)
 .bss           0x020943f0        0x0 c:/devkitPro/PAlib/lib\libpa9.a(PA_BmpFont2_Sizes.bin.o)
 .bss           0x020943f0        0x0 c:/devkitPro/PAlib/lib\libpa9.a(PA_BmpFont2_Tiles.bin.o)
 .bss           0x020943f0        0x0 c:/devkitPro/PAlib/lib\libpa9.a(PA_BmpFont3_Map.bin.o)
 .bss           0x020943f0        0x0 c:/devkitPro/PAlib/lib\libpa9.a(PA_BmpFont3_Sizes.bin.o)
 .bss           0x020943f0        0x0 c:/devkitPro/PAlib/lib\libpa9.a(PA_BmpFont3_Tiles.bin.o)
 .bss           0x020943f0        0x0 c:/devkitPro/PAlib/lib\libpa9.a(PA_BmpFont4_Map.bin.o)
 .bss           0x020943f0        0x0 c:/devkitPro/PAlib/lib\libpa9.a(PA_BmpFont4_Sizes.bin.o)
 .bss           0x020943f0        0x0 c:/devkitPro/PAlib/lib\libpa9.a(PA_BmpFont4_Tiles.bin.o)
 .bss           0x020943f0        0x0 c:/devkitPro/PAlib/lib\libpa9.a(PA_Fifo.o)
 .bss           0x020943f0        0x0 c:/devkitPro/PAlib/lib\libpa9.a(PA_NewBg.o)
 .bss           0x020943f0        0x0 c:/devkitPro/PAlib/lib\libpa9.a(PA_PaletteEx.o)
 .bss           0x020943f0        0x0 c:/devkitPro/PAlib/lib\libpa9.a(PA_Text8bit.o)
 .bss           0x020943f0        0x0 c:/devkitPro/PAlib/lib\libpa9.a(PA_16c.o)
 .bss           0x020943f0        0x0 c:/devkitPro/PAlib/lib\libpa9.a(PA_BgRot.o)
 .bss           0x020943f0        0x0 c:/devkitPro/PAlib/lib\libpa9.a(PA_Draw.o)
 .bss           0x020943f0        0x1 c:/devkitPro/PAlib/lib\libpa9.a(PA_Keyboard.o)
                0x020943f0                keyb_screen
 .bss           0x020943f1        0x0 c:/devkitPro/PAlib/lib\libpa9.a(keyboard.map.o)
 .bss           0x020943f1        0x0 c:/devkitPro/PAlib/lib\libpa9.a(keyboard.pal.o)
 .bss           0x020943f1        0x0 c:/devkitPro/PAlib/lib\libpa9.a(keyboard.raw.o)
 *fill*         0x020943f1        0x1 00
 .bss           0x020943f2        0x6 c:/devkitPro/libnds/lib\libnds9.a(keys.o)
 .bss           0x020943f8        0x0 c:/devkitPro/libnds/lib\libnds9.a(system.o)
 .bss           0x020943f8        0x0 c:/devkitPro/libnds/lib\libnds9.a(touch.o)
 .bss           0x020943f8        0x0 c:/devkitPro/libnds/lib\libnds9.a(video.o)
 .bss           0x020943f8        0x0 c:/devkitPro/libnds/lib\libnds9.a(initSystem.o)
 .bss           0x020943f8        0x8 c:/devkitPro/libnds/lib\libnds9.a(fifosystem.o)
                0x020943fc                processing
 .bss           0x02094400        0x0 c:/devkitPro/libnds/lib\libnds9.a(interrupts.o)
 .bss           0x02094400        0x0 c:/devkitPro/libnds/lib\libnds9.a(libnds_exit.o)
 .bss           0x02094400        0x0 c:/devkitPro/libnds/lib\libnds9.a(dcache.o)
 .bss           0x02094400        0x0 c:/devkitPro/libnds/lib\libnds9.a(mpu_setup.o)
 .bss           0x02094400        0x0 c:/devkitPro/libnds/lib\libnds9.a(biosCalls.o)
 .bss           0x02094400        0x0 c:/devkitPro/libnds/lib\libnds9.a(interruptDispatcher.o)
 .bss           0x02094400        0x0 c:/devkitPro/libnds/lib\libnds9.a(swiSoftReset.o)
 .bss           0x02094400        0x0 c:/devkitpro/devkitarm/bin/../lib/gcc/arm-eabi/4.5.1/thumb\libgcc.a(_udivsi3.o)
 .bss           0x02094400        0x0 c:/devkitpro/devkitarm/bin/../lib/gcc/arm-eabi/4.5.1/thumb\libgcc.a(_divsi3.o)
 .bss           0x02094400        0x0 c:/devkitpro/devkitarm/bin/../lib/gcc/arm-eabi/4.5.1/thumb\libgcc.a(_dvmd_tls.o)
 .bss           0x02094400        0x0 c:/devkitpro/devkitarm/bin/../lib/gcc/arm-eabi/4.5.1/thumb\libgcc.a(_arm_addsubdf3.o)
 .bss           0x02094400        0x0 c:/devkitpro/devkitarm/bin/../lib/gcc/arm-eabi/4.5.1/thumb\libgcc.a(_arm_muldivdf3.o)
 .bss           0x02094400        0x0 c:/devkitpro/devkitarm/bin/../lib/gcc/arm-eabi/4.5.1/thumb\libgcc.a(_arm_cmpdf2.o)
 .bss           0x02094400        0x0 c:/devkitpro/devkitarm/bin/../lib/gcc/arm-eabi/4.5.1/thumb\libgcc.a(_arm_fixdfsi.o)
 .bss           0x02094400        0x0 c:/devkitpro/devkitarm/bin/../lib/gcc/arm-eabi/4.5.1/thumb\libgcc.a(_muldi3.o)
 .bss           0x02094400        0x0 c:/devkitpro/devkitarm/bin/../lib/gcc/arm-eabi/4.5.1/../../../../arm-eabi/lib/thumb\libg.a(lib_a-fclose.o)
 .bss           0x02094400        0x0 c:/devkitpro/devkitarm/bin/../lib/gcc/arm-eabi/4.5.1/../../../../arm-eabi/lib/thumb\libg.a(lib_a-fflush.o)
 .bss           0x02094400        0x0 c:/devkitpro/devkitarm/bin/../lib/gcc/arm-eabi/4.5.1/../../../../arm-eabi/lib/thumb\libg.a(lib_a-findfp.o)
 .bss           0x02094400        0x0 c:/devkitpro/devkitarm/bin/../lib/gcc/arm-eabi/4.5.1/../../../../arm-eabi/lib/thumb\libg.a(lib_a-fopen.o)
 .bss           0x02094400        0x0 c:/devkitpro/devkitarm/bin/../lib/gcc/arm-eabi/4.5.1/../../../../arm-eabi/lib/thumb\libg.a(lib_a-fread.o)
 .bss           0x02094400        0x0 c:/devkitpro/devkitarm/bin/../lib/gcc/arm-eabi/4.5.1/../../../../arm-eabi/lib/thumb\libg.a(lib_a-freer.o)
 .bss           0x02094400        0x0 c:/devkitpro/devkitarm/bin/../lib/gcc/arm-eabi/4.5.1/../../../../arm-eabi/lib/thumb\libg.a(lib_a-fseek.o)
 .bss           0x02094400        0x0 c:/devkitpro/devkitarm/bin/../lib/gcc/arm-eabi/4.5.1/../../../../arm-eabi/lib/thumb\libg.a(lib_a-ftell.o)
 .bss           0x02094400        0x0 c:/devkitpro/devkitarm/bin/../lib/gcc/arm-eabi/4.5.1/../../../../arm-eabi/lib/thumb\libg.a(lib_a-fwalk.o)
 .bss           0x02094400        0x0 c:/devkitpro/devkitarm/bin/../lib/gcc/arm-eabi/4.5.1/../../../../arm-eabi/lib/thumb\libg.a(lib_a-gmtime.o)
 .bss           0x02094400        0x0 c:/devkitpro/devkitarm/bin/../lib/gcc/arm-eabi/4.5.1/../../../../arm-eabi/lib/thumb\libg.a(lib_a-gmtime_r.o)
 .bss           0x02094400        0x0 c:/devkitpro/devkitarm/bin/../lib/gcc/arm-eabi/4.5.1/../../../../arm-eabi/lib/thumb\libg.a(lib_a-impure.o)
 .bss           0x02094400        0x0 c:/devkitpro/devkitarm/bin/../lib/gcc/arm-eabi/4.5.1/../../../../arm-eabi/lib/thumb\libg.a(lib_a-init.o)
 .bss           0x02094400      0x2b8 c:/devkitpro/devkitarm/bin/../lib/gcc/arm-eabi/4.5.1/../../../../arm-eabi/lib/thumb\libg.a(lib_a-locale.o)
                0x020946ac                __nlocale_changed
                0x020946b0                __mlocale_changed
                0x020946b4                _PathLocale
 .bss           0x020946b8        0x0 c:/devkitpro/devkitarm/bin/../lib/gcc/arm-eabi/4.5.1/../../../../arm-eabi/lib/thumb\libg.a(lib_a-makebuf.o)
 .bss           0x020946b8        0x0 c:/devkitpro/devkitarm/bin/../lib/gcc/arm-eabi/4.5.1/../../../../arm-eabi/lib/thumb\libg.a(lib_a-malign.o)
 .bss           0x020946b8        0x0 c:/devkitpro/devkitarm/bin/../lib/gcc/arm-eabi/4.5.1/../../../../arm-eabi/lib/thumb\libg.a(lib_a-malignr.o)
 .bss           0x020946b8        0x0 c:/devkitpro/devkitarm/bin/../lib/gcc/arm-eabi/4.5.1/../../../../arm-eabi/lib/thumb\libg.a(lib_a-malloc.o)
 .bss           0x020946b8       0x34 c:/devkitpro/devkitarm/bin/../lib/gcc/arm-eabi/4.5.1/../../../../arm-eabi/lib/thumb\libg.a(lib_a-mallocr.o)
                0x020946b8                __malloc_top_pad
                0x020946bc                __malloc_current_mallinfo
                0x020946e4                __malloc_max_sbrked_mem
                0x020946e8                __malloc_max_total_mem
 .bss           0x020946ec        0x0 c:/devkitpro/devkitarm/bin/../lib/gcc/arm-eabi/4.5.1/../../../../arm-eabi/lib/thumb\libg.a(lib_a-mbtowc_r.o)
 .bss           0x020946ec        0x0 c:/devkitpro/devkitarm/bin/../lib/gcc/arm-eabi/4.5.1/../../../../arm-eabi/lib/thumb\libg.a(lib_a-memcpy.o)
 .bss           0x020946ec        0x0 c:/devkitpro/devkitarm/bin/../lib/gcc/arm-eabi/4.5.1/../../../../arm-eabi/lib/thumb\libg.a(lib_a-memset.o)
 .bss           0x020946ec        0x0 c:/devkitpro/devkitarm/bin/../lib/gcc/arm-eabi/4.5.1/../../../../arm-eabi/lib/thumb\libg.a(lib_a-mktm_r.o)
 .bss           0x020946ec        0x0 c:/devkitpro/devkitarm/bin/../lib/gcc/arm-eabi/4.5.1/../../../../arm-eabi/lib/thumb\libg.a(lib_a-mlock.o)
 .bss           0x020946ec        0x0 c:/devkitpro/devkitarm/bin/../lib/gcc/arm-eabi/4.5.1/../../../../arm-eabi/lib/thumb\libg.a(lib_a-refill.o)
 .bss           0x020946ec        0x0 c:/devkitpro/devkitarm/bin/../lib/gcc/arm-eabi/4.5.1/../../../../arm-eabi/lib/thumb\libg.a(lib_a-stdio.o)
 .bss           0x020946ec        0x0 c:/devkitpro/devkitarm/bin/../lib/gcc/arm-eabi/4.5.1/../../../../arm-eabi/lib/thumb\libg.a(lib_a-strcasecmp.o)
 .bss           0x020946ec        0x0 c:/devkitpro/devkitarm/bin/../lib/gcc/arm-eabi/4.5.1/../../../../arm-eabi/lib/thumb\libg.a(lib_a-strcat.o)
 .bss           0x020946ec        0x0 c:/devkitpro/devkitarm/bin/../lib/gcc/arm-eabi/4.5.1/../../../../arm-eabi/lib/thumb\libg.a(lib_a-strchr.o)
 .bss           0x020946ec        0x0 c:/devkitpro/devkitarm/bin/../lib/gcc/arm-eabi/4.5.1/../../../../arm-eabi/lib/thumb\libg.a(lib_a-strcmp.o)
 .bss           0x020946ec        0x0 c:/devkitpro/devkitarm/bin/../lib/gcc/arm-eabi/4.5.1/../../../../arm-eabi/lib/thumb\libg.a(lib_a-strcpy.o)
 .bss           0x020946ec        0x0 c:/devkitpro/devkitarm/bin/../lib/gcc/arm-eabi/4.5.1/../../../../arm-eabi/lib/thumb\libg.a(lib_a-strlcpy.o)
 .bss           0x020946ec        0x0 c:/devkitpro/devkitarm/bin/../lib/gcc/arm-eabi/4.5.1/../../../../arm-eabi/lib/thumb\libg.a(lib_a-strlen.o)
 .bss           0x020946ec        0x0 c:/devkitpro/devkitarm/bin/../lib/gcc/arm-eabi/4.5.1/../../../../arm-eabi/lib/thumb\libg.a(lib_a-strncasecmp.o)
 .bss           0x020946ec        0x0 c:/devkitpro/devkitarm/bin/../lib/gcc/arm-eabi/4.5.1/../../../../arm-eabi/lib/thumb\libg.a(lib_a-strncmp.o)
 .bss           0x020946ec        0x0 c:/devkitpro/devkitarm/bin/../lib/gcc/arm-eabi/4.5.1/../../../../arm-eabi/lib/thumb\libg.a(lib_a-strncpy.o)
 .bss           0x020946ec        0x0 c:/devkitpro/devkitarm/bin/../lib/gcc/arm-eabi/4.5.1/../../../../arm-eabi/lib/thumb\libg.a(lib_a-strtol.o)
 .bss           0x020946ec        0x0 c:/devkitpro/devkitarm/bin/../lib/gcc/arm-eabi/4.5.1/../../../../arm-eabi/lib/thumb\libg.a(lib_a-sysstat.o)
 .bss           0x020946ec        0x0 c:/devkitpro/devkitarm/bin/../lib/gcc/arm-eabi/4.5.1/../../../../arm-eabi/lib/thumb\libg.a(lib_a-time.o)
 .bss           0x020946ec        0x0 c:/devkitpro/devkitarm/bin/../lib/gcc/arm-eabi/4.5.1/../../../../arm-eabi/lib/thumb\libg.a(lib_a-tzlock.o)
 .bss           0x020946ec        0x8 c:/devkitpro/devkitarm/bin/../lib/gcc/arm-eabi/4.5.1/../../../../arm-eabi/lib/thumb\libg.a(lib_a-tzvars.o)
                0x020946ec                _daylight
                0x020946f0                _timezone
 .bss           0x020946f4        0x0 c:/devkitpro/devkitarm/bin/../lib/gcc/arm-eabi/4.5.1/../../../../arm-eabi/lib/thumb\libg.a(lib_a-wctomb_r.o)
 .bss           0x020946f4        0x0 c:/devkitpro/devkitarm/bin/../lib/gcc/arm-eabi/4.5.1/../../../../arm-eabi/lib/thumb\libg.a(lib_a-ctype_.o)
 .bss           0x020946f4        0x0 c:/devkitpro/devkitarm/bin/../lib/gcc/arm-eabi/4.5.1/../../../../arm-eabi/lib/thumb\libg.a(lib_a-flags.o)
 .bss           0x020946f4        0x0 c:/devkitpro/devkitarm/bin/../lib/gcc/arm-eabi/4.5.1/../../../../arm-eabi/lib/thumb\libg.a(lib_a-getenv_r.o)
 .bss           0x020946f4        0x0 c:/devkitpro/devkitarm/bin/../lib/gcc/arm-eabi/4.5.1/../../../../arm-eabi/lib/thumb\libg.a(lib_a-gettzinfo.o)
 .bss           0x020946f4        0x4 c:/devkitpro/devkitarm/bin/../lib/gcc/arm-eabi/4.5.1/../../../../arm-eabi/lib/thumb\libg.a(lib_a-environ.o)
 .bss           0x020946f8        0x0 c:/devkitpro/devkitarm/bin/../lib/gcc/arm-eabi/4.5.1/../../../../arm-eabi/lib/thumb\libg.a(lib_a-envlock.o)
 .bss           0x020946f8        0x0 c:/devkitpro/devkitarm/bin/../lib/gcc/arm-eabi/4.5.1/../../../../arm-eabi/lib/thumb\libsysbase.a(close.o)
 .bss           0x020946f8        0x0 c:/devkitpro/devkitarm/bin/../lib/gcc/arm-eabi/4.5.1/../../../../arm-eabi/lib/thumb\libsysbase.a(fstat.o)
 .bss           0x020946f8        0x0 c:/devkitpro/devkitarm/bin/../lib/gcc/arm-eabi/4.5.1/../../../../arm-eabi/lib/thumb\libsysbase.a(isatty.o)
 .bss           0x020946f8        0x0 c:/devkitpro/devkitarm/bin/../lib/gcc/arm-eabi/4.5.1/../../../../arm-eabi/lib/thumb\libsysbase.a(lseek.o)
 .bss           0x020946f8        0x0 c:/devkitpro/devkitarm/bin/../lib/gcc/arm-eabi/4.5.1/../../../../arm-eabi/lib/thumb\libsysbase.a(open.o)
 .bss           0x020946f8        0x0 c:/devkitpro/devkitarm/bin/../lib/gcc/arm-eabi/4.5.1/../../../../arm-eabi/lib/thumb\libsysbase.a(read.o)
 .bss           0x020946f8        0x4 c:/devkitpro/devkitarm/bin/../lib/gcc/arm-eabi/4.5.1/../../../../arm-eabi/lib/thumb\libsysbase.a(sbrk.o)
 .bss           0x020946fc        0x0 c:/devkitpro/devkitarm/bin/../lib/gcc/arm-eabi/4.5.1/../../../../arm-eabi/lib/thumb\libsysbase.a(stat.o)
 .bss           0x020946fc        0x0 c:/devkitpro/devkitarm/bin/../lib/gcc/arm-eabi/4.5.1/../../../../arm-eabi/lib/thumb\libsysbase.a(times.o)
 .bss           0x020946fc        0x0 c:/devkitpro/devkitarm/bin/../lib/gcc/arm-eabi/4.5.1/../../../../arm-eabi/lib/thumb\libsysbase.a(write.o)
 .bss           0x020946fc        0x8 c:/devkitpro/devkitarm/bin/../lib/gcc/arm-eabi/4.5.1/../../../../arm-eabi/lib/thumb\libsysbase.a(malloc_vars.o)
                0x020946fc                fake_heap_end
                0x02094700                fake_heap_start
 .bss           0x02094704        0x0 c:/devkitpro/devkitarm/bin/../lib/gcc/arm-eabi/4.5.1/../../../../arm-eabi/lib/thumb\libsysbase.a(build_argv.o)
 .bss           0x02094704        0x8 c:/devkitpro/devkitarm/bin/../lib/gcc/arm-eabi/4.5.1/../../../../arm-eabi/lib/thumb\libsysbase.a(syscall_support.o)
                0x02094704                __syscalls
 .bss           0x0209470c     0x1000 c:/devkitpro/devkitarm/bin/../lib/gcc/arm-eabi/4.5.1/../../../../arm-eabi/lib/thumb\libsysbase.a(handle_manager.o)
 .bss           0x0209570c        0x0 c:/devkitpro/devkitarm/bin/../lib/gcc/arm-eabi/4.5.1/../../../../arm-eabi/lib/thumb\libsysbase.a(dirent.o)
 .bss           0x0209570c        0x0 c:/devkitpro/devkitarm/bin/../lib/gcc/arm-eabi/4.5.1/../../../../arm-eabi/lib/thumb\libsysbase.a(iosupport.o)
 .bss           0x0209570c        0x0 c:/devkitpro/devkitarm/bin/../lib/gcc/arm-eabi/4.5.1/../../../../arm-eabi/lib/thumb\libsysbase.a(dir.o)
 .bss           0x0209570c        0x0 c:/devkitpro/devkitarm/bin/../lib/gcc/arm-eabi/4.5.1/../../../../arm-eabi/lib/thumb\libg.a(lib_a-errno.o)
 .bss           0x0209570c        0x0 c:/devkitpro/devkitarm/bin/../lib/gcc/arm-eabi/4.5.1/../../../../arm-eabi/lib/thumb\libg.a(lib_a-strnlen.o)
 .bss           0x0209570c        0x0 c:/devkitpro/devkitarm/bin/../lib/gcc/arm-eabi/4.5.1/thumb/crtend.o
 .bss           0x0209570c        0x0 c:/devkitpro/devkitarm/bin/../lib/gcc/arm-eabi/4.5.1/thumb/crtn.o
 *(COMMON)
 COMMON         0x0209570c      0x1dc main.o
                0x0209570c                destroy
                0x0209579c                blocks
                0x0209582c                uinfo
                0x02095858                Blksprite
 COMMON         0x020958e8      0x22c c:/devkitPro/PAlib/lib\libpa9.a(PA.o)
                0x020958e8                PA_ScreenSpace
                0x020958ec                PadPointer
                0x020958f0                pa_checklid
                0x020958f4                PA_IPC
                0x02095a8c                Pad
                0x02095ab4                Stylus
                0x02095ad0                PA_bgmap
                0x02095af0                PA_GifInfo
                0x02095b04                PA_MovedSprite
 COMMON         0x02095b14      0x3d0 c:/devkitPro/PAlib/lib\libpa9.a(PA_BgTiles.o)
                0x02095b14                PA_parallaxY
                0x02095b34                PA_parallaxX
                0x02095b54                tempsize
                0x02095b58                charblocks
                0x02095be4                PA_BgInfo
                0x02095e04                scrollpos
 COMMON         0x02095ee4       0x50 c:/devkitPro/PAlib/lib\libpa9.a(PA_Interrupt.o)
                0x02095ee4                PA_VBLCounter
                0x02095f24                PA_VBLCounterOn
 COMMON         0x02095f34        0x1 c:/devkitPro/PAlib/lib\libpa9.a(PA_Keys.o)
                0x02095f34                _PA_LidDown
 *fill*         0x02095f35        0x3 00
 COMMON         0x02095f38        0x4 c:/devkitPro/PAlib/lib\libpa9.a(PA_Palette.o)
                0x02095f38                PA_ExtPal
 COMMON         0x02095f3c       0x5a c:/devkitPro/PAlib/lib\libpa9.a(PA_RTC.o)
                0x02095f3c                PA_RTC
                0x02095f44                PA_UserInfo
 *fill*         0x02095f96        0x2 00
 COMMON         0x02095f98     0xa9bc c:/devkitPro/PAlib/lib\libpa9.a(PA_Reco.o)
                0x02095f98                PA_Reco
                0x02095fa4                PA_RecoInfo
                0x02095fbc                PA_StylusPos
                0x0209fbfc                PA_CustomShape
                0x020a0944                PA_RecoShape
 COMMON         0x020a0954     0x8204 c:/devkitPro/PAlib/lib\libpa9.a(PA_Sprite.o)
                0x020a0954                free_mem
                0x020a2954                n_free_mem
                0x020a2958                PA_SpritePrio
                0x020a2a58                used_mem
                0x020a3258                spriteanims
                0x020a5658                PA_SpriteAnimP
                0x020a7658                PA_first
                0x020a7858                PA_next
                0x020a7958                obj_per_gfx
                0x020a8158                PA_obj
                0x020a8958                DualSpriteX
                0x020a8a58                pa_obj_created
 COMMON         0x020a8b58       0x3c c:/devkitPro/PAlib/lib\libpa9.a(PA_Text.o)
                0x020a8b58                PA_texttiles
                0x020a8b60                PA_TextBox
                0x020a8b68                PAbgtext
                0x020a8b6c                pa_printx
                0x020a8b74                pa_printy
                0x020a8b7c                textcol
                0x020a8b80                pa_printscroll
                0x020a8b84                PA_textpal
                0x020a8b8c                PA_textmap
 COMMON         0x020a8b94     0x301a c:/devkitPro/PAlib/lib\libpa9.a(PA_TextBits.o)
                0x020a8b94                PA_LetterPos
                0x020abb98                pa_bittextpoliceheight
                0x020abba4                pa_bittextsizes
 *fill*         0x020abbae        0x2 00
 COMMON         0x020abbb0        0x9 c:/devkitPro/PAlib/lib\libpa9.a(as_lib9.o)
                0x020abbb0                as_default_delay
                0x020abbb4                as_default_rate
                0x020abbb8                as_default_format
 *fill*         0x020abbb9        0x3 00
 COMMON         0x020abbbc       0x10 c:/devkitPro/PAlib/lib\libpa9.a(PA_16c.o)
                0x020abbbc                PA_Draw16
                0x020abbc4                PA_Draw1632
 COMMON         0x020abbcc        0x8 c:/devkitPro/PAlib/lib\libpa9.a(PA_BgRot.o)
                0x020abbcc                rotbg_size
 COMMON         0x020abbd4      0x226 c:/devkitPro/PAlib/lib\libpa9.a(PA_Draw.o)
                0x020abbd4                PA_olddowntime
                0x020abbd8                PA_DrawBg32
                0x020abbe0                PA_DrawBg
                0x020abbe8                PA_oldx
                0x020abbec                PA_drawsize
                0x020abbf0                PA_oldy
                0x020abbf4                tempvar
                0x020abbf8                PA_temppal
                0x020abdf8                PA_nBit
 *fill*         0x020abdfa        0x2 00
 COMMON         0x020abdfc       0x12 c:/devkitPro/PAlib/lib\libpa9.a(PA_Keyboard.o)
                0x020abdfc                PA_Keyboard_Struct
 *fill*         0x020abe0e        0x2 00
 COMMON         0x020abe10      0xa40 c:/devkitPro/libnds/lib\libnds9.a(fifosystem.o)
                0x020abe10                fifo_datamsg_data
                0x020abe50                fifo_buffer
                0x020ac650                fifo_value32_func
                0x020ac690                fifo_address_func
                0x020ac6d0                fifo_value32_data
                0x020ac710                fifo_value32_queue
                0x020ac750                fifo_data_queue
                0x020ac790                fifo_address_data
                0x020ac7d0                fifo_datamsg_func
                0x020ac810                fifo_address_queue
 COMMON         0x020ac850        0x4 c:/devkitpro/devkitarm/bin/../lib/gcc/arm-eabi/4.5.1/../../../../arm-eabi/lib/thumb\libsysbase.a(times.o)
                0x020ac850                punixTime
                0x020ac854                . = ALIGN (0x4)
                0x020ac854                __bss_end = ABSOLUTE (.)
                0x020ac854                __bss_end__ = __bss_end
                0x020ac854                _end = __bss_end__
                0x020ac854                __end__ = __bss_end__

.stab
 *(.stab)

.stabstr
 *(.stabstr)

.stab.excl
 *(.stab.excl)

.stab.exclstr
 *(.stab.exclstr)

.stab.index
 *(.stab.index)

.stab.indexstr
 *(.stab.indexstr)

.ARM.attributes
                0x00000000       0x2d load address 0x020943a8
 .ARM.attributes
                0x00000000       0x21 c:/devkitpro/devkitarm/bin/../lib/gcc/arm-eabi/4.5.1/../../../../arm-eabi/lib/thumb/ds_arm9_crt0.o
 .ARM.attributes
                0x00000021       0x20 c:/devkitpro/devkitarm/bin/../lib/gcc/arm-eabi/4.5.1/thumb/crti.o
 .ARM.attributes
                0x00000041       0x30 c:/devkitpro/devkitarm/bin/../lib/gcc/arm-eabi/4.5.1/thumb/crtbegin.o
 .ARM.attributes
                0x00000071       0x14 Startup.o
 .ARM.attributes
                0x00000085       0x14 trapcard.o
 .ARM.attributes
                0x00000099       0x27 main.o
 .ARM.attributes
                0x000000c0       0x27 c:/devkitPro/PAlib/lib\libpa9.a(PA.o)
 .ARM.attributes
                0x000000e7       0x27 c:/devkitPro/PAlib/lib\libpa9.a(PA_BgEasy.o)
 .ARM.attributes
                0x0000010e       0x27 c:/devkitPro/PAlib/lib\libpa9.a(PA_BgLargeMap.o)
 .ARM.attributes
                0x00000135       0x27 c:/devkitPro/PAlib/lib\libpa9.a(PA_BgTiles.o)
 .ARM.attributes
                0x0000015c       0x27 c:/devkitPro/PAlib/lib\libpa9.a(PA_Error.o)
 .ARM.attributes
                0x00000183       0x27 c:/devkitPro/PAlib/lib\libpa9.a(PA_Inits.o)
 .ARM.attributes
                0x000001aa       0x27 c:/devkitPro/PAlib/lib\libpa9.a(PA_Interrupt.o)
 .ARM.attributes
                0x000001d1       0x27 c:/devkitPro/PAlib/lib\libpa9.a(PA_Keys.o)
 .ARM.attributes
                0x000001f8       0x27 c:/devkitPro/PAlib/lib\libpa9.a(PA_Math.o)
 .ARM.attributes
                0x0000021f       0x27 c:/devkitPro/PAlib/lib\libpa9.a(PA_Palette.o)
 .ARM.attributes
                0x00000246       0x27 c:/devkitPro/PAlib/lib\libpa9.a(PA_RTC.o)
 .ARM.attributes
                0x0000026d       0x27 c:/devkitPro/PAlib/lib\libpa9.a(PA_Reco.o)
 .ARM.attributes
                0x00000294       0x27 c:/devkitPro/PAlib/lib\libpa9.a(PA_Sprite.o)
 .ARM.attributes
                0x000002bb       0x27 c:/devkitPro/PAlib/lib\libpa9.a(PA_SpriteAnim.o)
 .ARM.attributes
                0x000002e2       0x27 c:/devkitPro/PAlib/lib\libpa9.a(PA_Stuff.o)
 .ARM.attributes
                0x00000309       0x27 c:/devkitPro/PAlib/lib\libpa9.a(PA_Text.o)
 .ARM.attributes
                0x00000330       0x27 c:/devkitPro/PAlib/lib\libpa9.a(PA_TextBits.o)
 .ARM.attributes
                0x00000357       0x27 c:/devkitPro/PAlib/lib\libpa9.a(as_lib9.o)
 .ARM.attributes
                0x0000037e       0x27 c:/devkitPro/PAlib/lib\libpa9.a(PA_TiledFont.o)
 .ARM.attributes
                0x000003a5       0x27 c:/devkitPro/PAlib/lib\libpa9.a(PA_BmpFont0.o)
 .ARM.attributes
                0x000003cc       0x27 c:/devkitPro/PAlib/lib\libpa9.a(PA_BmpFont1.o)
 .ARM.attributes
                0x000003f3       0x27 c:/devkitPro/PAlib/lib\libpa9.a(PA_BmpFont2.o)
 .ARM.attributes
                0x0000041a       0x27 c:/devkitPro/PAlib/lib\libpa9.a(PA_BmpFont3.o)
 .ARM.attributes
                0x00000441       0x27 c:/devkitPro/PAlib/lib\libpa9.a(PA_BmpFont4.o)
 .ARM.attributes
                0x00000468       0x14 c:/devkitPro/PAlib/lib\libpa9.a(PA_TiledFont_Map.bin.o)
 .ARM.attributes
                0x0000047c       0x14 c:/devkitPro/PAlib/lib\libpa9.a(PA_TiledFont_Pal.bin.o)
 .ARM.attributes
                0x00000490       0x14 c:/devkitPro/PAlib/lib\libpa9.a(PA_TiledFont_Tiles.bin.o)
 .ARM.attributes
                0x000004a4       0x14 c:/devkitPro/PAlib/lib\libpa9.a(PA_BmpFont0_Map.bin.o)
 .ARM.attributes
                0x000004b8       0x14 c:/devkitPro/PAlib/lib\libpa9.a(PA_BmpFont0_Sizes.bin.o)
 .ARM.attributes
                0x000004cc       0x14 c:/devkitPro/PAlib/lib\libpa9.a(PA_BmpFont0_Tiles.bin.o)
 .ARM.attributes
                0x000004e0       0x14 c:/devkitPro/PAlib/lib\libpa9.a(PA_BmpFont1_Map.bin.o)
 .ARM.attributes
                0x000004f4       0x14 c:/devkitPro/PAlib/lib\libpa9.a(PA_BmpFont1_Sizes.bin.o)
 .ARM.attributes
                0x00000508       0x14 c:/devkitPro/PAlib/lib\libpa9.a(PA_BmpFont1_Tiles.bin.o)
 .ARM.attributes
                0x0000051c       0x14 c:/devkitPro/PAlib/lib\libpa9.a(PA_BmpFont2_Map.bin.o)
 .ARM.attributes
                0x00000530       0x14 c:/devkitPro/PAlib/lib\libpa9.a(PA_BmpFont2_Sizes.bin.o)
 .ARM.attributes
                0x00000544       0x14 c:/devkitPro/PAlib/lib\libpa9.a(PA_BmpFont2_Tiles.bin.o)
 .ARM.attributes
                0x00000558       0x14 c:/devkitPro/PAlib/lib\libpa9.a(PA_BmpFont3_Map.bin.o)
 .ARM.attributes
                0x0000056c       0x14 c:/devkitPro/PAlib/lib\libpa9.a(PA_BmpFont3_Sizes.bin.o)
 .ARM.attributes
                0x00000580       0x14 c:/devkitPro/PAlib/lib\libpa9.a(PA_BmpFont3_Tiles.bin.o)
 .ARM.attributes
                0x00000594       0x14 c:/devkitPro/PAlib/lib\libpa9.a(PA_BmpFont4_Map.bin.o)
 .ARM.attributes
                0x000005a8       0x14 c:/devkitPro/PAlib/lib\libpa9.a(PA_BmpFont4_Sizes.bin.o)
 .ARM.attributes
                0x000005bc       0x14 c:/devkitPro/PAlib/lib\libpa9.a(PA_BmpFont4_Tiles.bin.o)
 .ARM.attributes
                0x000005d0       0x27 c:/devkitPro/PAlib/lib\libpa9.a(PA_Fifo.o)
 .ARM.attributes
                0x000005f7       0x27 c:/devkitPro/PAlib/lib\libpa9.a(PA_NewBg.o)
 .ARM.attributes
                0x0000061e       0x27 c:/devkitPro/PAlib/lib\libpa9.a(PA_PaletteEx.o)
 .ARM.attributes
                0x00000645       0x27 c:/devkitPro/PAlib/lib\libpa9.a(PA_Text8bit.o)
 .ARM.attributes
                0x0000066c       0x27 c:/devkitPro/PAlib/lib\libpa9.a(PA_16c.o)
 .ARM.attributes
                0x00000693       0x27 c:/devkitPro/PAlib/lib\libpa9.a(PA_BgRot.o)
 .ARM.attributes
                0x000006ba       0x27 c:/devkitPro/PAlib/lib\libpa9.a(PA_Draw.o)
 .ARM.attributes
                0x000006e1       0x27 c:/devkitPro/PAlib/lib\libpa9.a(PA_Keyboard.o)
 .ARM.attributes
                0x00000708       0x27 c:/devkitPro/PAlib/lib\libpa9.a(keyboard.map.o)
 .ARM.attributes
                0x0000072f       0x27 c:/devkitPro/PAlib/lib\libpa9.a(keyboard.pal.o)
 .ARM.attributes
                0x00000756       0x27 c:/devkitPro/PAlib/lib\libpa9.a(keyboard.raw.o)
 .ARM.attributes
                0x0000077d       0x27 c:/devkitPro/libnds/lib\libnds9.a(keys.o)
 .ARM.attributes
                0x000007a4       0x27 c:/devkitPro/libnds/lib\libnds9.a(system.o)
 .ARM.attributes
                0x000007cb       0x27 c:/devkitPro/libnds/lib\libnds9.a(touch.o)
 .ARM.attributes
                0x000007f2       0x27 c:/devkitPro/libnds/lib\libnds9.a(video.o)
 .ARM.attributes
                0x00000819       0x27 c:/devkitPro/libnds/lib\libnds9.a(initSystem.o)
 .ARM.attributes
                0x00000840       0x27 c:/devkitPro/libnds/lib\libnds9.a(fifosystem.o)
 .ARM.attributes
                0x00000867       0x27 c:/devkitPro/libnds/lib\libnds9.a(interrupts.o)
 .ARM.attributes
                0x0000088e       0x27 c:/devkitPro/libnds/lib\libnds9.a(libnds_exit.o)
 .ARM.attributes
                0x000008b5       0x1b c:/devkitPro/libnds/lib\libnds9.a(dcache.o)
 .ARM.attributes
                0x000008d0       0x21 c:/devkitPro/libnds/lib\libnds9.a(mpu_setup.o)
 .ARM.attributes
                0x000008f1       0x1b c:/devkitPro/libnds/lib\libnds9.a(biosCalls.o)
 .ARM.attributes
                0x0000090c       0x1b c:/devkitPro/libnds/lib\libnds9.a(interruptDispatcher.o)
 .ARM.attributes
                0x00000927       0x21 c:/devkitPro/libnds/lib\libnds9.a(swiSoftReset.o)
 .ARM.attributes
                0x00000948       0x22 c:/devkitpro/devkitarm/bin/../lib/gcc/arm-eabi/4.5.1/thumb\libgcc.a(_udivsi3.o)
 .ARM.attributes
                0x0000096a       0x22 c:/devkitpro/devkitarm/bin/../lib/gcc/arm-eabi/4.5.1/thumb\libgcc.a(_divsi3.o)
 .ARM.attributes
                0x0000098c       0x22 c:/devkitpro/devkitarm/bin/../lib/gcc/arm-eabi/4.5.1/thumb\libgcc.a(_dvmd_tls.o)
 .ARM.attributes
                0x000009ae       0x22 c:/devkitpro/devkitarm/bin/../lib/gcc/arm-eabi/4.5.1/thumb\libgcc.a(_arm_addsubdf3.o)
 .ARM.attributes
                0x000009d0       0x22 c:/devkitpro/devkitarm/bin/../lib/gcc/arm-eabi/4.5.1/thumb\libgcc.a(_arm_muldivdf3.o)
 .ARM.attributes
                0x000009f2       0x22 c:/devkitpro/devkitarm/bin/../lib/gcc/arm-eabi/4.5.1/thumb\libgcc.a(_arm_cmpdf2.o)
 .ARM.attributes
                0x00000a14       0x22 c:/devkitpro/devkitarm/bin/../lib/gcc/arm-eabi/4.5.1/thumb\libgcc.a(_arm_fixdfsi.o)
 .ARM.attributes
                0x00000a36       0x30 c:/devkitpro/devkitarm/bin/../lib/gcc/arm-eabi/4.5.1/thumb\libgcc.a(_muldi3.o)
 .ARM.attributes
                0x00000a66       0x30 c:/devkitpro/devkitarm/bin/../lib/gcc/arm-eabi/4.5.1/../../../../arm-eabi/lib/thumb\libg.a(lib_a-fclose.o)
 .ARM.attributes
                0x00000a96       0x30 c:/devkitpro/devkitarm/bin/../lib/gcc/arm-eabi/4.5.1/../../../../arm-eabi/lib/thumb\libg.a(lib_a-fflush.o)
 .ARM.attributes
                0x00000ac6       0x30 c:/devkitpro/devkitarm/bin/../lib/gcc/arm-eabi/4.5.1/../../../../arm-eabi/lib/thumb\libg.a(lib_a-findfp.o)
 .ARM.attributes
                0x00000af6       0x30 c:/devkitpro/devkitarm/bin/../lib/gcc/arm-eabi/4.5.1/../../../../arm-eabi/lib/thumb\libg.a(lib_a-fopen.o)
 .ARM.attributes
                0x00000b26       0x30 c:/devkitpro/devkitarm/bin/../lib/gcc/arm-eabi/4.5.1/../../../../arm-eabi/lib/thumb\libg.a(lib_a-fread.o)
 .ARM.attributes
                0x00000b56       0x30 c:/devkitpro/devkitarm/bin/../lib/gcc/arm-eabi/4.5.1/../../../../arm-eabi/lib/thumb\libg.a(lib_a-freer.o)
 .ARM.attributes
                0x00000b86       0x30 c:/devkitpro/devkitarm/bin/../lib/gcc/arm-eabi/4.5.1/../../../../arm-eabi/lib/thumb\libg.a(lib_a-fseek.o)
 .ARM.attributes
                0x00000bb6       0x30 c:/devkitpro/devkitarm/bin/../lib/gcc/arm-eabi/4.5.1/../../../../arm-eabi/lib/thumb\libg.a(lib_a-ftell.o)
 .ARM.attributes
                0x00000be6       0x30 c:/devkitpro/devkitarm/bin/../lib/gcc/arm-eabi/4.5.1/../../../../arm-eabi/lib/thumb\libg.a(lib_a-fwalk.o)
 .ARM.attributes
                0x00000c16       0x30 c:/devkitpro/devkitarm/bin/../lib/gcc/arm-eabi/4.5.1/../../../../arm-eabi/lib/thumb\libg.a(lib_a-gmtime.o)
 .ARM.attributes
                0x00000c46       0x30 c:/devkitpro/devkitarm/bin/../lib/gcc/arm-eabi/4.5.1/../../../../arm-eabi/lib/thumb\libg.a(lib_a-gmtime_r.o)
 .ARM.attributes
                0x00000c76       0x30 c:/devkitpro/devkitarm/bin/../lib/gcc/arm-eabi/4.5.1/../../../../arm-eabi/lib/thumb\libg.a(lib_a-impure.o)
 .ARM.attributes
                0x00000ca6       0x30 c:/devkitpro/devkitarm/bin/../lib/gcc/arm-eabi/4.5.1/../../../../arm-eabi/lib/thumb\libg.a(lib_a-init.o)
 .ARM.attributes
                0x00000cd6       0x30 c:/devkitpro/devkitarm/bin/../lib/gcc/arm-eabi/4.5.1/../../../../arm-eabi/lib/thumb\libg.a(lib_a-locale.o)
 .ARM.attributes
                0x00000d06       0x30 c:/devkitpro/devkitarm/bin/../lib/gcc/arm-eabi/4.5.1/../../../../arm-eabi/lib/thumb\libg.a(lib_a-makebuf.o)
 .ARM.attributes
                0x00000d36       0x30 c:/devkitpro/devkitarm/bin/../lib/gcc/arm-eabi/4.5.1/../../../../arm-eabi/lib/thumb\libg.a(lib_a-malign.o)
 .ARM.attributes
                0x00000d66       0x30 c:/devkitpro/devkitarm/bin/../lib/gcc/arm-eabi/4.5.1/../../../../arm-eabi/lib/thumb\libg.a(lib_a-malignr.o)
 .ARM.attributes
                0x00000d96       0x30 c:/devkitpro/devkitarm/bin/../lib/gcc/arm-eabi/4.5.1/../../../../arm-eabi/lib/thumb\libg.a(lib_a-malloc.o)
 .ARM.attributes
                0x00000dc6       0x30 c:/devkitpro/devkitarm/bin/../lib/gcc/arm-eabi/4.5.1/../../../../arm-eabi/lib/thumb\libg.a(lib_a-mallocr.o)
 .ARM.attributes
                0x00000df6       0x30 c:/devkitpro/devkitarm/bin/../lib/gcc/arm-eabi/4.5.1/../../../../arm-eabi/lib/thumb\libg.a(lib_a-mbtowc_r.o)
 .ARM.attributes
                0x00000e26       0x30 c:/devkitpro/devkitarm/bin/../lib/gcc/arm-eabi/4.5.1/../../../../arm-eabi/lib/thumb\libg.a(lib_a-memcpy.o)
 .ARM.attributes
                0x00000e56       0x30 c:/devkitpro/devkitarm/bin/../lib/gcc/arm-eabi/4.5.1/../../../../arm-eabi/lib/thumb\libg.a(lib_a-memset.o)
 .ARM.attributes
                0x00000e86       0x30 c:/devkitpro/devkitarm/bin/../lib/gcc/arm-eabi/4.5.1/../../../../arm-eabi/lib/thumb\libg.a(lib_a-mktm_r.o)
 .ARM.attributes
                0x00000eb6       0x30 c:/devkitpro/devkitarm/bin/../lib/gcc/arm-eabi/4.5.1/../../../../arm-eabi/lib/thumb\libg.a(lib_a-mlock.o)
 .ARM.attributes
                0x00000ee6       0x30 c:/devkitpro/devkitarm/bin/../lib/gcc/arm-eabi/4.5.1/../../../../arm-eabi/lib/thumb\libg.a(lib_a-refill.o)
 .ARM.attributes
                0x00000f16       0x30 c:/devkitpro/devkitarm/bin/../lib/gcc/arm-eabi/4.5.1/../../../../arm-eabi/lib/thumb\libg.a(lib_a-stdio.o)
 .ARM.attributes
                0x00000f46       0x30 c:/devkitpro/devkitarm/bin/../lib/gcc/arm-eabi/4.5.1/../../../../arm-eabi/lib/thumb\libg.a(lib_a-strcasecmp.o)
 .ARM.attributes
                0x00000f76       0x30 c:/devkitpro/devkitarm/bin/../lib/gcc/arm-eabi/4.5.1/../../../../arm-eabi/lib/thumb\libg.a(lib_a-strcat.o)
 .ARM.attributes
                0x00000fa6       0x30 c:/devkitpro/devkitarm/bin/../lib/gcc/arm-eabi/4.5.1/../../../../arm-eabi/lib/thumb\libg.a(lib_a-strchr.o)
 .ARM.attributes
                0x00000fd6       0x30 c:/devkitpro/devkitarm/bin/../lib/gcc/arm-eabi/4.5.1/../../../../arm-eabi/lib/thumb\libg.a(lib_a-strcmp.o)
 .ARM.attributes
                0x00001006       0x30 c:/devkitpro/devkitarm/bin/../lib/gcc/arm-eabi/4.5.1/../../../../arm-eabi/lib/thumb\libg.a(lib_a-strcpy.o)
 .ARM.attributes
                0x00001036       0x30 c:/devkitpro/devkitarm/bin/../lib/gcc/arm-eabi/4.5.1/../../../../arm-eabi/lib/thumb\libg.a(lib_a-strlcpy.o)
 .ARM.attributes
                0x00001066       0x30 c:/devkitpro/devkitarm/bin/../lib/gcc/arm-eabi/4.5.1/../../../../arm-eabi/lib/thumb\libg.a(lib_a-strlen.o)
 .ARM.attributes
                0x00001096       0x30 c:/devkitpro/devkitarm/bin/../lib/gcc/arm-eabi/4.5.1/../../../../arm-eabi/lib/thumb\libg.a(lib_a-strncasecmp.o)
 .ARM.attributes
                0x000010c6       0x30 c:/devkitpro/devkitarm/bin/../lib/gcc/arm-eabi/4.5.1/../../../../arm-eabi/lib/thumb\libg.a(lib_a-strncmp.o)
 .ARM.attributes
                0x000010f6       0x30 c:/devkitpro/devkitarm/bin/../lib/gcc/arm-eabi/4.5.1/../../../../arm-eabi/lib/thumb\libg.a(lib_a-strncpy.o)
 .ARM.attributes
                0x00001126       0x30 c:/devkitpro/devkitarm/bin/../lib/gcc/arm-eabi/4.5.1/../../../../arm-eabi/lib/thumb\libg.a(lib_a-strtol.o)
 .ARM.attributes
                0x00001156       0x30 c:/devkitpro/devkitarm/bin/../lib/gcc/arm-eabi/4.5.1/../../../../arm-eabi/lib/thumb\libg.a(lib_a-sysstat.o)
 .ARM.attributes
                0x00001186       0x30 c:/devkitpro/devkitarm/bin/../lib/gcc/arm-eabi/4.5.1/../../../../arm-eabi/lib/thumb\libg.a(lib_a-time.o)
 .ARM.attributes
                0x000011b6       0x30 c:/devkitpro/devkitarm/bin/../lib/gcc/arm-eabi/4.5.1/../../../../arm-eabi/lib/thumb\libg.a(lib_a-tzlock.o)
 .ARM.attributes
                0x000011e6       0x30 c:/devkitpro/devkitarm/bin/../lib/gcc/arm-eabi/4.5.1/../../../../arm-eabi/lib/thumb\libg.a(lib_a-tzvars.o)
 .ARM.attributes
                0x00001216       0x30 c:/devkitpro/devkitarm/bin/../lib/gcc/arm-eabi/4.5.1/../../../../arm-eabi/lib/thumb\libg.a(lib_a-wctomb_r.o)
 .ARM.attributes
                0x00001246       0x30 c:/devkitpro/devkitarm/bin/../lib/gcc/arm-eabi/4.5.1/../../../../arm-eabi/lib/thumb\libg.a(lib_a-ctype_.o)
 .ARM.attributes
                0x00001276       0x30 c:/devkitpro/devkitarm/bin/../lib/gcc/arm-eabi/4.5.1/../../../../arm-eabi/lib/thumb\libg.a(lib_a-flags.o)
 .ARM.attributes
                0x000012a6       0x30 c:/devkitpro/devkitarm/bin/../lib/gcc/arm-eabi/4.5.1/../../../../arm-eabi/lib/thumb\libg.a(lib_a-getenv_r.o)
 .ARM.attributes
                0x000012d6       0x30 c:/devkitpro/devkitarm/bin/../lib/gcc/arm-eabi/4.5.1/../../../../arm-eabi/lib/thumb\libg.a(lib_a-gettzinfo.o)
 .ARM.attributes
                0x00001306       0x30 c:/devkitpro/devkitarm/bin/../lib/gcc/arm-eabi/4.5.1/../../../../arm-eabi/lib/thumb\libg.a(lib_a-environ.o)
 .ARM.attributes
                0x00001336       0x30 c:/devkitpro/devkitarm/bin/../lib/gcc/arm-eabi/4.5.1/../../../../arm-eabi/lib/thumb\libg.a(lib_a-envlock.o)
 .ARM.attributes
                0x00001366       0x30 c:/devkitpro/devkitarm/bin/../lib/gcc/arm-eabi/4.5.1/../../../../arm-eabi/lib/thumb\libsysbase.a(close.o)
 .ARM.attributes
                0x00001396       0x30 c:/devkitpro/devkitarm/bin/../lib/gcc/arm-eabi/4.5.1/../../../../arm-eabi/lib/thumb\libsysbase.a(fstat.o)
 .ARM.attributes
                0x000013c6       0x30 c:/devkitpro/devkitarm/bin/../lib/gcc/arm-eabi/4.5.1/../../../../arm-eabi/lib/thumb\libsysbase.a(isatty.o)
 .ARM.attributes
                0x000013f6       0x30 c:/devkitpro/devkitarm/bin/../lib/gcc/arm-eabi/4.5.1/../../../../arm-eabi/lib/thumb\libsysbase.a(lseek.o)
 .ARM.attributes
                0x00001426       0x30 c:/devkitpro/devkitarm/bin/../lib/gcc/arm-eabi/4.5.1/../../../../arm-eabi/lib/thumb\libsysbase.a(open.o)
 .ARM.attributes
                0x00001456       0x30 c:/devkitpro/devkitarm/bin/../lib/gcc/arm-eabi/4.5.1/../../../../arm-eabi/lib/thumb\libsysbase.a(read.o)
 .ARM.attributes
                0x00001486       0x30 c:/devkitpro/devkitarm/bin/../lib/gcc/arm-eabi/4.5.1/../../../../arm-eabi/lib/thumb\libsysbase.a(sbrk.o)
 .ARM.attributes
                0x000014b6       0x30 c:/devkitpro/devkitarm/bin/../lib/gcc/arm-eabi/4.5.1/../../../../arm-eabi/lib/thumb\libsysbase.a(stat.o)
 .ARM.attributes
                0x000014e6       0x30 c:/devkitpro/devkitarm/bin/../lib/gcc/arm-eabi/4.5.1/../../../../arm-eabi/lib/thumb\libsysbase.a(times.o)
 .ARM.attributes
                0x00001516       0x30 c:/devkitpro/devkitarm/bin/../lib/gcc/arm-eabi/4.5.1/../../../../arm-eabi/lib/thumb\libsysbase.a(write.o)
 .ARM.attributes
                0x00001546       0x30 c:/devkitpro/devkitarm/bin/../lib/gcc/arm-eabi/4.5.1/../../../../arm-eabi/lib/thumb\libsysbase.a(malloc_vars.o)
 .ARM.attributes
                0x00001576       0x30 c:/devkitpro/devkitarm/bin/../lib/gcc/arm-eabi/4.5.1/../../../../arm-eabi/lib/thumb\libsysbase.a(build_argv.o)
 .ARM.attributes
                0x000015a6       0x30 c:/devkitpro/devkitarm/bin/../lib/gcc/arm-eabi/4.5.1/../../../../arm-eabi/lib/thumb\libsysbase.a(syscall_support.o)
 .ARM.attributes
                0x000015d6       0x30 c:/devkitpro/devkitarm/bin/../lib/gcc/arm-eabi/4.5.1/../../../../arm-eabi/lib/thumb\libsysbase.a(handle_manager.o)
 .ARM.attributes
                0x00001606       0x30 c:/devkitpro/devkitarm/bin/../lib/gcc/arm-eabi/4.5.1/../../../../arm-eabi/lib/thumb\libsysbase.a(dirent.o)
 .ARM.attributes
                0x00001636       0x30 c:/devkitpro/devkitarm/bin/../lib/gcc/arm-eabi/4.5.1/../../../../arm-eabi/lib/thumb\libsysbase.a(iosupport.o)
 .ARM.attributes
                0x00001666       0x30 c:/devkitpro/devkitarm/bin/../lib/gcc/arm-eabi/4.5.1/../../../../arm-eabi/lib/thumb\libsysbase.a(dir.o)
 .ARM.attributes
                0x00001696       0x30 c:/devkitpro/devkitarm/bin/../lib/gcc/arm-eabi/4.5.1/../../../../arm-eabi/lib/thumb\libg.a(lib_a-errno.o)
 .ARM.attributes
                0x000016c6       0x30 c:/devkitpro/devkitarm/bin/../lib/gcc/arm-eabi/4.5.1/../../../../arm-eabi/lib/thumb\libg.a(lib_a-strnlen.o)
 .ARM.attributes
                0x000016f6       0x30 c:/devkitpro/devkitarm/bin/../lib/gcc/arm-eabi/4.5.1/thumb/crtend.o
 .ARM.attributes
                0x00001726       0x20 c:/devkitpro/devkitarm/bin/../lib/gcc/arm-eabi/4.5.1/thumb/crtn.o

.comment        0x00000000       0x44 load address 0x020943a8
 *(.comment)
 .comment       0x00000000       0x22 c:/devkitpro/devkitarm/bin/../lib/gcc/arm-eabi/4.5.1/thumb/crtbegin.o
                                 0x23 (size before relaxing)
 .comment       0x00000000       0x23 main.o
 .comment       0x00000022       0x22 c:/devkitPro/PAlib/lib\libpa9.a(PA.o)
                                 0x23 (size before relaxing)
 .comment       0x00000000       0x23 c:/devkitPro/PAlib/lib\libpa9.a(PA_BgEasy.o)
 .comment       0x00000000       0x23 c:/devkitPro/PAlib/lib\libpa9.a(PA_BgLargeMap.o)
 .comment       0x00000000       0x23 c:/devkitPro/PAlib/lib\libpa9.a(PA_BgTiles.o)
 .comment       0x00000000       0x23 c:/devkitPro/PAlib/lib\libpa9.a(PA_Error.o)
 .comment       0x00000000       0x23 c:/devkitPro/PAlib/lib\libpa9.a(PA_Inits.o)
 .comment       0x00000000       0x23 c:/devkitPro/PAlib/lib\libpa9.a(PA_Interrupt.o)
 .comment       0x00000000       0x23 c:/devkitPro/PAlib/lib\libpa9.a(PA_Keys.o)
 .comment       0x00000000       0x23 c:/devkitPro/PAlib/lib\libpa9.a(PA_Math.o)
 .comment       0x00000000       0x23 c:/devkitPro/PAlib/lib\libpa9.a(PA_Palette.o)
 .comment       0x00000000       0x23 c:/devkitPro/PAlib/lib\libpa9.a(PA_RTC.o)
 .comment       0x00000000       0x23 c:/devkitPro/PAlib/lib\libpa9.a(PA_Reco.o)
 .comment       0x00000000       0x23 c:/devkitPro/PAlib/lib\libpa9.a(PA_Sprite.o)
 .comment       0x00000000       0x23 c:/devkitPro/PAlib/lib\libpa9.a(PA_SpriteAnim.o)
 .comment       0x00000000       0x23 c:/devkitPro/PAlib/lib\libpa9.a(PA_Stuff.o)
 .comment       0x00000000       0x23 c:/devkitPro/PAlib/lib\libpa9.a(PA_Text.o)
 .comment       0x00000000       0x23 c:/devkitPro/PAlib/lib\libpa9.a(PA_TextBits.o)
 .comment       0x00000000       0x23 c:/devkitPro/PAlib/lib\libpa9.a(as_lib9.o)
 .comment       0x00000000       0x23 c:/devkitPro/PAlib/lib\libpa9.a(PA_TiledFont.o)
 .comment       0x00000000       0x23 c:/devkitPro/PAlib/lib\libpa9.a(PA_BmpFont0.o)
 .comment       0x00000000       0x23 c:/devkitPro/PAlib/lib\libpa9.a(PA_BmpFont1.o)
 .comment       0x00000000       0x23 c:/devkitPro/PAlib/lib\libpa9.a(PA_BmpFont2.o)
 .comment       0x00000000       0x23 c:/devkitPro/PAlib/lib\libpa9.a(PA_BmpFont3.o)
 .comment       0x00000000       0x23 c:/devkitPro/PAlib/lib\libpa9.a(PA_BmpFont4.o)
 .comment       0x00000000       0x23 c:/devkitPro/PAlib/lib\libpa9.a(PA_Fifo.o)
 .comment       0x00000000       0x23 c:/devkitPro/PAlib/lib\libpa9.a(PA_NewBg.o)
 .comment       0x00000000       0x23 c:/devkitPro/PAlib/lib\libpa9.a(PA_PaletteEx.o)
 .comment       0x00000000       0x23 c:/devkitPro/PAlib/lib\libpa9.a(PA_Text8bit.o)
 .comment       0x00000000       0x23 c:/devkitPro/PAlib/lib\libpa9.a(PA_16c.o)
 .comment       0x00000000       0x23 c:/devkitPro/PAlib/lib\libpa9.a(PA_BgRot.o)
 .comment       0x00000000       0x23 c:/devkitPro/PAlib/lib\libpa9.a(PA_Draw.o)
 .comment       0x00000000       0x23 c:/devkitPro/PAlib/lib\libpa9.a(PA_Keyboard.o)
 .comment       0x00000000       0x23 c:/devkitPro/PAlib/lib\libpa9.a(keyboard.map.o)
 .comment       0x00000000       0x23 c:/devkitPro/PAlib/lib\libpa9.a(keyboard.pal.o)
 .comment       0x00000000       0x23 c:/devkitPro/PAlib/lib\libpa9.a(keyboard.raw.o)
 .comment       0x00000000       0x23 c:/devkitPro/libnds/lib\libnds9.a(keys.o)
 .comment       0x00000000       0x23 c:/devkitPro/libnds/lib\libnds9.a(system.o)
 .comment       0x00000000       0x23 c:/devkitPro/libnds/lib\libnds9.a(touch.o)
 .comment       0x00000000       0x23 c:/devkitPro/libnds/lib\libnds9.a(video.o)
 .comment       0x00000000       0x23 c:/devkitPro/libnds/lib\libnds9.a(initSystem.o)
 .comment       0x00000000       0x23 c:/devkitPro/libnds/lib\libnds9.a(fifosystem.o)
 .comment       0x00000000       0x23 c:/devkitPro/libnds/lib\libnds9.a(interrupts.o)
 .comment       0x00000000       0x23 c:/devkitPro/libnds/lib\libnds9.a(libnds_exit.o)
 .comment       0x00000000       0x23 c:/devkitpro/devkitarm/bin/../lib/gcc/arm-eabi/4.5.1/thumb\libgcc.a(_muldi3.o)
 .comment       0x00000000       0x23 c:/devkitpro/devkitarm/bin/../lib/gcc/arm-eabi/4.5.1/../../../../arm-eabi/lib/thumb\libg.a(lib_a-fclose.o)
 .comment       0x00000000       0x23 c:/devkitpro/devkitarm/bin/../lib/gcc/arm-eabi/4.5.1/../../../../arm-eabi/lib/thumb\libg.a(lib_a-fflush.o)
 .comment       0x00000000       0x23 c:/devkitpro/devkitarm/bin/../lib/gcc/arm-eabi/4.5.1/../../../../arm-eabi/lib/thumb\libg.a(lib_a-findfp.o)
 .comment       0x00000000       0x23 c:/devkitpro/devkitarm/bin/../lib/gcc/arm-eabi/4.5.1/../../../../arm-eabi/lib/thumb\libg.a(lib_a-fopen.o)
 .comment       0x00000000       0x23 c:/devkitpro/devkitarm/bin/../lib/gcc/arm-eabi/4.5.1/../../../../arm-eabi/lib/thumb\libg.a(lib_a-fread.o)
 .comment       0x00000000       0x23 c:/devkitpro/devkitarm/bin/../lib/gcc/arm-eabi/4.5.1/../../../../arm-eabi/lib/thumb\libg.a(lib_a-freer.o)
 .comment       0x00000000       0x23 c:/devkitpro/devkitarm/bin/../lib/gcc/arm-eabi/4.5.1/../../../../arm-eabi/lib/thumb\libg.a(lib_a-fseek.o)
 .comment       0x00000000       0x23 c:/devkitpro/devkitarm/bin/../lib/gcc/arm-eabi/4.5.1/../../../../arm-eabi/lib/thumb\libg.a(lib_a-ftell.o)
 .comment       0x00000000       0x23 c:/devkitpro/devkitarm/bin/../lib/gcc/arm-eabi/4.5.1/../../../../arm-eabi/lib/thumb\libg.a(lib_a-fwalk.o)
 .comment       0x00000000       0x23 c:/devkitpro/devkitarm/bin/../lib/gcc/arm-eabi/4.5.1/../../../../arm-eabi/lib/thumb\libg.a(lib_a-gmtime.o)
 .comment       0x00000000       0x23 c:/devkitpro/devkitarm/bin/../lib/gcc/arm-eabi/4.5.1/../../../../arm-eabi/lib/thumb\libg.a(lib_a-gmtime_r.o)
 .comment       0x00000000       0x23 c:/devkitpro/devkitarm/bin/../lib/gcc/arm-eabi/4.5.1/../../../../arm-eabi/lib/thumb\libg.a(lib_a-impure.o)
 .comment       0x00000000       0x23 c:/devkitpro/devkitarm/bin/../lib/gcc/arm-eabi/4.5.1/../../../../arm-eabi/lib/thumb\libg.a(lib_a-init.o)
 .comment       0x00000000       0x23 c:/devkitpro/devkitarm/bin/../lib/gcc/arm-eabi/4.5.1/../../../../arm-eabi/lib/thumb\libg.a(lib_a-locale.o)
 .comment       0x00000000       0x23 c:/devkitpro/devkitarm/bin/../lib/gcc/arm-eabi/4.5.1/../../../../arm-eabi/lib/thumb\libg.a(lib_a-makebuf.o)
 .comment       0x00000000       0x23 c:/devkitpro/devkitarm/bin/../lib/gcc/arm-eabi/4.5.1/../../../../arm-eabi/lib/thumb\libg.a(lib_a-malign.o)
 .comment       0x00000000       0x23 c:/devkitpro/devkitarm/bin/../lib/gcc/arm-eabi/4.5.1/../../../../arm-eabi/lib/thumb\libg.a(lib_a-malignr.o)
 .comment       0x00000000       0x23 c:/devkitpro/devkitarm/bin/../lib/gcc/arm-eabi/4.5.1/../../../../arm-eabi/lib/thumb\libg.a(lib_a-malloc.o)
 .comment       0x00000000       0x23 c:/devkitpro/devkitarm/bin/../lib/gcc/arm-eabi/4.5.1/../../../../arm-eabi/lib/thumb\libg.a(lib_a-mallocr.o)
 .comment       0x00000000       0x23 c:/devkitpro/devkitarm/bin/../lib/gcc/arm-eabi/4.5.1/../../../../arm-eabi/lib/thumb\libg.a(lib_a-mbtowc_r.o)
 .comment       0x00000000       0x23 c:/devkitpro/devkitarm/bin/../lib/gcc/arm-eabi/4.5.1/../../../../arm-eabi/lib/thumb\libg.a(lib_a-memcpy.o)
 .comment       0x00000000       0x23 c:/devkitpro/devkitarm/bin/../lib/gcc/arm-eabi/4.5.1/../../../../arm-eabi/lib/thumb\libg.a(lib_a-memset.o)
 .comment       0x00000000       0x23 c:/devkitpro/devkitarm/bin/../lib/gcc/arm-eabi/4.5.1/../../../../arm-eabi/lib/thumb\libg.a(lib_a-mktm_r.o)
 .comment       0x00000000       0x23 c:/devkitpro/devkitarm/bin/../lib/gcc/arm-eabi/4.5.1/../../../../arm-eabi/lib/thumb\libg.a(lib_a-mlock.o)
 .comment       0x00000000       0x23 c:/devkitpro/devkitarm/bin/../lib/gcc/arm-eabi/4.5.1/../../../../arm-eabi/lib/thumb\libg.a(lib_a-refill.o)
 .comment       0x00000000       0x23 c:/devkitpro/devkitarm/bin/../lib/gcc/arm-eabi/4.5.1/../../../../arm-eabi/lib/thumb\libg.a(lib_a-stdio.o)
 .comment       0x00000000       0x23 c:/devkitpro/devkitarm/bin/../lib/gcc/arm-eabi/4.5.1/../../../../arm-eabi/lib/thumb\libg.a(lib_a-strcasecmp.o)
 .comment       0x00000000       0x23 c:/devkitpro/devkitarm/bin/../lib/gcc/arm-eabi/4.5.1/../../../../arm-eabi/lib/thumb\libg.a(lib_a-strcat.o)
 .comment       0x00000000       0x23 c:/devkitpro/devkitarm/bin/../lib/gcc/arm-eabi/4.5.1/../../../../arm-eabi/lib/thumb\libg.a(lib_a-strchr.o)
 .comment       0x00000000       0x23 c:/devkitpro/devkitarm/bin/../lib/gcc/arm-eabi/4.5.1/../../../../arm-eabi/lib/thumb\libg.a(lib_a-strcmp.o)
 .comment       0x00000000       0x23 c:/devkitpro/devkitarm/bin/../lib/gcc/arm-eabi/4.5.1/../../../../arm-eabi/lib/thumb\libg.a(lib_a-strcpy.o)
 .comment       0x00000000       0x23 c:/devkitpro/devkitarm/bin/../lib/gcc/arm-eabi/4.5.1/../../../../arm-eabi/lib/thumb\libg.a(lib_a-strlcpy.o)
 .comment       0x00000000       0x23 c:/devkitpro/devkitarm/bin/../lib/gcc/arm-eabi/4.5.1/../../../../arm-eabi/lib/thumb\libg.a(lib_a-strlen.o)
 .comment       0x00000000       0x23 c:/devkitpro/devkitarm/bin/../lib/gcc/arm-eabi/4.5.1/../../../../arm-eabi/lib/thumb\libg.a(lib_a-strncasecmp.o)
 .comment       0x00000000       0x23 c:/devkitpro/devkitarm/bin/../lib/gcc/arm-eabi/4.5.1/../../../../arm-eabi/lib/thumb\libg.a(lib_a-strncmp.o)
 .comment       0x00000000       0x23 c:/devkitpro/devkitarm/bin/../lib/gcc/arm-eabi/4.5.1/../../../../arm-eabi/lib/thumb\libg.a(lib_a-strncpy.o)
 .comment       0x00000000       0x23 c:/devkitpro/devkitarm/bin/../lib/gcc/arm-eabi/4.5.1/../../../../arm-eabi/lib/thumb\libg.a(lib_a-strtol.o)
 .comment       0x00000000       0x23 c:/devkitpro/devkitarm/bin/../lib/gcc/arm-eabi/4.5.1/../../../../arm-eabi/lib/thumb\libg.a(lib_a-sysstat.o)
 .comment       0x00000000       0x23 c:/devkitpro/devkitarm/bin/../lib/gcc/arm-eabi/4.5.1/../../../../arm-eabi/lib/thumb\libg.a(lib_a-time.o)
 .comment       0x00000000       0x23 c:/devkitpro/devkitarm/bin/../lib/gcc/arm-eabi/4.5.1/../../../../arm-eabi/lib/thumb\libg.a(lib_a-tzlock.o)
 .comment       0x00000000       0x23 c:/devkitpro/devkitarm/bin/../lib/gcc/arm-eabi/4.5.1/../../../../arm-eabi/lib/thumb\libg.a(lib_a-tzvars.o)
 .comment       0x00000000       0x23 c:/devkitpro/devkitarm/bin/../lib/gcc/arm-eabi/4.5.1/../../../../arm-eabi/lib/thumb\libg.a(lib_a-wctomb_r.o)
 .comment       0x00000000       0x23 c:/devkitpro/devkitarm/bin/../lib/gcc/arm-eabi/4.5.1/../../../../arm-eabi/lib/thumb\libg.a(lib_a-ctype_.o)
 .comment       0x00000000       0x23 c:/devkitpro/devkitarm/bin/../lib/gcc/arm-eabi/4.5.1/../../../../arm-eabi/lib/thumb\libg.a(lib_a-flags.o)
 .comment       0x00000000       0x23 c:/devkitpro/devkitarm/bin/../lib/gcc/arm-eabi/4.5.1/../../../../arm-eabi/lib/thumb\libg.a(lib_a-getenv_r.o)
 .comment       0x00000000       0x23 c:/devkitpro/devkitarm/bin/../lib/gcc/arm-eabi/4.5.1/../../../../arm-eabi/lib/thumb\libg.a(lib_a-gettzinfo.o)
 .comment       0x00000000       0x23 c:/devkitpro/devkitarm/bin/../lib/gcc/arm-eabi/4.5.1/../../../../arm-eabi/lib/thumb\libg.a(lib_a-environ.o)
 .comment       0x00000000       0x23 c:/devkitpro/devkitarm/bin/../lib/gcc/arm-eabi/4.5.1/../../../../arm-eabi/lib/thumb\libg.a(lib_a-envlock.o)
 .comment       0x00000000       0x23 c:/devkitpro/devkitarm/bin/../lib/gcc/arm-eabi/4.5.1/../../../../arm-eabi/lib/thumb\libsysbase.a(close.o)
 .comment       0x00000000       0x23 c:/devkitpro/devkitarm/bin/../lib/gcc/arm-eabi/4.5.1/../../../../arm-eabi/lib/thumb\libsysbase.a(fstat.o)
 .comment       0x00000000       0x23 c:/devkitpro/devkitarm/bin/../lib/gcc/arm-eabi/4.5.1/../../../../arm-eabi/lib/thumb\libsysbase.a(isatty.o)
 .comment       0x00000000       0x23 c:/devkitpro/devkitarm/bin/../lib/gcc/arm-eabi/4.5.1/../../../../arm-eabi/lib/thumb\libsysbase.a(lseek.o)
 .comment       0x00000000       0x23 c:/devkitpro/devkitarm/bin/../lib/gcc/arm-eabi/4.5.1/../../../../arm-eabi/lib/thumb\libsysbase.a(open.o)
 .comment       0x00000000       0x23 c:/devkitpro/devkitarm/bin/../lib/gcc/arm-eabi/4.5.1/../../../../arm-eabi/lib/thumb\libsysbase.a(read.o)
 .comment       0x00000000       0x23 c:/devkitpro/devkitarm/bin/../lib/gcc/arm-eabi/4.5.1/../../../../arm-eabi/lib/thumb\libsysbase.a(sbrk.o)
 .comment       0x00000000       0x23 c:/devkitpro/devkitarm/bin/../lib/gcc/arm-eabi/4.5.1/../../../../arm-eabi/lib/thumb\libsysbase.a(stat.o)
 .comment       0x00000000       0x23 c:/devkitpro/devkitarm/bin/../lib/gcc/arm-eabi/4.5.1/../../../../arm-eabi/lib/thumb\libsysbase.a(times.o)
 .comment       0x00000000       0x23 c:/devkitpro/devkitarm/bin/../lib/gcc/arm-eabi/4.5.1/../../../../arm-eabi/lib/thumb\libsysbase.a(write.o)
 .comment       0x00000000       0x23 c:/devkitpro/devkitarm/bin/../lib/gcc/arm-eabi/4.5.1/../../../../arm-eabi/lib/thumb\libsysbase.a(malloc_vars.o)
 .comment       0x00000000       0x23 c:/devkitpro/devkitarm/bin/../lib/gcc/arm-eabi/4.5.1/../../../../arm-eabi/lib/thumb\libsysbase.a(build_argv.o)
 .comment       0x00000000       0x23 c:/devkitpro/devkitarm/bin/../lib/gcc/arm-eabi/4.5.1/../../../../arm-eabi/lib/thumb\libsysbase.a(syscall_support.o)
 .comment       0x00000000       0x23 c:/devkitpro/devkitarm/bin/../lib/gcc/arm-eabi/4.5.1/../../../../arm-eabi/lib/thumb\libsysbase.a(handle_manager.o)
 .comment       0x00000000       0x23 c:/devkitpro/devkitarm/bin/../lib/gcc/arm-eabi/4.5.1/../../../../arm-eabi/lib/thumb\libsysbase.a(dirent.o)
 .comment       0x00000000       0x23 c:/devkitpro/devkitarm/bin/../lib/gcc/arm-eabi/4.5.1/../../../../arm-eabi/lib/thumb\libsysbase.a(iosupport.o)
 .comment       0x00000000       0x23 c:/devkitpro/devkitarm/bin/../lib/gcc/arm-eabi/4.5.1/../../../../arm-eabi/lib/thumb\libsysbase.a(dir.o)
 .comment       0x00000000       0x23 c:/devkitpro/devkitarm/bin/../lib/gcc/arm-eabi/4.5.1/../../../../arm-eabi/lib/thumb\libg.a(lib_a-errno.o)
 .comment       0x00000000       0x23 c:/devkitpro/devkitarm/bin/../lib/gcc/arm-eabi/4.5.1/../../../../arm-eabi/lib/thumb\libg.a(lib_a-strnlen.o)
 .comment       0x00000000       0x23 c:/devkitpro/devkitarm/bin/../lib/gcc/arm-eabi/4.5.1/thumb/crtend.o

.debug
 *(.debug)

.line
 *(.line)

.debug_srcinfo
 *(.debug_srcinfo)

.debug_sfnames
 *(.debug_sfnames)

.debug_aranges  0x00000000      0x500 load address 0x020943a8
 *(.debug_aranges)
 .debug_aranges
                0x00000000       0x20 main.o
 .debug_aranges
                0x00000020       0x20 c:/devkitPro/PAlib/lib\libpa9.a(PA.o)
 .debug_aranges
                0x00000040       0x20 c:/devkitPro/PAlib/lib\libpa9.a(PA_BgEasy.o)
 .debug_aranges
                0x00000060       0x20 c:/devkitPro/PAlib/lib\libpa9.a(PA_BgLargeMap.o)
 .debug_aranges
                0x00000080       0x20 c:/devkitPro/PAlib/lib\libpa9.a(PA_BgTiles.o)
 .debug_aranges
                0x000000a0       0x20 c:/devkitPro/PAlib/lib\libpa9.a(PA_Error.o)
 .debug_aranges
                0x000000c0       0x20 c:/devkitPro/PAlib/lib\libpa9.a(PA_Inits.o)
 .debug_aranges
                0x000000e0       0x20 c:/devkitPro/PAlib/lib\libpa9.a(PA_Interrupt.o)
 .debug_aranges
                0x00000100       0x20 c:/devkitPro/PAlib/lib\libpa9.a(PA_Keys.o)
 .debug_aranges
                0x00000120       0x20 c:/devkitPro/PAlib/lib\libpa9.a(PA_Math.o)
 .debug_aranges
                0x00000140       0x20 c:/devkitPro/PAlib/lib\libpa9.a(PA_Palette.o)
 .debug_aranges
                0x00000160       0x20 c:/devkitPro/PAlib/lib\libpa9.a(PA_RTC.o)
 .debug_aranges
                0x00000180       0x20 c:/devkitPro/PAlib/lib\libpa9.a(PA_Reco.o)
 .debug_aranges
                0x000001a0       0x20 c:/devkitPro/PAlib/lib\libpa9.a(PA_Sprite.o)
 .debug_aranges
                0x000001c0       0x20 c:/devkitPro/PAlib/lib\libpa9.a(PA_SpriteAnim.o)
 .debug_aranges
                0x000001e0       0x20 c:/devkitPro/PAlib/lib\libpa9.a(PA_Stuff.o)
 .debug_aranges
                0x00000200       0x20 c:/devkitPro/PAlib/lib\libpa9.a(PA_Text.o)
 .debug_aranges
                0x00000220       0x20 c:/devkitPro/PAlib/lib\libpa9.a(PA_TextBits.o)
 .debug_aranges
                0x00000240       0x20 c:/devkitPro/PAlib/lib\libpa9.a(as_lib9.o)
 .debug_aranges
                0x00000260       0x20 c:/devkitPro/PAlib/lib\libpa9.a(PA_Fifo.o)
 .debug_aranges
                0x00000280       0x20 c:/devkitPro/PAlib/lib\libpa9.a(PA_NewBg.o)
 .debug_aranges
                0x000002a0       0x20 c:/devkitPro/PAlib/lib\libpa9.a(PA_PaletteEx.o)
 .debug_aranges
                0x000002c0       0x20 c:/devkitPro/PAlib/lib\libpa9.a(PA_Text8bit.o)
 .debug_aranges
                0x000002e0       0x20 c:/devkitPro/PAlib/lib\libpa9.a(PA_16c.o)
 .debug_aranges
                0x00000300       0x20 c:/devkitPro/PAlib/lib\libpa9.a(PA_BgRot.o)
 .debug_aranges
                0x00000320       0x20 c:/devkitPro/PAlib/lib\libpa9.a(PA_Draw.o)
 .debug_aranges
                0x00000340       0x20 c:/devkitPro/PAlib/lib\libpa9.a(PA_Keyboard.o)
 .debug_aranges
                0x00000360       0x20 c:/devkitPro/libnds/lib\libnds9.a(keys.o)
 .debug_aranges
                0x00000380       0x20 c:/devkitPro/libnds/lib\libnds9.a(system.o)
 .debug_aranges
                0x000003a0       0x20 c:/devkitPro/libnds/lib\libnds9.a(touch.o)
 .debug_aranges
                0x000003c0       0x20 c:/devkitPro/libnds/lib\libnds9.a(video.o)
 .debug_aranges
                0x000003e0       0x20 c:/devkitPro/libnds/lib\libnds9.a(initSystem.o)
 .debug_aranges
                0x00000400       0x20 c:/devkitPro/libnds/lib\libnds9.a(fifosystem.o)
 .debug_aranges
                0x00000420       0x20 c:/devkitPro/libnds/lib\libnds9.a(interrupts.o)
 .debug_aranges
                0x00000440       0x20 c:/devkitPro/libnds/lib\libnds9.a(libnds_exit.o)
 .debug_aranges
                0x00000460       0x20 c:/devkitPro/libnds/lib\libnds9.a(dcache.o)
 .debug_aranges
                0x00000480       0x20 c:/devkitPro/libnds/lib\libnds9.a(mpu_setup.o)
 .debug_aranges
                0x000004a0       0x20 c:/devkitPro/libnds/lib\libnds9.a(biosCalls.o)
 .debug_aranges
                0x000004c0       0x20 c:/devkitPro/libnds/lib\libnds9.a(interruptDispatcher.o)
 .debug_aranges
                0x000004e0       0x20 c:/devkitPro/libnds/lib\libnds9.a(swiSoftReset.o)

.debug_pubnames
                0x00000000     0x1ab8 load address 0x020943a8
 *(.debug_pubnames)
 .debug_pubnames
                0x00000000      0x442 main.o
 .debug_pubnames
                0x00000442       0xfe c:/devkitPro/PAlib/lib\libpa9.a(PA.o)
 .debug_pubnames
                0x00000540       0x68 c:/devkitPro/PAlib/lib\libpa9.a(PA_BgEasy.o)
 .debug_pubnames
                0x000005a8       0xdf c:/devkitPro/PAlib/lib\libpa9.a(PA_BgLargeMap.o)
 .debug_pubnames
                0x00000687      0x12e c:/devkitPro/PAlib/lib\libpa9.a(PA_BgTiles.o)
 .debug_pubnames
                0x000007b5       0x2e c:/devkitPro/PAlib/lib\libpa9.a(PA_Error.o)
 .debug_pubnames
                0x000007e3       0x39 c:/devkitPro/PAlib/lib\libpa9.a(PA_Inits.o)
 .debug_pubnames
                0x0000081c       0xa4 c:/devkitPro/PAlib/lib\libpa9.a(PA_Interrupt.o)
 .debug_pubnames
                0x000008c0       0x47 c:/devkitPro/PAlib/lib\libpa9.a(PA_Keys.o)
 .debug_pubnames
                0x00000907       0x40 c:/devkitPro/PAlib/lib\libpa9.a(PA_Math.o)
 .debug_pubnames
                0x00000947       0x76 c:/devkitPro/PAlib/lib\libpa9.a(PA_Palette.o)
 .debug_pubnames
                0x000009bd       0x54 c:/devkitPro/PAlib/lib\libpa9.a(PA_RTC.o)
 .debug_pubnames
                0x00000a11       0xd1 c:/devkitPro/PAlib/lib\libpa9.a(PA_Reco.o)
 .debug_pubnames
                0x00000ae2      0x1e9 c:/devkitPro/PAlib/lib\libpa9.a(PA_Sprite.o)
 .debug_pubnames
                0x00000ccb       0x44 c:/devkitPro/PAlib/lib\libpa9.a(PA_SpriteAnim.o)
 .debug_pubnames
                0x00000d0f       0x34 c:/devkitPro/PAlib/lib\libpa9.a(PA_Stuff.o)
 .debug_pubnames
                0x00000d43      0x11c c:/devkitPro/PAlib/lib\libpa9.a(PA_Text.o)
 .debug_pubnames
                0x00000e5f       0xc4 c:/devkitPro/PAlib/lib\libpa9.a(PA_TextBits.o)
 .debug_pubnames
                0x00000f23      0x140 c:/devkitPro/PAlib/lib\libpa9.a(as_lib9.o)
 .debug_pubnames
                0x00001063       0x23 c:/devkitPro/PAlib/lib\libpa9.a(PA_TiledFont.o)
 .debug_pubnames
                0x00001086       0x22 c:/devkitPro/PAlib/lib\libpa9.a(PA_BmpFont0.o)
 .debug_pubnames
                0x000010a8       0x22 c:/devkitPro/PAlib/lib\libpa9.a(PA_BmpFont1.o)
 .debug_pubnames
                0x000010ca       0x22 c:/devkitPro/PAlib/lib\libpa9.a(PA_BmpFont2.o)
 .debug_pubnames
                0x000010ec       0x22 c:/devkitPro/PAlib/lib\libpa9.a(PA_BmpFont3.o)
 .debug_pubnames
                0x0000110e       0x22 c:/devkitPro/PAlib/lib\libpa9.a(PA_BmpFont4.o)
 .debug_pubnames
                0x00001130       0x38 c:/devkitPro/PAlib/lib\libpa9.a(PA_Fifo.o)
 .debug_pubnames
                0x00001168       0x73 c:/devkitPro/PAlib/lib\libpa9.a(PA_NewBg.o)
 .debug_pubnames
                0x000011db       0x88 c:/devkitPro/PAlib/lib\libpa9.a(PA_PaletteEx.o)
 .debug_pubnames
                0x00001263       0xb4 c:/devkitPro/PAlib/lib\libpa9.a(PA_Text8bit.o)
 .debug_pubnames
                0x00001317       0xb0 c:/devkitPro/PAlib/lib\libpa9.a(PA_16c.o)
 .debug_pubnames
                0x000013c7       0x55 c:/devkitPro/PAlib/lib\libpa9.a(PA_BgRot.o)
 .debug_pubnames
                0x0000141c       0xa9 c:/devkitPro/PAlib/lib\libpa9.a(PA_Draw.o)
 .debug_pubnames
                0x000014c5       0xc0 c:/devkitPro/PAlib/lib\libpa9.a(PA_Keyboard.o)
 .debug_pubnames
                0x00001585       0x23 c:/devkitPro/PAlib/lib\libpa9.a(keyboard.map.o)
 .debug_pubnames
                0x000015a8       0x27 c:/devkitPro/PAlib/lib\libpa9.a(keyboard.pal.o)
 .debug_pubnames
                0x000015cf       0x25 c:/devkitPro/PAlib/lib\libpa9.a(keyboard.raw.o)
 .debug_pubnames
                0x000015f4       0x79 c:/devkitPro/libnds/lib\libnds9.a(keys.o)
 .debug_pubnames
                0x0000166d       0x87 c:/devkitPro/libnds/lib\libnds9.a(system.o)
 .debug_pubnames
                0x000016f4       0x30 c:/devkitPro/libnds/lib\libnds9.a(touch.o)
 .debug_pubnames
                0x00001724       0x62 c:/devkitPro/libnds/lib\libnds9.a(video.o)
 .debug_pubnames
                0x00001786       0x21 c:/devkitPro/libnds/lib\libnds9.a(initSystem.o)
 .debug_pubnames
                0x000017a7      0x259 c:/devkitPro/libnds/lib\libnds9.a(fifosystem.o)
 .debug_pubnames
                0x00001a00       0x80 c:/devkitPro/libnds/lib\libnds9.a(interrupts.o)
 .debug_pubnames
                0x00001a80       0x38 c:/devkitPro/libnds/lib\libnds9.a(libnds_exit.o)

.debug_info     0x00000000    0x45a97 load address 0x020943a8
 *(.debug_info)
 .debug_info    0x00000000     0x6aa9 main.o
 .debug_info    0x00006aa9     0x2481 c:/devkitPro/PAlib/lib\libpa9.a(PA.o)
 .debug_info    0x00008f2a     0x240e c:/devkitPro/PAlib/lib\libpa9.a(PA_BgEasy.o)
 .debug_info    0x0000b338     0x2d35 c:/devkitPro/PAlib/lib\libpa9.a(PA_BgLargeMap.o)
 .debug_info    0x0000e06d     0x25f9 c:/devkitPro/PAlib/lib\libpa9.a(PA_BgTiles.o)
 .debug_info    0x00010666     0x1ec0 c:/devkitPro/PAlib/lib\libpa9.a(PA_Error.o)
 .debug_info    0x00012526     0x27ab c:/devkitPro/PAlib/lib\libpa9.a(PA_Inits.o)
 .debug_info    0x00014cd1     0x20b0 c:/devkitPro/PAlib/lib\libpa9.a(PA_Interrupt.o)
 .debug_info    0x00016d81     0x2131 c:/devkitPro/PAlib/lib\libpa9.a(PA_Keys.o)
 .debug_info    0x00018eb2     0x20be c:/devkitPro/PAlib/lib\libpa9.a(PA_Math.o)
 .debug_info    0x0001af70     0x2476 c:/devkitPro/PAlib/lib\libpa9.a(PA_Palette.o)
 .debug_info    0x0001d3e6     0x22dd c:/devkitPro/PAlib/lib\libpa9.a(PA_RTC.o)
 .debug_info    0x0001f6c3     0x2417 c:/devkitPro/PAlib/lib\libpa9.a(PA_Reco.o)
 .debug_info    0x00021ada     0x275a c:/devkitPro/PAlib/lib\libpa9.a(PA_Sprite.o)
 .debug_info    0x00024234     0x218a c:/devkitPro/PAlib/lib\libpa9.a(PA_SpriteAnim.o)
 .debug_info    0x000263be     0x2186 c:/devkitPro/PAlib/lib\libpa9.a(PA_Stuff.o)
 .debug_info    0x00028544     0x24a8 c:/devkitPro/PAlib/lib\libpa9.a(PA_Text.o)
 .debug_info    0x0002a9ec     0x2430 c:/devkitPro/PAlib/lib\libpa9.a(PA_TextBits.o)
 .debug_info    0x0002ce1c     0x15a7 c:/devkitPro/PAlib/lib\libpa9.a(as_lib9.o)
 .debug_info    0x0002e3c3      0x1c6 c:/devkitPro/PAlib/lib\libpa9.a(PA_TiledFont.o)
 .debug_info    0x0002e589      0x1c6 c:/devkitPro/PAlib/lib\libpa9.a(PA_BmpFont0.o)
 .debug_info    0x0002e74f      0x1c6 c:/devkitPro/PAlib/lib\libpa9.a(PA_BmpFont1.o)
 .debug_info    0x0002e915      0x1c6 c:/devkitPro/PAlib/lib\libpa9.a(PA_BmpFont2.o)
 .debug_info    0x0002eadb      0x1c6 c:/devkitPro/PAlib/lib\libpa9.a(PA_BmpFont3.o)
 .debug_info    0x0002eca1      0x1c6 c:/devkitPro/PAlib/lib\libpa9.a(PA_BmpFont4.o)
 .debug_info    0x0002ee67     0x20fa c:/devkitPro/PAlib/lib\libpa9.a(PA_Fifo.o)
 .debug_info    0x00030f61     0x28a8 c:/devkitPro/PAlib/lib\libpa9.a(PA_NewBg.o)
 .debug_info    0x00033809     0x2370 c:/devkitPro/PAlib/lib\libpa9.a(PA_PaletteEx.o)
 .debug_info    0x00035b79     0x349e c:/devkitPro/PAlib/lib\libpa9.a(PA_Text8bit.o)
 .debug_info    0x00039017     0x2770 c:/devkitPro/PAlib/lib\libpa9.a(PA_16c.o)
 .debug_info    0x0003b787     0x2051 c:/devkitPro/PAlib/lib\libpa9.a(PA_BgRot.o)
 .debug_info    0x0003d7d8     0x21fe c:/devkitPro/PAlib/lib\libpa9.a(PA_Draw.o)
 .debug_info    0x0003f9d6     0x24f4 c:/devkitPro/PAlib/lib\libpa9.a(PA_Keyboard.o)
 .debug_info    0x00041eca       0x54 c:/devkitPro/PAlib/lib\libpa9.a(keyboard.map.o)
 .debug_info    0x00041f1e       0x53 c:/devkitPro/PAlib/lib\libpa9.a(keyboard.pal.o)
 .debug_info    0x00041f71       0x54 c:/devkitPro/PAlib/lib\libpa9.a(keyboard.raw.o)
 .debug_info    0x00041fc5      0x3d0 c:/devkitPro/libnds/lib\libnds9.a(keys.o)
 .debug_info    0x00042395      0x6a8 c:/devkitPro/libnds/lib\libnds9.a(system.o)
 .debug_info    0x00042a3d      0x2c2 c:/devkitPro/libnds/lib\libnds9.a(touch.o)
 .debug_info    0x00042cff      0x3d5 c:/devkitPro/libnds/lib\libnds9.a(video.o)
 .debug_info    0x000430d4      0xe19 c:/devkitPro/libnds/lib\libnds9.a(initSystem.o)
 .debug_info    0x00043eed     0x10ca c:/devkitPro/libnds/lib\libnds9.a(fifosystem.o)
 .debug_info    0x00044fb7      0x468 c:/devkitPro/libnds/lib\libnds9.a(interrupts.o)
 .debug_info    0x0004541f      0x2a6 c:/devkitPro/libnds/lib\libnds9.a(libnds_exit.o)
 .debug_info    0x000456c5       0xbc c:/devkitPro/libnds/lib\libnds9.a(dcache.o)
 .debug_info    0x00045781       0xc6 c:/devkitPro/libnds/lib\libnds9.a(mpu_setup.o)
 .debug_info    0x00045847       0xc1 c:/devkitPro/libnds/lib\libnds9.a(biosCalls.o)
 .debug_info    0x00045908       0xcb c:/devkitPro/libnds/lib\libnds9.a(interruptDispatcher.o)
 .debug_info    0x000459d3       0xc4 c:/devkitPro/libnds/lib\libnds9.a(swiSoftReset.o)

.debug_abbrev   0x00000000     0x6253 load address 0x020943a8
 *(.debug_abbrev)
 .debug_abbrev  0x00000000      0x503 main.o
 .debug_abbrev  0x00000503      0x27d c:/devkitPro/PAlib/lib\libpa9.a(PA.o)
 .debug_abbrev  0x00000780      0x325 c:/devkitPro/PAlib/lib\libpa9.a(PA_BgEasy.o)
 .debug_abbrev  0x00000aa5      0x340 c:/devkitPro/PAlib/lib\libpa9.a(PA_BgLargeMap.o)
 .debug_abbrev  0x00000de5      0x314 c:/devkitPro/PAlib/lib\libpa9.a(PA_BgTiles.o)
 .debug_abbrev  0x000010f9      0x1e6 c:/devkitPro/PAlib/lib\libpa9.a(PA_Error.o)
 .debug_abbrev  0x000012df      0x316 c:/devkitPro/PAlib/lib\libpa9.a(PA_Inits.o)
 .debug_abbrev  0x000015f5      0x23f c:/devkitPro/PAlib/lib\libpa9.a(PA_Interrupt.o)
 .debug_abbrev  0x00001834      0x224 c:/devkitPro/PAlib/lib\libpa9.a(PA_Keys.o)
 .debug_abbrev  0x00001a58      0x292 c:/devkitPro/PAlib/lib\libpa9.a(PA_Math.o)
 .debug_abbrev  0x00001cea      0x2ba c:/devkitPro/PAlib/lib\libpa9.a(PA_Palette.o)
 .debug_abbrev  0x00001fa4      0x239 c:/devkitPro/PAlib/lib\libpa9.a(PA_RTC.o)
 .debug_abbrev  0x000021dd      0x30a c:/devkitPro/PAlib/lib\libpa9.a(PA_Reco.o)
 .debug_abbrev  0x000024e7      0x3b1 c:/devkitPro/PAlib/lib\libpa9.a(PA_Sprite.o)
 .debug_abbrev  0x00002898      0x2ca c:/devkitPro/PAlib/lib\libpa9.a(PA_SpriteAnim.o)
 .debug_abbrev  0x00002b62      0x248 c:/devkitPro/PAlib/lib\libpa9.a(PA_Stuff.o)
 .debug_abbrev  0x00002daa      0x363 c:/devkitPro/PAlib/lib\libpa9.a(PA_Text.o)
 .debug_abbrev  0x0000310d      0x2b0 c:/devkitPro/PAlib/lib\libpa9.a(PA_TextBits.o)
 .debug_abbrev  0x000033bd      0x343 c:/devkitPro/PAlib/lib\libpa9.a(as_lib9.o)
 .debug_abbrev  0x00003700       0xcf c:/devkitPro/PAlib/lib\libpa9.a(PA_TiledFont.o)
 .debug_abbrev  0x000037cf       0xcf c:/devkitPro/PAlib/lib\libpa9.a(PA_BmpFont0.o)
 .debug_abbrev  0x0000389e       0xcf c:/devkitPro/PAlib/lib\libpa9.a(PA_BmpFont1.o)
 .debug_abbrev  0x0000396d       0xcf c:/devkitPro/PAlib/lib\libpa9.a(PA_BmpFont2.o)
 .debug_abbrev  0x00003a3c       0xcf c:/devkitPro/PAlib/lib\libpa9.a(PA_BmpFont3.o)
 .debug_abbrev  0x00003b0b       0xcf c:/devkitPro/PAlib/lib\libpa9.a(PA_BmpFont4.o)
 .debug_abbrev  0x00003bda      0x211 c:/devkitPro/PAlib/lib\libpa9.a(PA_Fifo.o)
 .debug_abbrev  0x00003deb      0x350 c:/devkitPro/PAlib/lib\libpa9.a(PA_NewBg.o)
 .debug_abbrev  0x0000413b      0x29b c:/devkitPro/PAlib/lib\libpa9.a(PA_PaletteEx.o)
 .debug_abbrev  0x000043d6      0x34b c:/devkitPro/PAlib/lib\libpa9.a(PA_Text8bit.o)
 .debug_abbrev  0x00004721      0x374 c:/devkitPro/PAlib/lib\libpa9.a(PA_16c.o)
 .debug_abbrev  0x00004a95      0x252 c:/devkitPro/PAlib/lib\libpa9.a(PA_BgRot.o)
 .debug_abbrev  0x00004ce7      0x270 c:/devkitPro/PAlib/lib\libpa9.a(PA_Draw.o)
 .debug_abbrev  0x00004f57      0x33d c:/devkitPro/PAlib/lib\libpa9.a(PA_Keyboard.o)
 .debug_abbrev  0x00005294       0x50 c:/devkitPro/PAlib/lib\libpa9.a(keyboard.map.o)
 .debug_abbrev  0x000052e4       0x50 c:/devkitPro/PAlib/lib\libpa9.a(keyboard.pal.o)
 .debug_abbrev  0x00005334       0x50 c:/devkitPro/PAlib/lib\libpa9.a(keyboard.raw.o)
 .debug_abbrev  0x00005384      0x176 c:/devkitPro/libnds/lib\libnds9.a(keys.o)
 .debug_abbrev  0x000054fa      0x19a c:/devkitPro/libnds/lib\libnds9.a(system.o)
 .debug_abbrev  0x00005694      0x123 c:/devkitPro/libnds/lib\libnds9.a(touch.o)
 .debug_abbrev  0x000057b7      0x152 c:/devkitPro/libnds/lib\libnds9.a(video.o)
 .debug_abbrev  0x00005909      0x231 c:/devkitPro/libnds/lib\libnds9.a(initSystem.o)
 .debug_abbrev  0x00005b3a      0x3af c:/devkitPro/libnds/lib\libnds9.a(fifosystem.o)
 .debug_abbrev  0x00005ee9      0x1d5 c:/devkitPro/libnds/lib\libnds9.a(interrupts.o)
 .debug_abbrev  0x000060be      0x131 c:/devkitPro/libnds/lib\libnds9.a(libnds_exit.o)
 .debug_abbrev  0x000061ef       0x14 c:/devkitPro/libnds/lib\libnds9.a(dcache.o)
 .debug_abbrev  0x00006203       0x14 c:/devkitPro/libnds/lib\libnds9.a(mpu_setup.o)
 .debug_abbrev  0x00006217       0x14 c:/devkitPro/libnds/lib\libnds9.a(biosCalls.o)
 .debug_abbrev  0x0000622b       0x14 c:/devkitPro/libnds/lib\libnds9.a(interruptDispatcher.o)
 .debug_abbrev  0x0000623f       0x14 c:/devkitPro/libnds/lib\libnds9.a(swiSoftReset.o)

.debug_line     0x00000000     0xd58e load address 0x020943a8
 *(.debug_line)
 .debug_line    0x00000000     0x23f7 main.o
 .debug_line    0x000023f7      0x41c c:/devkitPro/PAlib/lib\libpa9.a(PA.o)
 .debug_line    0x00002813      0x4eb c:/devkitPro/PAlib/lib\libpa9.a(PA_BgEasy.o)
 .debug_line    0x00002cfe      0xcaf c:/devkitPro/PAlib/lib\libpa9.a(PA_BgLargeMap.o)
 .debug_line    0x000039ad      0x6df c:/devkitPro/PAlib/lib\libpa9.a(PA_BgTiles.o)
 .debug_line    0x0000408c      0x390 c:/devkitPro/PAlib/lib\libpa9.a(PA_Error.o)
 .debug_line    0x0000441c      0x4e5 c:/devkitPro/PAlib/lib\libpa9.a(PA_Inits.o)
 .debug_line    0x00004901      0x3f2 c:/devkitPro/PAlib/lib\libpa9.a(PA_Interrupt.o)
 .debug_line    0x00004cf3      0x40f c:/devkitPro/PAlib/lib\libpa9.a(PA_Keys.o)
 .debug_line    0x00005102      0x45d c:/devkitPro/PAlib/lib\libpa9.a(PA_Math.o)
 .debug_line    0x0000555f      0x5ca c:/devkitPro/PAlib/lib\libpa9.a(PA_Palette.o)
 .debug_line    0x00005b29      0x40d c:/devkitPro/PAlib/lib\libpa9.a(PA_RTC.o)
 .debug_line    0x00005f36      0x567 c:/devkitPro/PAlib/lib\libpa9.a(PA_Reco.o)
 .debug_line    0x0000649d      0x74e c:/devkitPro/PAlib/lib\libpa9.a(PA_Sprite.o)
 .debug_line    0x00006beb      0x522 c:/devkitPro/PAlib/lib\libpa9.a(PA_SpriteAnim.o)
 .debug_line    0x0000710d      0x401 c:/devkitPro/PAlib/lib\libpa9.a(PA_Stuff.o)
 .debug_line    0x0000750e      0x73b c:/devkitPro/PAlib/lib\libpa9.a(PA_Text.o)
 .debug_line    0x00007c49      0x532 c:/devkitPro/PAlib/lib\libpa9.a(PA_TextBits.o)
 .debug_line    0x0000817b      0x471 c:/devkitPro/PAlib/lib\libpa9.a(as_lib9.o)
 .debug_line    0x000085ec       0xee c:/devkitPro/PAlib/lib\libpa9.a(PA_TiledFont.o)
 .debug_line    0x000086da       0xee c:/devkitPro/PAlib/lib\libpa9.a(PA_BmpFont0.o)
 .debug_line    0x000087c8       0xee c:/devkitPro/PAlib/lib\libpa9.a(PA_BmpFont1.o)
 .debug_line    0x000088b6       0xee c:/devkitPro/PAlib/lib\libpa9.a(PA_BmpFont2.o)
 .debug_line    0x000089a4       0xee c:/devkitPro/PAlib/lib\libpa9.a(PA_BmpFont3.o)
 .debug_line    0x00008a92       0xee c:/devkitPro/PAlib/lib\libpa9.a(PA_BmpFont4.o)
 .debug_line    0x00008b80      0x42d c:/devkitPro/PAlib/lib\libpa9.a(PA_Fifo.o)
 .debug_line    0x00008fad      0x6b1 c:/devkitPro/PAlib/lib\libpa9.a(PA_NewBg.o)
 .debug_line    0x0000965e      0x4b2 c:/devkitPro/PAlib/lib\libpa9.a(PA_PaletteEx.o)
 .debug_line    0x00009b10      0xa84 c:/devkitPro/PAlib/lib\libpa9.a(PA_Text8bit.o)
 .debug_line    0x0000a594      0x5d8 c:/devkitPro/PAlib/lib\libpa9.a(PA_16c.o)
 .debug_line    0x0000ab6c      0x422 c:/devkitPro/PAlib/lib\libpa9.a(PA_BgRot.o)
 .debug_line    0x0000af8e      0x50e c:/devkitPro/PAlib/lib\libpa9.a(PA_Draw.o)
 .debug_line    0x0000b49c      0x64d c:/devkitPro/PAlib/lib\libpa9.a(PA_Keyboard.o)
 .debug_line    0x0000bae9       0x55 c:/devkitPro/PAlib/lib\libpa9.a(keyboard.map.o)
 .debug_line    0x0000bb3e       0x55 c:/devkitPro/PAlib/lib\libpa9.a(keyboard.pal.o)
 .debug_line    0x0000bb93       0x55 c:/devkitPro/PAlib/lib\libpa9.a(keyboard.raw.o)
 .debug_line    0x0000bbe8      0x244 c:/devkitPro/libnds/lib\libnds9.a(keys.o)
 .debug_line    0x0000be2c      0x25c c:/devkitPro/libnds/lib\libnds9.a(system.o)
 .debug_line    0x0000c088      0x21d c:/devkitPro/libnds/lib\libnds9.a(touch.o)
 .debug_line    0x0000c2a5      0x1c8 c:/devkitPro/libnds/lib\libnds9.a(video.o)
 .debug_line    0x0000c46d      0x348 c:/devkitPro/libnds/lib\libnds9.a(initSystem.o)
 .debug_line    0x0000c7b5      0x6b7 c:/devkitPro/libnds/lib\libnds9.a(fifosystem.o)
 .debug_line    0x0000ce6c      0x1c3 c:/devkitPro/libnds/lib\libnds9.a(interrupts.o)
 .debug_line    0x0000d02f      0x1ca c:/devkitPro/libnds/lib\libnds9.a(libnds_exit.o)
 .debug_line    0x0000d1f9       0xa2 c:/devkitPro/libnds/lib\libnds9.a(dcache.o)
 .debug_line    0x0000d29b       0xe1 c:/devkitPro/libnds/lib\libnds9.a(mpu_setup.o)
 .debug_line    0x0000d37c       0xbf c:/devkitPro/libnds/lib\libnds9.a(biosCalls.o)
 .debug_line    0x0000d43b       0xc2 c:/devkitPro/libnds/lib\libnds9.a(interruptDispatcher.o)
 .debug_line    0x0000d4fd       0x91 c:/devkitPro/libnds/lib\libnds9.a(swiSoftReset.o)

.debug_frame    0x00000000     0x1988 load address 0x020943a8
 *(.debug_frame)
 .debug_frame   0x00000000      0x37c main.o
 .debug_frame   0x0000037c       0x54 c:/devkitPro/PAlib/lib\libpa9.a(PA.o)
 .debug_frame   0x000003d0       0xa4 c:/devkitPro/PAlib/lib\libpa9.a(PA_BgEasy.o)
 .debug_frame   0x00000474      0x18c c:/devkitPro/PAlib/lib\libpa9.a(PA_BgLargeMap.o)
 .debug_frame   0x00000600      0x124 c:/devkitPro/PAlib/lib\libpa9.a(PA_BgTiles.o)
 .debug_frame   0x00000724       0x48 c:/devkitPro/PAlib/lib\libpa9.a(PA_Error.o)
 .debug_frame   0x0000076c       0x54 c:/devkitPro/PAlib/lib\libpa9.a(PA_Inits.o)
 .debug_frame   0x000007c0       0x44 c:/devkitPro/PAlib/lib\libpa9.a(PA_Interrupt.o)
 .debug_frame   0x00000804       0x5c c:/devkitPro/PAlib/lib\libpa9.a(PA_Keys.o)
 .debug_frame   0x00000860       0x3c c:/devkitPro/PAlib/lib\libpa9.a(PA_Math.o)
 .debug_frame   0x0000089c       0x70 c:/devkitPro/PAlib/lib\libpa9.a(PA_Palette.o)
 .debug_frame   0x0000090c       0x44 c:/devkitPro/PAlib/lib\libpa9.a(PA_RTC.o)
 .debug_frame   0x00000950       0x84 c:/devkitPro/PAlib/lib\libpa9.a(PA_Reco.o)
 .debug_frame   0x000009d4      0x144 c:/devkitPro/PAlib/lib\libpa9.a(PA_Sprite.o)
 .debug_frame   0x00000b18       0x68 c:/devkitPro/PAlib/lib\libpa9.a(PA_SpriteAnim.o)
 .debug_frame   0x00000b80       0x54 c:/devkitPro/PAlib/lib\libpa9.a(PA_Stuff.o)
 .debug_frame   0x00000bd4       0xe0 c:/devkitPro/PAlib/lib\libpa9.a(PA_Text.o)
 .debug_frame   0x00000cb4       0x64 c:/devkitPro/PAlib/lib\libpa9.a(PA_TextBits.o)
 .debug_frame   0x00000d18      0x174 c:/devkitPro/PAlib/lib\libpa9.a(as_lib9.o)
 .debug_frame   0x00000e8c       0x44 c:/devkitPro/PAlib/lib\libpa9.a(PA_Fifo.o)
 .debug_frame   0x00000ed0       0xc8 c:/devkitPro/PAlib/lib\libpa9.a(PA_NewBg.o)
 .debug_frame   0x00000f98       0xa8 c:/devkitPro/PAlib/lib\libpa9.a(PA_PaletteEx.o)
 .debug_frame   0x00001040      0x150 c:/devkitPro/PAlib/lib\libpa9.a(PA_Text8bit.o)
 .debug_frame   0x00001190       0xe8 c:/devkitPro/PAlib/lib\libpa9.a(PA_16c.o)
 .debug_frame   0x00001278       0x3c c:/devkitPro/PAlib/lib\libpa9.a(PA_BgRot.o)
 .debug_frame   0x000012b4       0x3c c:/devkitPro/PAlib/lib\libpa9.a(PA_Draw.o)
 .debug_frame   0x000012f0       0xe0 c:/devkitPro/PAlib/lib\libpa9.a(PA_Keyboard.o)
 .debug_frame   0x000013d0       0x8c c:/devkitPro/libnds/lib\libnds9.a(keys.o)
 .debug_frame   0x0000145c       0xbc c:/devkitPro/libnds/lib\libnds9.a(system.o)
 .debug_frame   0x00001518       0x44 c:/devkitPro/libnds/lib\libnds9.a(touch.o)
 .debug_frame   0x0000155c       0x64 c:/devkitPro/libnds/lib\libnds9.a(video.o)
 .debug_frame   0x000015c0       0x28 c:/devkitPro/libnds/lib\libnds9.a(initSystem.o)
 .debug_frame   0x000015e8      0x2b4 c:/devkitPro/libnds/lib\libnds9.a(fifosystem.o)
 .debug_frame   0x0000189c       0xb4 c:/devkitPro/libnds/lib\libnds9.a(interrupts.o)
 .debug_frame   0x00001950       0x38 c:/devkitPro/libnds/lib\libnds9.a(libnds_exit.o)

.debug_str      0x00000000     0x4dbd load address 0x020943a8
 *(.debug_str)
 .debug_str     0x00000000     0x1358 main.o
                               0x1501 (size before relaxing)
 .debug_str     0x00001358      0x404 c:/devkitPro/PAlib/lib\libpa9.a(PA.o)
                               0x1156 (size before relaxing)
 .debug_str     0x0000175c       0x9e c:/devkitPro/PAlib/lib\libpa9.a(PA_BgEasy.o)
                                0xd74 (size before relaxing)
 .debug_str     0x000017fa      0x181 c:/devkitPro/PAlib/lib\libpa9.a(PA_BgLargeMap.o)
                                0xe09 (size before relaxing)
 .debug_str     0x0000197b      0x145 c:/devkitPro/PAlib/lib\libpa9.a(PA_BgTiles.o)
                                0xfe6 (size before relaxing)
 .debug_str     0x00001ac0       0x5d c:/devkitPro/PAlib/lib\libpa9.a(PA_Error.o)
                                0xcb5 (size before relaxing)
 .debug_str     0x00001b1d      0x891 c:/devkitPro/PAlib/lib\libpa9.a(PA_Inits.o)
                               0x1707 (size before relaxing)
 .debug_str     0x000023ae       0x63 c:/devkitPro/PAlib/lib\libpa9.a(PA_Interrupt.o)
                                0xdf9 (size before relaxing)
 .debug_str     0x00002411       0x7f c:/devkitPro/PAlib/lib\libpa9.a(PA_Keys.o)
                                0xe45 (size before relaxing)
 .debug_str     0x00002490       0x8f c:/devkitPro/PAlib/lib\libpa9.a(PA_Math.o)
                                0xda7 (size before relaxing)
 .debug_str     0x0000251f      0x359 c:/devkitPro/PAlib/lib\libpa9.a(PA_Palette.o)
                               0x10d0 (size before relaxing)
 .debug_str     0x00002878      0x1c7 c:/devkitPro/PAlib/lib\libpa9.a(PA_RTC.o)
                                0xf4f (size before relaxing)
 .debug_str     0x00002a3f      0x159 c:/devkitPro/PAlib/lib\libpa9.a(PA_Reco.o)
                                0xea8 (size before relaxing)
 .debug_str     0x00002b98      0x1b9 c:/devkitPro/PAlib/lib\libpa9.a(PA_Sprite.o)
                                0xfdb (size before relaxing)
 .debug_str     0x00002d51       0x6e c:/devkitPro/PAlib/lib\libpa9.a(PA_SpriteAnim.o)
                                0xd5b (size before relaxing)
 .debug_str     0x00002dbf      0x181 c:/devkitPro/PAlib/lib\libpa9.a(PA_Stuff.o)
                                0xe11 (size before relaxing)
 .debug_str     0x00002f40      0x137 c:/devkitPro/PAlib/lib\libpa9.a(PA_Text.o)
                                0xf3f (size before relaxing)
 .debug_str     0x00003077      0x1e6 c:/devkitPro/PAlib/lib\libpa9.a(PA_TextBits.o)
                                0xf39 (size before relaxing)
 .debug_str     0x0000325d      0x3d6 c:/devkitPro/PAlib/lib\libpa9.a(as_lib9.o)
                                0xba1 (size before relaxing)
 .debug_str     0x00003633       0xa3 c:/devkitPro/PAlib/lib\libpa9.a(PA_TiledFont.o)
                                0x16f (size before relaxing)
 .debug_str     0x000036d6       0x43 c:/devkitPro/PAlib/lib\libpa9.a(PA_BmpFont0.o)
                                0x16d (size before relaxing)
 .debug_str     0x00003719       0x43 c:/devkitPro/PAlib/lib\libpa9.a(PA_BmpFont1.o)
                                0x16d (size before relaxing)
 .debug_str     0x0000375c       0x43 c:/devkitPro/PAlib/lib\libpa9.a(PA_BmpFont2.o)
                                0x16d (size before relaxing)
 .debug_str     0x0000379f       0x43 c:/devkitPro/PAlib/lib\libpa9.a(PA_BmpFont3.o)
                                0x16d (size before relaxing)
 .debug_str     0x000037e2       0x43 c:/devkitPro/PAlib/lib\libpa9.a(PA_BmpFont4.o)
                                0x16d (size before relaxing)
 .debug_str     0x00003825       0xd3 c:/devkitPro/PAlib/lib\libpa9.a(PA_Fifo.o)
                                0xe45 (size before relaxing)
 .debug_str     0x000038f8      0x101 c:/devkitPro/PAlib/lib\libpa9.a(PA_NewBg.o)
                                0xeee (size before relaxing)
 .debug_str     0x000039f9      0x26f c:/devkitPro/PAlib/lib\libpa9.a(PA_PaletteEx.o)
                               0x11b1 (size before relaxing)
 .debug_str     0x00003c68      0x119 c:/devkitPro/PAlib/lib\libpa9.a(PA_Text8bit.o)
                                0xf2f (size before relaxing)
 .debug_str     0x00003d81       0xe1 c:/devkitPro/PAlib/lib\libpa9.a(PA_16c.o)
                                0xf67 (size before relaxing)
 .debug_str     0x00003e62       0x59 c:/devkitPro/PAlib/lib\libpa9.a(PA_BgRot.o)
                                0xdd6 (size before relaxing)
 .debug_str     0x00003ebb      0x15f c:/devkitPro/PAlib/lib\libpa9.a(PA_Draw.o)
                                0xe94 (size before relaxing)
 .debug_str     0x0000401a      0x115 c:/devkitPro/PAlib/lib\libpa9.a(PA_Keyboard.o)
                                0xeba (size before relaxing)
 .debug_str     0x0000412f       0x35 c:/devkitPro/PAlib/lib\libpa9.a(keyboard.map.o)
                                 0x61 (size before relaxing)
 .debug_str     0x00004164       0x35 c:/devkitPro/PAlib/lib\libpa9.a(keyboard.pal.o)
                                 0x65 (size before relaxing)
 .debug_str     0x00004199       0x35 c:/devkitPro/PAlib/lib\libpa9.a(keyboard.raw.o)
                                 0x5e (size before relaxing)
 .debug_str     0x000041ce      0x16a c:/devkitPro/libnds/lib\libnds9.a(keys.o)
                                0x2da (size before relaxing)
 .debug_str     0x00004338      0x1d4 c:/devkitPro/libnds/lib\libnds9.a(system.o)
                                0x4c5 (size before relaxing)
 .debug_str     0x0000450c       0x70 c:/devkitPro/libnds/lib\libnds9.a(touch.o)
                                0x1f6 (size before relaxing)
 .debug_str     0x0000457c       0xca c:/devkitPro/libnds/lib\libnds9.a(video.o)
                                0x668 (size before relaxing)
 .debug_str     0x00004646       0xa9 c:/devkitPro/libnds/lib\libnds9.a(initSystem.o)
                                0x882 (size before relaxing)
 .debug_str     0x000046ef      0x51d c:/devkitPro/libnds/lib\libnds9.a(fifosystem.o)
                                0x74a (size before relaxing)
 .debug_str     0x00004c0c      0x12b c:/devkitPro/libnds/lib\libnds9.a(interrupts.o)
                                0x348 (size before relaxing)
 .debug_str     0x00004d37       0x86 c:/devkitPro/libnds/lib\libnds9.a(libnds_exit.o)
                                0x296 (size before relaxing)

.debug_loc      0x00000000    0x15cd5 load address 0x020943a8
 *(.debug_loc)
 .debug_loc     0x00000000     0xac95 main.o
 .debug_loc     0x0000ac95       0xa0 c:/devkitPro/PAlib/lib\libpa9.a(PA.o)
 .debug_loc     0x0000ad35      0x57d c:/devkitPro/PAlib/lib\libpa9.a(PA_BgEasy.o)
 .debug_loc     0x0000b2b2     0x1617 c:/devkitPro/PAlib/lib\libpa9.a(PA_BgLargeMap.o)
 .debug_loc     0x0000c8c9      0x88e c:/devkitPro/PAlib/lib\libpa9.a(PA_BgTiles.o)
 .debug_loc     0x0000d157       0xe2 c:/devkitPro/PAlib/lib\libpa9.a(PA_Error.o)
 .debug_loc     0x0000d239      0x17d c:/devkitPro/PAlib/lib\libpa9.a(PA_Inits.o)
 .debug_loc     0x0000d3b6       0x68 c:/devkitPro/PAlib/lib\libpa9.a(PA_Interrupt.o)
 .debug_loc     0x0000d41e       0xb3 c:/devkitPro/PAlib/lib\libpa9.a(PA_Keys.o)
 .debug_loc     0x0000d4d1      0x2f0 c:/devkitPro/PAlib/lib\libpa9.a(PA_Math.o)
 .debug_loc     0x0000d7c1      0x3cd c:/devkitPro/PAlib/lib\libpa9.a(PA_Palette.o)
 .debug_loc     0x0000db8e       0xa1 c:/devkitPro/PAlib/lib\libpa9.a(PA_RTC.o)
 .debug_loc     0x0000dc2f      0x896 c:/devkitPro/PAlib/lib\libpa9.a(PA_Reco.o)
 .debug_loc     0x0000e4c5      0x87a c:/devkitPro/PAlib/lib\libpa9.a(PA_Sprite.o)
 .debug_loc     0x0000ed3f      0x346 c:/devkitPro/PAlib/lib\libpa9.a(PA_SpriteAnim.o)
 .debug_loc     0x0000f085      0x150 c:/devkitPro/PAlib/lib\libpa9.a(PA_Stuff.o)
 .debug_loc     0x0000f1d5      0xaea c:/devkitPro/PAlib/lib\libpa9.a(PA_Text.o)
 .debug_loc     0x0000fcbf      0x739 c:/devkitPro/PAlib/lib\libpa9.a(PA_TextBits.o)
 .debug_loc     0x000103f8      0x55c c:/devkitPro/PAlib/lib\libpa9.a(as_lib9.o)
 .debug_loc     0x00010954       0x7d c:/devkitPro/PAlib/lib\libpa9.a(PA_Fifo.o)
 .debug_loc     0x000109d1      0x922 c:/devkitPro/PAlib/lib\libpa9.a(PA_NewBg.o)
 .debug_loc     0x000112f3      0x2fe c:/devkitPro/PAlib/lib\libpa9.a(PA_PaletteEx.o)
 .debug_loc     0x000115f1     0x1c67 c:/devkitPro/PAlib/lib\libpa9.a(PA_Text8bit.o)
 .debug_loc     0x00013258      0x7c6 c:/devkitPro/PAlib/lib\libpa9.a(PA_16c.o)
 .debug_loc     0x00013a1e      0x223 c:/devkitPro/PAlib/lib\libpa9.a(PA_BgRot.o)
 .debug_loc     0x00013c41      0x3e6 c:/devkitPro/PAlib/lib\libpa9.a(PA_Draw.o)
 .debug_loc     0x00014027      0x5f3 c:/devkitPro/PAlib/lib\libpa9.a(PA_Keyboard.o)
 .debug_loc     0x0001461a       0x20 c:/devkitPro/libnds/lib\libnds9.a(keys.o)
 .debug_loc     0x0001463a      0x1ba c:/devkitPro/libnds/lib\libnds9.a(system.o)
 .debug_loc     0x000147f4       0x40 c:/devkitPro/libnds/lib\libnds9.a(touch.o)
 .debug_loc     0x00014834       0xfd c:/devkitPro/libnds/lib\libnds9.a(video.o)
 .debug_loc     0x00014931       0x64 c:/devkitPro/libnds/lib\libnds9.a(initSystem.o)
 .debug_loc     0x00014995     0x1140 c:/devkitPro/libnds/lib\libnds9.a(fifosystem.o)
 .debug_loc     0x00015ad5      0x1a4 c:/devkitPro/libnds/lib\libnds9.a(interrupts.o)
 .debug_loc     0x00015c79       0x5c c:/devkitPro/libnds/lib\libnds9.a(libnds_exit.o)

.debug_macinfo
 *(.debug_macinfo)

.debug_weaknames
 *(.debug_weaknames)

.debug_funcnames
 *(.debug_funcnames)

.debug_typenames
 *(.debug_typenames)

.debug_varnames
 *(.debug_varnames)

.stack          0x00080000        0x0 load address 0x020943a8
                0x00080000                _stack = .
 *(.stack)
LOAD c:/devkitpro/devkitarm/bin/../lib/gcc/arm-eabi/4.5.1/../../../../arm-eabi/lib/thumb/ds_arm9_crt0.o
LOAD c:/devkitpro/devkitarm/bin/../lib/gcc/arm-eabi/4.5.1/thumb/crti.o
LOAD c:/devkitpro/devkitarm/bin/../lib/gcc/arm-eabi/4.5.1/thumb/crtbegin.o
LOAD Startup.o
LOAD trapcard.o
LOAD main.o
LOAD c:/devkitPro/PAlib/lib\libpa9.a
LOAD c:/devkitPro/libnds/lib\libfilesystem.a
LOAD c:/devkitPro/libnds/lib\libfat.a
LOAD c:/devkitPro/libnds/lib\libnds9.a
START GROUP
LOAD c:/devkitpro/devkitarm/bin/../lib/gcc/arm-eabi/4.5.1/thumb\libgcc.a
LOAD c:/devkitpro/devkitarm/bin/../lib/gcc/arm-eabi/4.5.1/../../../../arm-eabi/lib/thumb\libg.a
LOAD c:/devkitpro/devkitarm/bin/../lib/gcc/arm-eabi/4.5.1/../../../../arm-eabi/lib/thumb\libc.a
LOAD c:/devkitpro/devkitarm/bin/../lib/gcc/arm-eabi/4.5.1/../../../../arm-eabi/lib/thumb\libsysbase.a
END GROUP
LOAD c:/devkitpro/devkitarm/bin/../lib/gcc/arm-eabi/4.5.1/thumb/crtend.o
LOAD c:/devkitpro/devkitarm/bin/../lib/gcc/arm-eabi/4.5.1/thumb/crtn.o
OUTPUT(build.elf elf32-littlearm)

.debug_pubtypes
                0x00000000     0x5f13 load address 0x020943a8
 .debug_pubtypes
                0x00000000      0x36b main.o
 .debug_pubtypes
                0x0000036b      0x382 c:/devkitPro/PAlib/lib\libpa9.a(PA.o)
 .debug_pubtypes
                0x000006ed      0x311 c:/devkitPro/PAlib/lib\libpa9.a(PA_BgEasy.o)
 .debug_pubtypes
                0x000009fe      0x311 c:/devkitPro/PAlib/lib\libpa9.a(PA_BgLargeMap.o)
 .debug_pubtypes
                0x00000d0f      0x33f c:/devkitPro/PAlib/lib\libpa9.a(PA_BgTiles.o)
 .debug_pubtypes
                0x0000104e      0x308 c:/devkitPro/PAlib/lib\libpa9.a(PA_Error.o)
 .debug_pubtypes
                0x00001356      0x343 c:/devkitPro/PAlib/lib\libpa9.a(PA_Inits.o)
 .debug_pubtypes
                0x00001699      0x327 c:/devkitPro/PAlib/lib\libpa9.a(PA_Interrupt.o)
 .debug_pubtypes
                0x000019c0      0x350 c:/devkitPro/PAlib/lib\libpa9.a(PA_Keys.o)
 .debug_pubtypes
                0x00001d10      0x331 c:/devkitPro/PAlib/lib\libpa9.a(PA_Math.o)
 .debug_pubtypes
                0x00002041      0x365 c:/devkitPro/PAlib/lib\libpa9.a(PA_Palette.o)
 .debug_pubtypes
                0x000023a6      0x349 c:/devkitPro/PAlib/lib\libpa9.a(PA_RTC.o)
 .debug_pubtypes
                0x000026ef      0x341 c:/devkitPro/PAlib/lib\libpa9.a(PA_Reco.o)
 .debug_pubtypes
                0x00002a30      0x33d c:/devkitPro/PAlib/lib\libpa9.a(PA_Sprite.o)
 .debug_pubtypes
                0x00002d6d      0x31b c:/devkitPro/PAlib/lib\libpa9.a(PA_SpriteAnim.o)
 .debug_pubtypes
                0x00003088      0x3bd c:/devkitPro/PAlib/lib\libpa9.a(PA_Stuff.o)
 .debug_pubtypes
                0x00003445      0x359 c:/devkitPro/PAlib/lib\libpa9.a(PA_Text.o)
 .debug_pubtypes
                0x0000379e      0x316 c:/devkitPro/PAlib/lib\libpa9.a(PA_TextBits.o)
 .debug_pubtypes
                0x00003ab4      0x245 c:/devkitPro/PAlib/lib\libpa9.a(as_lib9.o)
 .debug_pubtypes
                0x00003cf9       0x2d c:/devkitPro/PAlib/lib\libpa9.a(PA_TiledFont.o)
 .debug_pubtypes
                0x00003d26       0x2d c:/devkitPro/PAlib/lib\libpa9.a(PA_BmpFont0.o)
 .debug_pubtypes
                0x00003d53       0x2d c:/devkitPro/PAlib/lib\libpa9.a(PA_BmpFont1.o)
 .debug_pubtypes
                0x00003d80       0x2d c:/devkitPro/PAlib/lib\libpa9.a(PA_BmpFont2.o)
 .debug_pubtypes
                0x00003dad       0x2d c:/devkitPro/PAlib/lib\libpa9.a(PA_BmpFont3.o)
 .debug_pubtypes
                0x00003dda       0x2d c:/devkitPro/PAlib/lib\libpa9.a(PA_BmpFont4.o)
 .debug_pubtypes
                0x00003e07      0x32d c:/devkitPro/PAlib/lib\libpa9.a(PA_Fifo.o)
 .debug_pubtypes
                0x00004134      0x341 c:/devkitPro/PAlib/lib\libpa9.a(PA_NewBg.o)
 .debug_pubtypes
                0x00004475      0x360 c:/devkitPro/PAlib/lib\libpa9.a(PA_PaletteEx.o)
 .debug_pubtypes
                0x000047d5      0x323 c:/devkitPro/PAlib/lib\libpa9.a(PA_Text8bit.o)
 .debug_pubtypes
                0x00004af8      0x32b c:/devkitPro/PAlib/lib\libpa9.a(PA_16c.o)
 .debug_pubtypes
                0x00004e23      0x314 c:/devkitPro/PAlib/lib\libpa9.a(PA_BgRot.o)
 .debug_pubtypes
                0x00005137      0x327 c:/devkitPro/PAlib/lib\libpa9.a(PA_Draw.o)
 .debug_pubtypes
                0x0000545e      0x31d c:/devkitPro/PAlib/lib\libpa9.a(PA_Keyboard.o)
 .debug_pubtypes
                0x0000577b       0xdd c:/devkitPro/libnds/lib\libnds9.a(keys.o)
 .debug_pubtypes
                0x00005858      0x109 c:/devkitPro/libnds/lib\libnds9.a(system.o)
 .debug_pubtypes
                0x00005961       0xc4 c:/devkitPro/libnds/lib\libnds9.a(touch.o)
 .debug_pubtypes
                0x00005a25       0xb4 c:/devkitPro/libnds/lib\libnds9.a(video.o)
 .debug_pubtypes
                0x00005ad9      0x1df c:/devkitPro/libnds/lib\libnds9.a(initSystem.o)
 .debug_pubtypes
                0x00005cb8      0x126 c:/devkitPro/libnds/lib\libnds9.a(fifosystem.o)
 .debug_pubtypes
                0x00005dde       0xaa c:/devkitPro/libnds/lib\libnds9.a(interrupts.o)
 .debug_pubtypes
                0x00005e88       0x8b c:/devkitPro/libnds/lib\libnds9.a(libnds_exit.o)

.debug_ranges   0x00000000     0x4ce0 load address 0x020943a8
 .debug_ranges  0x00000000     0x2738 main.o
 .debug_ranges  0x00002738      0x108 c:/devkitPro/PAlib/lib\libpa9.a(PA_BgEasy.o)
 .debug_ranges  0x00002840      0x750 c:/devkitPro/PAlib/lib\libpa9.a(PA_BgLargeMap.o)
 .debug_ranges  0x00002f90      0x100 c:/devkitPro/PAlib/lib\libpa9.a(PA_BgTiles.o)
 .debug_ranges  0x00003090       0xd8 c:/devkitPro/PAlib/lib\libpa9.a(PA_Inits.o)
 .debug_ranges  0x00003168      0x120 c:/devkitPro/PAlib/lib\libpa9.a(PA_Math.o)
 .debug_ranges  0x00003288       0xd0 c:/devkitPro/PAlib/lib\libpa9.a(PA_Palette.o)
 .debug_ranges  0x00003358       0xc0 c:/devkitPro/PAlib/lib\libpa9.a(PA_Reco.o)
 .debug_ranges  0x00003418      0x148 c:/devkitPro/PAlib/lib\libpa9.a(PA_Sprite.o)
 .debug_ranges  0x00003560      0x140 c:/devkitPro/PAlib/lib\libpa9.a(PA_SpriteAnim.o)
 .debug_ranges  0x000036a0       0x48 c:/devkitPro/PAlib/lib\libpa9.a(PA_Text.o)
 .debug_ranges  0x000036e8       0x28 c:/devkitPro/PAlib/lib\libpa9.a(PA_TextBits.o)
 .debug_ranges  0x00003710       0x60 c:/devkitPro/PAlib/lib\libpa9.a(as_lib9.o)
 .debug_ranges  0x00003770      0x250 c:/devkitPro/PAlib/lib\libpa9.a(PA_NewBg.o)
 .debug_ranges  0x000039c0       0x78 c:/devkitPro/PAlib/lib\libpa9.a(PA_PaletteEx.o)
 .debug_ranges  0x00003a38      0xce0 c:/devkitPro/PAlib/lib\libpa9.a(PA_Text8bit.o)
 .debug_ranges  0x00004718       0x58 c:/devkitPro/PAlib/lib\libpa9.a(PA_16c.o)
 .debug_ranges  0x00004770       0x20 c:/devkitPro/PAlib/lib\libpa9.a(PA_BgRot.o)
 .debug_ranges  0x00004790       0x28 c:/devkitPro/PAlib/lib\libpa9.a(PA_Draw.o)
 .debug_ranges  0x000047b8      0x168 c:/devkitPro/PAlib/lib\libpa9.a(PA_Keyboard.o)
 .debug_ranges  0x00004920       0x18 c:/devkitPro/libnds/lib\libnds9.a(touch.o)
 .debug_ranges  0x00004938      0x378 c:/devkitPro/libnds/lib\libnds9.a(fifosystem.o)
 .debug_ranges  0x00004cb0       0x30 c:/devkitPro/libnds/lib\libnds9.a(interrupts.o)
