Archive member included because of file (symbol)

c:/ndsdev/devkitPro/PAlib/lib\libpa9.a(PA.o)
                              FileManage.o (PA_CheckLid)
c:/ndsdev/devkitPro/PAlib/lib\libpa9.a(PA_BgTiles.o)
                              FileManage.o (PA_BgInfo)
c:/ndsdev/devkitPro/PAlib/lib\libpa9.a(PA_Error.o)
                              c:/ndsdev/devkitPro/PAlib/lib\libpa9.a(PA_BgTiles.o) (PA_Error)
c:/ndsdev/devkitPro/PAlib/lib\libpa9.a(PA_Inits.o)
                              c:/ndsdev/devkitPro/PAlib/lib\libpa9.a(PA_Error.o) (PA_Init2D)
c:/ndsdev/devkitPro/PAlib/lib\libpa9.a(PA_Interrupt.o)
                              c:/ndsdev/devkitPro/PAlib/lib\libpa9.a(PA_Inits.o) (PA_VBLCountersReset)
c:/ndsdev/devkitPro/PAlib/lib\libpa9.a(PA_Keyboard.o)
                              FileManage.o (PA_Keyboard_Struct)
c:/ndsdev/devkitPro/PAlib/lib\libpa9.a(PA_Keys.o)
                              c:/ndsdev/devkitPro/PAlib/lib\libpa9.a(PA_Interrupt.o) (PA_UpdatePad)
c:/ndsdev/devkitPro/PAlib/lib\libpa9.a(PA_Math.o)
                              c:/ndsdev/devkitPro/PAlib/lib\libpa9.a(PA_Inits.o) (RandomValue)
c:/ndsdev/devkitPro/PAlib/lib\libpa9.a(PA_NewBg.o)
                              Graphic.o (PA_LoadBackground)
c:/ndsdev/devkitPro/PAlib/lib\libpa9.a(PA_Palette.o)
                              Graphic.o (PA_LoadSpriteExtPal)
c:/ndsdev/devkitPro/PAlib/lib\libpa9.a(PA_RTC.o)
                              c:/ndsdev/devkitPro/PAlib/lib\libpa9.a(PA_Inits.o) (PA_UpdateUserInfo)
c:/ndsdev/devkitPro/PAlib/lib\libpa9.a(PA_Reco.o)
                              c:/ndsdev/devkitPro/PAlib/lib\libpa9.a(PA_Inits.o) (PA_UseGraffiti)
c:/ndsdev/devkitPro/PAlib/lib\libpa9.a(PA_Sprite.o)
                              Graphic.o (PA_ResetSpriteSysScreen)
c:/ndsdev/devkitPro/PAlib/lib\libpa9.a(PA_Stuff.o)
                              c:/ndsdev/devkitPro/PAlib/lib\libpa9.a(PA_BgTiles.o) (PA_SetVideoMode)
c:/ndsdev/devkitPro/PAlib/lib\libpa9.a(PA_Text.o)
                              c:/ndsdev/devkitPro/PAlib/lib\libpa9.a(PA_Inits.o) (PA_textpal)
c:/ndsdev/devkitPro/PAlib/lib\libpa9.a(PA_Text8bit.o)
                              c:/ndsdev/devkitPro/PAlib/lib\libpa9.a(PA_NewBg.o) (bit8_tiles)
c:/ndsdev/devkitPro/PAlib/lib\libpa9.a(PA_TextBits.o)
                              c:/ndsdev/devkitPro/PAlib/lib\libpa9.a(PA_Text8bit.o) (PA_LetterPos)
c:/ndsdev/devkitPro/PAlib/lib\libpa9.a(PA_TextSpecial.o)
                              FileManage.o (PA_BoxText)
c:/ndsdev/devkitPro/PAlib/lib\libpa9.a(PA_Wifi.o)
                              wifi.o (PA_InitServer)
c:/ndsdev/devkitPro/PAlib/lib\libpa9.a(keyboard.map.o)
                              c:/ndsdev/devkitPro/PAlib/lib\libpa9.a(PA_Keyboard.o) (keyboard_Map)
c:/ndsdev/devkitPro/PAlib/lib\libpa9.a(keyboard.pal.o)
                              c:/ndsdev/devkitPro/PAlib/lib\libpa9.a(PA_Keyboard.o) (keyboard_Palette)
c:/ndsdev/devkitPro/PAlib/lib\libpa9.a(keyboard.raw.o)
                              c:/ndsdev/devkitPro/PAlib/lib\libpa9.a(PA_Keyboard.o) (keyboard_Tiles)
c:/ndsdev/devkitPro/PAlib/lib\libpa9.a(PA_TiledFont.o)
                              c:/ndsdev/devkitPro/PAlib/lib\libpa9.a(PA_Text.o) (PA_TiledFont)
c:/ndsdev/devkitPro/PAlib/lib\libpa9.a(PA_BmpFont0.o)
                              c:/ndsdev/devkitPro/PAlib/lib\libpa9.a(PA_Inits.o) (PA_BmpFont0)
c:/ndsdev/devkitPro/PAlib/lib\libpa9.a(PA_BmpFont1.o)
                              c:/ndsdev/devkitPro/PAlib/lib\libpa9.a(PA_Inits.o) (PA_BmpFont1)
c:/ndsdev/devkitPro/PAlib/lib\libpa9.a(PA_BmpFont2.o)
                              c:/ndsdev/devkitPro/PAlib/lib\libpa9.a(PA_Inits.o) (PA_BmpFont2)
c:/ndsdev/devkitPro/PAlib/lib\libpa9.a(PA_BmpFont3.o)
                              c:/ndsdev/devkitPro/PAlib/lib\libpa9.a(PA_Inits.o) (PA_BmpFont3)
c:/ndsdev/devkitPro/PAlib/lib\libpa9.a(PA_BmpFont4.o)
                              c:/ndsdev/devkitPro/PAlib/lib\libpa9.a(PA_Inits.o) (PA_BmpFont4)
c:/ndsdev/devkitPro/PAlib/lib\libpa9.a(PA_TiledFont_Map.bin.o)
                              c:/ndsdev/devkitPro/PAlib/lib\libpa9.a(PA_Inits.o) (PA_TiledFont_Map)
c:/ndsdev/devkitPro/PAlib/lib\libpa9.a(PA_TiledFont_Pal.bin.o)
                              c:/ndsdev/devkitPro/PAlib/lib\libpa9.a(PA_Inits.o) (PA_TiledFont_Pal)
c:/ndsdev/devkitPro/PAlib/lib\libpa9.a(PA_TiledFont_Tiles.bin.o)
                              c:/ndsdev/devkitPro/PAlib/lib\libpa9.a(PA_Inits.o) (PA_TiledFont_Tiles)
c:/ndsdev/devkitPro/PAlib/lib\libpa9.a(PA_BmpFont0_Map.bin.o)
                              c:/ndsdev/devkitPro/PAlib/lib\libpa9.a(PA_TextBits.o) (PA_BmpFont0_Map)
c:/ndsdev/devkitPro/PAlib/lib\libpa9.a(PA_BmpFont0_Sizes.bin.o)
                              c:/ndsdev/devkitPro/PAlib/lib\libpa9.a(PA_TextBits.o) (PA_BmpFont0_Sizes)
c:/ndsdev/devkitPro/PAlib/lib\libpa9.a(PA_BmpFont0_Tiles.bin.o)
                              c:/ndsdev/devkitPro/PAlib/lib\libpa9.a(PA_Inits.o) (PA_BmpFont0_Tiles_size)
c:/ndsdev/devkitPro/PAlib/lib\libpa9.a(PA_BmpFont1_Map.bin.o)
                              c:/ndsdev/devkitPro/PAlib/lib\libpa9.a(PA_TextBits.o) (PA_BmpFont1_Map)
c:/ndsdev/devkitPro/PAlib/lib\libpa9.a(PA_BmpFont1_Sizes.bin.o)
                              c:/ndsdev/devkitPro/PAlib/lib\libpa9.a(PA_TextBits.o) (PA_BmpFont1_Sizes)
c:/ndsdev/devkitPro/PAlib/lib\libpa9.a(PA_BmpFont1_Tiles.bin.o)
                              c:/ndsdev/devkitPro/PAlib/lib\libpa9.a(PA_Inits.o) (PA_BmpFont1_Tiles_size)
c:/ndsdev/devkitPro/PAlib/lib\libpa9.a(PA_BmpFont2_Map.bin.o)
                              c:/ndsdev/devkitPro/PAlib/lib\libpa9.a(PA_TextBits.o) (PA_BmpFont2_Map)
c:/ndsdev/devkitPro/PAlib/lib\libpa9.a(PA_BmpFont2_Sizes.bin.o)
                              c:/ndsdev/devkitPro/PAlib/lib\libpa9.a(PA_TextBits.o) (PA_BmpFont2_Sizes)
c:/ndsdev/devkitPro/PAlib/lib\libpa9.a(PA_BmpFont2_Tiles.bin.o)
                              c:/ndsdev/devkitPro/PAlib/lib\libpa9.a(PA_Inits.o) (PA_BmpFont2_Tiles_size)
c:/ndsdev/devkitPro/PAlib/lib\libpa9.a(PA_BmpFont3_Map.bin.o)
                              c:/ndsdev/devkitPro/PAlib/lib\libpa9.a(PA_TextBits.o) (PA_BmpFont3_Map)
c:/ndsdev/devkitPro/PAlib/lib\libpa9.a(PA_BmpFont3_Sizes.bin.o)
                              c:/ndsdev/devkitPro/PAlib/lib\libpa9.a(PA_TextBits.o) (PA_BmpFont3_Sizes)
c:/ndsdev/devkitPro/PAlib/lib\libpa9.a(PA_BmpFont3_Tiles.bin.o)
                              c:/ndsdev/devkitPro/PAlib/lib\libpa9.a(PA_Inits.o) (PA_BmpFont3_Tiles_size)
c:/ndsdev/devkitPro/PAlib/lib\libpa9.a(PA_BmpFont4_Map.bin.o)
                              c:/ndsdev/devkitPro/PAlib/lib\libpa9.a(PA_TextBits.o) (PA_BmpFont4_Map)
c:/ndsdev/devkitPro/PAlib/lib\libpa9.a(PA_BmpFont4_Sizes.bin.o)
                              c:/ndsdev/devkitPro/PAlib/lib\libpa9.a(PA_TextBits.o) (PA_BmpFont4_Sizes)
c:/ndsdev/devkitPro/PAlib/lib\libpa9.a(PA_BmpFont4_Tiles.bin.o)
                              c:/ndsdev/devkitPro/PAlib/lib\libpa9.a(PA_Inits.o) (PA_BmpFont4_Tiles_size)
c:/ndsdev/devkitPro/PAlib/lib\libpa9.a(PA_16c.o)
                              c:/ndsdev/devkitPro/PAlib/lib\libpa9.a(PA_NewBg.o) (c16_tiles)
c:/ndsdev/devkitPro/PAlib/lib\libpa9.a(PA_BgEasy.o)
                              c:/ndsdev/devkitPro/PAlib/lib\libpa9.a(PA_NewBg.o) (PA_StoreEasyBgInfos)
c:/ndsdev/devkitPro/PAlib/lib\libpa9.a(PA_BgLargeMap.o)
                              c:/ndsdev/devkitPro/PAlib/lib\libpa9.a(PA_BgEasy.o) (PA_InfLargeScrollXN)
c:/ndsdev/devkitPro/PAlib/lib\libpa9.a(PA_BgRot.o)
                              c:/ndsdev/devkitPro/PAlib/lib\libpa9.a(PA_NewBg.o) (PA_LoadRotBgMap)
c:/ndsdev/devkitPro/PAlib/lib\libpa9.a(PA_Draw.o)
                              c:/ndsdev/devkitPro/PAlib/lib\libpa9.a(PA_Text8bit.o) (PA_DrawBg)
c:/ndsdev/devkitPro/PAlib/lib\libpa9.a(PA_Fifo.o)
                              c:/ndsdev/devkitPro/PAlib/lib\libpa9.a(PA_Inits.o) (PA_InitFifo)
c:/ndsdev/devkitPro/PAlib/lib\libpa9.a(PA_PaletteEx.o)
                              c:/ndsdev/devkitPro/PAlib/lib\libpa9.a(PA_Text.o) (PA_SetBgPalNCol)
c:/ndsdev/devkitPro/libnds/lib\libfat.a(libfat.o)
                              Main.o (fatInitDefault)
c:/ndsdev/devkitPro/libnds/lib\libfat.a(partition.o)
                              c:/ndsdev/devkitPro/libnds/lib\libfat.a(libfat.o) (_FAT_partition_constructor)
c:/ndsdev/devkitPro/libnds/lib\libfat.a(cache.o)
                              c:/ndsdev/devkitPro/libnds/lib\libfat.a(partition.o) (_FAT_cache_constructor)
c:/ndsdev/devkitPro/libnds/lib\libfat.a(directory.o)
                              c:/ndsdev/devkitPro/libnds/lib\libfat.a(libfat.o) (_FAT_directory_getVolumeLabel)
c:/ndsdev/devkitPro/libnds/lib\libfat.a(disc.o)
                              c:/ndsdev/devkitPro/libnds/lib\libfat.a(libfat.o) (_FAT_disc_interfaces)
c:/ndsdev/devkitPro/libnds/lib\libfat.a(fatdir.o)
                              c:/ndsdev/devkitPro/libnds/lib\libfat.a(libfat.o) (_FAT_stat_r)
c:/ndsdev/devkitPro/libnds/lib\libfat.a(fatfile.o)
                              c:/ndsdev/devkitPro/libnds/lib\libfat.a(libfat.o) (_FAT_open_r)
c:/ndsdev/devkitPro/libnds/lib\libfat.a(file_allocation_table.o)
                              c:/ndsdev/devkitPro/libnds/lib\libfat.a(directory.o) (_FAT_fat_nextCluster)
c:/ndsdev/devkitPro/libnds/lib\libfat.a(filetime.o)
                              c:/ndsdev/devkitPro/libnds/lib\libfat.a(fatdir.o) (_FAT_filetime_getTimeFromRTC)
c:/ndsdev/devkitPro/libnds/lib\libfat.a(lock.o)
                              c:/ndsdev/devkitPro/libnds/lib\libfat.a(partition.o) (_FAT_lock_init)
c:/ndsdev/devkitPro/libnds/lib\libnds9.a(background.o)
                              virtual_io.o (bgInit_call)
c:/ndsdev/devkitPro/libnds/lib\libnds9.a(console.o)
                              down_execute.o (consoleDemoInit)
c:/ndsdev/devkitPro/libnds/lib\libnds9.a(decompress.o)
                              virtual_io.o (decompress)
c:/ndsdev/devkitPro/libnds/lib\libnds9.a(keys.o)
                              c:/ndsdev/devkitPro/PAlib/lib\libpa9.a(PA_Keys.o) (scanKeys)
c:/ndsdev/devkitPro/libnds/lib\libnds9.a(system.o)
                              FileManage.o (powerOn)
c:/ndsdev/devkitPro/libnds/lib\libnds9.a(touch.o)
                              virtual_io.o (touchRead)
c:/ndsdev/devkitPro/libnds/lib\libnds9.a(trig.o)
                              c:/ndsdev/devkitPro/libnds/lib\libnds9.a(background.o) (sinLerp)
c:/ndsdev/devkitPro/libnds/lib\libnds9.a(video.o)
                              c:/ndsdev/devkitPro/PAlib/lib\libpa9.a(PA_Inits.o) (vramSetMainBanks)
c:/ndsdev/devkitPro/libnds/lib\libnds9.a(dldi.o)
                              c:/ndsdev/devkitPro/libnds/lib\libfat.a(disc.o) (dldiGetInternal)
c:/ndsdev/devkitPro/libnds/lib\libnds9.a(dsi_sd.o)
                              c:/ndsdev/devkitPro/libnds/lib\libfat.a(disc.o) (__io_dsisd)
c:/ndsdev/devkitPro/libnds/lib\libnds9.a(initSystem.o)
                              c:/ndsdev/devkitpro/devkitarm/bin/../lib/gcc/arm-eabi/4.6.0/../../../../arm-eabi/lib/thumb/ds_arm9_crt0.o (initSystem)
c:/ndsdev/devkitPro/libnds/lib\libnds9.a(fifosystem.o)
                              c:/ndsdev/devkitPro/PAlib/lib\libpa9.a(PA.o) (fifoSendValue32)
c:/ndsdev/devkitPro/libnds/lib\libnds9.a(interrupts.o)
                              port.o (irqSet)
c:/ndsdev/devkitPro/libnds/lib\libnds9.a(libnds_exit.o)
                              c:/ndsdev/devkitpro/devkitarm/bin/../lib/gcc/arm-eabi/4.6.0/../../../../arm-eabi/lib/thumb/ds_arm9_crt0.o (__libnds_exit)
c:/ndsdev/devkitPro/libnds/lib\libnds9.a(syscalls.o)
                              c:/ndsdev/devkitPro/libnds/lib\libnds9.a(decompress.o) (swiDecompressLZSSVram)
c:/ndsdev/devkitPro/libnds/lib\libnds9.a(dcache.o)
                              c:/ndsdev/devkitPro/PAlib/lib\libpa9.a(PA_BgTiles.o) (DC_FlushRange)
c:/ndsdev/devkitPro/libnds/lib\libnds9.a(dldi_stub.o)
                              c:/ndsdev/devkitPro/libnds/lib\libnds9.a(dldi.o) (_io_dldi_stub)
c:/ndsdev/devkitPro/libnds/lib\libnds9.a(mpu_setup.o)
                              c:/ndsdev/devkitpro/devkitarm/bin/../lib/gcc/arm-eabi/4.6.0/../../../../arm-eabi/lib/thumb/ds_arm9_crt0.o (__libnds_mpu_setup)
c:/ndsdev/devkitPro/libnds/lib\libnds9.a(biosCalls.o)
                              c:/ndsdev/devkitPro/PAlib/lib\libpa9.a(PA.o) (swiDelay)
c:/ndsdev/devkitPro/libnds/lib\libnds9.a(debugprint.o)
                              c:/ndsdev/devkitPro/libnds/lib\libnds9.a(console.o) (nocashWrite)
c:/ndsdev/devkitPro/libnds/lib\libnds9.a(interruptDispatcher.o)
                              c:/ndsdev/devkitPro/libnds/lib\libnds9.a(interrupts.o) (IntrMain)
c:/ndsdev/devkitPro/libnds/lib\libnds9.a(swiSoftReset.o)
                              c:/ndsdev/devkitPro/libnds/lib\libnds9.a(fifosystem.o) (swiSoftReset)
c:/ndsdev/devkitPro/libnds/lib\libnds9.a(default_font.bin.o)
                              c:/ndsdev/devkitPro/libnds/lib\libnds9.a(console.o) (default_font_bin)
c:/ndsdev/devkitPro/libnds/lib\libdswifi9.a(sgIP_DNS.o)
                              wifi.o (inet_addr)
c:/ndsdev/devkitPro/libnds/lib\libdswifi9.a(sgIP_Hub.o)
                              c:/ndsdev/devkitPro/libnds/lib\libdswifi9.a(sgIP_DNS.o) (sgIP_Hub_GetDefaultInterface)
c:/ndsdev/devkitPro/libnds/lib\libdswifi9.a(sgIP_memblock.o)
                              c:/ndsdev/devkitPro/libnds/lib\libdswifi9.a(sgIP_Hub.o) (sgIP_memblock_free)
c:/ndsdev/devkitPro/libnds/lib\libdswifi9.a(sgIP_sockets.o)
                              c:/ndsdev/devkitPro/PAlib/lib\libpa9.a(PA_Wifi.o) (socket)
c:/ndsdev/devkitPro/libnds/lib\libdswifi9.a(wifi_arm9.o)
                              c:/ndsdev/devkitPro/libnds/lib\libdswifi9.a(sgIP_DNS.o) (sgIP_IntrWaitEvent)
c:/ndsdev/devkitPro/libnds/lib\libdswifi9.a(spinlock.o)
                              c:/ndsdev/devkitPro/libnds/lib\libdswifi9.a(wifi_arm9.o) (SLasm_Acquire)
c:/ndsdev/devkitPro/libnds/lib\libdswifi9.a(sgIP.o)
                              c:/ndsdev/devkitPro/libnds/lib\libdswifi9.a(wifi_arm9.o) (sgIP_Init)
c:/ndsdev/devkitPro/libnds/lib\libdswifi9.a(sgIP_ARP.o)
                              c:/ndsdev/devkitPro/libnds/lib\libdswifi9.a(sgIP.o) (sgIP_ARP_Init)
c:/ndsdev/devkitPro/libnds/lib\libdswifi9.a(sgIP_DHCP.o)
                              c:/ndsdev/devkitPro/libnds/lib\libdswifi9.a(sgIP.o) (sgIP_DHCP_Init)
c:/ndsdev/devkitPro/libnds/lib\libdswifi9.a(sgIP_IP.o)
                              c:/ndsdev/devkitPro/libnds/lib\libdswifi9.a(sgIP.o) (sgIP_IP_ReceivePacket)
c:/ndsdev/devkitPro/libnds/lib\libdswifi9.a(sgIP_TCP.o)
                              c:/ndsdev/devkitPro/libnds/lib\libdswifi9.a(sgIP.o) (sgIP_TCP_Init)
c:/ndsdev/devkitPro/libnds/lib\libdswifi9.a(sgIP_UDP.o)
                              c:/ndsdev/devkitPro/libnds/lib\libdswifi9.a(sgIP.o) (sgIP_UDP_Init)
c:/ndsdev/devkitPro/libnds/lib\libdswifi9.a(sgIP_ICMP.o)
                              c:/ndsdev/devkitPro/libnds/lib\libdswifi9.a(sgIP_IP.o) (sgIP_ICMP_ReceivePacket)
c:/ndsdev/devkitpro/devkitarm/bin/../lib/gcc/arm-eabi/4.6.0/thumb\libgcc.a(_udivsi3.o)
                              c:/ndsdev/devkitPro/libnds/lib\libfat.a(partition.o) (__aeabi_uidiv)
c:/ndsdev/devkitpro/devkitarm/bin/../lib/gcc/arm-eabi/4.6.0/thumb\libgcc.a(_divsi3.o)
                              c:/ndsdev/devkitPro/PAlib/lib\libpa9.a(PA_Keys.o) (__aeabi_idiv)
c:/ndsdev/devkitpro/devkitarm/bin/../lib/gcc/arm-eabi/4.6.0/thumb\libgcc.a(_dvmd_tls.o)
                              c:/ndsdev/devkitpro/devkitarm/bin/../lib/gcc/arm-eabi/4.6.0/thumb\libgcc.a(_udivsi3.o) (__aeabi_idiv0)
c:/ndsdev/devkitpro/devkitarm/bin/../lib/gcc/arm-eabi/4.6.0/thumb\libgcc.a(_arm_addsubdf3.o)
                              c:/ndsdev/devkitPro/PAlib/lib\libpa9.a(PA_Text.o) (__aeabi_dsub)
c:/ndsdev/devkitpro/devkitarm/bin/../lib/gcc/arm-eabi/4.6.0/thumb\libgcc.a(_arm_muldivdf3.o)
                              c:/ndsdev/devkitPro/PAlib/lib\libpa9.a(PA_Text.o) (__aeabi_dmul)
c:/ndsdev/devkitpro/devkitarm/bin/../lib/gcc/arm-eabi/4.6.0/thumb\libgcc.a(_arm_cmpdf2.o)
                              c:/ndsdev/devkitPro/PAlib/lib\libpa9.a(PA_Text.o) (__aeabi_dcmplt)
c:/ndsdev/devkitpro/devkitarm/bin/../lib/gcc/arm-eabi/4.6.0/thumb\libgcc.a(_arm_fixdfsi.o)
                              c:/ndsdev/devkitPro/PAlib/lib\libpa9.a(PA_Text.o) (__aeabi_d2iz)
c:/ndsdev/devkitpro/devkitarm/bin/../lib/gcc/arm-eabi/4.6.0/thumb\libgcc.a(_muldi3.o)
                              c:/ndsdev/devkitPro/PAlib/lib\libpa9.a(PA_Math.o) (__aeabi_lmul)
c:/ndsdev/devkitpro/devkitarm/bin/../lib/gcc/arm-eabi/4.6.0/../../../../arm-eabi/lib/thumb\libg.a(lib_a-atoi.o)
                              wifi.o (atoi)
c:/ndsdev/devkitpro/devkitarm/bin/../lib/gcc/arm-eabi/4.6.0/../../../../arm-eabi/lib/thumb\libg.a(lib_a-bsearch.o)
                              c:/ndsdev/devkitPro/libnds/lib\libnds9.a(trig.o) (bsearch)
c:/ndsdev/devkitpro/devkitarm/bin/../lib/gcc/arm-eabi/4.6.0/../../../../arm-eabi/lib/thumb\libg.a(lib_a-ctype_.o)
                              FileManage.o (__ctype_ptr__)
c:/ndsdev/devkitpro/devkitarm/bin/../lib/gcc/arm-eabi/4.6.0/../../../../arm-eabi/lib/thumb\libg.a(lib_a-errno.o)
                              FileManage.o (__errno)
c:/ndsdev/devkitpro/devkitarm/bin/../lib/gcc/arm-eabi/4.6.0/../../../../arm-eabi/lib/thumb\libg.a(lib_a-fclose.o)
                              FileManage.o (fclose)
c:/ndsdev/devkitpro/devkitarm/bin/../lib/gcc/arm-eabi/4.6.0/../../../../arm-eabi/lib/thumb\libg.a(lib_a-fflush.o)
                              c:/ndsdev/devkitpro/devkitarm/bin/../lib/gcc/arm-eabi/4.6.0/../../../../arm-eabi/lib/thumb\libg.a(lib_a-fclose.o) (_fflush_r)
c:/ndsdev/devkitpro/devkitarm/bin/../lib/gcc/arm-eabi/4.6.0/../../../../arm-eabi/lib/thumb\libg.a(lib_a-fgets.o)
                              wifi.o (fgets)
c:/ndsdev/devkitpro/devkitarm/bin/../lib/gcc/arm-eabi/4.6.0/../../../../arm-eabi/lib/thumb\libg.a(lib_a-findfp.o)
                              c:/ndsdev/devkitpro/devkitarm/bin/../lib/gcc/arm-eabi/4.6.0/../../../../arm-eabi/lib/thumb\libg.a(lib_a-fclose.o) (__sinit)
c:/ndsdev/devkitpro/devkitarm/bin/../lib/gcc/arm-eabi/4.6.0/../../../../arm-eabi/lib/thumb\libg.a(lib_a-fopen.o)
                              FileManage.o (fopen)
c:/ndsdev/devkitpro/devkitarm/bin/../lib/gcc/arm-eabi/4.6.0/../../../../arm-eabi/lib/thumb\libg.a(lib_a-fread.o)
                              FileManage.o (fread)
c:/ndsdev/devkitpro/devkitarm/bin/../lib/gcc/arm-eabi/4.6.0/../../../../arm-eabi/lib/thumb\libg.a(lib_a-freer.o)
                              c:/ndsdev/devkitpro/devkitarm/bin/../lib/gcc/arm-eabi/4.6.0/../../../../arm-eabi/lib/thumb\libg.a(lib_a-fclose.o) (_free_r)
c:/ndsdev/devkitpro/devkitarm/bin/../lib/gcc/arm-eabi/4.6.0/../../../../arm-eabi/lib/thumb\libg.a(lib_a-fseek.o)
                              c:/ndsdev/devkitpro/devkitarm/bin/../lib/gcc/arm-eabi/4.6.0/../../../../arm-eabi/lib/thumb\libg.a(lib_a-fopen.o) (_fseek_r)
c:/ndsdev/devkitpro/devkitarm/bin/../lib/gcc/arm-eabi/4.6.0/../../../../arm-eabi/lib/thumb\libg.a(lib_a-ftell.o)
                              FileManage.o (ftell)
c:/ndsdev/devkitpro/devkitarm/bin/../lib/gcc/arm-eabi/4.6.0/../../../../arm-eabi/lib/thumb\libg.a(lib_a-fwalk.o)
                              c:/ndsdev/devkitpro/devkitarm/bin/../lib/gcc/arm-eabi/4.6.0/../../../../arm-eabi/lib/thumb\libg.a(lib_a-findfp.o) (_fwalk)
c:/ndsdev/devkitpro/devkitarm/bin/../lib/gcc/arm-eabi/4.6.0/../../../../arm-eabi/lib/thumb\libg.a(lib_a-fwrite.o)
                              download.o (fwrite)
c:/ndsdev/devkitpro/devkitarm/bin/../lib/gcc/arm-eabi/4.6.0/../../../../arm-eabi/lib/thumb\libg.a(lib_a-gmtime.o)
                              c:/ndsdev/devkitPro/PAlib/lib\libpa9.a(PA_RTC.o) (gmtime)
c:/ndsdev/devkitpro/devkitarm/bin/../lib/gcc/arm-eabi/4.6.0/../../../../arm-eabi/lib/thumb\libg.a(lib_a-gmtime_r.o)
                              c:/ndsdev/devkitpro/devkitarm/bin/../lib/gcc/arm-eabi/4.6.0/../../../../arm-eabi/lib/thumb\libg.a(lib_a-gmtime.o) (gmtime_r)
c:/ndsdev/devkitpro/devkitarm/bin/../lib/gcc/arm-eabi/4.6.0/../../../../arm-eabi/lib/thumb\libg.a(lib_a-impure.o)
                              c:/ndsdev/devkitpro/devkitarm/bin/../lib/gcc/arm-eabi/4.6.0/../../../../arm-eabi/lib/thumb\libg.a(lib_a-fflush.o) (_global_impure_ptr)
c:/ndsdev/devkitpro/devkitarm/bin/../lib/gcc/arm-eabi/4.6.0/../../../../arm-eabi/lib/thumb\libg.a(lib_a-init.o)
                              c:/ndsdev/devkitpro/devkitarm/bin/../lib/gcc/arm-eabi/4.6.0/../../../../arm-eabi/lib/thumb/ds_arm9_crt0.o (__libc_init_array)
c:/ndsdev/devkitpro/devkitarm/bin/../lib/gcc/arm-eabi/4.6.0/../../../../arm-eabi/lib/thumb\libg.a(lib_a-iprintf.o)
                              down_execute.o (iprintf)
c:/ndsdev/devkitpro/devkitarm/bin/../lib/gcc/arm-eabi/4.6.0/../../../../arm-eabi/lib/thumb\libg.a(lib_a-lcltime_r.o)
                              c:/ndsdev/devkitPro/libnds/lib\libfat.a(filetime.o) (localtime_r)
c:/ndsdev/devkitpro/devkitarm/bin/../lib/gcc/arm-eabi/4.6.0/../../../../arm-eabi/lib/thumb\libg.a(lib_a-locale.o)
                              c:/ndsdev/devkitPro/PAlib/lib\libpa9.a(PA_Inits.o) (setlocale)
c:/ndsdev/devkitpro/devkitarm/bin/../lib/gcc/arm-eabi/4.6.0/../../../../arm-eabi/lib/thumb\libg.a(lib_a-makebuf.o)
                              c:/ndsdev/devkitpro/devkitarm/bin/../lib/gcc/arm-eabi/4.6.0/../../../../arm-eabi/lib/thumb\libg.a(lib_a-fseek.o) (__smakebuf_r)
c:/ndsdev/devkitpro/devkitarm/bin/../lib/gcc/arm-eabi/4.6.0/../../../../arm-eabi/lib/thumb\libg.a(lib_a-malloc.o)
                              FileManage.o (malloc)
c:/ndsdev/devkitpro/devkitarm/bin/../lib/gcc/arm-eabi/4.6.0/../../../../arm-eabi/lib/thumb\libg.a(lib_a-mallocr.o)
                              c:/ndsdev/devkitpro/devkitarm/bin/../lib/gcc/arm-eabi/4.6.0/../../../../arm-eabi/lib/thumb\libg.a(lib_a-findfp.o) (_malloc_r)
c:/ndsdev/devkitpro/devkitarm/bin/../lib/gcc/arm-eabi/4.6.0/../../../../arm-eabi/lib/thumb\libg.a(lib_a-mbrtowc.o)
                              c:/ndsdev/devkitPro/libnds/lib\libfat.a(directory.o) (mbrtowc)
c:/ndsdev/devkitpro/devkitarm/bin/../lib/gcc/arm-eabi/4.6.0/../../../../arm-eabi/lib/thumb\libg.a(lib_a-mbsrtowcs.o)
                              c:/ndsdev/devkitPro/libnds/lib\libfat.a(directory.o) (mbsrtowcs)
c:/ndsdev/devkitpro/devkitarm/bin/../lib/gcc/arm-eabi/4.6.0/../../../../arm-eabi/lib/thumb\libg.a(lib_a-mbtowc_r.o)
                              c:/ndsdev/devkitpro/devkitarm/bin/../lib/gcc/arm-eabi/4.6.0/../../../../arm-eabi/lib/thumb\libg.a(lib_a-locale.o) (__utf8_mbtowc)
c:/ndsdev/devkitpro/devkitarm/bin/../lib/gcc/arm-eabi/4.6.0/../../../../arm-eabi/lib/thumb\libg.a(lib_a-memchr.o)
                              c:/ndsdev/devkitpro/devkitarm/bin/../lib/gcc/arm-eabi/4.6.0/../../../../arm-eabi/lib/thumb\libg.a(lib_a-fgets.o) (memchr)
c:/ndsdev/devkitpro/devkitarm/bin/../lib/gcc/arm-eabi/4.6.0/../../../../arm-eabi/lib/thumb\libg.a(lib_a-memcmp.o)
                              c:/ndsdev/devkitPro/libnds/lib\libfat.a(partition.o) (memcmp)
c:/ndsdev/devkitpro/devkitarm/bin/../lib/gcc/arm-eabi/4.6.0/../../../../arm-eabi/lib/thumb\libg.a(lib_a-memcpy.o)
                              download.o (memcpy)
c:/ndsdev/devkitpro/devkitarm/bin/../lib/gcc/arm-eabi/4.6.0/../../../../arm-eabi/lib/thumb\libg.a(lib_a-memmove.o)
                              c:/ndsdev/devkitPro/libnds/lib\libfat.a(directory.o) (memmove)
c:/ndsdev/devkitpro/devkitarm/bin/../lib/gcc/arm-eabi/4.6.0/../../../../arm-eabi/lib/thumb\libg.a(lib_a-memset.o)
                              FileManage.o (memset)
c:/ndsdev/devkitpro/devkitarm/bin/../lib/gcc/arm-eabi/4.6.0/../../../../arm-eabi/lib/thumb\libg.a(lib_a-mktime.o)
                              c:/ndsdev/devkitPro/libnds/lib\libfat.a(filetime.o) (mktime)
c:/ndsdev/devkitpro/devkitarm/bin/../lib/gcc/arm-eabi/4.6.0/../../../../arm-eabi/lib/thumb\libg.a(lib_a-mktm_r.o)
                              c:/ndsdev/devkitpro/devkitarm/bin/../lib/gcc/arm-eabi/4.6.0/../../../../arm-eabi/lib/thumb\libg.a(lib_a-mktime.o) (__tzcalc_limits)
c:/ndsdev/devkitpro/devkitarm/bin/../lib/gcc/arm-eabi/4.6.0/../../../../arm-eabi/lib/thumb\libg.a(lib_a-mlock.o)
                              c:/ndsdev/devkitpro/devkitarm/bin/../lib/gcc/arm-eabi/4.6.0/../../../../arm-eabi/lib/thumb\libg.a(lib_a-freer.o) (__malloc_lock)
c:/ndsdev/devkitpro/devkitarm/bin/../lib/gcc/arm-eabi/4.6.0/../../../../arm-eabi/lib/thumb\libg.a(lib_a-refill.o)
                              c:/ndsdev/devkitpro/devkitarm/bin/../lib/gcc/arm-eabi/4.6.0/../../../../arm-eabi/lib/thumb\libg.a(lib_a-fgets.o) (__srefill_r)
c:/ndsdev/devkitpro/devkitarm/bin/../lib/gcc/arm-eabi/4.6.0/../../../../arm-eabi/lib/thumb\libg.a(lib_a-remove.o)
                              FileManage.o (remove)
c:/ndsdev/devkitpro/devkitarm/bin/../lib/gcc/arm-eabi/4.6.0/../../../../arm-eabi/lib/thumb\libg.a(lib_a-rename.o)
                              FileManage.o (rename)
c:/ndsdev/devkitpro/devkitarm/bin/../lib/gcc/arm-eabi/4.6.0/../../../../arm-eabi/lib/thumb\libg.a(lib_a-setvbuf.o)
                              c:/ndsdev/devkitPro/libnds/lib\libnds9.a(console.o) (setvbuf)
c:/ndsdev/devkitpro/devkitarm/bin/../lib/gcc/arm-eabi/4.6.0/../../../../arm-eabi/lib/thumb\libg.a(lib_a-siscanf.o)
                              c:/ndsdev/devkitPro/libnds/lib\libnds9.a(console.o) (siscanf)
c:/ndsdev/devkitpro/devkitarm/bin/../lib/gcc/arm-eabi/4.6.0/../../../../arm-eabi/lib/thumb\libg.a(lib_a-sprintf.o)
                              FileManage.o (sprintf)
c:/ndsdev/devkitpro/devkitarm/bin/../lib/gcc/arm-eabi/4.6.0/../../../../arm-eabi/lib/thumb\libg.a(lib_a-sscanf.o)
                              download.o (sscanf)
c:/ndsdev/devkitpro/devkitarm/bin/../lib/gcc/arm-eabi/4.6.0/../../../../arm-eabi/lib/thumb\libg.a(lib_a-stdio.o)
                              c:/ndsdev/devkitpro/devkitarm/bin/../lib/gcc/arm-eabi/4.6.0/../../../../arm-eabi/lib/thumb\libg.a(lib_a-findfp.o) (__sread)
c:/ndsdev/devkitpro/devkitarm/bin/../lib/gcc/arm-eabi/4.6.0/../../../../arm-eabi/lib/thumb\libg.a(lib_a-strcasecmp.o)
                              FileManage.o (strcasecmp)
c:/ndsdev/devkitpro/devkitarm/bin/../lib/gcc/arm-eabi/4.6.0/../../../../arm-eabi/lib/thumb\libg.a(lib_a-strcat.o)
                              tasks.o (strcat)
c:/ndsdev/devkitpro/devkitarm/bin/../lib/gcc/arm-eabi/4.6.0/../../../../arm-eabi/lib/thumb\libg.a(lib_a-strchr.o)
                              c:/ndsdev/devkitPro/libnds/lib\libfat.a(directory.o) (strchr)
c:/ndsdev/devkitpro/devkitarm/bin/../lib/gcc/arm-eabi/4.6.0/../../../../arm-eabi/lib/thumb\libg.a(lib_a-strcmp.o)
                              FileManage.o (strcmp)
c:/ndsdev/devkitpro/devkitarm/bin/../lib/gcc/arm-eabi/4.6.0/../../../../arm-eabi/lib/thumb\libg.a(lib_a-strcpy.o)
                              FileManage.o (strcpy)
c:/ndsdev/devkitpro/devkitarm/bin/../lib/gcc/arm-eabi/4.6.0/../../../../arm-eabi/lib/thumb\libg.a(lib_a-strlcpy.o)
                              c:/ndsdev/devkitpro/devkitarm/bin/../lib/gcc/arm-eabi/4.6.0/../../../../arm-eabi/lib/thumb\libg.a(lib_a-locale.o) (strlcpy)
c:/ndsdev/devkitpro/devkitarm/bin/../lib/gcc/arm-eabi/4.6.0/../../../../arm-eabi/lib/thumb\libg.a(lib_a-strlen.o)
                              FileManage.o (strlen)
c:/ndsdev/devkitpro/devkitarm/bin/../lib/gcc/arm-eabi/4.6.0/../../../../arm-eabi/lib/thumb\libg.a(lib_a-strncasecmp.o)
                              c:/ndsdev/devkitPro/libnds/lib\libfat.a(libfat.o) (strncasecmp)
c:/ndsdev/devkitpro/devkitarm/bin/../lib/gcc/arm-eabi/4.6.0/../../../../arm-eabi/lib/thumb\libg.a(lib_a-strncmp.o)
                              download.o (strncmp)
c:/ndsdev/devkitpro/devkitarm/bin/../lib/gcc/arm-eabi/4.6.0/../../../../arm-eabi/lib/thumb\libg.a(lib_a-strncpy.o)
                              FileManage.o (strncpy)
c:/ndsdev/devkitpro/devkitarm/bin/../lib/gcc/arm-eabi/4.6.0/../../../../arm-eabi/lib/thumb\libg.a(lib_a-strnlen.o)
                              c:/ndsdev/devkitPro/libnds/lib\libfat.a(directory.o) (strnlen)
c:/ndsdev/devkitpro/devkitarm/bin/../lib/gcc/arm-eabi/4.6.0/../../../../arm-eabi/lib/thumb\libg.a(lib_a-strpbrk.o)
                              c:/ndsdev/devkitPro/libnds/lib\libfat.a(directory.o) (strpbrk)
c:/ndsdev/devkitpro/devkitarm/bin/../lib/gcc/arm-eabi/4.6.0/../../../../arm-eabi/lib/thumb\libg.a(lib_a-strrchr.o)
                              c:/ndsdev/devkitPro/libnds/lib\libfat.a(libfat.o) (strrchr)
c:/ndsdev/devkitpro/devkitarm/bin/../lib/gcc/arm-eabi/4.6.0/../../../../arm-eabi/lib/thumb\libg.a(lib_a-strtol.o)
                              c:/ndsdev/devkitpro/devkitarm/bin/../lib/gcc/arm-eabi/4.6.0/../../../../arm-eabi/lib/thumb\libg.a(lib_a-atoi.o) (_strtol_r)
c:/ndsdev/devkitpro/devkitarm/bin/../lib/gcc/arm-eabi/4.6.0/../../../../arm-eabi/lib/thumb\libg.a(lib_a-svfiscanf.o)
                              c:/ndsdev/devkitpro/devkitarm/bin/../lib/gcc/arm-eabi/4.6.0/../../../../arm-eabi/lib/thumb\libg.a(lib_a-siscanf.o) (__ssvfiscanf_r)
c:/ndsdev/devkitpro/devkitarm/bin/../lib/gcc/arm-eabi/4.6.0/../../../../arm-eabi/lib/thumb\libg.a(lib_a-svfprintf.o)
                              c:/ndsdev/devkitpro/devkitarm/bin/../lib/gcc/arm-eabi/4.6.0/../../../../arm-eabi/lib/thumb\libg.a(lib_a-sprintf.o) (_svfprintf_r)
c:/ndsdev/devkitpro/devkitarm/bin/../lib/gcc/arm-eabi/4.6.0/../../../../arm-eabi/lib/thumb\libg.a(lib_a-svfscanf.o)
                              c:/ndsdev/devkitpro/devkitarm/bin/../lib/gcc/arm-eabi/4.6.0/../../../../arm-eabi/lib/thumb\libg.a(lib_a-sscanf.o) (__ssvfscanf_r)
c:/ndsdev/devkitpro/devkitarm/bin/../lib/gcc/arm-eabi/4.6.0/../../../../arm-eabi/lib/thumb\libg.a(lib_a-sysclose.o)
                              c:/ndsdev/devkitPro/libnds/lib\libnds9.a(dldi.o) (close)
c:/ndsdev/devkitpro/devkitarm/bin/../lib/gcc/arm-eabi/4.6.0/../../../../arm-eabi/lib/thumb\libg.a(lib_a-syslseek.o)
                              c:/ndsdev/devkitPro/libnds/lib\libnds9.a(dldi.o) (lseek)
c:/ndsdev/devkitpro/devkitarm/bin/../lib/gcc/arm-eabi/4.6.0/../../../../arm-eabi/lib/thumb\libg.a(lib_a-sysopen.o)
                              c:/ndsdev/devkitPro/libnds/lib\libnds9.a(dldi.o) (open)
c:/ndsdev/devkitpro/devkitarm/bin/../lib/gcc/arm-eabi/4.6.0/../../../../arm-eabi/lib/thumb\libg.a(lib_a-sysread.o)
                              c:/ndsdev/devkitPro/libnds/lib\libnds9.a(dldi.o) (read)
c:/ndsdev/devkitpro/devkitarm/bin/../lib/gcc/arm-eabi/4.6.0/../../../../arm-eabi/lib/thumb\libg.a(lib_a-sysstat.o)
                              FileManage.o (stat)
c:/ndsdev/devkitpro/devkitarm/bin/../lib/gcc/arm-eabi/4.6.0/../../../../arm-eabi/lib/thumb\libg.a(lib_a-sysunlink.o)
                              FileManage.o (unlink)
c:/ndsdev/devkitpro/devkitarm/bin/../lib/gcc/arm-eabi/4.6.0/../../../../arm-eabi/lib/thumb\libg.a(lib_a-time.o)
                              c:/ndsdev/devkitPro/PAlib/lib\libpa9.a(PA_RTC.o) (time)
c:/ndsdev/devkitpro/devkitarm/bin/../lib/gcc/arm-eabi/4.6.0/../../../../arm-eabi/lib/thumb\libg.a(lib_a-towlower.o)
                              c:/ndsdev/devkitPro/libnds/lib\libfat.a(directory.o) (towlower)
c:/ndsdev/devkitpro/devkitarm/bin/../lib/gcc/arm-eabi/4.6.0/../../../../arm-eabi/lib/thumb\libg.a(lib_a-towupper.o)
                              c:/ndsdev/devkitPro/libnds/lib\libfat.a(directory.o) (towupper)
c:/ndsdev/devkitpro/devkitarm/bin/../lib/gcc/arm-eabi/4.6.0/../../../../arm-eabi/lib/thumb\libg.a(lib_a-tzlock.o)
                              c:/ndsdev/devkitpro/devkitarm/bin/../lib/gcc/arm-eabi/4.6.0/../../../../arm-eabi/lib/thumb\libg.a(lib_a-mktm_r.o) (__tz_lock)
c:/ndsdev/devkitpro/devkitarm/bin/../lib/gcc/arm-eabi/4.6.0/../../../../arm-eabi/lib/thumb\libg.a(lib_a-tzvars.o)
                              c:/ndsdev/devkitpro/devkitarm/bin/../lib/gcc/arm-eabi/4.6.0/../../../../arm-eabi/lib/thumb\libg.a(lib_a-mktime.o) (_daylight)
c:/ndsdev/devkitpro/devkitarm/bin/../lib/gcc/arm-eabi/4.6.0/../../../../arm-eabi/lib/thumb\libg.a(lib_a-ungetc.o)
                              c:/ndsdev/devkitpro/devkitarm/bin/../lib/gcc/arm-eabi/4.6.0/../../../../arm-eabi/lib/thumb\libg.a(lib_a-svfiscanf.o) (__submore)
c:/ndsdev/devkitpro/devkitarm/bin/../lib/gcc/arm-eabi/4.6.0/../../../../arm-eabi/lib/thumb\libg.a(lib_a-vfiprintf.o)
                              c:/ndsdev/devkitpro/devkitarm/bin/../lib/gcc/arm-eabi/4.6.0/../../../../arm-eabi/lib/thumb\libg.a(lib_a-iprintf.o) (_vfiprintf_r)
c:/ndsdev/devkitpro/devkitarm/bin/../lib/gcc/arm-eabi/4.6.0/../../../../arm-eabi/lib/thumb\libg.a(lib_a-wcrtomb.o)
                              c:/ndsdev/devkitpro/devkitarm/bin/../lib/gcc/arm-eabi/4.6.0/../../../../arm-eabi/lib/thumb\libg.a(lib_a-svfprintf.o) (_wcrtomb_r)
c:/ndsdev/devkitpro/devkitarm/bin/../lib/gcc/arm-eabi/4.6.0/../../../../arm-eabi/lib/thumb\libg.a(lib_a-wcsrtombs.o)
                              c:/ndsdev/devkitpro/devkitarm/bin/../lib/gcc/arm-eabi/4.6.0/../../../../arm-eabi/lib/thumb\libg.a(lib_a-svfprintf.o) (_wcsrtombs_r)
c:/ndsdev/devkitpro/devkitarm/bin/../lib/gcc/arm-eabi/4.6.0/../../../../arm-eabi/lib/thumb\libg.a(lib_a-wctob.o)
                              c:/ndsdev/devkitPro/libnds/lib\libfat.a(directory.o) (wctob)
c:/ndsdev/devkitpro/devkitarm/bin/../lib/gcc/arm-eabi/4.6.0/../../../../arm-eabi/lib/thumb\libg.a(lib_a-wctomb_r.o)
                              c:/ndsdev/devkitpro/devkitarm/bin/../lib/gcc/arm-eabi/4.6.0/../../../../arm-eabi/lib/thumb\libg.a(lib_a-locale.o) (__utf8_wctomb)
c:/ndsdev/devkitpro/devkitarm/bin/../lib/gcc/arm-eabi/4.6.0/../../../../arm-eabi/lib/thumb\libg.a(lib_a-wsetup.o)
                              c:/ndsdev/devkitpro/devkitarm/bin/../lib/gcc/arm-eabi/4.6.0/../../../../arm-eabi/lib/thumb\libg.a(lib_a-vfiprintf.o) (__swsetup_r)
c:/ndsdev/devkitpro/devkitarm/bin/../lib/gcc/arm-eabi/4.6.0/../../../../arm-eabi/lib/thumb\libg.a(lib_a-div.o)
                              c:/ndsdev/devkitpro/devkitarm/bin/../lib/gcc/arm-eabi/4.6.0/../../../../arm-eabi/lib/thumb\libg.a(lib_a-mktime.o) (div)
c:/ndsdev/devkitpro/devkitarm/bin/../lib/gcc/arm-eabi/4.6.0/../../../../arm-eabi/lib/thumb\libg.a(lib_a-dtoa.o)
                              c:/ndsdev/devkitpro/devkitarm/bin/../lib/gcc/arm-eabi/4.6.0/../../../../arm-eabi/lib/thumb\libg.a(lib_a-svfprintf.o) (_dtoa_r)
c:/ndsdev/devkitpro/devkitarm/bin/../lib/gcc/arm-eabi/4.6.0/../../../../arm-eabi/lib/thumb\libg.a(lib_a-flags.o)
                              c:/ndsdev/devkitpro/devkitarm/bin/../lib/gcc/arm-eabi/4.6.0/../../../../arm-eabi/lib/thumb\libg.a(lib_a-fopen.o) (__sflags)
c:/ndsdev/devkitpro/devkitarm/bin/../lib/gcc/arm-eabi/4.6.0/../../../../arm-eabi/lib/thumb\libg.a(lib_a-fputwc.o)
                              c:/ndsdev/devkitpro/devkitarm/bin/../lib/gcc/arm-eabi/4.6.0/../../../../arm-eabi/lib/thumb\libg.a(lib_a-vfiprintf.o) (_fputwc_r)
c:/ndsdev/devkitpro/devkitarm/bin/../lib/gcc/arm-eabi/4.6.0/../../../../arm-eabi/lib/thumb\libg.a(lib_a-fvwrite.o)
                              c:/ndsdev/devkitpro/devkitarm/bin/../lib/gcc/arm-eabi/4.6.0/../../../../arm-eabi/lib/thumb\libg.a(lib_a-fwrite.o) (__sfvwrite_r)
c:/ndsdev/devkitpro/devkitarm/bin/../lib/gcc/arm-eabi/4.6.0/../../../../arm-eabi/lib/thumb\libg.a(lib_a-getenv_r.o)
                              c:/ndsdev/devkitpro/devkitarm/bin/../lib/gcc/arm-eabi/4.6.0/../../../../arm-eabi/lib/thumb\libg.a(lib_a-locale.o) (_getenv_r)
c:/ndsdev/devkitpro/devkitarm/bin/../lib/gcc/arm-eabi/4.6.0/../../../../arm-eabi/lib/thumb\libg.a(lib_a-gettzinfo.o)
                              c:/ndsdev/devkitpro/devkitarm/bin/../lib/gcc/arm-eabi/4.6.0/../../../../arm-eabi/lib/thumb\libg.a(lib_a-mktime.o) (__gettzinfo)
c:/ndsdev/devkitpro/devkitarm/bin/../lib/gcc/arm-eabi/4.6.0/../../../../arm-eabi/lib/thumb\libg.a(lib_a-iswspace.o)
                              c:/ndsdev/devkitpro/devkitarm/bin/../lib/gcc/arm-eabi/4.6.0/../../../../arm-eabi/lib/thumb\libg.a(lib_a-svfiscanf.o) (iswspace)
c:/ndsdev/devkitpro/devkitarm/bin/../lib/gcc/arm-eabi/4.6.0/../../../../arm-eabi/lib/thumb\libg.a(lib_a-jp2uc.o)
                              c:/ndsdev/devkitpro/devkitarm/bin/../lib/gcc/arm-eabi/4.6.0/../../../../arm-eabi/lib/thumb\libg.a(lib_a-towlower.o) (_jp2uc)
c:/ndsdev/devkitpro/devkitarm/bin/../lib/gcc/arm-eabi/4.6.0/../../../../arm-eabi/lib/thumb\libg.a(lib_a-mbsnrtowcs.o)
                              c:/ndsdev/devkitpro/devkitarm/bin/../lib/gcc/arm-eabi/4.6.0/../../../../arm-eabi/lib/thumb\libg.a(lib_a-mbsrtowcs.o) (_mbsnrtowcs_r)
c:/ndsdev/devkitpro/devkitarm/bin/../lib/gcc/arm-eabi/4.6.0/../../../../arm-eabi/lib/thumb\libg.a(lib_a-mprec.o)
                              c:/ndsdev/devkitpro/devkitarm/bin/../lib/gcc/arm-eabi/4.6.0/../../../../arm-eabi/lib/thumb\libg.a(lib_a-dtoa.o) (_Balloc)
c:/ndsdev/devkitpro/devkitarm/bin/../lib/gcc/arm-eabi/4.6.0/../../../../arm-eabi/lib/thumb\libg.a(lib_a-reallocr.o)
                              c:/ndsdev/devkitpro/devkitarm/bin/../lib/gcc/arm-eabi/4.6.0/../../../../arm-eabi/lib/thumb\libg.a(lib_a-ungetc.o) (_realloc_r)
c:/ndsdev/devkitpro/devkitarm/bin/../lib/gcc/arm-eabi/4.6.0/../../../../arm-eabi/lib/thumb\libg.a(lib_a-s_fpclassify.o)
                              c:/ndsdev/devkitpro/devkitarm/bin/../lib/gcc/arm-eabi/4.6.0/../../../../arm-eabi/lib/thumb\libg.a(lib_a-svfprintf.o) (__fpclassifyd)
c:/ndsdev/devkitpro/devkitarm/bin/../lib/gcc/arm-eabi/4.6.0/../../../../arm-eabi/lib/thumb\libg.a(lib_a-sccl.o)
                              c:/ndsdev/devkitpro/devkitarm/bin/../lib/gcc/arm-eabi/4.6.0/../../../../arm-eabi/lib/thumb\libg.a(lib_a-svfiscanf.o) (__sccl)
c:/ndsdev/devkitpro/devkitarm/bin/../lib/gcc/arm-eabi/4.6.0/../../../../arm-eabi/lib/thumb\libg.a(lib_a-sf_nan.o)
                              c:/ndsdev/devkitpro/devkitarm/bin/../lib/gcc/arm-eabi/4.6.0/../../../../arm-eabi/lib/thumb\libg.a(lib_a-svfscanf.o) (nanf)
c:/ndsdev/devkitpro/devkitarm/bin/../lib/gcc/arm-eabi/4.6.0/../../../../arm-eabi/lib/thumb\libg.a(lib_a-strtod.o)
                              c:/ndsdev/devkitpro/devkitarm/bin/../lib/gcc/arm-eabi/4.6.0/../../../../arm-eabi/lib/thumb\libg.a(lib_a-svfscanf.o) (_strtod_r)
c:/ndsdev/devkitpro/devkitarm/bin/../lib/gcc/arm-eabi/4.6.0/../../../../arm-eabi/lib/thumb\libg.a(lib_a-strtoll_r.o)
                              c:/ndsdev/devkitpro/devkitarm/bin/../lib/gcc/arm-eabi/4.6.0/../../../../arm-eabi/lib/thumb\libg.a(lib_a-svfiscanf.o) (_strtoll_r)
c:/ndsdev/devkitpro/devkitarm/bin/../lib/gcc/arm-eabi/4.6.0/../../../../arm-eabi/lib/thumb\libg.a(lib_a-strtoul.o)
                              c:/ndsdev/devkitpro/devkitarm/bin/../lib/gcc/arm-eabi/4.6.0/../../../../arm-eabi/lib/thumb\libg.a(lib_a-svfiscanf.o) (_strtoul_r)
c:/ndsdev/devkitpro/devkitarm/bin/../lib/gcc/arm-eabi/4.6.0/../../../../arm-eabi/lib/thumb\libg.a(lib_a-strtoull_r.o)
                              c:/ndsdev/devkitpro/devkitarm/bin/../lib/gcc/arm-eabi/4.6.0/../../../../arm-eabi/lib/thumb\libg.a(lib_a-svfiscanf.o) (_strtoull_r)
c:/ndsdev/devkitpro/devkitarm/bin/../lib/gcc/arm-eabi/4.6.0/../../../../arm-eabi/lib/thumb\libg.a(lib_a-svfiprintf.o)
                              c:/ndsdev/devkitpro/devkitarm/bin/../lib/gcc/arm-eabi/4.6.0/../../../../arm-eabi/lib/thumb\libg.a(lib_a-svfprintf.o) (__ssprint_r)
c:/ndsdev/devkitpro/devkitarm/bin/../lib/gcc/arm-eabi/4.6.0/../../../../arm-eabi/lib/thumb\libg.a(lib_a-wbuf.o)
                              c:/ndsdev/devkitpro/devkitarm/bin/../lib/gcc/arm-eabi/4.6.0/../../../../arm-eabi/lib/thumb\libg.a(lib_a-fputwc.o) (__swbuf_r)
c:/ndsdev/devkitpro/devkitarm/bin/../lib/gcc/arm-eabi/4.6.0/../../../../arm-eabi/lib/thumb\libg.a(lib_a-wcsnrtombs.o)
                              c:/ndsdev/devkitpro/devkitarm/bin/../lib/gcc/arm-eabi/4.6.0/../../../../arm-eabi/lib/thumb\libg.a(lib_a-wcsrtombs.o) (_wcsnrtombs_r)
c:/ndsdev/devkitpro/devkitarm/bin/../lib/gcc/arm-eabi/4.6.0/../../../../arm-eabi/lib/thumb\libg.a(lib_a-callocr.o)
                              c:/ndsdev/devkitpro/devkitarm/bin/../lib/gcc/arm-eabi/4.6.0/../../../../arm-eabi/lib/thumb\libg.a(lib_a-mprec.o) (_calloc_r)
c:/ndsdev/devkitpro/devkitarm/bin/../lib/gcc/arm-eabi/4.6.0/../../../../arm-eabi/lib/thumb\libg.a(lib_a-environ.o)
                              c:/ndsdev/devkitpro/devkitarm/bin/../lib/gcc/arm-eabi/4.6.0/../../../../arm-eabi/lib/thumb\libg.a(lib_a-getenv_r.o) (environ)
c:/ndsdev/devkitpro/devkitarm/bin/../lib/gcc/arm-eabi/4.6.0/../../../../arm-eabi/lib/thumb\libg.a(lib_a-envlock.o)
                              c:/ndsdev/devkitpro/devkitarm/bin/../lib/gcc/arm-eabi/4.6.0/../../../../arm-eabi/lib/thumb\libg.a(lib_a-getenv_r.o) (__env_lock)
c:/ndsdev/devkitpro/devkitarm/bin/../lib/gcc/arm-eabi/4.6.0/../../../../arm-eabi/lib/thumb\libg.a(lib_a-gdtoa-gethex.o)
                              c:/ndsdev/devkitpro/devkitarm/bin/../lib/gcc/arm-eabi/4.6.0/../../../../arm-eabi/lib/thumb\libg.a(lib_a-strtod.o) (__gethex)
c:/ndsdev/devkitpro/devkitarm/bin/../lib/gcc/arm-eabi/4.6.0/../../../../arm-eabi/lib/thumb\libg.a(lib_a-gdtoa-hexnan.o)
                              c:/ndsdev/devkitpro/devkitarm/bin/../lib/gcc/arm-eabi/4.6.0/../../../../arm-eabi/lib/thumb\libg.a(lib_a-strtod.o) (__hexnan)
c:/ndsdev/devkitpro/devkitarm/bin/../lib/gcc/arm-eabi/4.6.0/../../../../arm-eabi/lib/thumb\libsysbase.a(iosupport.o)
                              c:/ndsdev/devkitPro/libnds/lib\libfat.a(libfat.o) (FindDevice)
c:/ndsdev/devkitpro/devkitarm/bin/../lib/gcc/arm-eabi/4.6.0/../../../../arm-eabi/lib/thumb\libsysbase.a(close.o)
                              c:/ndsdev/devkitpro/devkitarm/bin/../lib/gcc/arm-eabi/4.6.0/../../../../arm-eabi/lib/thumb\libg.a(lib_a-stdio.o) (_close_r)
c:/ndsdev/devkitpro/devkitarm/bin/../lib/gcc/arm-eabi/4.6.0/../../../../arm-eabi/lib/thumb\libsysbase.a(fstat.o)
                              c:/ndsdev/devkitpro/devkitarm/bin/../lib/gcc/arm-eabi/4.6.0/../../../../arm-eabi/lib/thumb\libg.a(lib_a-fseek.o) (_fstat_r)
c:/ndsdev/devkitpro/devkitarm/bin/../lib/gcc/arm-eabi/4.6.0/../../../../arm-eabi/lib/thumb\libsysbase.a(isatty.o)
                              c:/ndsdev/devkitpro/devkitarm/bin/../lib/gcc/arm-eabi/4.6.0/../../../../arm-eabi/lib/thumb\libg.a(lib_a-makebuf.o) (_isatty_r)
c:/ndsdev/devkitpro/devkitarm/bin/../lib/gcc/arm-eabi/4.6.0/../../../../arm-eabi/lib/thumb\libsysbase.a(lseek.o)
                              c:/ndsdev/devkitpro/devkitarm/bin/../lib/gcc/arm-eabi/4.6.0/../../../../arm-eabi/lib/thumb\libg.a(lib_a-stdio.o) (_lseek_r)
c:/ndsdev/devkitpro/devkitarm/bin/../lib/gcc/arm-eabi/4.6.0/../../../../arm-eabi/lib/thumb\libsysbase.a(open.o)
                              c:/ndsdev/devkitpro/devkitarm/bin/../lib/gcc/arm-eabi/4.6.0/../../../../arm-eabi/lib/thumb\libg.a(lib_a-fopen.o) (_open_r)
c:/ndsdev/devkitpro/devkitarm/bin/../lib/gcc/arm-eabi/4.6.0/../../../../arm-eabi/lib/thumb\libsysbase.a(read.o)
                              c:/ndsdev/devkitpro/devkitarm/bin/../lib/gcc/arm-eabi/4.6.0/../../../../arm-eabi/lib/thumb\libg.a(lib_a-stdio.o) (_read_r)
c:/ndsdev/devkitpro/devkitarm/bin/../lib/gcc/arm-eabi/4.6.0/../../../../arm-eabi/lib/thumb\libsysbase.a(sbrk.o)
                              c:/ndsdev/devkitpro/devkitarm/bin/../lib/gcc/arm-eabi/4.6.0/../../../../arm-eabi/lib/thumb\libg.a(lib_a-freer.o) (_sbrk_r)
c:/ndsdev/devkitpro/devkitarm/bin/../lib/gcc/arm-eabi/4.6.0/../../../../arm-eabi/lib/thumb\libsysbase.a(stat.o)
                              c:/ndsdev/devkitpro/devkitarm/bin/../lib/gcc/arm-eabi/4.6.0/../../../../arm-eabi/lib/thumb\libg.a(lib_a-sysstat.o) (_stat_r)
c:/ndsdev/devkitpro/devkitarm/bin/../lib/gcc/arm-eabi/4.6.0/../../../../arm-eabi/lib/thumb\libsysbase.a(times.o)
                              c:/ndsdev/devkitpro/devkitarm/bin/../lib/gcc/arm-eabi/4.6.0/../../../../arm-eabi/lib/thumb\libg.a(lib_a-time.o) (_gettimeofday_r)
c:/ndsdev/devkitpro/devkitarm/bin/../lib/gcc/arm-eabi/4.6.0/../../../../arm-eabi/lib/thumb\libsysbase.a(unlink.o)
                              c:/ndsdev/devkitpro/devkitarm/bin/../lib/gcc/arm-eabi/4.6.0/../../../../arm-eabi/lib/thumb\libg.a(lib_a-remove.o) (_unlink_r)
c:/ndsdev/devkitpro/devkitarm/bin/../lib/gcc/arm-eabi/4.6.0/../../../../arm-eabi/lib/thumb\libsysbase.a(write.o)
                              c:/ndsdev/devkitpro/devkitarm/bin/../lib/gcc/arm-eabi/4.6.0/../../../../arm-eabi/lib/thumb\libg.a(lib_a-stdio.o) (_write_r)
c:/ndsdev/devkitpro/devkitarm/bin/../lib/gcc/arm-eabi/4.6.0/../../../../arm-eabi/lib/thumb\libsysbase.a(malloc_vars.o)
                              c:/ndsdev/devkitpro/devkitarm/bin/../lib/gcc/arm-eabi/4.6.0/../../../../arm-eabi/lib/thumb/ds_arm9_crt0.o (fake_heap_start)
c:/ndsdev/devkitpro/devkitarm/bin/../lib/gcc/arm-eabi/4.6.0/../../../../arm-eabi/lib/thumb\libsysbase.a(chdir.o)
                              FileManage.o (chdir)
c:/ndsdev/devkitpro/devkitarm/bin/../lib/gcc/arm-eabi/4.6.0/../../../../arm-eabi/lib/thumb\libsysbase.a(mkdir.o)
                              FileManage.o (mkdir)
c:/ndsdev/devkitpro/devkitarm/bin/../lib/gcc/arm-eabi/4.6.0/../../../../arm-eabi/lib/thumb\libsysbase.a(rename.o)
                              c:/ndsdev/devkitpro/devkitarm/bin/../lib/gcc/arm-eabi/4.6.0/../../../../arm-eabi/lib/thumb\libg.a(lib_a-rename.o) (_rename_r)
c:/ndsdev/devkitpro/devkitarm/bin/../lib/gcc/arm-eabi/4.6.0/../../../../arm-eabi/lib/thumb\libsysbase.a(build_argv.o)
                              c:/ndsdev/devkitpro/devkitarm/bin/../lib/gcc/arm-eabi/4.6.0/../../../../arm-eabi/lib/thumb/ds_arm9_crt0.o (build_argv)
c:/ndsdev/devkitpro/devkitarm/bin/../lib/gcc/arm-eabi/4.6.0/../../../../arm-eabi/lib/thumb\libsysbase.a(syscall_support.o)
                              c:/ndsdev/devkitPro/libnds/lib\libnds9.a(initSystem.o) (__syscalls)
c:/ndsdev/devkitpro/devkitarm/bin/../lib/gcc/arm-eabi/4.6.0/../../../../arm-eabi/lib/thumb\libsysbase.a(handle_manager.o)
                              c:/ndsdev/devkitpro/devkitarm/bin/../lib/gcc/arm-eabi/4.6.0/../../../../arm-eabi/lib/thumb\libsysbase.a(close.o) (__release_handle)
c:/ndsdev/devkitpro/devkitarm/bin/../lib/gcc/arm-eabi/4.6.0/../../../../arm-eabi/lib/thumb\libsysbase.a(dirent.o)
                              FileManage.o (opendir)
c:/ndsdev/devkitpro/devkitarm/bin/../lib/gcc/arm-eabi/4.6.0/thumb\libgcc.a(_arm_fixunsdfsi.o)
                              c:/ndsdev/devkitpro/devkitarm/bin/../lib/gcc/arm-eabi/4.6.0/../../../../arm-eabi/lib/thumb\libg.a(lib_a-strtod.o) (__aeabi_d2uiz)
c:/ndsdev/devkitpro/devkitarm/bin/../lib/gcc/arm-eabi/4.6.0/thumb\libgcc.a(_arm_truncdfsf2.o)
                              c:/ndsdev/devkitpro/devkitarm/bin/../lib/gcc/arm-eabi/4.6.0/../../../../arm-eabi/lib/thumb\libg.a(lib_a-svfscanf.o) (__aeabi_d2f)
c:/ndsdev/devkitpro/devkitarm/bin/../lib/gcc/arm-eabi/4.6.0/thumb\libgcc.a(_aeabi_uldivmod.o)
                              c:/ndsdev/devkitpro/devkitarm/bin/../lib/gcc/arm-eabi/4.6.0/../../../../arm-eabi/lib/thumb\libg.a(lib_a-svfprintf.o) (__aeabi_uldivmod)
c:/ndsdev/devkitpro/devkitarm/bin/../lib/gcc/arm-eabi/4.6.0/thumb\libgcc.a(bpabi.o)
                              c:/ndsdev/devkitpro/devkitarm/bin/../lib/gcc/arm-eabi/4.6.0/thumb\libgcc.a(_aeabi_uldivmod.o) (__gnu_uldivmod_helper)
c:/ndsdev/devkitpro/devkitarm/bin/../lib/gcc/arm-eabi/4.6.0/thumb\libgcc.a(unwind-arm.o)
                              c:/ndsdev/devkitpro/devkitarm/bin/../lib/gcc/arm-eabi/4.6.0/thumb\libgcc.a(bpabi.o) (__aeabi_unwind_cpp_pr0)
c:/ndsdev/devkitpro/devkitarm/bin/../lib/gcc/arm-eabi/4.6.0/thumb\libgcc.a(libunwind.o)
                              c:/ndsdev/devkitpro/devkitarm/bin/../lib/gcc/arm-eabi/4.6.0/thumb\libgcc.a(unwind-arm.o) (restore_core_regs)
c:/ndsdev/devkitpro/devkitarm/bin/../lib/gcc/arm-eabi/4.6.0/thumb\libgcc.a(pr-support.o)
                              c:/ndsdev/devkitpro/devkitarm/bin/../lib/gcc/arm-eabi/4.6.0/thumb\libgcc.a(unwind-arm.o) (__gnu_unwind_execute)
c:/ndsdev/devkitpro/devkitarm/bin/../lib/gcc/arm-eabi/4.6.0/thumb\libgcc.a(_divdi3.o)
                              c:/ndsdev/devkitpro/devkitarm/bin/../lib/gcc/arm-eabi/4.6.0/thumb\libgcc.a(bpabi.o) (__divdi3)
c:/ndsdev/devkitpro/devkitarm/bin/../lib/gcc/arm-eabi/4.6.0/thumb\libgcc.a(_udivdi3.o)
                              c:/ndsdev/devkitpro/devkitarm/bin/../lib/gcc/arm-eabi/4.6.0/thumb\libgcc.a(bpabi.o) (__udivdi3)
c:/ndsdev/devkitpro/devkitarm/bin/../lib/gcc/arm-eabi/4.6.0/thumb\libgcc.a(_clzsi2.o)
                              c:/ndsdev/devkitpro/devkitarm/bin/../lib/gcc/arm-eabi/4.6.0/thumb\libgcc.a(_divdi3.o) (__clzsi2)
c:/ndsdev/devkitpro/devkitarm/bin/../lib/gcc/arm-eabi/4.6.0/../../../../arm-eabi/lib/thumb\libg.a(lib_a-abort.o)
                              c:/ndsdev/devkitpro/devkitarm/bin/../lib/gcc/arm-eabi/4.6.0/thumb\libgcc.a(unwind-arm.o) (abort)
c:/ndsdev/devkitpro/devkitarm/bin/../lib/gcc/arm-eabi/4.6.0/../../../../arm-eabi/lib/thumb\libg.a(lib_a-signal.o)
                              c:/ndsdev/devkitpro/devkitarm/bin/../lib/gcc/arm-eabi/4.6.0/../../../../arm-eabi/lib/thumb\libg.a(lib_a-abort.o) (raise)
c:/ndsdev/devkitpro/devkitarm/bin/../lib/gcc/arm-eabi/4.6.0/../../../../arm-eabi/lib/thumb\libsysbase.a(getpid.o)
                              c:/ndsdev/devkitpro/devkitarm/bin/../lib/gcc/arm-eabi/4.6.0/../../../../arm-eabi/lib/thumb\libg.a(lib_a-signal.o) (_getpid_r)
c:/ndsdev/devkitpro/devkitarm/bin/../lib/gcc/arm-eabi/4.6.0/../../../../arm-eabi/lib/thumb\libsysbase.a(kill.o)
                              c:/ndsdev/devkitpro/devkitarm/bin/../lib/gcc/arm-eabi/4.6.0/../../../../arm-eabi/lib/thumb\libg.a(lib_a-signal.o) (_kill_r)
c:/ndsdev/devkitpro/devkitarm/bin/../lib/gcc/arm-eabi/4.6.0/../../../../arm-eabi/lib/thumb\libsysbase.a(_exit.o)
                              c:/ndsdev/devkitpro/devkitarm/bin/../lib/gcc/arm-eabi/4.6.0/../../../../arm-eabi/lib/thumb\libg.a(lib_a-abort.o) (_exit)

Allocating common symbols
Common symbol       size              file

Wifi_Data_Struct    0x9f44            c:/ndsdev/devkitPro/libnds/lib\libdswifi9.a(wifi_arm9.o)
dnsrecord_return    0x524             c:/ndsdev/devkitPro/libnds/lib\libdswifi9.a(sgIP_DNS.o)
PA_ScreenSpace      0x2               c:/ndsdev/devkitPro/PAlib/lib\libpa9.a(PA.o)
tcprecords          0x4               c:/ndsdev/devkitPro/libnds/lib\libdswifi9.a(sgIP_TCP.o)
ProtocolInterfaces  0x8               c:/ndsdev/devkitPro/libnds/lib\libdswifi9.a(sgIP_Hub.o)
currentCopy         0x5c              c:/ndsdev/devkitPro/libnds/lib\libnds9.a(console.o)
udpport_counter     0x4               c:/ndsdev/devkitPro/libnds/lib\libdswifi9.a(sgIP_UDP.o)
file_tsize          0x4               FileManage.o
number_of_files     0x4               FileManage.o
PA_Reco             0xc               c:/ndsdev/devkitPro/PAlib/lib\libpa9.a(PA_Reco.o)
fifo_datamsg_data   0x40              c:/ndsdev/devkitPro/libnds/lib\libnds9.a(fifosystem.o)
PA_Draw16           0x8               c:/ndsdev/devkitPro/PAlib/lib\libpa9.a(PA_16c.o)
count_100ms         0x4               c:/ndsdev/devkitPro/libnds/lib\libdswifi9.a(sgIP.o)
PA_RTC              0x8               c:/ndsdev/devkitPro/PAlib/lib\libpa9.a(PA_RTC.o)
free_mem            0x2000            c:/ndsdev/devkitPro/PAlib/lib\libpa9.a(PA_Sprite.o)
lasttime            0x4               c:/ndsdev/devkitPro/libnds/lib\libdswifi9.a(sgIP_TCP.o)
PadPointer          0x4               c:/ndsdev/devkitPro/PAlib/lib\libpa9.a(PA.o)
__dsimode           0x1               c:/ndsdev/devkitPro/libnds/lib\libnds9.a(initSystem.o)
dhcp_rcvd_dns       0xc               c:/ndsdev/devkitPro/libnds/lib\libdswifi9.a(sgIP_DHCP.o)
list                0x10200           FileManage.o
bgState             0x140             c:/ndsdev/devkitPro/libnds/lib\libnds9.a(background.o)
time_count          0x4               c:/ndsdev/devkitPro/libnds/lib\libdswifi9.a(sgIP_DNS.o)
port_counter        0x4               c:/ndsdev/devkitPro/libnds/lib\libdswifi9.a(sgIP_TCP.o)
dhcp_rcvd_snmask    0x4               c:/ndsdev/devkitPro/libnds/lib\libdswifi9.a(sgIP_DHCP.o)
fifo_buffer         0x800             c:/ndsdev/devkitPro/libnds/lib\libnds9.a(fifosystem.o)
re                  0x4               FileManage.o
sel_created         0x1               FileManage.o
tv                  0x8               wifi.o
PA_texttiles        0x8               c:/ndsdev/devkitPro/PAlib/lib\libpa9.a(PA_Text.o)
NumHWInterfaces     0x4               c:/ndsdev/devkitPro/libnds/lib\libdswifi9.a(sgIP_Hub.o)
n_free_mem          0x4               c:/ndsdev/devkitPro/PAlib/lib\libpa9.a(PA_Sprite.o)
dhcp_state          0x4               c:/ndsdev/devkitPro/libnds/lib\libdswifi9.a(sgIP_DHCP.o)
PA_SpritePrio       0x100             c:/ndsdev/devkitPro/PAlib/lib\libpa9.a(PA_Sprite.o)
alias_list          0x14              c:/ndsdev/devkitPro/libnds/lib\libdswifi9.a(sgIP_DNS.o)
dhcp_p              0x4               c:/ndsdev/devkitPro/libnds/lib\libdswifi9.a(sgIP_DHCP.o)
PA_LetterPos        0x3004            c:/ndsdev/devkitPro/PAlib/lib\libpa9.a(PA_TextBits.o)
dhcp_optionptr      0x4               c:/ndsdev/devkitPro/libnds/lib\libdswifi9.a(sgIP_DHCP.o)
socketlist          0x100             c:/ndsdev/devkitPro/libnds/lib\libdswifi9.a(sgIP_sockets.o)
bgIsTextLut         0x8               c:/ndsdev/devkitPro/libnds/lib\libnds9.a(background.o)
PA_olddowntime      0x4               c:/ndsdev/devkitPro/PAlib/lib\libpa9.a(PA_Draw.o)
querydata           0x200             c:/ndsdev/devkitPro/libnds/lib\libdswifi9.a(sgIP_DNS.o)
responsedata        0x200             c:/ndsdev/devkitPro/libnds/lib\libdswifi9.a(sgIP_DNS.o)
alive               0x1               FileManage.o
position            0x4               FileManage.o
PA_Keyboard_Struct  0x12              c:/ndsdev/devkitPro/PAlib/lib\libpa9.a(PA_Keyboard.o)
dhcp_int            0x4               c:/ndsdev/devkitPro/libnds/lib\libdswifi9.a(sgIP_DHCP.o)
PA_VBLCounter       0x40              c:/ndsdev/devkitPro/PAlib/lib\libpa9.a(PA_Interrupt.o)
PA_parallaxY        0x20              c:/ndsdev/devkitPro/PAlib/lib\libpa9.a(PA_BgTiles.o)
used_mem            0x800             c:/ndsdev/devkitPro/PAlib/lib\libpa9.a(PA_Sprite.o)
fifo_value32_func   0x40              c:/ndsdev/devkitPro/libnds/lib\libnds9.a(fifosystem.o)
fifo_address_func   0x40              c:/ndsdev/devkitPro/libnds/lib\libnds9.a(fifosystem.o)
PA_parallaxX        0x20              c:/ndsdev/devkitPro/PAlib/lib\libpa9.a(PA_BgTiles.o)
ap                  0x58              FileManage.o
PA_DrawBg32         0x8               c:/ndsdev/devkitPro/PAlib/lib\libpa9.a(PA_Draw.o)
pa_checklid         0x1               c:/ndsdev/devkitPro/PAlib/lib\libpa9.a(PA.o)
PA_RecoInfo         0x18              c:/ndsdev/devkitPro/PAlib/lib\libpa9.a(PA_Reco.o)
spriteanims         0x2400            c:/ndsdev/devkitPro/PAlib/lib\libpa9.a(PA_Sprite.o)
PA_SpriteAnimP      0x2000            c:/ndsdev/devkitPro/PAlib/lib\libpa9.a(PA_Sprite.o)
PA_IPC              0x198             c:/ndsdev/devkitPro/PAlib/lib\libpa9.a(PA.o)
pdir                0x4               FileManage.o
Pad                 0x27              c:/ndsdev/devkitPro/PAlib/lib\libpa9.a(PA.o)
dnsrecords          0x5240            c:/ndsdev/devkitPro/libnds/lib\libdswifi9.a(sgIP_DNS.o)
__hexdig            0x100             c:/ndsdev/devkitpro/devkitarm/bin/../lib/gcc/arm-eabi/4.6.0/../../../../arm-eabi/lib/thumb\libg.a(lib_a-gdtoa-gethex.o)
PA_TextBox          0x8               c:/ndsdev/devkitPro/PAlib/lib\libpa9.a(PA_Text.o)
wifi_hw             0x4               c:/ndsdev/devkitPro/libnds/lib\libdswifi9.a(wifi_arm9.o)
PAbgtext            0x2               c:/ndsdev/devkitPro/PAlib/lib\libpa9.a(PA_Text.o)
dhcp_rcvd_ip        0x4               c:/ndsdev/devkitPro/libnds/lib\libdswifi9.a(sgIP_DHCP.o)
tempsize            0x2               c:/ndsdev/devkitPro/PAlib/lib\libpa9.a(PA_BgTiles.o)
xDownloadTaskHandle
                    0x4               Main.o
dhcp_hostname       0x40              c:/ndsdev/devkitPro/libnds/lib\libdswifi9.a(sgIP_DHCP.o)
dhcp_serverip       0x4               c:/ndsdev/devkitPro/libnds/lib\libdswifi9.a(sgIP_DHCP.o)
HWInterfaces        0x30              c:/ndsdev/devkitPro/libnds/lib\libdswifi9.a(sgIP_Hub.o)
pa_printx           0x8               c:/ndsdev/devkitPro/PAlib/lib\libpa9.a(PA_Text.o)
pa_bittextpoliceheight
                    0xa               c:/ndsdev/devkitPro/PAlib/lib\libpa9.a(PA_TextBits.o)
ipaddr_ip           0x4               c:/ndsdev/devkitPro/libnds/lib\libdswifi9.a(sgIP_DNS.o)
mode                0x4               FileManage.o
pent                0x4               FileManage.o
Stylus              0x1c              c:/ndsdev/devkitPro/PAlib/lib\libpa9.a(PA.o)
PA_first            0x200             c:/ndsdev/devkitPro/PAlib/lib\libpa9.a(PA_Sprite.o)
pa_bittextsizes     0xa               c:/ndsdev/devkitPro/PAlib/lib\libpa9.a(PA_TextBits.o)
wHeapsize           0x4               c:/ndsdev/devkitPro/libnds/lib\libdswifi9.a(wifi_arm9.o)
fifo_value32_data   0x40              c:/ndsdev/devkitPro/libnds/lib\libnds9.a(fifosystem.o)
selected            0x1               FileManage.o
charblocks          0x8c              c:/ndsdev/devkitPro/PAlib/lib\libpa9.a(PA_BgTiles.o)
PA_next             0x100             c:/ndsdev/devkitPro/PAlib/lib\libpa9.a(PA_Sprite.o)
files               0x4               FileManage.o
PA_bgmap            0x20              c:/ndsdev/devkitPro/PAlib/lib\libpa9.a(PA.o)
PA_GifInfo          0x14              c:/ndsdev/devkitPro/PAlib/lib\libpa9.a(PA.o)
fifo_value32_queue  0x40              c:/ndsdev/devkitPro/libnds/lib\libnds9.a(fifosystem.o)
PA_StylusPos        0x9c40            c:/ndsdev/devkitPro/PAlib/lib\libpa9.a(PA_Reco.o)
fifo_data_queue     0x40              c:/ndsdev/devkitPro/libnds/lib\libnds9.a(fifosystem.o)
count_1000ms        0x4               c:/ndsdev/devkitPro/libnds/lib\libdswifi9.a(sgIP.o)
dhcp_tid            0x4               c:/ndsdev/devkitPro/libnds/lib\libdswifi9.a(sgIP_DHCP.o)
sgIP_timems         0x4               c:/ndsdev/devkitPro/libnds/lib\libdswifi9.a(sgIP.o)
rotbg_size          0x8               c:/ndsdev/devkitPro/PAlib/lib\libpa9.a(PA_BgRot.o)
ArpRecords          0x400             c:/ndsdev/devkitPro/libnds/lib\libdswifi9.a(sgIP_ARP.o)
PA_VBLCounterOn     0x10              c:/ndsdev/devkitPro/PAlib/lib\libpa9.a(PA_Interrupt.o)
pa_printy           0x8               c:/ndsdev/devkitPro/PAlib/lib\libpa9.a(PA_Text.o)
PA_DrawBg           0x8               c:/ndsdev/devkitPro/PAlib/lib\libpa9.a(PA_Draw.o)
cur_dir             0x400             FileManage.o
PA_oldx             0x4               c:/ndsdev/devkitPro/PAlib/lib\libpa9.a(PA_Draw.o)
query_time_start    0x4               c:/ndsdev/devkitPro/libnds/lib\libdswifi9.a(sgIP_DNS.o)
rv                  0x4               FileManage.o
dhcp_requestDNS     0x4               c:/ndsdev/devkitPro/libnds/lib\libdswifi9.a(sgIP_DHCP.o)
dhcp_socket         0x4               c:/ndsdev/devkitPro/libnds/lib\libdswifi9.a(sgIP_DHCP.o)
wHeapFirst          0x4               c:/ndsdev/devkitPro/libnds/lib\libdswifi9.a(wifi_arm9.o)
udprecords          0x4               c:/ndsdev/devkitPro/libnds/lib\libdswifi9.a(sgIP_UDP.o)
textcol             0x4               c:/ndsdev/devkitPro/PAlib/lib\libpa9.a(PA_Text.o)
wifi_connect_point  0x58              c:/ndsdev/devkitPro/libnds/lib\libdswifi9.a(wifi_arm9.o)
numsynlist          0x4               c:/ndsdev/devkitPro/libnds/lib\libdswifi9.a(sgIP_TCP.o)
PA_drawsize         0x2               c:/ndsdev/devkitPro/PAlib/lib\libpa9.a(PA_Draw.o)
CHANNELS            0x48              down_execute.o
addr_list           0x14              c:/ndsdev/devkitPro/libnds/lib\libdswifi9.a(sgIP_DNS.o)
folders             0x4               FileManage.o
obj_per_gfx         0x800             c:/ndsdev/devkitPro/PAlib/lib\libpa9.a(PA_Sprite.o)
PA_CustomShape      0xd48             c:/ndsdev/devkitPro/PAlib/lib\libpa9.a(PA_Reco.o)
PA_RecoShape        0x10              c:/ndsdev/devkitPro/PAlib/lib\libpa9.a(PA_Reco.o)
pa_printscroll      0x4               c:/ndsdev/devkitPro/PAlib/lib\libpa9.a(PA_Text.o)
PA_oldy             0x4               c:/ndsdev/devkitPro/PAlib/lib\libpa9.a(PA_Draw.o)
PA_MovedSprite      0x10              c:/ndsdev/devkitPro/PAlib/lib\libpa9.a(PA.o)
PA_BgInfo           0x220             c:/ndsdev/devkitPro/PAlib/lib\libpa9.a(PA_BgTiles.o)
tempvar             0x2               c:/ndsdev/devkitPro/PAlib/lib\libpa9.a(PA_Draw.o)
textheight          0x4               FileManage.o
XXX_BUF_            0x200000          download.o
punixTime           0x4               c:/ndsdev/devkitpro/devkitarm/bin/../lib/gcc/arm-eabi/4.6.0/../../../../arm-eabi/lib/thumb\libsysbase.a(times.o)
synlist             0x800             c:/ndsdev/devkitPro/libnds/lib\libdswifi9.a(sgIP_TCP.o)
fifo_address_data   0x40              c:/ndsdev/devkitPro/libnds/lib\libnds9.a(fifosystem.o)
ipaddr_alias        0x100             c:/ndsdev/devkitPro/libnds/lib\libdswifi9.a(sgIP_DNS.o)
_PA_LidDown         0x1               c:/ndsdev/devkitPro/PAlib/lib\libpa9.a(PA_Keys.o)
dhcp_timestart      0x4               c:/ndsdev/devkitPro/libnds/lib\libdswifi9.a(sgIP_DHCP.o)
xShellTaskHandle    0x4               Main.o
dhcp_status         0x4               c:/ndsdev/devkitPro/libnds/lib\libdswifi9.a(sgIP_DHCP.o)
PA_temppal          0x200             c:/ndsdev/devkitPro/PAlib/lib\libpa9.a(PA_Draw.o)
dns_sock            0x4               c:/ndsdev/devkitPro/libnds/lib\libdswifi9.a(sgIP_DNS.o)
PA_UserInfo         0x52              c:/ndsdev/devkitPro/PAlib/lib\libpa9.a(PA_RTC.o)
wHeapStart          0x4               c:/ndsdev/devkitPro/libnds/lib\libdswifi9.a(wifi_arm9.o)
last_id             0x4               c:/ndsdev/devkitPro/libnds/lib\libdswifi9.a(sgIP_DNS.o)
scrollpos           0xe0              c:/ndsdev/devkitPro/PAlib/lib\libpa9.a(PA_BgTiles.o)
PA_obj              0x800             c:/ndsdev/devkitPro/PAlib/lib\libpa9.a(PA_Sprite.o)
sgIP_errno          0x4               c:/ndsdev/devkitPro/libnds/lib\libdswifi9.a(sgIP.o)
dnsrecord_hostent   0x14              c:/ndsdev/devkitPro/libnds/lib\libdswifi9.a(sgIP_DNS.o)
dhcp_rcvd_gateway   0x4               c:/ndsdev/devkitPro/libnds/lib\libdswifi9.a(sgIP_DHCP.o)
DualSpriteX         0x100             c:/ndsdev/devkitPro/PAlib/lib\libpa9.a(PA_Sprite.o)
st                  0x44              FileManage.o
PA_textpal          0x8               c:/ndsdev/devkitPro/PAlib/lib\libpa9.a(PA_Text.o)
PA_nBit             0x2               c:/ndsdev/devkitPro/PAlib/lib\libpa9.a(PA_Draw.o)
NumProtocolInterfaces
                    0x4               c:/ndsdev/devkitPro/libnds/lib\libdswifi9.a(sgIP_Hub.o)
fifo_datamsg_func   0x40              c:/ndsdev/devkitPro/libnds/lib\libnds9.a(fifosystem.o)
idnum_count         0x4               c:/ndsdev/devkitPro/libnds/lib\libdswifi9.a(sgIP_IP.o)
dhcp_timelastaction
                    0x4               c:/ndsdev/devkitPro/libnds/lib\libdswifi9.a(sgIP_DHCP.o)
PA_Draw1632         0x8               c:/ndsdev/devkitPro/PAlib/lib\libpa9.a(PA_16c.o)
pa_obj_created      0x100             c:/ndsdev/devkitPro/PAlib/lib\libpa9.a(PA_Sprite.o)
fifo_address_queue  0x40              c:/ndsdev/devkitPro/libnds/lib\libnds9.a(fifosystem.o)
PA_textmap          0x8               c:/ndsdev/devkitPro/PAlib/lib\libpa9.a(PA_Text.o)
PA_ExtPal           0x4               c:/ndsdev/devkitPro/PAlib/lib\libpa9.a(PA_Palette.o)

Memory Configuration

Name             Origin             Length             Attributes
rom              0x08000000         0x02000000
ewram            0x02000000         0x003ff000
dtcm             0x0b000000         0x00004000
vectors          0x01000000         0x00000100
itcm             0x01000100         0x00007f00
*default*        0x00000000         0xffffffff

Linker script and memory map

                0x01000000                __vectors_start = ORIGIN (vectors)
                0x01000100                __itcm_start = ORIGIN (itcm)
                0x023ff000                __ewram_end = (ORIGIN (ewram) + 0x3ff000)
                0x023ff000                __eheap_end = (ORIGIN (ewram) + 0x3ff000)
                0x0b000000                __dtcm_start = ORIGIN (dtcm)
                0x0b004000                __dtcm_top = (ORIGIN (dtcm) + 0x4000)
                0x0b003ff8                __irq_flags = (__dtcm_top - 0x8)
                0x0b003ffc                __irq_vector = (__dtcm_top - 0x4)
                0x0b003f00                __sp_svc = (__dtcm_top - 0x100)
                0x0b003e00                __sp_irq = (__sp_svc - 0x100)
                0x0b003d00                __sp_usr = (__sp_irq - 0x100)

.init           0x02000000      0x23c
                0x02000000                __text_start = .
 *(.init)
 .init          0x02000000      0x230 c:/ndsdev/devkitpro/devkitarm/bin/../lib/gcc/arm-eabi/4.6.0/../../../../arm-eabi/lib/thumb/ds_arm9_crt0.o
                0x02000000                _start
 .init          0x02000230        0x4 c:/ndsdev/devkitpro/devkitarm/bin/../lib/gcc/arm-eabi/4.6.0/thumb/crti.o
                0x02000230                _init
 .init          0x02000234        0x8 c:/ndsdev/devkitpro/devkitarm/bin/../lib/gcc/arm-eabi/4.6.0/thumb/crtn.o
                0x0200023c                . = ALIGN (0x4)

.plt
 *(.plt)

.text           0x02000240    0x33630
 *(EXCLUDE_FILE(*.itcm*) .text)
 .text          0x02000240        0x0 c:/ndsdev/devkitpro/devkitarm/bin/../lib/gcc/arm-eabi/4.6.0/../../../../arm-eabi/lib/thumb/ds_arm9_crt0.o
 .text          0x02000240        0x0 c:/ndsdev/devkitpro/devkitarm/bin/../lib/gcc/arm-eabi/4.6.0/thumb/crti.o
 .text          0x02000240       0x6c c:/ndsdev/devkitpro/devkitarm/bin/../lib/gcc/arm-eabi/4.6.0/thumb/crtbegin.o
 .text          0x020002ac        0x0 bg_create_Map.o
 .text          0x020002ac        0x0 bg_create_Pal.o
 .text          0x020002ac        0x0 bg_create_Tiles.o
 .text          0x020002ac        0x0 bg_dialog_Map.o
 .text          0x020002ac        0x0 bg_dialog_Pal.o
 .text          0x020002ac        0x0 bg_dialog_Tiles.o
 .text          0x020002ac        0x0 bg_down_Map.o
 .text          0x020002ac        0x0 bg_down_Pal.o
 .text          0x020002ac        0x0 bg_down_Sprite.o
 .text          0x020002ac        0x0 bg_down_Tiles.o
 .text          0x020002ac        0x0 bg_edit_dialog_Map.o
 .text          0x020002ac        0x0 bg_edit_dialog_Pal.o
 .text          0x020002ac        0x0 bg_edit_dialog_Tiles.o
 .text          0x020002ac        0x0 bg_up_Map.o
 .text          0x020002ac        0x0 bg_up_Pal.o
 .text          0x020002ac        0x0 bg_up_Tiles.o
 .text          0x020002ac        0x0 menu_del_Pal.o
 .text          0x020002ac        0x0 menu_del_Sprite.o
 .text          0x020002ac        0x0 menu_move_Pal.o
 .text          0x020002ac        0x0 menu_move_Sprite.o
 .text          0x020002ac        0x0 menu_serial_Pal.o
 .text          0x020002ac        0x0 menu_serial_Sprite.o
 .text          0x020002ac        0x0 menu_setting_Pal.o
 .text          0x020002ac        0x0 menu_setting_Sprite.o
 .text          0x020002ac        0x0 menu_usb_Pal.o
 .text          0x020002ac        0x0 menu_usb_Sprite.o
 .text          0x020002ac        0x0 menu_wifi_Pal.o
 .text          0x020002ac        0x0 menu_wifi_Sprite.o
 .text          0x020002ac        0x0 move_create_Pal.o
 .text          0x020002ac        0x0 move_create_Sprite.o
 .text          0x020002ac        0x0 sel_menu_serial_Pal.o
 .text          0x020002ac        0x0 sel_menu_serial_Sprite.o
 .text          0x020002ac        0x0 sel_menu_usb_Pal.o
 .text          0x020002ac        0x0 sel_menu_usb_Sprite.o
 .text          0x020002ac        0x0 sel_menu_wifi_Pal.o
 .text          0x020002ac        0x0 sel_menu_wifi_Sprite.o
 .text          0x020002ac        0x0 selected_Pal.o
 .text          0x020002ac        0x0 selected_Sprite.o
 .text          0x020002ac        0x0 down.o
 .text          0x020002ac        0x0 up.o
 .text          0x020002ac     0x27e0 FileManage.o
                0x020002ac                fileInit
                0x0200030c                lowercase
                0x0200034c                getextension
                0x02000520                fileListing
                0x02000614                createitem
                0x02000734                updatefiles
                0x02000840                clearitems
                0x0200087c                goup
                0x02000914                godown
                0x020009e0                clearlist
                0x02000a2c                gotolastdir
                0x02000a5c                checkDownloadDevice
                0x02000aa8                checkitems
                0x02000d70                deleteDirTree
                0x02000e44                deleteFolderAndFiles
                0x0200118c                sleepTimer
                0x020011b4                initFileAndDirectory
                0x02001488                moveDirectoryAndFiles
                0x02001d1c                addFolder
                0x020028a0                checkFileMenu
 .text          0x02002a8c      0x5d8 Graphic.o
                0x02002a8c                loadBackground
                0x02002aac                loadDialogBackground
                0x02002ae4                loadSprite
                0x02002b84                createSprite
                0x02002d94                redrawSelectedDevice
 .text          0x02003064       0xd0 Main.o
 .text          0x02003134      0x10c down_execute.o
                0x02003134                down_execute
                0x02003204                check_abort
                0x02003208                confirm_error
                0x02003224                channel_name
 .text          0x02003240      0x630 download.o
                0x0200331c                download
 .text          0x02003870       0x84 serial.o
                0x020038b8                serial_init
 .text          0x020038f4       0x84 usb.o
                0x0200393c                usb_init
 .text          0x02003978      0x558 wifi.o
                0x02003c1c                wifi_init
 .text          0x02003ed0      0x264 croutine.o
                0x02003ed0                xCoRoutineCreate
                0x02003f88                vCoRoutineAddToDelayedList
                0x02003fcc                vCoRoutineSchedule
                0x020040fc                xCoRoutineRemoveFromEventList
 .text          0x02004134       0x30 heap.o
                0x02004134                pvPortMalloc
                0x0200414c                vPortFree
 .text          0x02004164       0x98 list.o
                0x02004164                vListInitialise
                0x0200417c                vListInitialiseItem
                0x02004184                vListInsertEnd
                0x020041a0                vListInsert
                0x020041d8                vListRemove
 .text          0x020041fc       0xd4 port.o
                0x020041fc                pxPortInitialiseStack
                0x02004294                xPortStartScheduler
                0x020042cc                vPortEndScheduler
 .text          0x020042d0       0x40 portISR.o
                0x020042d0                vPortISRStartFirstTask
                0x020042d8                vPortYieldProcessor
                0x020042d8                vPortEnterCritical
                0x020042ec                vPortExitCritical
 .text          0x02004310      0x4e4 queue.o
                0x02004434                xQueueCreate
                0x02004498                xQueueGenericSend
                0x020045a4                xQueueCreateMutex
                0x020045e8                xQueueGenericSendFromISR
                0x0200462c                xQueueGenericReceive
                0x02004770                xQueueReceiveFromISR
                0x020047b4                uxQueueMessagesWaiting
                0x020047c8                uxQueueMessagesWaitingFromISR
                0x020047cc                vQueueDelete
                0x020047e0                xQueueIsQueueEmptyFromISR
                0x020047e8                xQueueIsQueueFullFromISR
 .text          0x020047f4      0xb40 tasks.o
                0x02004894                xTaskGenericCreate
                0x02004a30                vTaskDelete
                0x02004a98                uxTaskPriorityGet
                0x02004ab8                vTaskPrioritySet
                0x02004b50                vTaskSuspend
                0x02004ba0                xTaskIsTaskSuspended
                0x02004bc8                vTaskResume
                0x02004c28                xTaskResumeFromISR
                0x02004c98                vTaskStartScheduler
                0x02004cd8                vTaskEndScheduler
                0x02004cf0                vTaskSuspendAll
                0x02004d00                xTaskGetTickCount
                0x02004d18                uxTaskGetNumberOfTasks
                0x02004d24                vTaskStartTrace
                0x02004d48                ulTaskEndTrace
                0x02004d64                vTaskIncrementTick
                0x02004dec                xTaskResumeAll
                0x02004eb8                vTaskList
                0x02004fd4                vTaskDelay
                0x02005028                vTaskDelayUntil
                0x02005090                vTaskSwitchContext
                0x02005134                vTaskPlaceOnEventList
                0x02005190                xTaskRemoveFromEventList
                0x02005200                vTaskSetTimeOutState
                0x02005210                xTaskCheckForTimeOut
                0x0200526c                vTaskMissedYield
                0x02005278                xTaskGetCurrentTaskHandle
                0x02005284                vTaskPriorityInherit
                0x020052ec                vTaskPriorityDisinherit
 .text          0x02005334      0x400 virtual_io.o
                0x02005544                init_virtual_io
                0x020055c4                readb_virtual_io
                0x02005618                writeb_virtual_io
                0x0200571c                close_virtual_io
 .text          0x02005734        0x0 bg_create.o
 .text          0x02005734        0x0 bg_dialog.o
 .text          0x02005734        0x0 bg_down.o
 .text          0x02005734        0x0 bg_edit_dialog.o
 .text          0x02005734        0x0 bg_up.o
 *fill*         0x02005734        0xc ff
 .text          0x02005740       0x50 jump.o
                0x02005740                _copy_bin_and_jump
 .text          0x02005790       0xf0 assemfunc.o
                0x02005790                vPortDisableInterruptsFromThumb
                0x020057a8                vPortEnableInterruptsFromThumb
                0x020057c0                portRESTORE_CONTEXT_FIRST
                0x020057d8                portRESTORE_CONTEXT
                0x02005810                vPreemptiveTick
 .text          0x02005880       0xbc c:/ndsdev/devkitPro/PAlib/lib\libpa9.a(PA.o)
                0x02005880                PA_SetBrightness
                0x020058c0                PA_Nothing
                0x020058c4                PA_CheckLid
 .text          0x0200593c      0x6f0 c:/ndsdev/devkitPro/PAlib/lib\libpa9.a(PA_BgTiles.o)
                0x0200593c                PA_ReLoadBgTiles
                0x02005984                PA_InitBg
                0x02005a6c                PA_DeleteTiles
                0x02005b00                PA_LoadBgTilesEx
                0x02005d10                PA_DeleteMap
                0x02005d8c                PA_LoadBgMap
                0x02005f08                PA_ResetBgSysScreen
                0x0200601c                PA_ResetBgSys
 .text          0x0200602c       0x84 c:/ndsdev/devkitPro/PAlib/lib\libpa9.a(PA_Error.o)
                0x0200602c                PA_Error
                0x0200604c                _PA_Assert
 .text          0x020060b0      0x278 c:/ndsdev/devkitPro/PAlib/lib\libpa9.a(PA_Inits.o)
                0x020060b0                PA_Init2D
                0x0200610c                PA_Init
 .text          0x02006328       0x78 c:/ndsdev/devkitPro/PAlib/lib\libpa9.a(PA_Interrupt.o)
                0x02006328                PA_VBLCountersReset
                0x02006348                PA_vblFunc
 .text          0x020063a0      0x604 c:/ndsdev/devkitPro/PAlib/lib\libpa9.a(PA_Keyboard.o)
                0x020063a0                PA_ReloadKeyboardCol
                0x02006480                PA_LoadDefaultKeyboard
                0x020065dc                PA_ChangeKeyboardType
                0x0200675c                PA_SetLetterPal
                0x0200687c                PA_CheckKeyboard
 .text          0x020069a4      0x2e0 c:/ndsdev/devkitPro/PAlib/lib\libpa9.a(PA_Keys.o)
                0x020069a4                PA_UpdatePad
                0x02006bbc                PA_UpdateStylus
 .text          0x02006c84      0x158 c:/ndsdev/devkitPro/PAlib/lib\libpa9.a(PA_Math.o)
                0x02006c84                PA_AdjustAngle
 .text          0x02006ddc      0x824 c:/ndsdev/devkitPro/PAlib/lib\libpa9.a(PA_NewBg.o)
                0x02006ddc                PA_LoadBackground
                0x020072d8                PA_LoadText
                0x0200740c                PA_LoadKeyboard
                0x02007560                PA_AddBitmapFont
                0x020075b0                PA_Add16cFont
 .text          0x02007600      0x244 c:/ndsdev/devkitPro/PAlib/lib\libpa9.a(PA_Palette.o)
                0x02007600                PA_LoadSpriteExtPal
                0x020076b8                PA_InitSpriteExtPal
                0x02007710                PA_LoadBgPalN
                0x020077e0                PA_InitBgExtPal
 .text          0x02007844       0xc4 c:/ndsdev/devkitPro/PAlib/lib\libpa9.a(PA_RTC.o)
                0x02007844                PA_UpdateUserInfo
                0x020078c8                PA_UpdateRTC
 .text          0x02007908      0x4e4 c:/ndsdev/devkitPro/PAlib/lib\libpa9.a(PA_Reco.o)
                0x02007908                PA_StylusLine
                0x02007a68                PA_AnalyzeShape
                0x02007d68                PA_CheckLetter
 .text          0x02007dec      0x7dc c:/ndsdev/devkitPro/PAlib/lib\libpa9.a(PA_Sprite.o)
                0x02007dec                PA_InitSpriteExtPrio
                0x02007e20                PA_ResetSpriteSysScreen
                0x02007f74                PA_ResetSpriteSys
                0x02007f90                PA_CreateGfx
                0x020080ec                PA_DeleteGfx
                0x02008288                PA_DeleteSprite
                0x020083dc                PA_InitSpriteDraw
                0x0200843c                PA_UpdateOAM
                0x02008590                PA_UpdateSpriteVBL
 .text          0x020085c8      0x1b4 c:/ndsdev/devkitPro/PAlib/lib\libpa9.a(PA_Stuff.o)
                0x020085c8                PA_SetVideoMode
                0x020085ec                PA_Locate
 *fill*         0x0200877c        0x4 ff
 .text          0x02008780      0xa98 c:/ndsdev/devkitPro/PAlib/lib\libpa9.a(PA_Text.o)
                0x02008780                PA_CreateTextPal
                0x0200882c                PA_LoadDefaultText
                0x020088f4                PA_OutputSimpleText
                0x020089d0                PA_OutputText
                0x02009170                PA_ClearTextBg
 .text          0x02009218     0x1230 c:/ndsdev/devkitPro/PAlib/lib\libpa9.a(PA_Text8bit.o)
                0x02009218                NoLetter
                0x0200921c                Letter
                0x0200960c                RotLetter2
                0x02009a50                RotLetter
                0x02009e98                TranspLetter
                0x0200a2bc                pa_8bitTextDecompress
                0x0200a334                PA_8bitText
                0x0200a3e4                PA_CenterSmartText
 .text          0x0200a448      0x428 c:/ndsdev/devkitPro/PAlib/lib\libpa9.a(PA_TextBits.o)
                0x0200a448                PA_DoAlign
                0x0200a59c                PA_DoLetterPos
 .text          0x0200a870      0xc04 c:/ndsdev/devkitPro/PAlib/lib\libpa9.a(PA_TextSpecial.o)
                0x0200a870                PA_EraseTextBox
                0x0200a940                PA_InitTextBorders
                0x0200aaec                PA_BoxTextNoWrap
                0x0200abe8                PA_BoxText
                0x0200b090                selectchar
                0x0200b0c0                PA_OutputTextSpecial0
                0x0200b164                PA_OutputTextSpecial1
                0x0200b208                PA_OutputTextSpecial2
                0x0200b270                PA_OutputTextSpecial3
                0x0200b320                PA_OutputTextSpecial4
                0x0200b3c4                PA_OutputTextSpecial5
 .text          0x0200b474      0x51c c:/ndsdev/devkitPro/PAlib/lib\libpa9.a(PA_Wifi.o)
                0x0200b474                PA_ConnectWifiWFC
                0x0200b490                makelong
                0x0200b4a0                PA_chartoip
                0x0200b528                PA_InitSocket
                0x0200b620                PA_InitServer
                0x0200b69c                search_word
                0x0200b6fc                get_HTTP_serveur
                0x0200b754                pa_wordSearch
                0x0200b7b4                pa_httpServer
                0x0200b80c                pa_transferScore
                0x0200b8fc                PA_SubmitScore
 .text          0x0200b990        0x0 c:/ndsdev/devkitPro/PAlib/lib\libpa9.a(keyboard.map.o)
 .text          0x0200b990        0x0 c:/ndsdev/devkitPro/PAlib/lib\libpa9.a(keyboard.pal.o)
 .text          0x0200b990        0x0 c:/ndsdev/devkitPro/PAlib/lib\libpa9.a(keyboard.raw.o)
 .text          0x0200b990        0x0 c:/ndsdev/devkitPro/PAlib/lib\libpa9.a(PA_TiledFont.o)
 .text          0x0200b990        0x0 c:/ndsdev/devkitPro/PAlib/lib\libpa9.a(PA_BmpFont0.o)
 .text          0x0200b990        0x0 c:/ndsdev/devkitPro/PAlib/lib\libpa9.a(PA_BmpFont1.o)
 .text          0x0200b990        0x0 c:/ndsdev/devkitPro/PAlib/lib\libpa9.a(PA_BmpFont2.o)
 .text          0x0200b990        0x0 c:/ndsdev/devkitPro/PAlib/lib\libpa9.a(PA_BmpFont3.o)
 .text          0x0200b990        0x0 c:/ndsdev/devkitPro/PAlib/lib\libpa9.a(PA_BmpFont4.o)
 .text          0x0200b990        0x0 c:/ndsdev/devkitPro/PAlib/lib\libpa9.a(PA_TiledFont_Map.bin.o)
 .text          0x0200b990        0x0 c:/ndsdev/devkitPro/PAlib/lib\libpa9.a(PA_TiledFont_Pal.bin.o)
 .text          0x0200b990        0x0 c:/ndsdev/devkitPro/PAlib/lib\libpa9.a(PA_TiledFont_Tiles.bin.o)
 .text          0x0200b990        0x0 c:/ndsdev/devkitPro/PAlib/lib\libpa9.a(PA_BmpFont0_Map.bin.o)
 .text          0x0200b990        0x0 c:/ndsdev/devkitPro/PAlib/lib\libpa9.a(PA_BmpFont0_Sizes.bin.o)
 .text          0x0200b990        0x0 c:/ndsdev/devkitPro/PAlib/lib\libpa9.a(PA_BmpFont0_Tiles.bin.o)
 .text          0x0200b990        0x0 c:/ndsdev/devkitPro/PAlib/lib\libpa9.a(PA_BmpFont1_Map.bin.o)
 .text          0x0200b990        0x0 c:/ndsdev/devkitPro/PAlib/lib\libpa9.a(PA_BmpFont1_Sizes.bin.o)
 .text          0x0200b990        0x0 c:/ndsdev/devkitPro/PAlib/lib\libpa9.a(PA_BmpFont1_Tiles.bin.o)
 .text          0x0200b990        0x0 c:/ndsdev/devkitPro/PAlib/lib\libpa9.a(PA_BmpFont2_Map.bin.o)
 .text          0x0200b990        0x0 c:/ndsdev/devkitPro/PAlib/lib\libpa9.a(PA_BmpFont2_Sizes.bin.o)
 .text          0x0200b990        0x0 c:/ndsdev/devkitPro/PAlib/lib\libpa9.a(PA_BmpFont2_Tiles.bin.o)
 .text          0x0200b990        0x0 c:/ndsdev/devkitPro/PAlib/lib\libpa9.a(PA_BmpFont3_Map.bin.o)
 .text          0x0200b990        0x0 c:/ndsdev/devkitPro/PAlib/lib\libpa9.a(PA_BmpFont3_Sizes.bin.o)
 .text          0x0200b990        0x0 c:/ndsdev/devkitPro/PAlib/lib\libpa9.a(PA_BmpFont3_Tiles.bin.o)
 .text          0x0200b990        0x0 c:/ndsdev/devkitPro/PAlib/lib\libpa9.a(PA_BmpFont4_Map.bin.o)
 .text          0x0200b990        0x0 c:/ndsdev/devkitPro/PAlib/lib\libpa9.a(PA_BmpFont4_Sizes.bin.o)
 .text          0x0200b990        0x0 c:/ndsdev/devkitPro/PAlib/lib\libpa9.a(PA_BmpFont4_Tiles.bin.o)
 .text          0x0200b990      0x6d0 c:/ndsdev/devkitPro/PAlib/lib\libpa9.a(PA_16c.o)
                0x0200b990                PA_16c8X8Color
                0x0200bae8                PA_Init16cBgEx
                0x0200bc88                pa_16cTextDecompress
                0x0200bd14                PA_16cText
                0x0200be98                PA_16cErase
                0x0200bed0                PA_16cClearZone
 .text          0x0200c060      0x338 c:/ndsdev/devkitPro/PAlib/lib\libpa9.a(PA_BgEasy.o)
                0x0200c060                PA_EasyBgScrollX
                0x0200c0ec                PA_EasyBgScrollY
                0x0200c178                PA_StoreEasyBgInfos
                0x0200c1b4                PA_EasyBgLoadEx
 .text          0x0200c398      0xccc c:/ndsdev/devkitPro/PAlib/lib\libpa9.a(PA_BgLargeMap.o)
                0x0200c398                PA_LargeScrollXN
                0x0200c554                PA_LargeScrollYN
                0x0200c704                PA_InfLargeScrollXN
                0x0200c8e8                PA_InfLargeScrollYN
                0x0200cad0                PA_UpdateTileEngineX
                0x0200cc0c                PA_UpdateTileEngineY
                0x0200cd44                PA_InfTilesScrollX
                0x0200cdd4                PA_InfTilesScrollY
                0x0200ce64                PA_InitLargeBg
 .text          0x0200d064      0x188 c:/ndsdev/devkitPro/PAlib/lib\libpa9.a(PA_BgRot.o)
                0x0200d064                PA_LoadRotBgMap
 .text          0x0200d1ec      0x2b4 c:/ndsdev/devkitPro/PAlib/lib\libpa9.a(PA_Draw.o)
                0x0200d1ec                PA_LoadBmpToBuffer
 .text          0x0200d4a0       0x50 c:/ndsdev/devkitPro/PAlib/lib\libpa9.a(PA_Fifo.o)
                0x0200d4a0                PA_FifoMsgHandler
                0x0200d4dc                PA_InitFifo
 .text          0x0200d4f0      0x1e8 c:/ndsdev/devkitPro/PAlib/lib\libpa9.a(PA_PaletteEx.o)
                0x0200d4f0                PA_CreatePalBright
                0x0200d5b4                PA_CreatePalTransition
                0x0200d61c                PA_SetBgPalNCol
                0x0200d66c                PA_SetSpritePalCol
                0x0200d6b4                PA_3DSetSpritePalCol
 .text          0x0200d6d8      0x348 c:/ndsdev/devkitPro/libnds/lib\libfat.a(libfat.o)
                0x0200d6d8                fatMount
                0x0200d790                fatMountSimple
                0x0200d7a4                fatUnmount
                0x0200d7dc                fatInit
                0x0200d938                fatInitDefault
                0x0200d944                fatGetVolumeLabel
 .text          0x0200da20      0x6d4 c:/ndsdev/devkitPro/libnds/lib\libfat.a(partition.o)
                0x0200da3c                FindFirstValidPartition
                0x0200dbe8                _FAT_partition_getPartitionFromPath
                0x0200dbfc                _FAT_partition_createFSinfo
                0x0200dcc8                _FAT_partition_readFSinfo
                0x0200dd88                _FAT_partition_constructor
                0x0200e000                _FAT_partition_writeFSinfo
                0x0200e0b4                _FAT_partition_destructor
 .text          0x0200e0f4      0x4bc c:/ndsdev/devkitPro/libnds/lib\libfat.a(cache.o)
                0x0200e1f4                _FAT_cache_constructor
                0x0200e290                _FAT_cache_readSectors
                0x0200e2ec                _FAT_cache_readPartialSector
                0x0200e334                _FAT_cache_readLittleEndianValue
                0x0200e390                _FAT_cache_writePartialSector
                0x0200e3e0                _FAT_cache_writeLittleEndianValue
                0x0200e428                _FAT_cache_eraseWritePartialSector
                0x0200e48c                _FAT_cache_writeSectors
                0x0200e4f8                _FAT_cache_flush
                0x0200e550                _FAT_cache_destructor
                0x0200e584                _FAT_cache_invalidate
 .text          0x0200e5b0     0x1414 c:/ndsdev/devkitPro/libnds/lib\libfat.a(directory.o)
                0x0200e7d4                _FAT_directory_entryGetCluster
                0x0200e7fc                _FAT_directory_getNextEntry
                0x0200eacc                _FAT_directory_getFirstEntry
                0x0200eaec                _FAT_directory_getRootEntry
                0x0200eb48                _FAT_directory_getVolumeLabel
                0x0200ebfc                _FAT_directory_entryFromPosition
                0x0200ed44                _FAT_directory_entryFromPath
                0x0200ef54                _FAT_directory_removeEntry
                0x0200f028                _FAT_directory_addEntry
                0x0200f8cc                _FAT_directory_chdir
                0x0200f908                _FAT_directory_entryStat
 .text          0x0200f9c4        0x8 c:/ndsdev/devkitPro/libnds/lib\libfat.a(disc.o)
 .text          0x0200f9cc      0x924 c:/ndsdev/devkitPro/libnds/lib\libfat.a(fatdir.o)
                0x0200f9cc                _FAT_stat_r
                0x0200fa6c                _FAT_link_r
                0x0200fa78                _FAT_unlink_r
                0x0200fbf0                _FAT_chdir_r
                0x0200fc60                _FAT_rename_r
                0x0200fe38                _FAT_mkdir_r
                0x020100b0                _FAT_statvfs_r
                0x0201013c                _FAT_diropen_r
                0x02010200                _FAT_dirreset_r
                0x0201024c                _FAT_dirnext_r
                0x020102d0                _FAT_dirclose_r
 .text          0x020102f0     0x123c c:/ndsdev/devkitPro/libnds/lib\libfat.a(fatfile.o)
                0x02010568                _FAT_open_r
                0x02010878                _FAT_syncToDisc
                0x02010954                _FAT_close_r
                0x020109c0                _FAT_read_r
                0x02010d28                _FAT_write_r
                0x020111ac                _FAT_seek_r
                0x020112fc                _FAT_fstat_r
                0x02011398                _FAT_ftruncate_r
                0x020114ec                _FAT_fsync_r
 .text          0x0201152c      0x434 c:/ndsdev/devkitPro/libnds/lib\libfat.a(file_allocation_table.o)
                0x02011640                _FAT_fat_nextCluster
                0x0201171c                _FAT_fat_linkFreeCluster
                0x020117b0                _FAT_fat_linkFreeClusterCleared
                0x02011820                _FAT_fat_clearLinks
                0x02011880                _FAT_fat_trimChain
                0x02011904                _FAT_fat_lastCluster
                0x02011938                _FAT_fat_freeClusterCount
 .text          0x02011960       0xc8 c:/ndsdev/devkitPro/libnds/lib\libfat.a(filetime.o)
                0x02011960                _FAT_filetime_getTimeFromRTC
                0x020119a8                _FAT_filetime_getDateFromRTC
                0x020119f0                _FAT_filetime_to_time_t
 .text          0x02011a28       0x10 c:/ndsdev/devkitPro/libnds/lib\libfat.a(lock.o)
                0x02011a28                _FAT_lock_init
                0x02011a2c                _FAT_lock_deinit
                0x02011a30                _FAT_lock
                0x02011a34                _FAT_unlock
 .text          0x02011a38      0x314 c:/ndsdev/devkitPro/libnds/lib\libnds9.a(background.o)
                0x02011a38                bgIsText
                0x02011a44                checkIfText
                0x02011aa4                bgUpdate
                0x02011bb4                bgInit_call
                0x02011c78                bgInitSub_call
 .text          0x02011d4c      0xa30 c:/ndsdev/devkitPro/libnds/lib\libnds9.a(console.o)
                0x02011d4c                nocash_write
                0x02011e0c                consoleGetDefault
                0x02011e18                consoleSelect
                0x02011e28                consoleDebugInit
                0x02011e78                consolePrintChar
                0x02012028                consoleLoadFont
                0x020122c0                consoleSetFont
                0x020122e0                consoleInit
                0x02012444                consoleDemoInit
                0x02012488                con_write
                0x02012748                consoleClear
                0x02012758                consoleSetWindow
 .text          0x0201277c       0x84 c:/ndsdev/devkitPro/libnds/lib\libnds9.a(decompress.o)
                0x0201277c                getHeader
                0x02012780                readByte
                0x02012784                decompress
                0x020127c4                decompressStream
 .text          0x02012800       0xf4 c:/ndsdev/devkitPro/libnds/lib\libnds9.a(keys.o)
                0x02012800                scanKeys
                0x0201286c                keysHeld
                0x02012878                keysDown
                0x02012888                keysDownRepeat
                0x02012898                keysSetRepeat
                0x020128b0                keysUp
                0x020128c0                keysCurrent
 .text          0x020128f4       0xf0 c:/ndsdev/devkitPro/libnds/lib\libnds9.a(system.o)
                0x020128f4                systemMsgHandler
                0x02012938                systemSleep
                0x02012950                powerValueHandler
                0x02012960                powerOn
                0x0201298c                powerOff
                0x020129b4                ledBlink
                0x020129c4                getBatteryLevel
 .text          0x020129e4       0x4c c:/ndsdev/devkitPro/libnds/lib\libnds9.a(touch.o)
                0x020129e4                touchRead
                0x02012a0c                touchReadXY
 .text          0x02012a30      0x248 c:/ndsdev/devkitPro/libnds/lib\libnds9.a(trig.o)
                0x02012a30                asinComp
                0x02012a54                sinLutLookup
                0x02012a90                sinLerp
                0x02012ac8                cosLerp
                0x02012adc                tanLutLookup
                0x02012b14                tanLerp
                0x02012bc4                asinLerp
                0x02012c40                acosLerp
                0x02012c54                atanComp
 .text          0x02012c78      0x150 c:/ndsdev/devkitPro/libnds/lib\libnds9.a(video.o)
                0x02012c78                vramSetPrimaryBanks
                0x02012cbc                vramSetMainBanks
                0x02012d00                vramSetBanks_EFG
                0x02012d38                vramRestorePrimaryBanks
                0x02012d44                vramRestoreMainBanks
                0x02012d50                vramRestoreBanks_EFG
                0x02012d5c                setBrightness
                0x02012d9c                vramDefault
 .text          0x02012dc8      0x23c c:/ndsdev/devkitPro/libnds/lib\libnds9.a(dldi.o)
                0x02012dc8                dldiGetInternal
                0x02012e00                dldiIsValid
                0x02012e38                dldiFixDriverAddresses
                0x02012f10                dldiLoadFromFile
                0x02012ff8                dldiFree
 .text          0x02013004      0x108 c:/ndsdev/devkitPro/libnds/lib\libnds9.a(dsi_sd.o)
                0x02013004                sdio_IsInserted
                0x02013014                sdio_ClearStatus
                0x02013024                sdio_Shutdown
                0x02013034                sdio_WriteSectors
                0x02013088                sdio_ReadSectors
                0x020130dc                sdio_Startup
 .text          0x0201310c      0x19c c:/ndsdev/devkitPro/libnds/lib\libnds9.a(initSystem.o)
                0x0201310c                initSystem
 .text          0x020132a8      0xc88 c:/ndsdev/devkitPro/libnds/lib\libnds9.a(fifosystem.o)
                0x02013508                fifoSendAddress
                0x02013534                fifoSendValue32
                0x02013574                fifoSendDatamsg
                0x020135e4                fifoGetAddress
                0x02013658                fifoSetAddressHandler
                0x020136cc                fifoGetValue32
                0x02013740                fifoSetValue32Handler
                0x020137b4                fifoGetDatamsg
                0x02013c58                fifoSetDatamsgHandler
                0x02013cf0                fifoCheckAddress
                0x02013d14                fifoCheckDatamsg
                0x02013d38                fifoCheckValue32
                0x02013d5c                fifoInit
 .text          0x02013f30      0x1b4 c:/ndsdev/devkitPro/libnds/lib\libnds9.a(interrupts.o)
                0x02013f30                irqDummy
                0x02013f34                irqSet
                0x02013f94                irqInit
                0x02013fe0                irqInitHandler
                0x02014010                irqEnable
                0x02014064                irqDisable
                0x020140b8                irqClear
 .text          0x020140e4       0x40 c:/ndsdev/devkitPro/libnds/lib\libnds9.a(libnds_exit.o)
                0x020140e4                systemErrorExit
                0x020140e8                __libnds_exit
 .text          0x02014124       0x1c c:/ndsdev/devkitPro/libnds/lib\libnds9.a(syscalls.o)
                0x02014124                swiDecompressLZSSVram
 .text          0x02014140       0x70 c:/ndsdev/devkitPro/libnds/lib\libnds9.a(dcache.o)
                0x02014140                DC_FlushAll
                0x0201416c                DC_FlushRange
                0x02014188                DC_InvalidateAll
                0x02014194                DC_InvalidateRange
 *fill*         0x020141b0       0x10 ff
 .text          0x020141c0     0x8000 c:/ndsdev/devkitPro/libnds/lib\libnds9.a(dldi_stub.o)
                0x020141c0                _io_dldi_stub
 .text          0x0201c1c0      0x1b4 c:/ndsdev/devkitPro/libnds/lib\libnds9.a(mpu_setup.o)
                0x0201c1c0                __libnds_mpu_setup
                0x0201c300                memCached
                0x0201c318                memUncached
 *fill*         0x0201c374        0xc ff
 .text          0x0201c380       0x70 c:/ndsdev/devkitPro/libnds/lib\libnds9.a(biosCalls.o)
                0x0201c380                swiDelay
                0x0201c384                swiIntrWait
                0x0201c388                swiWaitForVBlank
                0x0201c38c                swiSleep
                0x0201c390                swiChangeSoundBias
                0x0201c394                swiDivide
                0x0201c398                swiRemainder
                0x0201c39e                swiDivMod
                0x0201c3aa                swiCopy
                0x0201c3ae                swiFastCopy
                0x0201c3b2                swiSqrt
                0x0201c3b6                swiCRC16
                0x0201c3ba                swiIsDebugger
                0x0201c3be                swiUnpackBits
                0x0201c3c2                swiDecompressLZSSWram
                0x0201c3c6                swiDecompressLZSSVramNTR
                0x0201c3ca                swiDecompressLZSSVramTWL
                0x0201c3ce                swiDecompressHuffman
                0x0201c3d2                swiDecompressRLEWram
                0x0201c3d6                swiDecompressRLEVram
                0x0201c3da                swiWaitForIRQ
                0x0201c3de                swiDecodeDelta8
                0x0201c3e2                swiDecodeDelta16
                0x0201c3e6                swiSetHaltCR
 .text          0x0201c3f0       0xa4 c:/ndsdev/devkitPro/libnds/lib\libnds9.a(debugprint.o)
                0x0201c3f0                nocashWrite
                0x0201c3f2                nocashMessage
 .text          0x0201c494        0x0 c:/ndsdev/devkitPro/libnds/lib\libnds9.a(interruptDispatcher.o)
 *fill*         0x0201c494        0xc ff
 .text          0x0201c4a0       0x30 c:/ndsdev/devkitPro/libnds/lib\libnds9.a(swiSoftReset.o)
                0x0201c4a0                swiSoftReset
 .text          0x0201c4d0        0x0 c:/ndsdev/devkitPro/libnds/lib\libnds9.a(default_font.bin.o)
 .text          0x0201c4d0      0xa68 c:/ndsdev/devkitPro/libnds/lib\libdswifi9.a(sgIP_DNS.o)
                0x0201c574                sgIP_DNS_Init
                0x0201c5ac                sgIP_DNS_Timer1000ms
                0x0201c5f8                sgIP_DNS_isipaddress
                0x0201c818                sgIP_DNS_FindDNSRecord
                0x0201c944                sgIP_DNS_GetUnusedRecord
                0x0201c9cc                sgIP_DNS_GenerateHostent
                0x0201ca90                sgIP_DNS_CopyAliasAt
                0x0201caf4                sgIP_DNS_gethostbyname
                0x0201ceec                inet_addr
                0x0201cf08                inet_aton
                0x0201cf28                inet_ntoa
 .text          0x0201cf38      0x1f0 c:/ndsdev/devkitPro/libnds/lib\libdswifi9.a(sgIP_Hub.o)
                0x0201cf38                sgIP_Hub_Init
                0x0201cf4c                sgIP_Hub_AddProtocolInterface
                0x0201cf8c                sgIP_Hub_AddHardwareInterface
                0x0201cfc8                sgIP_Hub_RemoveProtocolInterface
                0x0201cfe8                sgIP_Hub_RemoveHardwareInterface
                0x0201d008                sgIP_Hub_ReceiveHardwarePacket
                0x0201d064                sgIP_Hub_SendProtocolPacket
                0x0201d0b0                sgIP_Hub_SendRawPacket
                0x0201d0d8                sgIP_Hub_IPMaxMessageSize
                0x0201d0e0                sgIP_Hub_GetCompatibleIP
                0x0201d0f4                sgIP_Hub_GetDefaultInterface
                0x0201d104                htons
                0x0201d110                htonl
 .text          0x0201d128      0x2ac c:/ndsdev/devkitPro/libnds/lib\libdswifi9.a(sgIP_memblock.o)
                0x0201d128                sgIP_memblock_Init
                0x0201d12c                sgIP_memblock_allocHW
                0x0201d150                sgIP_memblock_alloc
                0x0201d15c                sgIP_memblock_free
                0x0201d188                sgIP_memblock_exposeheader
                0x0201d1b0                sgIP_memblock_trimsize
                0x0201d1e8                sgIP_memblock_IPChecksum
                0x0201d2e0                sgIP_memblock_CopyToLinear
                0x0201d358                sgIP_memblock_CopyFromLinear
                0x0201d3d0                sgIP_memblock_CopyBlock
 .text          0x0201d3d4      0xd94 c:/ndsdev/devkitPro/libnds/lib\libdswifi9.a(sgIP_sockets.o)
                0x0201d3d4                sgIP_sockets_Init
                0x0201d3f0                spawn_socket
                0x0201d444                kill_socket
                0x0201d47c                socket
                0x0201d50c                forceclosesocket
                0x0201d564                sgIP_sockets_Timer1000ms
                0x0201d5cc                bind
                0x0201d64c                connect
                0x0201d754                send
                0x0201d810                recv
                0x0201d8cc                sendto
                0x0201d960                recvfrom
                0x0201da5c                listen
                0x0201dac8                accept
                0x0201dbc4                shutdown
                0x0201dc24                closesocket
                0x0201dcb0                ioctl
                0x0201dd60                setsockopt
                0x0201dd64                getsockopt
                0x0201dd68                getpeername
                0x0201de0c                getsockname
                0x0201deb8                gethostbyname
                0x0201dec0                select
 .text          0x0201e168     0x12b0 c:/ndsdev/devkitPro/libnds/lib\libdswifi9.a(wifi_arm9.o)
                0x0201e168                Wifi_Interface_Init
                0x0201e1b0                arm9_synctoarm7
                0x0201e1bc                sgIP_IntrWaitEvent
                0x0201e1c0                wHeapAllocInit
                0x0201e1e8                wHeapAlloc
                0x0201e2a4                wHeapFree
                0x0201e2c4                sgIP_malloc
                0x0201e2cc                sgIP_free
                0x0201e2ec                ethhdr_print
                0x0201e2f0                erasemem
                0x0201e304                Wifi_CopyMacAddr
                0x0201e314                Wifi_CmpMacAddr
                0x0201e338                Wifi_TxBufferWordsAvailable
                0x0201e35c                Wifi_TxBufferWrite
                0x0201e3c4                Wifi_TransmitFunction
                0x0201e5d8                Wifi_RxRawReadPacket
                0x0201e644                Wifi_RxReadOffset
                0x0201e670                Wifi_RawTxFrame
                0x0201e740                Wifi_RawSetPacketHandler
                0x0201e74c                Wifi_SetSyncHandler
                0x0201e758                Wifi_DisableWifi
                0x0201e770                Wifi_EnableWifi
                0x0201e784                Wifi_SetPromiscuousMode
                0x0201e7b0                Wifi_ScanMode
                0x0201e7c8                Wifi_SetChannel
                0x0201e7f0                Wifi_GetNumAP
                0x0201e818                Wifi_GetAPData
                0x0201e8bc                Wifi_FindMatchingAP
                0x0201e9e4                Wifi_AutoConnect
                0x0201ea0c                Wifi_DisconnectAP
                0x0201ea30                Wifi_ConnectAP
                0x0201eb38                Wifi_Init
                0x0201ebd0                Wifi_CheckInit
                0x0201ebf0                Wifi_Update
                0x0201eedc                Wifi_Timer
                0x0201eeec                Timer_50ms
                0x0201eef8                Wifi_GetIP
                0x0201ef0c                Wifi_GetIPInfo
                0x0201ef44                Wifi_SetIP
                0x0201ef68                Wifi_AssocStatus
                0x0201f2ac                Wifi_SetDHCP
                0x0201f2b0                Wifi_GetData
                0x0201f320                Wifi_GetStats
                0x0201f344                Wifi_Sync
                0x0201f360                wifiValue32Handler
                0x0201f36c                Wifi_InitDefault
 .text          0x0201f418       0x5c c:/ndsdev/devkitPro/libnds/lib\libdswifi9.a(spinlock.o)
                0x0201f418                SLasm_Acquire
                0x0201f44c                SLasm_Release
 .text          0x0201f474       0xa8 c:/ndsdev/devkitPro/libnds/lib\libdswifi9.a(sgIP.o)
                0x0201f474                sgIP_Init
                0x0201f4b0                sgIP_Timer
 .text          0x0201f51c      0x5f8 c:/ndsdev/devkitPro/libnds/lib\libdswifi9.a(sgIP_ARP.o)
                0x0201f51c                sgIP_FindArpSlot
                0x0201f550                sgIP_GetArpSlot
                0x0201f59c                sgIP_is_broadcast_address
                0x0201f5ac                sgIP_ARP_Check_isok
                0x0201f5b0                sgIP_ARP_Init
                0x0201f5d0                sgIP_ARP_FlushInterface
                0x0201f604                sgIP_ARP_ProcessIPFrame
                0x0201f608                sgIP_ARP_SendARPResponse
                0x0201f6e8                sgIP_ARP_SendGratARP
                0x0201f7c8                sgIP_ARP_SendARPRequest
                0x0201f8ac                sgIP_ARP_SendProtocolFrame
                0x0201f9b4                sgIP_ARP_ProcessARPFrame
                0x0201faa0                sgIP_ARP_Timer100ms
 .text          0x0201fb14      0xa5c c:/ndsdev/devkitPro/libnds/lib\libdswifi9.a(sgIP_DHCP.o)
                0x0201fb14                sgIP_DHCP_Init
                0x0201fb5c                sgIP_DHCP_SetHostName
                0x0201fb78                sgIP_DHCP_IsDhcpIp
                0x0201fb88                sgIP_DHCP_SendDgram
                0x0201fbf8                sgIP_DHCP_BeginDgram
                0x0201fe5c                sgIP_DHCP_Terminate
                0x0201fe94                sgIP_DHCP_Update
                0x020203c4                sgIP_DHCP_Release
                0x020203f8                sgIP_DHCP_Start
                0x020204b8                gethostname
                0x020204f8                sethostname
 .text          0x02020570      0x140 c:/ndsdev/devkitPro/libnds/lib\libdswifi9.a(sgIP_IP.o)
                0x02020570                sgIP_IP_ReceivePacket
                0x02020604                sgIP_IP_MaxContentsSize
                0x02020610                sgIP_IP_RequiredHeaderSize
                0x02020614                sgIP_IP_SendViaIP
                0x020206a0                sgIP_IP_GetLocalBindAddr
 .text          0x020206b0     0x116c c:/ndsdev/devkitPro/libnds/lib\libdswifi9.a(sgIP_TCP.o)
                0x020206b0                sgIP_TCP_Init
                0x020206e4                sgIP_TCP_support_seqhash
                0x02020730                sgIP_TCP_GetUnusedOutgoingPort
                0x02020794                sgIP_TCP_CalcChecksum
                0x020207f0                sgIP_TCP_GenHeader
                0x020208a4                sgIP_TCP_FixChecksum
                0x02020908                sgIP_TCP_SendPacket
                0x020209f0                sgIP_TCP_SendSynReply
                0x02020a98                sgIP_TCP_Timer
                0x02020cf8                sgIP_TCP_AllocRecord
                0x02020d44                sgIP_TCP_ReceivePacket
                0x02021370                sgIP_TCP_FreeRecord
                0x02021470                sgIP_TCP_Bind
                0x0202149c                sgIP_TCP_Listen
                0x020214f4                sgIP_TCP_Accept
                0x02021564                sgIP_TCP_Close
                0x02021598                sgIP_TCP_Connect
                0x02021624                sgIP_TCP_Send
                0x02021724                sgIP_TCP_Recv
 .text          0x0202181c      0x468 c:/ndsdev/devkitPro/libnds/lib\libdswifi9.a(sgIP_UDP.o)
                0x0202181c                sgIP_UDP_Init
                0x02021838                sgIP_UDP_GetUnusedOutgoingPort
                0x02021898                sgIP_UDP_CalcChecksum
                0x02021900                sgIP_UDP_ReceivePacket
                0x020219ac                sgIP_UDP_SendPacket
                0x02021aa0                sgIP_UDP_AllocRecord
                0x02021ad8                sgIP_UDP_FreeRecord
                0x02021b30                sgIP_UDP_Bind
                0x02021b6c                sgIP_UDP_RecvFrom
                0x02021c70                sgIP_UDP_SendTo
 .text          0x02021c84       0x74 c:/ndsdev/devkitPro/libnds/lib\libdswifi9.a(sgIP_ICMP.o)
                0x02021c84                sgIP_ICMP_Init
                0x02021c88                sgIP_ICMP_ReceivePacket
 .text          0x02021cf8      0x11c c:/ndsdev/devkitpro/devkitarm/bin/../lib/gcc/arm-eabi/4.6.0/thumb\libgcc.a(_udivsi3.o)
                0x02021cf8                __aeabi_uidiv
                0x02021cf8                __udivsi3
                0x02021df4                __aeabi_uidivmod
 .text          0x02021e14      0x150 c:/ndsdev/devkitpro/devkitarm/bin/../lib/gcc/arm-eabi/4.6.0/thumb\libgcc.a(_divsi3.o)
                0x02021e14                __divsi3
                0x02021e14                __aeabi_idiv
                0x02021f44                __aeabi_idivmod
 .text          0x02021f64        0x4 c:/ndsdev/devkitpro/devkitarm/bin/../lib/gcc/arm-eabi/4.6.0/thumb\libgcc.a(_dvmd_tls.o)
                0x02021f64                __aeabi_idiv0
                0x02021f64                __aeabi_ldiv0
 .text          0x02021f68      0x41c c:/ndsdev/devkitpro/devkitarm/bin/../lib/gcc/arm-eabi/4.6.0/thumb\libgcc.a(_arm_addsubdf3.o)
                0x02021f68                __aeabi_drsub
                0x02021f70                __aeabi_dsub
                0x02021f70                __subdf3
                0x02021f74                __aeabi_dadd
                0x02021f74                __adddf3
                0x02022284                __floatunsidf
                0x02022284                __aeabi_ui2d
                0x020222a8                __floatsidf
                0x020222a8                __aeabi_i2d
                0x020222d0                __aeabi_f2d
                0x020222d0                __extendsfdf2
                0x02022310                __floatundidf
                0x02022310                __aeabi_ul2d
                0x02022324                __floatdidf
                0x02022324                __aeabi_l2d
 .text          0x02022384      0x49c c:/ndsdev/devkitpro/devkitarm/bin/../lib/gcc/arm-eabi/4.6.0/thumb\libgcc.a(_arm_muldivdf3.o)
                0x02022384                __aeabi_dmul
                0x02022384                __muldf3
                0x02022614                __divdf3
                0x02022614                __aeabi_ddiv
 .text          0x02022820      0x144 c:/ndsdev/devkitpro/devkitarm/bin/../lib/gcc/arm-eabi/4.6.0/thumb\libgcc.a(_arm_cmpdf2.o)
                0x02022820                __gtdf2
                0x02022820                __gedf2
                0x02022828                __ltdf2
                0x02022828                __ledf2
                0x02022830                __nedf2
                0x02022830                __eqdf2
                0x02022830                __cmpdf2
                0x020228b8                __aeabi_cdrcmple
                0x020228d4                __aeabi_cdcmpeq
                0x020228d4                __aeabi_cdcmple
                0x020228ec                __aeabi_dcmpeq
                0x02022904                __aeabi_dcmplt
                0x0202291c                __aeabi_dcmple
                0x02022934                __aeabi_dcmpge
                0x0202294c                __aeabi_dcmpgt
 .text          0x02022964       0x5c c:/ndsdev/devkitpro/devkitarm/bin/../lib/gcc/arm-eabi/4.6.0/thumb\libgcc.a(_arm_fixdfsi.o)
                0x02022964                __aeabi_d2iz
                0x02022964                __fixdfsi
 .text          0x020229c0       0x4c c:/ndsdev/devkitpro/devkitarm/bin/../lib/gcc/arm-eabi/4.6.0/thumb\libgcc.a(_muldi3.o)
                0x020229c0                __muldi3
                0x020229c0                __aeabi_lmul
 .text          0x02022a0c       0x20 c:/ndsdev/devkitpro/devkitarm/bin/../lib/gcc/arm-eabi/4.6.0/../../../../arm-eabi/lib/thumb\libg.a(lib_a-atoi.o)
                0x02022a0c                atoi
                0x02022a1c                _atoi_r
 .text          0x02022a2c       0x64 c:/ndsdev/devkitpro/devkitarm/bin/../lib/gcc/arm-eabi/4.6.0/../../../../arm-eabi/lib/thumb\libg.a(lib_a-bsearch.o)
                0x02022a2c                bsearch
 .text          0x02022a90       0x10 c:/ndsdev/devkitpro/devkitarm/bin/../lib/gcc/arm-eabi/4.6.0/../../../../arm-eabi/lib/thumb\libg.a(lib_a-ctype_.o)
                0x02022a90                __set_ctype
 .text          0x02022aa0        0xc c:/ndsdev/devkitpro/devkitarm/bin/../lib/gcc/arm-eabi/4.6.0/../../../../arm-eabi/lib/thumb\libg.a(lib_a-errno.o)
                0x02022aa0                __errno
 .text          0x02022aac       0xc0 c:/ndsdev/devkitpro/devkitarm/bin/../lib/gcc/arm-eabi/4.6.0/../../../../arm-eabi/lib/thumb\libg.a(lib_a-fclose.o)
                0x02022aac                _fclose_r
                0x02022b50                fclose
 .text          0x02022b6c      0x18c c:/ndsdev/devkitpro/devkitarm/bin/../lib/gcc/arm-eabi/4.6.0/../../../../arm-eabi/lib/thumb\libg.a(lib_a-fflush.o)
                0x02022b6c                _fflush_r
                0x02022cc8                fflush
 .text          0x02022cf8       0xe8 c:/ndsdev/devkitpro/devkitarm/bin/../lib/gcc/arm-eabi/4.6.0/../../../../arm-eabi/lib/thumb\libg.a(lib_a-fgets.o)
                0x02022cf8                _fgets_r
                0x02022dc0                fgets
 .text          0x02022de0      0x1d8 c:/ndsdev/devkitpro/devkitarm/bin/../lib/gcc/arm-eabi/4.6.0/../../../../arm-eabi/lib/thumb\libg.a(lib_a-findfp.o)
                0x02022de8                _cleanup_r
                0x02022e48                __sfmoreglue
                0x02022e78                _cleanup
                0x02022e8c                __sinit
                0x02022ee0                __sfp
                0x02022f70                __sfp_lock_acquire
                0x02022f74                __sfp_lock_release
                0x02022f78                __sinit_lock_acquire
                0x02022f7c                __sinit_lock_release
                0x02022f80                __fp_lock_all
                0x02022f9c                __fp_unlock_all
 .text          0x02022fb8       0xb0 c:/ndsdev/devkitpro/devkitarm/bin/../lib/gcc/arm-eabi/4.6.0/../../../../arm-eabi/lib/thumb\libg.a(lib_a-fopen.o)
                0x02022fb8                _fopen_r
                0x0202304c                fopen
 .text          0x02023068      0x190 c:/ndsdev/devkitpro/devkitarm/bin/../lib/gcc/arm-eabi/4.6.0/../../../../arm-eabi/lib/thumb\libg.a(lib_a-fread.o)
                0x02023068                _fread_r
                0x020231d0                fread
 .text          0x020231f8      0x248 c:/ndsdev/devkitpro/devkitarm/bin/../lib/gcc/arm-eabi/4.6.0/../../../../arm-eabi/lib/thumb\libg.a(lib_a-freer.o)
                0x020231f8                _malloc_trim_r
                0x020232a4                _free_r
 .text          0x02023440      0x32c c:/ndsdev/devkitpro/devkitarm/bin/../lib/gcc/arm-eabi/4.6.0/../../../../arm-eabi/lib/thumb\libg.a(lib_a-fseek.o)
                0x02023440                _fseek_r
                0x02023748                fseek
 .text          0x0202376c       0x9c c:/ndsdev/devkitpro/devkitarm/bin/../lib/gcc/arm-eabi/4.6.0/../../../../arm-eabi/lib/thumb\libg.a(lib_a-ftell.o)
                0x0202376c                _ftell_r
                0x020237ec                ftell
 .text          0x02023808       0xc4 c:/ndsdev/devkitpro/devkitarm/bin/../lib/gcc/arm-eabi/4.6.0/../../../../arm-eabi/lib/thumb\libg.a(lib_a-fwalk.o)
                0x02023808                _fwalk
                0x02023864                _fwalk_reent
 .text          0x020238cc       0x9c c:/ndsdev/devkitpro/devkitarm/bin/../lib/gcc/arm-eabi/4.6.0/../../../../arm-eabi/lib/thumb\libg.a(lib_a-fwrite.o)
                0x020238cc                _fwrite_r
                0x02023940                fwrite
 .text          0x02023968       0x18 c:/ndsdev/devkitpro/devkitarm/bin/../lib/gcc/arm-eabi/4.6.0/../../../../arm-eabi/lib/thumb\libg.a(lib_a-gmtime.o)
                0x02023968                gmtime
 .text          0x02023980       0x10 c:/ndsdev/devkitpro/devkitarm/bin/../lib/gcc/arm-eabi/4.6.0/../../../../arm-eabi/lib/thumb\libg.a(lib_a-gmtime_r.o)
                0x02023980                gmtime_r
 .text          0x02023990        0x0 c:/ndsdev/devkitpro/devkitarm/bin/../lib/gcc/arm-eabi/4.6.0/../../../../arm-eabi/lib/thumb\libg.a(lib_a-impure.o)
 .text          0x02023990       0x50 c:/ndsdev/devkitpro/devkitarm/bin/../lib/gcc/arm-eabi/4.6.0/../../../../arm-eabi/lib/thumb\libg.a(lib_a-init.o)
                0x02023990                __libc_init_array
 .text          0x020239e0       0x40 c:/ndsdev/devkitpro/devkitarm/bin/../lib/gcc/arm-eabi/4.6.0/../../../../arm-eabi/lib/thumb\libg.a(lib_a-iprintf.o)
                0x020239e0                iprintf
                0x02023a04                _iprintf_r
 .text          0x02023a20       0x10 c:/ndsdev/devkitpro/devkitarm/bin/../lib/gcc/arm-eabi/4.6.0/../../../../arm-eabi/lib/thumb\libg.a(lib_a-lcltime_r.o)
                0x02023a20                localtime_r
 .text          0x02023a30      0x94c c:/ndsdev/devkitpro/devkitarm/bin/../lib/gcc/arm-eabi/4.6.0/../../../../arm-eabi/lib/thumb\libg.a(lib_a-locale.o)
                0x020240ec                _setlocale_r
                0x0202431c                __locale_charset
                0x02024324                __locale_mb_cur_max
                0x02024330                __locale_msgcharset
                0x0202433c                __locale_cjk_lang
                0x02024348                _localeconv_r
                0x02024354                setlocale
                0x02024370                localeconv
 .text          0x0202437c       0xe4 c:/ndsdev/devkitpro/devkitarm/bin/../lib/gcc/arm-eabi/4.6.0/../../../../arm-eabi/lib/thumb\libg.a(lib_a-makebuf.o)
                0x0202437c                __smakebuf_r
 .text          0x02024460       0x30 c:/ndsdev/devkitpro/devkitarm/bin/../lib/gcc/arm-eabi/4.6.0/../../../../arm-eabi/lib/thumb\libg.a(lib_a-malloc.o)
                0x02024460                malloc
                0x02024478                free
 .text          0x02024490      0x514 c:/ndsdev/devkitpro/devkitarm/bin/../lib/gcc/arm-eabi/4.6.0/../../../../arm-eabi/lib/thumb\libg.a(lib_a-mallocr.o)
                0x02024490                _malloc_r
 .text          0x020249a4       0xfc c:/ndsdev/devkitpro/devkitarm/bin/../lib/gcc/arm-eabi/4.6.0/../../../../arm-eabi/lib/thumb\libg.a(lib_a-mbrtowc.o)
                0x020249a4                _mbrtowc_r
                0x02024a18                mbrtowc
 .text          0x02024aa0       0x40 c:/ndsdev/devkitpro/devkitarm/bin/../lib/gcc/arm-eabi/4.6.0/../../../../arm-eabi/lib/thumb\libg.a(lib_a-mbsrtowcs.o)
                0x02024aa0                _mbsrtowcs_r
                0x02024ab8                mbsrtowcs
 .text          0x02024ae0      0x5f8 c:/ndsdev/devkitpro/devkitarm/bin/../lib/gcc/arm-eabi/4.6.0/../../../../arm-eabi/lib/thumb\libg.a(lib_a-mbtowc_r.o)
                0x02024ae0                __utf8_mbtowc
                0x02024da8                _mbtowc_r
                0x02024de4                __ascii_mbtowc
                0x02024e10                __sjis_mbtowc
                0x02024ecc                __eucjp_mbtowc
                0x02024fac                __jis_mbtowc
 .text          0x020250d8       0x9c c:/ndsdev/devkitpro/devkitarm/bin/../lib/gcc/arm-eabi/4.6.0/../../../../arm-eabi/lib/thumb\libg.a(lib_a-memchr.o)
                0x020250d8                memchr
 .text          0x02025174       0x64 c:/ndsdev/devkitpro/devkitarm/bin/../lib/gcc/arm-eabi/4.6.0/../../../../arm-eabi/lib/thumb\libg.a(lib_a-memcmp.o)
                0x02025174                memcmp
 .text          0x020251d8       0x80 c:/ndsdev/devkitpro/devkitarm/bin/../lib/gcc/arm-eabi/4.6.0/../../../../arm-eabi/lib/thumb\libg.a(lib_a-memcpy.o)
                0x020251d8                memcpy
 .text          0x02025258       0xa8 c:/ndsdev/devkitpro/devkitarm/bin/../lib/gcc/arm-eabi/4.6.0/../../../../arm-eabi/lib/thumb\libg.a(lib_a-memmove.o)
                0x02025258                memmove
 .text          0x02025300       0x98 c:/ndsdev/devkitpro/devkitarm/bin/../lib/gcc/arm-eabi/4.6.0/../../../../arm-eabi/lib/thumb\libg.a(lib_a-memset.o)
                0x02025300                memset
 .text          0x02025398      0x474 c:/ndsdev/devkitpro/devkitarm/bin/../lib/gcc/arm-eabi/4.6.0/../../../../arm-eabi/lib/thumb\libg.a(lib_a-mktime.o)
                0x02025578                mktime
 .text          0x0202580c      0x488 c:/ndsdev/devkitpro/devkitarm/bin/../lib/gcc/arm-eabi/4.6.0/../../../../arm-eabi/lib/thumb\libg.a(lib_a-mktm_r.o)
                0x0202580c                __tzcalc_limits
                0x020259a4                _mktm_r
 .text          0x02025c94        0x8 c:/ndsdev/devkitpro/devkitarm/bin/../lib/gcc/arm-eabi/4.6.0/../../../../arm-eabi/lib/thumb\libg.a(lib_a-mlock.o)
                0x02025c94                __malloc_lock
                0x02025c98                __malloc_unlock
 .text          0x02025c9c      0x138 c:/ndsdev/devkitpro/devkitarm/bin/../lib/gcc/arm-eabi/4.6.0/../../../../arm-eabi/lib/thumb\libg.a(lib_a-refill.o)
                0x02025cbc                __srefill_r
 .text          0x02025dd4       0x30 c:/ndsdev/devkitpro/devkitarm/bin/../lib/gcc/arm-eabi/4.6.0/../../../../arm-eabi/lib/thumb\libg.a(lib_a-remove.o)
                0x02025dd4                _remove_r
                0x02025dec                remove
 .text          0x02025e04       0x1c c:/ndsdev/devkitpro/devkitarm/bin/../lib/gcc/arm-eabi/4.6.0/../../../../arm-eabi/lib/thumb\libg.a(lib_a-rename.o)
                0x02025e04                rename
 .text          0x02025e20      0x118 c:/ndsdev/devkitpro/devkitarm/bin/../lib/gcc/arm-eabi/4.6.0/../../../../arm-eabi/lib/thumb\libg.a(lib_a-setvbuf.o)
                0x02025e20                setvbuf
 .text          0x02025f38       0xa0 c:/ndsdev/devkitpro/devkitarm/bin/../lib/gcc/arm-eabi/4.6.0/../../../../arm-eabi/lib/thumb\libg.a(lib_a-siscanf.o)
                0x02025f38                siscanf
                0x02025f88                _siscanf_r
 .text          0x02025fd8       0x84 c:/ndsdev/devkitpro/devkitarm/bin/../lib/gcc/arm-eabi/4.6.0/../../../../arm-eabi/lib/thumb\libg.a(lib_a-sprintf.o)
                0x02025fd8                _sprintf_r
                0x02026018                sprintf
 .text          0x0202605c       0xa0 c:/ndsdev/devkitpro/devkitarm/bin/../lib/gcc/arm-eabi/4.6.0/../../../../arm-eabi/lib/thumb\libg.a(lib_a-sscanf.o)
                0x0202605c                sscanf
                0x020260ac                _sscanf_r
 .text          0x020260fc       0xac c:/ndsdev/devkitpro/devkitarm/bin/../lib/gcc/arm-eabi/4.6.0/../../../../arm-eabi/lib/thumb\libg.a(lib_a-stdio.o)
                0x020260fc                __sread
                0x02026128                __seofread
                0x0202612c                __swrite
                0x02026168                __sseek
                0x02026198                __sclose
 .text          0x020261a8       0x50 c:/ndsdev/devkitpro/devkitarm/bin/../lib/gcc/arm-eabi/4.6.0/../../../../arm-eabi/lib/thumb\libg.a(lib_a-strcasecmp.o)
                0x020261a8                strcasecmp
 .text          0x020261f8       0x54 c:/ndsdev/devkitpro/devkitarm/bin/../lib/gcc/arm-eabi/4.6.0/../../../../arm-eabi/lib/thumb\libg.a(lib_a-strcat.o)
                0x020261f8                strcat
 .text          0x0202624c       0xf0 c:/ndsdev/devkitpro/devkitarm/bin/../lib/gcc/arm-eabi/4.6.0/../../../../arm-eabi/lib/thumb\libg.a(lib_a-strchr.o)
                0x0202624c                strchr
 .text          0x0202633c       0x14 c:/ndsdev/devkitpro/devkitarm/bin/../lib/gcc/arm-eabi/4.6.0/../../../../arm-eabi/lib/thumb\libg.a(lib_a-strcmp.o)
                0x0202633c                strcmp
 .text          0x02026350       0x10 c:/ndsdev/devkitpro/devkitarm/bin/../lib/gcc/arm-eabi/4.6.0/../../../../arm-eabi/lib/thumb\libg.a(lib_a-strcpy.o)
                0x02026350                strcpy
 .text          0x02026360       0x4c c:/ndsdev/devkitpro/devkitarm/bin/../lib/gcc/arm-eabi/4.6.0/../../../../arm-eabi/lib/thumb\libg.a(lib_a-strlcpy.o)
                0x02026360                strlcpy
 .text          0x020263ac       0x10 c:/ndsdev/devkitpro/devkitarm/bin/../lib/gcc/arm-eabi/4.6.0/../../../../arm-eabi/lib/thumb\libg.a(lib_a-strlen.o)
                0x020263ac                strlen
 .text          0x020263bc       0x60 c:/ndsdev/devkitpro/devkitarm/bin/../lib/gcc/arm-eabi/4.6.0/../../../../arm-eabi/lib/thumb\libg.a(lib_a-strncasecmp.o)
                0x020263bc                strncasecmp
 .text          0x0202641c       0xc0 c:/ndsdev/devkitpro/devkitarm/bin/../lib/gcc/arm-eabi/4.6.0/../../../../arm-eabi/lib/thumb\libg.a(lib_a-strncmp.o)
                0x0202641c                strncmp
 .text          0x020264dc       0x78 c:/ndsdev/devkitpro/devkitarm/bin/../lib/gcc/arm-eabi/4.6.0/../../../../arm-eabi/lib/thumb\libg.a(lib_a-strncpy.o)
                0x020264dc                strncpy
 .text          0x02026554       0x30 c:/ndsdev/devkitpro/devkitarm/bin/../lib/gcc/arm-eabi/4.6.0/../../../../arm-eabi/lib/thumb\libg.a(lib_a-strnlen.o)
                0x02026554                strnlen
 .text          0x02026584       0x58 c:/ndsdev/devkitpro/devkitarm/bin/../lib/gcc/arm-eabi/4.6.0/../../../../arm-eabi/lib/thumb\libg.a(lib_a-strpbrk.o)
                0x02026584                strpbrk
 .text          0x020265dc       0x2c c:/ndsdev/devkitpro/devkitarm/bin/../lib/gcc/arm-eabi/4.6.0/../../../../arm-eabi/lib/thumb\libg.a(lib_a-strrchr.o)
                0x020265dc                strrchr
 .text          0x02026608      0x184 c:/ndsdev/devkitpro/devkitarm/bin/../lib/gcc/arm-eabi/4.6.0/../../../../arm-eabi/lib/thumb\libg.a(lib_a-strtol.o)
                0x02026608                _strtol_r
                0x0202676c                strtol
 .text          0x0202678c      0xab0 c:/ndsdev/devkitpro/devkitarm/bin/../lib/gcc/arm-eabi/4.6.0/../../../../arm-eabi/lib/thumb\libg.a(lib_a-svfiscanf.o)
                0x0202678c                _sungetc_r
                0x02026814                __ssrefill_r
                0x02026858                _sfread_r
                0x020268e4                __ssvfiscanf_r
 *fill*         0x0202723c        0x4 ff
 .text          0x02027240     0x16f0 c:/ndsdev/devkitpro/devkitarm/bin/../lib/gcc/arm-eabi/4.6.0/../../../../arm-eabi/lib/thumb\libg.a(lib_a-svfprintf.o)
                0x02027240                _svfprintf_r
 .text          0x02028930      0xdd0 c:/ndsdev/devkitpro/devkitarm/bin/../lib/gcc/arm-eabi/4.6.0/../../../../arm-eabi/lib/thumb\libg.a(lib_a-svfscanf.o)
                0x02028930                __ssvfscanf_r
 .text          0x02029700       0x18 c:/ndsdev/devkitpro/devkitarm/bin/../lib/gcc/arm-eabi/4.6.0/../../../../arm-eabi/lib/thumb\libg.a(lib_a-sysclose.o)
                0x02029700                close
 .text          0x02029718       0x20 c:/ndsdev/devkitpro/devkitarm/bin/../lib/gcc/arm-eabi/4.6.0/../../../../arm-eabi/lib/thumb\libg.a(lib_a-syslseek.o)
                0x02029718                lseek
 .text          0x02029738       0x28 c:/ndsdev/devkitpro/devkitarm/bin/../lib/gcc/arm-eabi/4.6.0/../../../../arm-eabi/lib/thumb\libg.a(lib_a-sysopen.o)
                0x02029738                open
 .text          0x02029760       0x20 c:/ndsdev/devkitpro/devkitarm/bin/../lib/gcc/arm-eabi/4.6.0/../../../../arm-eabi/lib/thumb\libg.a(lib_a-sysread.o)
                0x02029760                read
 .text          0x02029780       0x1c c:/ndsdev/devkitpro/devkitarm/bin/../lib/gcc/arm-eabi/4.6.0/../../../../arm-eabi/lib/thumb\libg.a(lib_a-sysstat.o)
                0x02029780                stat
 .text          0x0202979c       0x18 c:/ndsdev/devkitpro/devkitarm/bin/../lib/gcc/arm-eabi/4.6.0/../../../../arm-eabi/lib/thumb\libg.a(lib_a-sysunlink.o)
                0x0202979c                unlink
 .text          0x020297b4       0x30 c:/ndsdev/devkitpro/devkitarm/bin/../lib/gcc/arm-eabi/4.6.0/../../../../arm-eabi/lib/thumb\libg.a(lib_a-time.o)
                0x020297b4                time
 .text          0x020297e4      0x728 c:/ndsdev/devkitpro/devkitarm/bin/../lib/gcc/arm-eabi/4.6.0/../../../../arm-eabi/lib/thumb\libg.a(lib_a-towlower.o)
                0x020297e4                towlower
 .text          0x02029f0c      0x9ec c:/ndsdev/devkitpro/devkitarm/bin/../lib/gcc/arm-eabi/4.6.0/../../../../arm-eabi/lib/thumb\libg.a(lib_a-towupper.o)
                0x02029f0c                towupper
 .text          0x0202a8f8        0x8 c:/ndsdev/devkitpro/devkitarm/bin/../lib/gcc/arm-eabi/4.6.0/../../../../arm-eabi/lib/thumb\libg.a(lib_a-tzlock.o)
                0x0202a8f8                __tz_lock
                0x0202a8fc                __tz_unlock
 .text          0x0202a900        0x0 c:/ndsdev/devkitpro/devkitarm/bin/../lib/gcc/arm-eabi/4.6.0/../../../../arm-eabi/lib/thumb\libg.a(lib_a-tzvars.o)
 .text          0x0202a900      0x180 c:/ndsdev/devkitpro/devkitarm/bin/../lib/gcc/arm-eabi/4.6.0/../../../../arm-eabi/lib/thumb\libg.a(lib_a-ungetc.o)
                0x0202a900                __submore
                0x0202a988                _ungetc_r
                0x0202aa64                ungetc
 .text          0x0202aa80      0xea4 c:/ndsdev/devkitpro/devkitarm/bin/../lib/gcc/arm-eabi/4.6.0/../../../../arm-eabi/lib/thumb\libg.a(lib_a-vfiprintf.o)
                0x0202aa80                __sprint_r
                0x0202ab04                _vfiprintf_r
                0x0202b900                vfiprintf
 .text          0x0202b924       0xdc c:/ndsdev/devkitpro/devkitarm/bin/../lib/gcc/arm-eabi/4.6.0/../../../../arm-eabi/lib/thumb\libg.a(lib_a-wcrtomb.o)
                0x0202b924                _wcrtomb_r
                0x0202b988                wcrtomb
 .text          0x0202ba00       0x40 c:/ndsdev/devkitpro/devkitarm/bin/../lib/gcc/arm-eabi/4.6.0/../../../../arm-eabi/lib/thumb\libg.a(lib_a-wcsrtombs.o)
                0x0202ba00                _wcsrtombs_r
                0x0202ba18                wcsrtombs
 .text          0x0202ba40       0x54 c:/ndsdev/devkitpro/devkitarm/bin/../lib/gcc/arm-eabi/4.6.0/../../../../arm-eabi/lib/thumb\libg.a(lib_a-wctob.o)
                0x0202ba40                wctob
 .text          0x0202ba94      0x27c c:/ndsdev/devkitpro/devkitarm/bin/../lib/gcc/arm-eabi/4.6.0/../../../../arm-eabi/lib/thumb\libg.a(lib_a-wctomb_r.o)
                0x0202ba94                __utf8_wctomb
                0x0202bb54                _wctomb_r
                0x0202bb8c                __ascii_wctomb
                0x0202bbac                __sjis_wctomb
                0x0202bc18                __eucjp_wctomb
                0x0202bc94                __jis_wctomb
 .text          0x0202bd10       0xbc c:/ndsdev/devkitpro/devkitarm/bin/../lib/gcc/arm-eabi/4.6.0/../../../../arm-eabi/lib/thumb\libg.a(lib_a-wsetup.o)
                0x0202bd10                __swsetup_r
 .text          0x0202bdcc       0x40 c:/ndsdev/devkitpro/devkitarm/bin/../lib/gcc/arm-eabi/4.6.0/../../../../arm-eabi/lib/thumb\libg.a(lib_a-div.o)
                0x0202bdcc                div
 *fill*         0x0202be0c        0x4 ff
 .text          0x0202be10     0x1010 c:/ndsdev/devkitpro/devkitarm/bin/../lib/gcc/arm-eabi/4.6.0/../../../../arm-eabi/lib/thumb\libg.a(lib_a-dtoa.o)
                0x0202bf6c                _dtoa_r
 .text          0x0202ce20       0x70 c:/ndsdev/devkitpro/devkitarm/bin/../lib/gcc/arm-eabi/4.6.0/../../../../arm-eabi/lib/thumb\libg.a(lib_a-flags.o)
                0x0202ce20                __sflags
 .text          0x0202ce90      0x108 c:/ndsdev/devkitpro/devkitarm/bin/../lib/gcc/arm-eabi/4.6.0/../../../../arm-eabi/lib/thumb\libg.a(lib_a-fputwc.o)
                0x0202ce90                _fputwc_r
                0x0202cf6c                fputwc
 .text          0x0202cf98      0x31c c:/ndsdev/devkitpro/devkitarm/bin/../lib/gcc/arm-eabi/4.6.0/../../../../arm-eabi/lib/thumb\libg.a(lib_a-fvwrite.o)
                0x0202cf98                __sfvwrite_r
 .text          0x0202d2b4       0xa8 c:/ndsdev/devkitpro/devkitarm/bin/../lib/gcc/arm-eabi/4.6.0/../../../../arm-eabi/lib/thumb\libg.a(lib_a-getenv_r.o)
                0x0202d2b4                _findenv_r
                0x0202d34c                _getenv_r
 .text          0x0202d35c        0x8 c:/ndsdev/devkitpro/devkitarm/bin/../lib/gcc/arm-eabi/4.6.0/../../../../arm-eabi/lib/thumb\libg.a(lib_a-gettzinfo.o)
                0x0202d35c                __gettzinfo
 .text          0x0202d364       0x84 c:/ndsdev/devkitpro/devkitarm/bin/../lib/gcc/arm-eabi/4.6.0/../../../../arm-eabi/lib/thumb\libg.a(lib_a-iswspace.o)
                0x0202d364                iswspace
 .text          0x0202d3e8      0x1f4 c:/ndsdev/devkitpro/devkitarm/bin/../lib/gcc/arm-eabi/4.6.0/../../../../arm-eabi/lib/thumb\libg.a(lib_a-jp2uc.o)
                0x0202d578                _jp2uc
 .text          0x0202d5dc       0xe4 c:/ndsdev/devkitpro/devkitarm/bin/../lib/gcc/arm-eabi/4.6.0/../../../../arm-eabi/lib/thumb\libg.a(lib_a-mbsnrtowcs.o)
                0x0202d5dc                _mbsnrtowcs_r
                0x0202d694                mbsnrtowcs
 .text          0x0202d6c0      0x988 c:/ndsdev/devkitpro/devkitarm/bin/../lib/gcc/arm-eabi/4.6.0/../../../../arm-eabi/lib/thumb\libg.a(lib_a-mprec.o)
                0x0202d6c0                _Balloc
                0x0202d714                _Bfree
                0x0202d72c                __multadd
                0x0202d7c0                __s2b
                0x0202d854                __hi0bits
                0x0202d88c                __lo0bits
                0x0202d8ec                __i2b
                0x0202d904                __multiply
                0x0202da74                __pow5mult
                0x0202db24                __lshift
                0x0202dbf4                __mcmp
                0x0202dc30                __mdiff
                0x0202dd1c                __ulp
                0x0202dd64                __b2d
                0x0202de20                __d2b
                0x0202def0                __ratio
                0x0202df5c                _mprec_log10
                0x0202df9c                __copybits
                0x0202dfe4                __any_on
 .text          0x0202e048      0x3c4 c:/ndsdev/devkitpro/devkitarm/bin/../lib/gcc/arm-eabi/4.6.0/../../../../arm-eabi/lib/thumb\libg.a(lib_a-reallocr.o)
                0x0202e048                _realloc_r
 .text          0x0202e40c       0x90 c:/ndsdev/devkitpro/devkitarm/bin/../lib/gcc/arm-eabi/4.6.0/../../../../arm-eabi/lib/thumb\libg.a(lib_a-s_fpclassify.o)
                0x0202e40c                __fpclassifyd
 .text          0x0202e49c       0x7c c:/ndsdev/devkitpro/devkitarm/bin/../lib/gcc/arm-eabi/4.6.0/../../../../arm-eabi/lib/thumb\libg.a(lib_a-sccl.o)
                0x0202e49c                __sccl
 .text          0x0202e518        0x8 c:/ndsdev/devkitpro/devkitarm/bin/../lib/gcc/arm-eabi/4.6.0/../../../../arm-eabi/lib/thumb\libg.a(lib_a-sf_nan.o)
                0x0202e518                nanf
 .text          0x0202e520      0xe58 c:/ndsdev/devkitpro/devkitarm/bin/../lib/gcc/arm-eabi/4.6.0/../../../../arm-eabi/lib/thumb\libg.a(lib_a-strtod.o)
                0x0202e550                _strtod_r
                0x0202f324                strtod
                0x0202f340                strtof
 .text          0x0202f378      0x210 c:/ndsdev/devkitpro/devkitarm/bin/../lib/gcc/arm-eabi/4.6.0/../../../../arm-eabi/lib/thumb\libg.a(lib_a-strtoll_r.o)
                0x0202f378                _strtoll_r
 .text          0x0202f588      0x198 c:/ndsdev/devkitpro/devkitarm/bin/../lib/gcc/arm-eabi/4.6.0/../../../../arm-eabi/lib/thumb\libg.a(lib_a-strtoul.o)
                0x0202f588                _strtoul_r
                0x0202f700                strtoul
 .text          0x0202f720      0x220 c:/ndsdev/devkitpro/devkitarm/bin/../lib/gcc/arm-eabi/4.6.0/../../../../arm-eabi/lib/thumb\libg.a(lib_a-strtoull_r.o)
                0x0202f720                _strtoull_r
 .text          0x0202f940      0xd98 c:/ndsdev/devkitpro/devkitarm/bin/../lib/gcc/arm-eabi/4.6.0/../../../../arm-eabi/lib/thumb\libg.a(lib_a-svfiprintf.o)
                0x0202f940                __ssprint_r
                0x0202fa70                _svfiprintf_r
 .text          0x020306d8       0xe4 c:/ndsdev/devkitpro/devkitarm/bin/../lib/gcc/arm-eabi/4.6.0/../../../../arm-eabi/lib/thumb\libg.a(lib_a-wbuf.o)
                0x020306d8                __swbuf_r
                0x020307a0                __swbuf
 .text          0x020307bc      0x13c c:/ndsdev/devkitpro/devkitarm/bin/../lib/gcc/arm-eabi/4.6.0/../../../../arm-eabi/lib/thumb\libg.a(lib_a-wcsnrtombs.o)
                0x020307bc                _wcsnrtombs_r
                0x020308c8                wcsnrtombs
 .text          0x020308f8       0x64 c:/ndsdev/devkitpro/devkitarm/bin/../lib/gcc/arm-eabi/4.6.0/../../../../arm-eabi/lib/thumb\libg.a(lib_a-callocr.o)
                0x020308f8                _calloc_r
 .text          0x0203095c        0x0 c:/ndsdev/devkitpro/devkitarm/bin/../lib/gcc/arm-eabi/4.6.0/../../../../arm-eabi/lib/thumb\libg.a(lib_a-environ.o)
 .text          0x0203095c        0x8 c:/ndsdev/devkitpro/devkitarm/bin/../lib/gcc/arm-eabi/4.6.0/../../../../arm-eabi/lib/thumb\libg.a(lib_a-envlock.o)
                0x0203095c                __env_lock
                0x02030960                __env_unlock
 .text          0x02030964      0x674 c:/ndsdev/devkitpro/devkitarm/bin/../lib/gcc/arm-eabi/4.6.0/../../../../arm-eabi/lib/thumb\libg.a(lib_a-gdtoa-gethex.o)
                0x02030a24                __hexdig_init
                0x02030a80                __gethex
 .text          0x02030fd8      0x1e0 c:/ndsdev/devkitpro/devkitarm/bin/../lib/gcc/arm-eabi/4.6.0/../../../../arm-eabi/lib/thumb\libg.a(lib_a-gdtoa-hexnan.o)
                0x02030fd8                __hexnan
 .text          0x020311b8      0x144 c:/ndsdev/devkitpro/devkitarm/bin/../lib/gcc/arm-eabi/4.6.0/../../../../arm-eabi/lib/thumb\libsysbase.a(iosupport.o)
                0x020311b8                setDefaultDevice
                0x020311cc                FindDevice
                0x0203123c                RemoveDevice
                0x02031260                AddDevice
                0x020312dc                GetDeviceOpTab
 .text          0x020312fc       0x50 c:/ndsdev/devkitpro/devkitarm/bin/../lib/gcc/arm-eabi/4.6.0/../../../../arm-eabi/lib/thumb\libsysbase.a(close.o)
                0x020312fc                _close_r
 .text          0x0203134c       0x58 c:/ndsdev/devkitpro/devkitarm/bin/../lib/gcc/arm-eabi/4.6.0/../../../../arm-eabi/lib/thumb\libsysbase.a(fstat.o)
                0x0203134c                _fstat_r
 .text          0x020313a4        0x4 c:/ndsdev/devkitpro/devkitarm/bin/../lib/gcc/arm-eabi/4.6.0/../../../../arm-eabi/lib/thumb\libsysbase.a(isatty.o)
                0x020313a4                _isatty_r
 .text          0x020313a8       0x54 c:/ndsdev/devkitpro/devkitarm/bin/../lib/gcc/arm-eabi/4.6.0/../../../../arm-eabi/lib/thumb\libsysbase.a(lseek.o)
                0x020313a8                _lseek_r
 .text          0x020313fc       0xa0 c:/ndsdev/devkitpro/devkitarm/bin/../lib/gcc/arm-eabi/4.6.0/../../../../arm-eabi/lib/thumb\libsysbase.a(open.o)
                0x020313fc                _open_r
 .text          0x0203149c       0x54 c:/ndsdev/devkitpro/devkitarm/bin/../lib/gcc/arm-eabi/4.6.0/../../../../arm-eabi/lib/thumb\libsysbase.a(read.o)
                0x0203149c                _read_r
 .text          0x020314f0       0x54 c:/ndsdev/devkitpro/devkitarm/bin/../lib/gcc/arm-eabi/4.6.0/../../../../arm-eabi/lib/thumb\libsysbase.a(sbrk.o)
                0x020314f0                _sbrk_r
 .text          0x02031544       0x40 c:/ndsdev/devkitpro/devkitarm/bin/../lib/gcc/arm-eabi/4.6.0/../../../../arm-eabi/lib/thumb\libsysbase.a(stat.o)
                0x02031544                _stat_r
 .text          0x02031584       0x48 c:/ndsdev/devkitpro/devkitarm/bin/../lib/gcc/arm-eabi/4.6.0/../../../../arm-eabi/lib/thumb\libsysbase.a(times.o)
                0x02031584                _times
                0x02031598                _times_r
                0x020315a0                _gettimeofday_r
 .text          0x020315cc       0x3c c:/ndsdev/devkitpro/devkitarm/bin/../lib/gcc/arm-eabi/4.6.0/../../../../arm-eabi/lib/thumb\libsysbase.a(unlink.o)
                0x020315cc                _unlink_r
 .text          0x02031608       0x54 c:/ndsdev/devkitpro/devkitarm/bin/../lib/gcc/arm-eabi/4.6.0/../../../../arm-eabi/lib/thumb\libsysbase.a(write.o)
                0x02031608                _write_r
 .text          0x0203165c        0x0 c:/ndsdev/devkitpro/devkitarm/bin/../lib/gcc/arm-eabi/4.6.0/../../../../arm-eabi/lib/thumb\libsysbase.a(malloc_vars.o)
 .text          0x0203165c      0x248 c:/ndsdev/devkitpro/devkitarm/bin/../lib/gcc/arm-eabi/4.6.0/../../../../arm-eabi/lib/thumb\libsysbase.a(chdir.o)
                0x0203165c                _concatenate_path
                0x02031774                chdir
                0x02031854                getcwd
 .text          0x020318a4       0x40 c:/ndsdev/devkitpro/devkitarm/bin/../lib/gcc/arm-eabi/4.6.0/../../../../arm-eabi/lib/thumb\libsysbase.a(mkdir.o)
                0x020318a4                mkdir
 .text          0x020318e4       0x58 c:/ndsdev/devkitpro/devkitarm/bin/../lib/gcc/arm-eabi/4.6.0/../../../../arm-eabi/lib/thumb\libsysbase.a(rename.o)
                0x020318e4                _rename_r
 .text          0x0203193c       0x58 c:/ndsdev/devkitpro/devkitarm/bin/../lib/gcc/arm-eabi/4.6.0/../../../../arm-eabi/lib/thumb\libsysbase.a(build_argv.o)
                0x0203193c                build_argv
 .text          0x02031994        0x0 c:/ndsdev/devkitpro/devkitarm/bin/../lib/gcc/arm-eabi/4.6.0/../../../../arm-eabi/lib/thumb\libsysbase.a(syscall_support.o)
 .text          0x02031994       0x80 c:/ndsdev/devkitpro/devkitarm/bin/../lib/gcc/arm-eabi/4.6.0/../../../../arm-eabi/lib/thumb\libsysbase.a(handle_manager.o)
                0x02031994                __release_handle
                0x020319c0                __alloc_handle
                0x020319f8                __get_handle
 .text          0x02031a14      0x350 c:/ndsdev/devkitpro/devkitarm/bin/../lib/gcc/arm-eabi/4.6.0/../../../../arm-eabi/lib/thumb\libsysbase.a(dirent.o)
                0x02031a58                opendir
                0x02031afc                closedir
                0x02031b5c                readdir
                0x02031c0c                readdir_r
                0x02031c9c                rewinddir
                0x02031cd8                seekdir
                0x02031d4c                telldir
 .text          0x02031d64       0x54 c:/ndsdev/devkitpro/devkitarm/bin/../lib/gcc/arm-eabi/4.6.0/thumb\libgcc.a(_arm_fixunsdfsi.o)
                0x02031d64                __aeabi_d2uiz
                0x02031d64                __fixunsdfsi
 .text          0x02031db8       0xa0 c:/ndsdev/devkitpro/devkitarm/bin/../lib/gcc/arm-eabi/4.6.0/thumb\libgcc.a(_arm_truncdfsf2.o)
                0x02031db8                __truncdfsf2
                0x02031db8                __aeabi_d2f
 .text          0x02031e58       0x3c c:/ndsdev/devkitpro/devkitarm/bin/../lib/gcc/arm-eabi/4.6.0/thumb\libgcc.a(_aeabi_uldivmod.o)
                0x02031e58                __aeabi_uldivmod
 .text          0x02031e94       0x74 c:/ndsdev/devkitpro/devkitarm/bin/../lib/gcc/arm-eabi/4.6.0/thumb\libgcc.a(bpabi.o)
                0x02031e94                __gnu_ldivmod_helper
                0x02031ed0                __gnu_uldivmod_helper
 .text          0x02031f08      0xa84 c:/ndsdev/devkitpro/devkitarm/bin/../lib/gcc/arm-eabi/4.6.0/thumb\libgcc.a(unwind-arm.o)
                0x020321e4                _Unwind_VRS_Get
                0x02032230                _Unwind_VRS_Set
                0x02032570                __aeabi_unwind_cpp_pr2
                0x02032580                __aeabi_unwind_cpp_pr1
                0x02032590                __aeabi_unwind_cpp_pr0
                0x020325a0                _Unwind_VRS_Pop
                0x02032818                _Unwind_GetCFA
                0x0203281c                __gnu_Unwind_RaiseException
                0x0203287c                __gnu_Unwind_ForcedUnwind
                0x02032894                __gnu_Unwind_Resume
                0x020328d4                __gnu_Unwind_Resume_or_Rethrow
                0x020328f4                _Unwind_Complete
                0x020328f8                _Unwind_DeleteException
                0x02032910                __gnu_Unwind_Backtrace
 .text          0x0203298c      0x1d8 c:/ndsdev/devkitpro/devkitarm/bin/../lib/gcc/arm-eabi/4.6.0/thumb\libgcc.a(libunwind.o)
                0x0203298c                __restore_core_regs
                0x0203298c                restore_core_regs
                0x020329a8                __gnu_Unwind_Restore_VFP
                0x020329b0                __gnu_Unwind_Save_VFP
                0x020329b8                __gnu_Unwind_Restore_VFP_D
                0x020329c0                __gnu_Unwind_Save_VFP_D
                0x020329c8                __gnu_Unwind_Restore_VFP_D_16_to_31
                0x020329d0                __gnu_Unwind_Save_VFP_D_16_to_31
                0x020329d8                __gnu_Unwind_Restore_WMMXD
                0x02032a1c                __gnu_Unwind_Save_WMMXD
                0x02032a60                __gnu_Unwind_Restore_WMMXC
                0x02032a74                __gnu_Unwind_Save_WMMXC
                0x02032a88                ___Unwind_RaiseException
                0x02032a88                _Unwind_RaiseException
                0x02032ab4                _Unwind_Resume
                0x02032ab4                ___Unwind_Resume
                0x02032ae0                _Unwind_Resume_or_Rethrow
                0x02032ae0                ___Unwind_Resume_or_Rethrow
                0x02032b0c                _Unwind_ForcedUnwind
                0x02032b0c                ___Unwind_ForcedUnwind
                0x02032b38                ___Unwind_Backtrace
                0x02032b38                _Unwind_Backtrace
 .text          0x02032b64      0x3a0 c:/ndsdev/devkitpro/devkitarm/bin/../lib/gcc/arm-eabi/4.6.0/thumb\libgcc.a(pr-support.o)
                0x02032bc0                __gnu_unwind_execute
                0x02032ea0                __gnu_unwind_frame
                0x02032ecc                _Unwind_GetRegionStart
                0x02032edc                _Unwind_GetLanguageSpecificData
                0x02032ef4                _Unwind_GetDataRelBase
                0x02032efc                _Unwind_GetTextRelBase
 .text          0x02032f04      0x390 c:/ndsdev/devkitpro/devkitarm/bin/../lib/gcc/arm-eabi/4.6.0/thumb\libgcc.a(_divdi3.o)
                0x02032f04                __divdi3
 .text          0x02033294      0x358 c:/ndsdev/devkitpro/devkitarm/bin/../lib/gcc/arm-eabi/4.6.0/thumb\libgcc.a(_udivdi3.o)
                0x02033294                __udivdi3
 .text          0x020335ec       0x48 c:/ndsdev/devkitpro/devkitarm/bin/../lib/gcc/arm-eabi/4.6.0/thumb\libgcc.a(_clzsi2.o)
                0x020335ec                __clzsi2
 .text          0x02033634       0x10 c:/ndsdev/devkitpro/devkitarm/bin/../lib/gcc/arm-eabi/4.6.0/../../../../arm-eabi/lib/thumb\libg.a(lib_a-abort.o)
                0x02033634                abort
 .text          0x02033644      0x194 c:/ndsdev/devkitpro/devkitarm/bin/../lib/gcc/arm-eabi/4.6.0/../../../../arm-eabi/lib/thumb\libg.a(lib_a-signal.o)
                0x02033644                _init_signal_r
                0x02033684                _signal_r
                0x020336c4                _raise_r
                0x02033724                __sigtramp_r
                0x02033774                raise
                0x0203378c                signal
                0x020337a8                _init_signal
                0x020337bc                __sigtramp
 .text          0x020337d8        0xc c:/ndsdev/devkitpro/devkitarm/bin/../lib/gcc/arm-eabi/4.6.0/../../../../arm-eabi/lib/thumb\libsysbase.a(getpid.o)
                0x020337d8                _getpid_r
 .text          0x020337e4        0xc c:/ndsdev/devkitpro/devkitarm/bin/../lib/gcc/arm-eabi/4.6.0/../../../../arm-eabi/lib/thumb\libsysbase.a(kill.o)
                0x020337e4                _kill_r
 .text          0x020337f0       0x18 c:/ndsdev/devkitpro/devkitarm/bin/../lib/gcc/arm-eabi/4.6.0/../../../../arm-eabi/lib/thumb\libsysbase.a(_exit.o)
                0x020337f0                _exit
 .text          0x02033808        0x0 c:/ndsdev/devkitpro/devkitarm/bin/../lib/gcc/arm-eabi/4.6.0/thumb/crtend.o
 .text          0x02033808        0x0 c:/ndsdev/devkitpro/devkitarm/bin/../lib/gcc/arm-eabi/4.6.0/thumb/crtn.o
 *(.text.*)
 .text.startup  0x02033808       0x58 Main.o
                0x02033808                main
 .text.startup.stub
                0x02033860       0x10 linker stubs
 *(.stub)
 *(.gnu.warning)
 *(.gnu.linkonce.t*)
 *(.glue_7)
 .glue_7        0x00000000        0x0 linker stubs
 *(.glue_7t)
 .glue_7t       0x00000000        0x0 linker stubs
                0x02033870                . = ALIGN (0x4)

.vfp11_veneer   0x02033870        0x0
 .vfp11_veneer  0x00000000        0x0 linker stubs

.v4_bx          0x02033870        0x0
 .v4_bx         0x00000000        0x0 linker stubs

.fini           0x02033870        0xc
 *(.fini)
 .fini          0x02033870        0x4 c:/ndsdev/devkitpro/devkitarm/bin/../lib/gcc/arm-eabi/4.6.0/thumb/crti.o
                0x02033870                _fini
 .fini          0x02033874        0x8 c:/ndsdev/devkitpro/devkitarm/bin/../lib/gcc/arm-eabi/4.6.0/thumb/crtn.o
                0x0203387c                __text_end = .

.rodata         0x02033880    0x36724
 *(.rodata)
 .rodata        0x02033880      0x604 bg_create_Map.o
                0x02033880                bg_create_Map
                0x02033e80                bg_create_Map_end
                0x02033e80                bg_create_Map_size
 .rodata        0x02033e84      0x204 bg_create_Pal.o
                0x02033e84                bg_create_Pal
                0x02034084                bg_create_Pal_size
                0x02034084                bg_create_Pal_end
 .rodata        0x02034088      0xfc4 bg_create_Tiles.o
                0x02034088                bg_create_Tiles
                0x02035048                bg_create_Tiles_end
                0x02035048                bg_create_Tiles_size
 .rodata        0x0203504c      0x604 bg_dialog_Map.o
                0x0203504c                bg_dialog_Map
                0x0203564c                bg_dialog_Map_size
                0x0203564c                bg_dialog_Map_end
 .rodata        0x02035650      0x204 bg_dialog_Pal.o
                0x02035650                bg_dialog_Pal
                0x02035850                bg_dialog_Pal_size
                0x02035850                bg_dialog_Pal_end
 .rodata        0x02035854      0xc44 bg_dialog_Tiles.o
                0x02035854                bg_dialog_Tiles
                0x02036494                bg_dialog_Tiles_size
                0x02036494                bg_dialog_Tiles_end
 .rodata        0x02036498      0x604 bg_down_Map.o
                0x02036498                bg_down_Map
                0x02036a98                bg_down_Map_size
                0x02036a98                bg_down_Map_end
 .rodata        0x02036a9c      0x204 bg_down_Pal.o
                0x02036a9c                bg_down_Pal
                0x02036c9c                bg_down_Pal_size
                0x02036c9c                bg_down_Pal_end
 .rodata        0x02036ca0     0xc004 bg_down_Sprite.o
                0x02036ca0                bg_down_Sprite
                0x02042ca0                bg_down_Sprite_end
                0x02042ca0                bg_down_Sprite_size
 .rodata        0x02042ca4     0x1704 bg_down_Tiles.o
                0x02042ca4                bg_down_Tiles
                0x020443a4                bg_down_Tiles_size
                0x020443a4                bg_down_Tiles_end
 .rodata        0x020443a8      0x604 bg_edit_dialog_Map.o
                0x020443a8                bg_edit_dialog_Map
                0x020449a8                bg_edit_dialog_Map_end
                0x020449a8                bg_edit_dialog_Map_size
 .rodata        0x020449ac      0x204 bg_edit_dialog_Pal.o
                0x020449ac                bg_edit_dialog_Pal
                0x02044bac                bg_edit_dialog_Pal_size
                0x02044bac                bg_edit_dialog_Pal_end
 .rodata        0x02044bb0      0x804 bg_edit_dialog_Tiles.o
                0x02044bb0                bg_edit_dialog_Tiles
                0x020453b0                bg_edit_dialog_Tiles_end
                0x020453b0                bg_edit_dialog_Tiles_size
 .rodata        0x020453b4      0x604 bg_up_Map.o
                0x020453b4                bg_up_Map
                0x020459b4                bg_up_Map_size
                0x020459b4                bg_up_Map_end
 .rodata        0x020459b8      0x204 bg_up_Pal.o
                0x020459b8                bg_up_Pal
                0x02045bb8                bg_up_Pal_size
                0x02045bb8                bg_up_Pal_end
 .rodata        0x02045bbc      0xfc4 bg_up_Tiles.o
                0x02045bbc                bg_up_Tiles
                0x02046b7c                bg_up_Tiles_size
                0x02046b7c                bg_up_Tiles_end
 .rodata        0x02046b80      0x204 menu_del_Pal.o
                0x02046b80                menu_del_Pal
                0x02046d80                menu_del_Pal_end
                0x02046d80                menu_del_Pal_size
 .rodata        0x02046d84      0x404 menu_del_Sprite.o
                0x02046d84                menu_del_Sprite
                0x02047184                menu_del_Sprite_end
                0x02047184                menu_del_Sprite_size
 .rodata        0x02047188      0x204 menu_move_Pal.o
                0x02047188                menu_move_Pal
                0x02047388                menu_move_Pal_size
                0x02047388                menu_move_Pal_end
 .rodata        0x0204738c      0x404 menu_move_Sprite.o
                0x0204738c                menu_move_Sprite
                0x0204778c                menu_move_Sprite_end
                0x0204778c                menu_move_Sprite_size
 .rodata        0x02047790      0x204 menu_serial_Pal.o
                0x02047790                menu_serial_Pal
                0x02047990                menu_serial_Pal_size
                0x02047990                menu_serial_Pal_end
 .rodata        0x02047994     0x1004 menu_serial_Sprite.o
                0x02047994                menu_serial_Sprite
                0x02048994                menu_serial_Sprite_end
                0x02048994                menu_serial_Sprite_size
 .rodata        0x02048998      0x204 menu_setting_Pal.o
                0x02048998                menu_setting_Pal
                0x02048b98                menu_setting_Pal_end
                0x02048b98                menu_setting_Pal_size
 .rodata        0x02048b9c      0x404 menu_setting_Sprite.o
                0x02048b9c                menu_setting_Sprite
                0x02048f9c                menu_setting_Sprite_size
                0x02048f9c                menu_setting_Sprite_end
 .rodata        0x02048fa0      0x204 menu_usb_Pal.o
                0x02048fa0                menu_usb_Pal
                0x020491a0                menu_usb_Pal_end
                0x020491a0                menu_usb_Pal_size
 .rodata        0x020491a4     0x1004 menu_usb_Sprite.o
                0x020491a4                menu_usb_Sprite
                0x0204a1a4                menu_usb_Sprite_end
                0x0204a1a4                menu_usb_Sprite_size
 .rodata        0x0204a1a8      0x204 menu_wifi_Pal.o
                0x0204a1a8                menu_wifi_Pal
                0x0204a3a8                menu_wifi_Pal_size
                0x0204a3a8                menu_wifi_Pal_end
 .rodata        0x0204a3ac     0x1004 menu_wifi_Sprite.o
                0x0204a3ac                menu_wifi_Sprite
                0x0204b3ac                menu_wifi_Sprite_end
                0x0204b3ac                menu_wifi_Sprite_size
 .rodata        0x0204b3b0      0x204 move_create_Pal.o
                0x0204b3b0                move_create_Pal
                0x0204b5b0                move_create_Pal_size
                0x0204b5b0                move_create_Pal_end
 .rodata        0x0204b5b4      0x404 move_create_Sprite.o
                0x0204b5b4                move_create_Sprite
                0x0204b9b4                move_create_Sprite_size
                0x0204b9b4                move_create_Sprite_end
 .rodata        0x0204b9b8      0x204 sel_menu_serial_Pal.o
                0x0204b9b8                sel_menu_serial_Pal
                0x0204bbb8                sel_menu_serial_Pal_end
                0x0204bbb8                sel_menu_serial_Pal_size
 .rodata        0x0204bbbc     0x1004 sel_menu_serial_Sprite.o
                0x0204bbbc                sel_menu_serial_Sprite
                0x0204cbbc                sel_menu_serial_Sprite_size
                0x0204cbbc                sel_menu_serial_Sprite_end
 .rodata        0x0204cbc0      0x204 sel_menu_usb_Pal.o
                0x0204cbc0                sel_menu_usb_Pal
                0x0204cdc0                sel_menu_usb_Pal_end
                0x0204cdc0                sel_menu_usb_Pal_size
 .rodata        0x0204cdc4     0x1004 sel_menu_usb_Sprite.o
                0x0204cdc4                sel_menu_usb_Sprite
                0x0204ddc4                sel_menu_usb_Sprite_end
                0x0204ddc4                sel_menu_usb_Sprite_size
 .rodata        0x0204ddc8      0x204 sel_menu_wifi_Pal.o
                0x0204ddc8                sel_menu_wifi_Pal
                0x0204dfc8                sel_menu_wifi_Pal_end
                0x0204dfc8                sel_menu_wifi_Pal_size
 .rodata        0x0204dfcc     0x1004 sel_menu_wifi_Sprite.o
                0x0204dfcc                sel_menu_wifi_Sprite
                0x0204efcc                sel_menu_wifi_Sprite_end
                0x0204efcc                sel_menu_wifi_Sprite_size
 .rodata        0x0204efd0      0x204 selected_Pal.o
                0x0204efd0                selected_Pal
                0x0204f1d0                selected_Pal_end
                0x0204f1d0                selected_Pal_size
 .rodata        0x0204f1d4       0x44 selected_Sprite.o
                0x0204f1d4                selected_Sprite
                0x0204f214                selected_Sprite_size
                0x0204f214                selected_Sprite_end
 .rodata        0x0204f218     0x2f30 down.o
                0x0204f218                downBitmap
 .rodata        0x02052148     0x2e7c up.o
                0x02052148                upBitmap
 .rodata        0x02054fc4        0xc down_execute.o
 .rodata        0x02054fd0       0x24 download.o
 .rodata        0x02054ff4       0x20 wifi.o
 .rodata        0x02055014      0x224 virtual_io.o
 .rodata        0x02055238       0x20 bg_create.o
                0x02055238                bg_create
 .rodata        0x02055258       0x20 bg_dialog.o
                0x02055258                bg_dialog
 .rodata        0x02055278       0x20 bg_down.o
                0x02055278                bg_down
 .rodata        0x02055298       0x20 bg_edit_dialog.o
                0x02055298                bg_edit_dialog
 .rodata        0x020552b8       0x20 bg_up.o
                0x020552b8                bg_up
 .rodata        0x020552d8       0x40 c:/ndsdev/devkitPro/PAlib/lib\libpa9.a(PA_Inits.o)
                0x020552d8                winfades
 .rodata        0x02055318       0xf0 c:/ndsdev/devkitPro/PAlib/lib\libpa9.a(PA_Keyboard.o)
                0x02055318                PA_Keyboard
 .rodata        0x02055408      0x400 c:/ndsdev/devkitPro/PAlib/lib\libpa9.a(PA_Math.o)
                0x02055408                PA_SIN
 .rodata        0x02055808       0x30 c:/ndsdev/devkitPro/PAlib/lib\libpa9.a(PA_Sprite.o)
                0x02055808                PA_obj_sizes
                0x02055820                PA_size
 .rodata        0x02055838     0x2000 c:/ndsdev/devkitPro/PAlib/lib\libpa9.a(keyboard.map.o)
                0x02055838                keyboard_Map
 .rodata        0x02057838       0x20 c:/ndsdev/devkitPro/PAlib/lib\libpa9.a(keyboard.pal.o)
                0x02057838                keyboard_Palette
 .rodata        0x02057858     0x28a0 c:/ndsdev/devkitPro/PAlib/lib\libpa9.a(keyboard.raw.o)
                0x02057858                keyboard_Tiles
 .rodata        0x0205a0f8       0x20 c:/ndsdev/devkitPro/PAlib/lib\libpa9.a(PA_TiledFont.o)
                0x0205a0f8                PA_TiledFont
 .rodata        0x0205a118       0x20 c:/ndsdev/devkitPro/PAlib/lib\libpa9.a(PA_BmpFont0.o)
                0x0205a118                PA_BmpFont0
 .rodata        0x0205a138       0x20 c:/ndsdev/devkitPro/PAlib/lib\libpa9.a(PA_BmpFont1.o)
                0x0205a138                PA_BmpFont1
 .rodata        0x0205a158       0x20 c:/ndsdev/devkitPro/PAlib/lib\libpa9.a(PA_BmpFont2.o)
                0x0205a158                PA_BmpFont2
 .rodata        0x0205a178       0x20 c:/ndsdev/devkitPro/PAlib/lib\libpa9.a(PA_BmpFont3.o)
                0x0205a178                PA_BmpFont3
 .rodata        0x0205a198       0x20 c:/ndsdev/devkitPro/PAlib/lib\libpa9.a(PA_BmpFont4.o)
                0x0205a198                PA_BmpFont4
 .rodata        0x0205a1b8      0x604 c:/ndsdev/devkitPro/PAlib/lib\libpa9.a(PA_TiledFont_Map.bin.o)
                0x0205a1b8                PA_TiledFont_Map
                0x0205a7b8                PA_TiledFont_Map_size
                0x0205a7b8                PA_TiledFont_Map_end
 .rodata        0x0205a7bc      0x204 c:/ndsdev/devkitPro/PAlib/lib\libpa9.a(PA_TiledFont_Pal.bin.o)
                0x0205a7bc                PA_TiledFont_Pal
                0x0205a9bc                PA_TiledFont_Pal_end
                0x0205a9bc                PA_TiledFont_Pal_size
 .rodata        0x0205a9c0     0x33c4 c:/ndsdev/devkitPro/PAlib/lib\libpa9.a(PA_TiledFont_Tiles.bin.o)
                0x0205a9c0                PA_TiledFont_Tiles
                0x0205dd80                PA_TiledFont_Tiles_size
                0x0205dd80                PA_TiledFont_Tiles_end
 .rodata        0x0205dd84      0x204 c:/ndsdev/devkitPro/PAlib/lib\libpa9.a(PA_BmpFont0_Map.bin.o)
                0x0205dd84                PA_BmpFont0_Map
                0x0205df84                PA_BmpFont0_Map_end
                0x0205df84                PA_BmpFont0_Map_size
 .rodata        0x0205df88      0x104 c:/ndsdev/devkitPro/PAlib/lib\libpa9.a(PA_BmpFont0_Sizes.bin.o)
                0x0205df88                PA_BmpFont0_Sizes
                0x0205e088                PA_BmpFont0_Sizes_size
                0x0205e088                PA_BmpFont0_Sizes_end
 .rodata        0x0205e08c      0x324 c:/ndsdev/devkitPro/PAlib/lib\libpa9.a(PA_BmpFont0_Tiles.bin.o)
                0x0205e08c                PA_BmpFont0_Tiles
                0x0205e3ac                PA_BmpFont0_Tiles_size
                0x0205e3ac                PA_BmpFont0_Tiles_end
 .rodata        0x0205e3b0      0x204 c:/ndsdev/devkitPro/PAlib/lib\libpa9.a(PA_BmpFont1_Map.bin.o)
                0x0205e3b0                PA_BmpFont1_Map
                0x0205e5b0                PA_BmpFont1_Map_end
                0x0205e5b0                PA_BmpFont1_Map_size
 .rodata        0x0205e5b4      0x104 c:/ndsdev/devkitPro/PAlib/lib\libpa9.a(PA_BmpFont1_Sizes.bin.o)
                0x0205e5b4                PA_BmpFont1_Sizes
                0x0205e6b4                PA_BmpFont1_Sizes_size
                0x0205e6b4                PA_BmpFont1_Sizes_end
 .rodata        0x0205e6b8      0x34c c:/ndsdev/devkitPro/PAlib/lib\libpa9.a(PA_BmpFont1_Tiles.bin.o)
                0x0205e6b8                PA_BmpFont1_Tiles
                0x0205ea00                PA_BmpFont1_Tiles_end
                0x0205ea00                PA_BmpFont1_Tiles_size
 .rodata        0x0205ea04      0x804 c:/ndsdev/devkitPro/PAlib/lib\libpa9.a(PA_BmpFont2_Map.bin.o)
                0x0205ea04                PA_BmpFont2_Map
                0x0205f204                PA_BmpFont2_Map_size
                0x0205f204                PA_BmpFont2_Map_end
 .rodata        0x0205f208      0x104 c:/ndsdev/devkitPro/PAlib/lib\libpa9.a(PA_BmpFont2_Sizes.bin.o)
                0x0205f208                PA_BmpFont2_Sizes
                0x0205f308                PA_BmpFont2_Sizes_end
                0x0205f308                PA_BmpFont2_Sizes_size
 .rodata        0x0205f30c      0x39c c:/ndsdev/devkitPro/PAlib/lib\libpa9.a(PA_BmpFont2_Tiles.bin.o)
                0x0205f30c                PA_BmpFont2_Tiles
                0x0205f6a4                PA_BmpFont2_Tiles_size
                0x0205f6a4                PA_BmpFont2_Tiles_end
 .rodata        0x0205f6a8      0x804 c:/ndsdev/devkitPro/PAlib/lib\libpa9.a(PA_BmpFont3_Map.bin.o)
                0x0205f6a8                PA_BmpFont3_Map
                0x0205fea8                PA_BmpFont3_Map_end
                0x0205fea8                PA_BmpFont3_Map_size
 .rodata        0x0205feac      0x104 c:/ndsdev/devkitPro/PAlib/lib\libpa9.a(PA_BmpFont3_Sizes.bin.o)
                0x0205feac                PA_BmpFont3_Sizes
                0x0205ffac                PA_BmpFont3_Sizes_end
                0x0205ffac                PA_BmpFont3_Sizes_size
 .rodata        0x0205ffb0      0x624 c:/ndsdev/devkitPro/PAlib/lib\libpa9.a(PA_BmpFont3_Tiles.bin.o)
                0x0205ffb0                PA_BmpFont3_Tiles
                0x020605d0                PA_BmpFont3_Tiles_end
                0x020605d0                PA_BmpFont3_Tiles_size
 .rodata        0x020605d4      0x804 c:/ndsdev/devkitPro/PAlib/lib\libpa9.a(PA_BmpFont4_Map.bin.o)
                0x020605d4                PA_BmpFont4_Map
                0x02060dd4                PA_BmpFont4_Map_size
                0x02060dd4                PA_BmpFont4_Map_end
 .rodata        0x02060dd8      0x104 c:/ndsdev/devkitPro/PAlib/lib\libpa9.a(PA_BmpFont4_Sizes.bin.o)
                0x02060dd8                PA_BmpFont4_Sizes
                0x02060ed8                PA_BmpFont4_Sizes_end
                0x02060ed8                PA_BmpFont4_Sizes_size
 .rodata        0x02060edc      0x834 c:/ndsdev/devkitPro/PAlib/lib\libpa9.a(PA_BmpFont4_Tiles.bin.o)
                0x02060edc                PA_BmpFont4_Tiles
                0x0206170c                PA_BmpFont4_Tiles_size
                0x0206170c                PA_BmpFont4_Tiles_end
 .rodata        0x02061710       0x64 c:/ndsdev/devkitPro/libnds/lib\libfat.a(libfat.o)
 .rodata        0x02061774        0xc c:/ndsdev/devkitPro/libnds/lib\libfat.a(partition.o)
 .rodata        0x02061780       0x54 c:/ndsdev/devkitPro/libnds/lib\libfat.a(directory.o)
 .rodata        0x020617d4       0x18 c:/ndsdev/devkitPro/libnds/lib\libfat.a(disc.o)
                0x020617d4                _FAT_disc_interfaces
 .rodata        0x020617ec      0x200 c:/ndsdev/devkitPro/libnds/lib\libnds9.a(console.o)
 .rodata        0x020619ec       0x14 c:/ndsdev/devkitPro/libnds/lib\libnds9.a(decompress.o)
 .rodata        0x02061a00      0x308 c:/ndsdev/devkitPro/libnds/lib\libnds9.a(trig.o)
                0x02061a00                SIN_LUT
                0x02061b04                TAN_LUT
 .rodata        0x02061d08        0xc c:/ndsdev/devkitPro/libnds/lib\libnds9.a(dldi.o)
                0x02061d08                DLDI_MAGIC_STRING_BACKWARDS
                0x02061d10                DLDI_MAGIC_NUMBER
 .rodata        0x02061d14       0x20 c:/ndsdev/devkitPro/libnds/lib\libnds9.a(dsi_sd.o)
                0x02061d14                __io_dsisd
 .rodata        0x02061d34     0x2004 c:/ndsdev/devkitPro/libnds/lib\libnds9.a(default_font.bin.o)
                0x02061d34                default_font_bin
                0x02063d34                default_font_bin_size
                0x02063d34                default_font_bin_end
 .rodata        0x02063d38       0x30 c:/ndsdev/devkitPro/libnds/lib\libdswifi9.a(wifi_arm9.o)
 .rodata        0x02063d68       0x54 c:/ndsdev/devkitPro/libnds/lib\libdswifi9.a(sgIP_TCP.o)
 .rodata        0x02063dbc      0x104 c:/ndsdev/devkitpro/devkitarm/bin/../lib/gcc/arm-eabi/4.6.0/../../../../arm-eabi/lib/thumb\libg.a(lib_a-ctype_.o)
                0x02063dbc                _ctype_
 .rodata        0x02063ec0        0x4 c:/ndsdev/devkitpro/devkitarm/bin/../lib/gcc/arm-eabi/4.6.0/../../../../arm-eabi/lib/thumb\libg.a(lib_a-impure.o)
                0x02063ec0                _global_impure_ptr
 .rodata        0x02063ec4       0xf0 c:/ndsdev/devkitpro/devkitarm/bin/../lib/gcc/arm-eabi/4.6.0/../../../../arm-eabi/lib/thumb\libg.a(lib_a-locale.o)
 .rodata        0x02063fb4       0xa8 c:/ndsdev/devkitpro/devkitarm/bin/../lib/gcc/arm-eabi/4.6.0/../../../../arm-eabi/lib/thumb\libg.a(lib_a-mbtowc_r.o)
 .rodata        0x0206405c       0x60 c:/ndsdev/devkitpro/devkitarm/bin/../lib/gcc/arm-eabi/4.6.0/../../../../arm-eabi/lib/thumb\libg.a(lib_a-mktime.o)
 .rodata        0x020640bc       0x68 c:/ndsdev/devkitpro/devkitarm/bin/../lib/gcc/arm-eabi/4.6.0/../../../../arm-eabi/lib/thumb\libg.a(lib_a-mktm_r.o)
 .rodata        0x02064124      0x340 c:/ndsdev/devkitpro/devkitarm/bin/../lib/gcc/arm-eabi/4.6.0/../../../../arm-eabi/lib/thumb\libg.a(lib_a-svfiscanf.o)
 .rodata        0x02064464      0x184 c:/ndsdev/devkitpro/devkitarm/bin/../lib/gcc/arm-eabi/4.6.0/../../../../arm-eabi/lib/thumb\libg.a(lib_a-svfprintf.o)
 .rodata        0x020645e8      0x47c c:/ndsdev/devkitpro/devkitarm/bin/../lib/gcc/arm-eabi/4.6.0/../../../../arm-eabi/lib/thumb\libg.a(lib_a-svfscanf.o)
 .rodata        0x02064a64      0x580 c:/ndsdev/devkitpro/devkitarm/bin/../lib/gcc/arm-eabi/4.6.0/../../../../arm-eabi/lib/thumb\libg.a(lib_a-towlower.o)
 .rodata        0x02064fe4      0x3e4 c:/ndsdev/devkitpro/devkitarm/bin/../lib/gcc/arm-eabi/4.6.0/../../../../arm-eabi/lib/thumb\libg.a(lib_a-towupper.o)
 .rodata        0x020653c8      0x184 c:/ndsdev/devkitpro/devkitarm/bin/../lib/gcc/arm-eabi/4.6.0/../../../../arm-eabi/lib/thumb\libg.a(lib_a-vfiprintf.o)
 .rodata        0x0206554c     0x34f0 c:/ndsdev/devkitpro/devkitarm/bin/../lib/gcc/arm-eabi/4.6.0/../../../../arm-eabi/lib/thumb\libg.a(lib_a-jp2uc.o)
 *fill*         0x02068a3c        0x4 ff
 .rodata        0x02068a40      0x128 c:/ndsdev/devkitpro/devkitarm/bin/../lib/gcc/arm-eabi/4.6.0/../../../../arm-eabi/lib/thumb\libg.a(lib_a-mprec.o)
                0x02068a50                __mprec_tens
                0x02068b18                __mprec_tinytens
                0x02068b40                __mprec_bigtens
 .rodata        0x02068b68      0x100 c:/ndsdev/devkitpro/devkitarm/bin/../lib/gcc/arm-eabi/4.6.0/../../../../arm-eabi/lib/thumb\libg.a(lib_a-strtod.o)
 .rodata        0x02068c68      0x184 c:/ndsdev/devkitpro/devkitarm/bin/../lib/gcc/arm-eabi/4.6.0/../../../../arm-eabi/lib/thumb\libg.a(lib_a-svfiprintf.o)
 .rodata        0x02068dec       0x64 c:/ndsdev/devkitpro/devkitarm/bin/../lib/gcc/arm-eabi/4.6.0/../../../../arm-eabi/lib/thumb\libsysbase.a(iosupport.o)
                0x02068dec                dotab_stdnull
 .rodata        0x02068e50        0xc c:/ndsdev/devkitpro/devkitarm/bin/../lib/gcc/arm-eabi/4.6.0/../../../../arm-eabi/lib/thumb\libsysbase.a(chdir.o)
                0x02068e50                DIRECTORY_PARENT
                0x02068e54                DIRECTORY_THIS
                0x02068e58                DIRECTORY_SEPARATOR
 .rodata        0x02068e5c       0x14 c:/ndsdev/devkitpro/devkitarm/bin/../lib/gcc/arm-eabi/4.6.0/thumb\libgcc.a(unwind-arm.o)
 *all.rodata*(*)
 *(.roda)
 *(.rodata.*)
 .rodata.str1.4
                0x02068e70      0x322 FileManage.o
                                0x32c (size before relaxing)
 *fill*         0x02069192        0x2 ff
 .rodata.str1.4
                0x02069194       0x16 Main.o
                                 0x18 (size before relaxing)
 *fill*         0x020691aa        0x2 ff
 .rodata.str1.4
                0x020691ac      0x113 down_execute.o
                                0x114 (size before relaxing)
 *fill*         0x020692bf        0x1 ff
 .rodata.str1.4
                0x020692c0      0x2bb download.o
                                0x2bc (size before relaxing)
 *fill*         0x0206957b        0x1 ff
 .rodata.str1.4
                0x0206957c      0x142 wifi.o
                                0x154 (size before relaxing)
 *fill*         0x020696be        0x2 ff
 .rodata.str1.4
                0x020696c0       0x19 tasks.o
                                 0x20 (size before relaxing)
 *fill*         0x020696d9        0x3 ff
 .rodata.str1.4
                0x020696dc        0xd virtual_io.o
                                 0x10 (size before relaxing)
 *fill*         0x020696e9        0x3 ff
 .rodata.str1.4
                0x020696ec      0x18b c:/ndsdev/devkitPro/PAlib/lib\libpa9.a(PA_BgTiles.o)
                                0x190 (size before relaxing)
 *fill*         0x02069877        0x1 ff
 .rodata.str1.4
                0x02069878       0x26 c:/ndsdev/devkitPro/PAlib/lib\libpa9.a(PA_Error.o)
                                 0x28 (size before relaxing)
 *fill*         0x0206989e        0x2 ff
 .rodata.str1.4
                0x020698a0        0x2 c:/ndsdev/devkitPro/PAlib/lib\libpa9.a(PA_Inits.o)
                                  0x4 (size before relaxing)
 *fill*         0x020698a2        0x2 ff
 .rodata.str1.4
                0x020698a4      0x128 c:/ndsdev/devkitPro/PAlib/lib\libpa9.a(PA_NewBg.o)
 .rodata.str1.4
                0x020699cc      0x234 c:/ndsdev/devkitPro/PAlib/lib\libpa9.a(PA_Sprite.o)
 .rodata.str1.4
                0x00000000        0xc c:/ndsdev/devkitPro/PAlib/lib\libpa9.a(PA_Stuff.o)
 .rodata.str1.4
                0x02069c00        0x4 c:/ndsdev/devkitPro/PAlib/lib\libpa9.a(PA_TextSpecial.o)
                                  0x8 (size before relaxing)
 .rodata.str1.4
                0x02069c04       0xad c:/ndsdev/devkitPro/PAlib/lib\libpa9.a(PA_Wifi.o)
                                 0xb0 (size before relaxing)
 *fill*         0x02069cb1        0x3 ff
 .rodata.str1.4
                0x02069cb4       0x14 c:/ndsdev/devkitPro/libnds/lib\libfat.a(libfat.o)
 .rodata.str1.4
                0x00000000        0x8 c:/ndsdev/devkitPro/libnds/lib\libfat.a(directory.o)
 .rodata.str1.4
                0x02069cc8        0x3 c:/ndsdev/devkitPro/libnds/lib\libfat.a(disc.o)
                                  0x8 (size before relaxing)
 *fill*         0x02069ccb        0x1 ff
 .rodata.str1.4
                0x02069ccc        0x5 c:/ndsdev/devkitPro/libnds/lib\libfat.a(fatdir.o)
                                  0x8 (size before relaxing)
 *fill*         0x02069cd1        0x3 ff
 .rodata.str1.4
                0x02069cd4       0x49 c:/ndsdev/devkitPro/libnds/lib\libnds9.a(console.o)
                                 0x4c (size before relaxing)
 *fill*         0x02069d1d        0x3 ff
 .rodata.str1.4
                0x02069d20       0xb6 c:/ndsdev/devkitPro/libnds/lib\libdswifi9.a(wifi_arm9.o)
                                 0xb8 (size before relaxing)
 *fill*         0x02069dd6        0x2 ff
 .rodata.str1.4
                0x02069dd8       0x15 c:/ndsdev/devkitPro/libnds/lib\libdswifi9.a(sgIP_DHCP.o)
                                 0x18 (size before relaxing)
 .rodata.str1.4
                0x00000000        0x4 c:/ndsdev/devkitpro/devkitarm/bin/../lib/gcc/arm-eabi/4.6.0/../../../../arm-eabi/lib/thumb\libg.a(lib_a-impure.o)
 *fill*         0x02069ded        0x3 ff
 .rodata.str1.4
                0x02069df0      0x120 c:/ndsdev/devkitpro/devkitarm/bin/../lib/gcc/arm-eabi/4.6.0/../../../../arm-eabi/lib/thumb\libg.a(lib_a-locale.o)
                                0x130 (size before relaxing)
 .rodata.str1.4
                0x00000000        0x4 c:/ndsdev/devkitpro/devkitarm/bin/../lib/gcc/arm-eabi/4.6.0/../../../../arm-eabi/lib/thumb\libg.a(lib_a-mbrtowc.o)
 .rodata.str1.4
                0x02069f10       0x42 c:/ndsdev/devkitpro/devkitarm/bin/../lib/gcc/arm-eabi/4.6.0/../../../../arm-eabi/lib/thumb\libg.a(lib_a-svfprintf.o)
                                 0x44 (size before relaxing)
 *fill*         0x02069f52        0x2 ff
 .rodata.str1.4
                0x02069f54        0x5 c:/ndsdev/devkitpro/devkitarm/bin/../lib/gcc/arm-eabi/4.6.0/../../../../arm-eabi/lib/thumb\libg.a(lib_a-svfscanf.o)
                                  0x8 (size before relaxing)
 *fill*         0x02069f59        0x3 ff
 .rodata.str1.4
                0x02069f5c        0x4 c:/ndsdev/devkitpro/devkitarm/bin/../lib/gcc/arm-eabi/4.6.0/../../../../arm-eabi/lib/thumb\libg.a(lib_a-tzvars.o)
 .rodata.str1.4
                0x00000000       0x30 c:/ndsdev/devkitpro/devkitarm/bin/../lib/gcc/arm-eabi/4.6.0/../../../../arm-eabi/lib/thumb\libg.a(lib_a-vfiprintf.o)
 .rodata.str1.4
                0x02069f60       0x10 c:/ndsdev/devkitpro/devkitarm/bin/../lib/gcc/arm-eabi/4.6.0/../../../../arm-eabi/lib/thumb\libg.a(lib_a-dtoa.o)
                                 0x14 (size before relaxing)
 .rodata.str1.4
                0x00000000       0x14 c:/ndsdev/devkitpro/devkitarm/bin/../lib/gcc/arm-eabi/4.6.0/../../../../arm-eabi/lib/thumb\libg.a(lib_a-jp2uc.o)
 .rodata.str1.4
                0x02069f70        0xf c:/ndsdev/devkitpro/devkitarm/bin/../lib/gcc/arm-eabi/4.6.0/../../../../arm-eabi/lib/thumb\libg.a(lib_a-strtod.o)
                                 0x10 (size before relaxing)
 .rodata.str1.4
                0x00000000       0x30 c:/ndsdev/devkitpro/devkitarm/bin/../lib/gcc/arm-eabi/4.6.0/../../../../arm-eabi/lib/thumb\libg.a(lib_a-svfiprintf.o)
 *fill*         0x02069f7f        0x1 ff
 .rodata.str1.4
                0x02069f80       0x1b c:/ndsdev/devkitpro/devkitarm/bin/../lib/gcc/arm-eabi/4.6.0/../../../../arm-eabi/lib/thumb\libg.a(lib_a-gdtoa-gethex.o)
                                 0x1c (size before relaxing)
 *fill*         0x02069f9b        0x1 ff
 .rodata.str1.4
                0x02069f9c        0x8 c:/ndsdev/devkitpro/devkitarm/bin/../lib/gcc/arm-eabi/4.6.0/../../../../arm-eabi/lib/thumb\libsysbase.a(iosupport.o)
 *(.gnu.linkonce.r*)
                0x02069fa4                . = ALIGN (0x4)

.ARM.extab      0x02069fa4       0xb4
 *(.ARM.extab* .gnu.linkonce.armextab.*)
 .ARM.extab     0x02069fa4        0x0 c:/ndsdev/devkitpro/devkitarm/bin/../lib/gcc/arm-eabi/4.6.0/thumb\libgcc.a(bpabi.o)
 .ARM.extab     0x02069fa4       0x6c c:/ndsdev/devkitpro/devkitarm/bin/../lib/gcc/arm-eabi/4.6.0/thumb\libgcc.a(unwind-arm.o)
 .ARM.extab     0x0206a010       0x30 c:/ndsdev/devkitpro/devkitarm/bin/../lib/gcc/arm-eabi/4.6.0/thumb\libgcc.a(pr-support.o)
 .ARM.extab     0x0206a040        0xc c:/ndsdev/devkitpro/devkitarm/bin/../lib/gcc/arm-eabi/4.6.0/thumb\libgcc.a(_divdi3.o)
 .ARM.extab     0x0206a04c        0xc c:/ndsdev/devkitpro/devkitarm/bin/../lib/gcc/arm-eabi/4.6.0/thumb\libgcc.a(_udivdi3.o)
                0x0206a058                __exidx_start = .

ARM.exidx       0x0206a058       0xf8
 *(.ARM.exidx* .gnu.linkonce.armexidx.*)
 .ARM.exidx     0x0206a058        0x8 c:/ndsdev/devkitpro/devkitarm/bin/../lib/gcc/arm-eabi/4.6.0/thumb\libgcc.a(bpabi.o)
                                 0x10 (size before relaxing)
 .ARM.exidx     0x0206a060       0xa0 c:/ndsdev/devkitpro/devkitarm/bin/../lib/gcc/arm-eabi/4.6.0/thumb\libgcc.a(unwind-arm.o)
                                 0xc0 (size before relaxing)
 .ARM.exidx     0x0206a100       0x38 c:/ndsdev/devkitpro/devkitarm/bin/../lib/gcc/arm-eabi/4.6.0/thumb\libgcc.a(pr-support.o)
                                 0x48 (size before relaxing)
 .ARM.exidx     0x0206a138        0x8 c:/ndsdev/devkitpro/devkitarm/bin/../lib/gcc/arm-eabi/4.6.0/thumb\libgcc.a(_divdi3.o)
 .ARM.exidx     0x0206a140       0x10 c:/ndsdev/devkitpro/devkitarm/bin/../lib/gcc/arm-eabi/4.6.0/thumb\libgcc.a(_udivdi3.o)
                                  0x8 (size before relaxing)
                0x0206a150                __exidx_end = .
                0x0206a150                . = ALIGN (0x4)
                0x0206a150                PROVIDE (__preinit_array_start, .)

.preinit_array
 *(.preinit_array)
                0x0206a150                PROVIDE (__preinit_array_end, .)
                0x0206a150                PROVIDE (__init_array_start, .)

.init_array     0x0206a150        0x4
 *(SORT(.init_array.*))
 *(.init_array)
 .init_array    0x0206a150        0x4 c:/ndsdev/devkitpro/devkitarm/bin/../lib/gcc/arm-eabi/4.6.0/thumb/crtbegin.o
                0x0206a154                PROVIDE (__init_array_end, .)
                0x0206a154                PROVIDE (__fini_array_start, .)

.fini_array     0x0206a154        0x4
 *(.fini_array)
 .fini_array    0x0206a154        0x4 c:/ndsdev/devkitpro/devkitarm/bin/../lib/gcc/arm-eabi/4.6.0/thumb/crtbegin.o
 *(SORT(.fini_array.*))
                0x0206a158                PROVIDE (__fini_array_end, .)

.ctors          0x0206a158        0x0
 *crtbegin.o(.ctors)
 *(EXCLUDE_FILE(*crtend.o) .ctors)
 *(SORT(.ctors.*))
 *(.ctors)
                0x0206a158                . = ALIGN (0x4)

.dtors          0x0206a158        0x0
 *crtbegin.o(.dtors)
 *(EXCLUDE_FILE(*crtend.o) .dtors)
 *(SORT(.dtors.*))
 *(.dtors)
                0x0206a158                . = ALIGN (0x4)

.eh_frame       0x0206a158        0x4
 *(.eh_frame)
 .eh_frame      0x0206a158        0x0 c:/ndsdev/devkitpro/devkitarm/bin/../lib/gcc/arm-eabi/4.6.0/thumb/crtbegin.o
 .eh_frame      0x0206a158        0x4 c:/ndsdev/devkitpro/devkitarm/bin/../lib/gcc/arm-eabi/4.6.0/thumb/crtend.o
                0x0206a15c                . = ALIGN (0x4)

.gcc_except_table
                0x0206a15c        0x0
 *(.gcc_except_table)
                0x0206a15c                . = ALIGN (0x4)

.jcr            0x0206a15c        0x4
 *(.jcr)
 .jcr           0x0206a15c        0x0 c:/ndsdev/devkitpro/devkitarm/bin/../lib/gcc/arm-eabi/4.6.0/thumb/crtbegin.o
 .jcr           0x0206a15c        0x4 c:/ndsdev/devkitpro/devkitarm/bin/../lib/gcc/arm-eabi/4.6.0/thumb/crtend.o

.got
 *(.got.plt)
 *(.got)
 *(.rel.got)

.ewram          0x0206a160        0x0
                0x0206a160                __ewram_start = ABSOLUTE (.)
 *(.ewram)
 *ewram.*(.text)
                0x0206a160                . = ALIGN (0x4)

.data           0x0206a160     0x1364
                0x0206a160                __data_start = ABSOLUTE (.)
 *(.data)
 .data          0x0206a160        0x0 c:/ndsdev/devkitpro/devkitarm/bin/../lib/gcc/arm-eabi/4.6.0/../../../../arm-eabi/lib/thumb/ds_arm9_crt0.o
 .data          0x0206a160        0x0 c:/ndsdev/devkitpro/devkitarm/bin/../lib/gcc/arm-eabi/4.6.0/thumb/crti.o
 .data          0x0206a160        0x4 c:/ndsdev/devkitpro/devkitarm/bin/../lib/gcc/arm-eabi/4.6.0/thumb/crtbegin.o
                0x0206a160                __dso_handle
 .data          0x0206a164        0x0 bg_create_Map.o
 .data          0x0206a164        0x0 bg_create_Pal.o
 .data          0x0206a164        0x0 bg_create_Tiles.o
 .data          0x0206a164        0x0 bg_dialog_Map.o
 .data          0x0206a164        0x0 bg_dialog_Pal.o
 .data          0x0206a164        0x0 bg_dialog_Tiles.o
 .data          0x0206a164        0x0 bg_down_Map.o
 .data          0x0206a164        0x0 bg_down_Pal.o
 .data          0x0206a164        0x0 bg_down_Sprite.o
 .data          0x0206a164        0x0 bg_down_Tiles.o
 .data          0x0206a164        0x0 bg_edit_dialog_Map.o
 .data          0x0206a164        0x0 bg_edit_dialog_Pal.o
 .data          0x0206a164        0x0 bg_edit_dialog_Tiles.o
 .data          0x0206a164        0x0 bg_up_Map.o
 .data          0x0206a164        0x0 bg_up_Pal.o
 .data          0x0206a164        0x0 bg_up_Tiles.o
 .data          0x0206a164        0x0 menu_del_Pal.o
 .data          0x0206a164        0x0 menu_del_Sprite.o
 .data          0x0206a164        0x0 menu_move_Pal.o
 .data          0x0206a164        0x0 menu_move_Sprite.o
 .data          0x0206a164        0x0 menu_serial_Pal.o
 .data          0x0206a164        0x0 menu_serial_Sprite.o
 .data          0x0206a164        0x0 menu_setting_Pal.o
 .data          0x0206a164        0x0 menu_setting_Sprite.o
 .data          0x0206a164        0x0 menu_usb_Pal.o
 .data          0x0206a164        0x0 menu_usb_Sprite.o
 .data          0x0206a164        0x0 menu_wifi_Pal.o
 .data          0x0206a164        0x0 menu_wifi_Sprite.o
 .data          0x0206a164        0x0 move_create_Pal.o
 .data          0x0206a164        0x0 move_create_Sprite.o
 .data          0x0206a164        0x0 sel_menu_serial_Pal.o
 .data          0x0206a164        0x0 sel_menu_serial_Sprite.o
 .data          0x0206a164        0x0 sel_menu_usb_Pal.o
 .data          0x0206a164        0x0 sel_menu_usb_Sprite.o
 .data          0x0206a164        0x0 sel_menu_wifi_Pal.o
 .data          0x0206a164        0x0 sel_menu_wifi_Sprite.o
 .data          0x0206a164        0x0 selected_Pal.o
 .data          0x0206a164        0x0 selected_Sprite.o
 .data          0x0206a164        0x0 down.o
 .data          0x0206a164        0x0 up.o
 .data          0x0206a164        0x0 FileManage.o
 .data          0x0206a164        0x0 Graphic.o
 .data          0x0206a164        0x0 Main.o
 .data          0x0206a164       0x94 down_execute.o
                0x0206a164                Config
 .data          0x0206a1f8        0x0 download.o
 .data          0x0206a1f8        0x0 serial.o
 .data          0x0206a1f8        0x0 usb.o
 .data          0x0206a1f8        0x4 wifi.o
 .data          0x0206a1fc        0x0 croutine.o
 .data          0x0206a1fc        0x0 heap.o
 .data          0x0206a1fc        0x0 list.o
 .data          0x0206a1fc        0x0 port.o
 .data          0x0206a1fc        0x4 portISR.o
                0x0206a1fc                ulCriticalNesting
 .data          0x0206a200        0x0 queue.o
 .data          0x0206a200        0x4 tasks.o
 .data          0x0206a204       0x20 virtual_io.o
                0x0206a204                virtual_io_resister
 .data          0x0206a224        0x0 bg_create.o
 .data          0x0206a224        0x0 bg_dialog.o
 .data          0x0206a224        0x0 bg_down.o
 .data          0x0206a224        0x0 bg_edit_dialog.o
 .data          0x0206a224        0x0 bg_up.o
 .data          0x0206a224        0x0 jump.o
 .data          0x0206a224        0x0 assemfunc.o
 .data          0x0206a224        0x0 c:/ndsdev/devkitPro/PAlib/lib\libpa9.a(PA.o)
 .data          0x0206a224       0x10 c:/ndsdev/devkitPro/PAlib/lib\libpa9.a(PA_BgTiles.o)
                0x0206a224                charsetstart
                0x0206a228                bg_place
                0x0206a22c                bg_sizes
 .data          0x0206a234        0x0 c:/ndsdev/devkitPro/PAlib/lib\libpa9.a(PA_Error.o)
 .data          0x0206a234        0x0 c:/ndsdev/devkitPro/PAlib/lib\libpa9.a(PA_Inits.o)
 .data          0x0206a234       0x14 c:/ndsdev/devkitPro/PAlib/lib\libpa9.a(PA_Interrupt.o)
                0x0206a234                SpriteVBL
                0x0206a238                MotionVBL
                0x0206a23c                GHPadVBL
                0x0206a240                PaddleVBL
                0x0206a244                CustomVBL
 .data          0x0206a248        0x0 c:/ndsdev/devkitPro/PAlib/lib\libpa9.a(PA_Keyboard.o)
 .data          0x0206a248        0x0 c:/ndsdev/devkitPro/PAlib/lib\libpa9.a(PA_Keys.o)
 .data          0x0206a248        0x4 c:/ndsdev/devkitPro/PAlib/lib\libpa9.a(PA_Math.o)
                0x0206a248                RandomValue
 .data          0x0206a24c        0x0 c:/ndsdev/devkitPro/PAlib/lib\libpa9.a(PA_NewBg.o)
 .data          0x0206a24c        0x0 c:/ndsdev/devkitPro/PAlib/lib\libpa9.a(PA_Palette.o)
 .data          0x0206a24c        0x0 c:/ndsdev/devkitPro/PAlib/lib\libpa9.a(PA_RTC.o)
 .data          0x0206a24c      0x204 c:/ndsdev/devkitPro/PAlib/lib\libpa9.a(PA_Reco.o)
                0x0206a24c                PA_UseGraffiti
                0x0206a250                PA_Graffiti
 .data          0x0206a450        0x4 c:/ndsdev/devkitPro/PAlib/lib\libpa9.a(PA_Sprite.o)
                0x0206a450                VBLSpriteAnims
 .data          0x0206a454        0x0 c:/ndsdev/devkitPro/PAlib/lib\libpa9.a(PA_Stuff.o)
 .data          0x0206a454        0x0 c:/ndsdev/devkitPro/PAlib/lib\libpa9.a(PA_Text.o)
 .data          0x0206a454       0x3c c:/ndsdev/devkitPro/PAlib/lib\libpa9.a(PA_Text8bit.o)
                0x0206a454                bit8_tiles
                0x0206a47c                letters
 .data          0x0206a490       0x7c c:/ndsdev/devkitPro/PAlib/lib\libpa9.a(PA_TextBits.o)
                0x0206a490                textinfo
                0x0206a494                pa_bittextdefaultsize
                0x0206a4bc                bittext_maps
                0x0206a4e4                bittext_tiles_blank
 .data          0x0206a50c        0x0 c:/ndsdev/devkitPro/PAlib/lib\libpa9.a(PA_TextSpecial.o)
 .data          0x0206a50c        0x0 c:/ndsdev/devkitPro/PAlib/lib\libpa9.a(PA_Wifi.o)
 .data          0x0206a50c        0x0 c:/ndsdev/devkitPro/PAlib/lib\libpa9.a(keyboard.map.o)
 .data          0x0206a50c        0x0 c:/ndsdev/devkitPro/PAlib/lib\libpa9.a(keyboard.pal.o)
 .data          0x0206a50c        0x0 c:/ndsdev/devkitPro/PAlib/lib\libpa9.a(keyboard.raw.o)
 .data          0x0206a50c        0x0 c:/ndsdev/devkitPro/PAlib/lib\libpa9.a(PA_TiledFont.o)
 .data          0x0206a50c        0x0 c:/ndsdev/devkitPro/PAlib/lib\libpa9.a(PA_BmpFont0.o)
 .data          0x0206a50c        0x0 c:/ndsdev/devkitPro/PAlib/lib\libpa9.a(PA_BmpFont1.o)
 .data          0x0206a50c        0x0 c:/ndsdev/devkitPro/PAlib/lib\libpa9.a(PA_BmpFont2.o)
 .data          0x0206a50c        0x0 c:/ndsdev/devkitPro/PAlib/lib\libpa9.a(PA_BmpFont3.o)
 .data          0x0206a50c        0x0 c:/ndsdev/devkitPro/PAlib/lib\libpa9.a(PA_BmpFont4.o)
 .data          0x0206a50c        0x0 c:/ndsdev/devkitPro/PAlib/lib\libpa9.a(PA_TiledFont_Map.bin.o)
 .data          0x0206a50c        0x0 c:/ndsdev/devkitPro/PAlib/lib\libpa9.a(PA_TiledFont_Pal.bin.o)
 .data          0x0206a50c        0x0 c:/ndsdev/devkitPro/PAlib/lib\libpa9.a(PA_TiledFont_Tiles.bin.o)
 .data          0x0206a50c        0x0 c:/ndsdev/devkitPro/PAlib/lib\libpa9.a(PA_BmpFont0_Map.bin.o)
 .data          0x0206a50c        0x0 c:/ndsdev/devkitPro/PAlib/lib\libpa9.a(PA_BmpFont0_Sizes.bin.o)
 .data          0x0206a50c        0x0 c:/ndsdev/devkitPro/PAlib/lib\libpa9.a(PA_BmpFont0_Tiles.bin.o)
 .data          0x0206a50c        0x0 c:/ndsdev/devkitPro/PAlib/lib\libpa9.a(PA_BmpFont1_Map.bin.o)
 .data          0x0206a50c        0x0 c:/ndsdev/devkitPro/PAlib/lib\libpa9.a(PA_BmpFont1_Sizes.bin.o)
 .data          0x0206a50c        0x0 c:/ndsdev/devkitPro/PAlib/lib\libpa9.a(PA_BmpFont1_Tiles.bin.o)
 .data          0x0206a50c        0x0 c:/ndsdev/devkitPro/PAlib/lib\libpa9.a(PA_BmpFont2_Map.bin.o)
 .data          0x0206a50c        0x0 c:/ndsdev/devkitPro/PAlib/lib\libpa9.a(PA_BmpFont2_Sizes.bin.o)
 .data          0x0206a50c        0x0 c:/ndsdev/devkitPro/PAlib/lib\libpa9.a(PA_BmpFont2_Tiles.bin.o)
 .data          0x0206a50c        0x0 c:/ndsdev/devkitPro/PAlib/lib\libpa9.a(PA_BmpFont3_Map.bin.o)
 .data          0x0206a50c        0x0 c:/ndsdev/devkitPro/PAlib/lib\libpa9.a(PA_BmpFont3_Sizes.bin.o)
 .data          0x0206a50c        0x0 c:/ndsdev/devkitPro/PAlib/lib\libpa9.a(PA_BmpFont3_Tiles.bin.o)
 .data          0x0206a50c        0x0 c:/ndsdev/devkitPro/PAlib/lib\libpa9.a(PA_BmpFont4_Map.bin.o)
 .data          0x0206a50c        0x0 c:/ndsdev/devkitPro/PAlib/lib\libpa9.a(PA_BmpFont4_Sizes.bin.o)
 .data          0x0206a50c        0x0 c:/ndsdev/devkitPro/PAlib/lib\libpa9.a(PA_BmpFont4_Tiles.bin.o)
 .data          0x0206a50c       0x28 c:/ndsdev/devkitPro/PAlib/lib\libpa9.a(PA_16c.o)
                0x0206a50c                c16_tiles
 .data          0x0206a534        0x0 c:/ndsdev/devkitPro/PAlib/lib\libpa9.a(PA_BgEasy.o)
 .data          0x0206a534        0x0 c:/ndsdev/devkitPro/PAlib/lib\libpa9.a(PA_BgLargeMap.o)
 .data          0x0206a534        0xc c:/ndsdev/devkitPro/PAlib/lib\libpa9.a(PA_BgRot.o)
                0x0206a534                rotbg_place
                0x0206a538                rotbg_sizes
 .data          0x0206a540        0x0 c:/ndsdev/devkitPro/PAlib/lib\libpa9.a(PA_Draw.o)
 .data          0x0206a540        0x0 c:/ndsdev/devkitPro/PAlib/lib\libpa9.a(PA_Fifo.o)
 .data          0x0206a540        0x0 c:/ndsdev/devkitPro/PAlib/lib\libpa9.a(PA_PaletteEx.o)
 .data          0x0206a540        0x0 c:/ndsdev/devkitPro/libnds/lib\libfat.a(libfat.o)
 .data          0x0206a540        0x0 c:/ndsdev/devkitPro/libnds/lib\libfat.a(partition.o)
 .data          0x0206a540        0x0 c:/ndsdev/devkitPro/libnds/lib\libfat.a(cache.o)
 .data          0x0206a540        0x0 c:/ndsdev/devkitPro/libnds/lib\libfat.a(directory.o)
 .data          0x0206a540        0x0 c:/ndsdev/devkitPro/libnds/lib\libfat.a(disc.o)
 .data          0x0206a540        0x0 c:/ndsdev/devkitPro/libnds/lib\libfat.a(fatdir.o)
 .data          0x0206a540        0x0 c:/ndsdev/devkitPro/libnds/lib\libfat.a(fatfile.o)
 .data          0x0206a540        0x0 c:/ndsdev/devkitPro/libnds/lib\libfat.a(file_allocation_table.o)
 .data          0x0206a540        0x0 c:/ndsdev/devkitPro/libnds/lib\libfat.a(filetime.o)
 .data          0x0206a540        0x0 c:/ndsdev/devkitPro/libnds/lib\libfat.a(lock.o)
 .data          0x0206a540       0x60 c:/ndsdev/devkitPro/libnds/lib\libnds9.a(background.o)
                0x0206a540                bgScrollTable
                0x0206a560                bgTransform
                0x0206a580                bgControl
 .data          0x0206a5a0       0x64 c:/ndsdev/devkitPro/libnds/lib\libnds9.a(console.o)
                0x0206a5a0                currentConsole
                0x0206a5a4                defaultConsole
 .data          0x0206a604        0xc c:/ndsdev/devkitPro/libnds/lib\libnds9.a(decompress.o)
                0x0206a604                decomStream
 .data          0x0206a610        0x3 c:/ndsdev/devkitPro/libnds/lib\libnds9.a(keys.o)
 .data          0x0206a613        0x0 c:/ndsdev/devkitPro/libnds/lib\libnds9.a(system.o)
 .data          0x0206a613        0x0 c:/ndsdev/devkitPro/libnds/lib\libnds9.a(touch.o)
 .data          0x0206a613        0x0 c:/ndsdev/devkitPro/libnds/lib\libnds9.a(trig.o)
 .data          0x0206a613        0x0 c:/ndsdev/devkitPro/libnds/lib\libnds9.a(video.o)
 *fill*         0x0206a613        0x1 ff
 .data          0x0206a614        0x4 c:/ndsdev/devkitPro/libnds/lib\libnds9.a(dldi.o)
                0x0206a614                io_dldi_data
 .data          0x0206a618        0x0 c:/ndsdev/devkitPro/libnds/lib\libnds9.a(dsi_sd.o)
 .data          0x0206a618        0x0 c:/ndsdev/devkitPro/libnds/lib\libnds9.a(initSystem.o)
 .data          0x0206a618       0x10 c:/ndsdev/devkitPro/libnds/lib\libnds9.a(fifosystem.o)
                0x0206a618                fifo_freewords
                0x0206a61c                fifo_buffer_free
                0x0206a620                fifo_send_queue
                0x0206a624                fifo_receive_queue
 .data          0x0206a628        0x0 c:/ndsdev/devkitPro/libnds/lib\libnds9.a(interrupts.o)
 .data          0x0206a628        0x0 c:/ndsdev/devkitPro/libnds/lib\libnds9.a(libnds_exit.o)
 .data          0x0206a628        0x0 c:/ndsdev/devkitPro/libnds/lib\libnds9.a(syscalls.o)
 .data          0x0206a628        0x0 c:/ndsdev/devkitPro/libnds/lib\libnds9.a(dcache.o)
 .data          0x0206a628        0x0 c:/ndsdev/devkitPro/libnds/lib\libnds9.a(dldi_stub.o)
 .data          0x0206a628        0x0 c:/ndsdev/devkitPro/libnds/lib\libnds9.a(mpu_setup.o)
 .data          0x0206a628        0x0 c:/ndsdev/devkitPro/libnds/lib\libnds9.a(biosCalls.o)
 .data          0x0206a628        0x0 c:/ndsdev/devkitPro/libnds/lib\libnds9.a(debugprint.o)
 .data          0x0206a628        0x0 c:/ndsdev/devkitPro/libnds/lib\libnds9.a(interruptDispatcher.o)
 .data          0x0206a628        0x0 c:/ndsdev/devkitPro/libnds/lib\libnds9.a(swiSoftReset.o)
 .data          0x0206a628        0x0 c:/ndsdev/devkitPro/libnds/lib\libnds9.a(default_font.bin.o)
 .data          0x0206a628        0x0 c:/ndsdev/devkitPro/libnds/lib\libdswifi9.a(sgIP_DNS.o)
 .data          0x0206a628        0x0 c:/ndsdev/devkitPro/libnds/lib\libdswifi9.a(sgIP_Hub.o)
 .data          0x0206a628        0x0 c:/ndsdev/devkitPro/libnds/lib\libdswifi9.a(sgIP_memblock.o)
 .data          0x0206a628        0x0 c:/ndsdev/devkitPro/libnds/lib\libdswifi9.a(sgIP_sockets.o)
 .data          0x0206a628       0x1c c:/ndsdev/devkitPro/libnds/lib\libdswifi9.a(wifi_arm9.o)
                0x0206a628                ASSOCSTATUS_STRINGS
 .data          0x0206a644        0x0 c:/ndsdev/devkitPro/libnds/lib\libdswifi9.a(spinlock.o)
 .data          0x0206a644        0x0 c:/ndsdev/devkitPro/libnds/lib\libdswifi9.a(sgIP.o)
 .data          0x0206a644        0x0 c:/ndsdev/devkitPro/libnds/lib\libdswifi9.a(sgIP_ARP.o)
 .data          0x0206a644        0x0 c:/ndsdev/devkitPro/libnds/lib\libdswifi9.a(sgIP_DHCP.o)
 .data          0x0206a644        0x0 c:/ndsdev/devkitPro/libnds/lib\libdswifi9.a(sgIP_IP.o)
 .data          0x0206a644        0x0 c:/ndsdev/devkitPro/libnds/lib\libdswifi9.a(sgIP_TCP.o)
 .data          0x0206a644        0x0 c:/ndsdev/devkitPro/libnds/lib\libdswifi9.a(sgIP_UDP.o)
 .data          0x0206a644        0x0 c:/ndsdev/devkitPro/libnds/lib\libdswifi9.a(sgIP_ICMP.o)
 .data          0x0206a644        0x0 c:/ndsdev/devkitpro/devkitarm/bin/../lib/gcc/arm-eabi/4.6.0/thumb\libgcc.a(_udivsi3.o)
 .data          0x0206a644        0x0 c:/ndsdev/devkitpro/devkitarm/bin/../lib/gcc/arm-eabi/4.6.0/thumb\libgcc.a(_divsi3.o)
 .data          0x0206a644        0x0 c:/ndsdev/devkitpro/devkitarm/bin/../lib/gcc/arm-eabi/4.6.0/thumb\libgcc.a(_dvmd_tls.o)
 .data          0x0206a644        0x0 c:/ndsdev/devkitpro/devkitarm/bin/../lib/gcc/arm-eabi/4.6.0/thumb\libgcc.a(_arm_addsubdf3.o)
 .data          0x0206a644        0x0 c:/ndsdev/devkitpro/devkitarm/bin/../lib/gcc/arm-eabi/4.6.0/thumb\libgcc.a(_arm_muldivdf3.o)
 .data          0x0206a644        0x0 c:/ndsdev/devkitpro/devkitarm/bin/../lib/gcc/arm-eabi/4.6.0/thumb\libgcc.a(_arm_cmpdf2.o)
 .data          0x0206a644        0x0 c:/ndsdev/devkitpro/devkitarm/bin/../lib/gcc/arm-eabi/4.6.0/thumb\libgcc.a(_arm_fixdfsi.o)
 .data          0x0206a644        0x0 c:/ndsdev/devkitpro/devkitarm/bin/../lib/gcc/arm-eabi/4.6.0/thumb\libgcc.a(_muldi3.o)
 .data          0x0206a644        0x0 c:/ndsdev/devkitpro/devkitarm/bin/../lib/gcc/arm-eabi/4.6.0/../../../../arm-eabi/lib/thumb\libg.a(lib_a-atoi.o)
 .data          0x0206a644        0x0 c:/ndsdev/devkitpro/devkitarm/bin/../lib/gcc/arm-eabi/4.6.0/../../../../arm-eabi/lib/thumb\libg.a(lib_a-bsearch.o)
 .data          0x0206a644        0x4 c:/ndsdev/devkitpro/devkitarm/bin/../lib/gcc/arm-eabi/4.6.0/../../../../arm-eabi/lib/thumb\libg.a(lib_a-ctype_.o)
                0x0206a644                __ctype_ptr__
 .data          0x0206a648        0x0 c:/ndsdev/devkitpro/devkitarm/bin/../lib/gcc/arm-eabi/4.6.0/../../../../arm-eabi/lib/thumb\libg.a(lib_a-errno.o)
 .data          0x0206a648        0x0 c:/ndsdev/devkitpro/devkitarm/bin/../lib/gcc/arm-eabi/4.6.0/../../../../arm-eabi/lib/thumb\libg.a(lib_a-fclose.o)
 .data          0x0206a648        0x0 c:/ndsdev/devkitpro/devkitarm/bin/../lib/gcc/arm-eabi/4.6.0/../../../../arm-eabi/lib/thumb\libg.a(lib_a-fflush.o)
 .data          0x0206a648        0x0 c:/ndsdev/devkitpro/devkitarm/bin/../lib/gcc/arm-eabi/4.6.0/../../../../arm-eabi/lib/thumb\libg.a(lib_a-fgets.o)
 .data          0x0206a648        0x0 c:/ndsdev/devkitpro/devkitarm/bin/../lib/gcc/arm-eabi/4.6.0/../../../../arm-eabi/lib/thumb\libg.a(lib_a-findfp.o)
 .data          0x0206a648        0x0 c:/ndsdev/devkitpro/devkitarm/bin/../lib/gcc/arm-eabi/4.6.0/../../../../arm-eabi/lib/thumb\libg.a(lib_a-fopen.o)
 .data          0x0206a648        0x0 c:/ndsdev/devkitpro/devkitarm/bin/../lib/gcc/arm-eabi/4.6.0/../../../../arm-eabi/lib/thumb\libg.a(lib_a-fread.o)
 .data          0x0206a648        0x0 c:/ndsdev/devkitpro/devkitarm/bin/../lib/gcc/arm-eabi/4.6.0/../../../../arm-eabi/lib/thumb\libg.a(lib_a-freer.o)
 .data          0x0206a648        0x0 c:/ndsdev/devkitpro/devkitarm/bin/../lib/gcc/arm-eabi/4.6.0/../../../../arm-eabi/lib/thumb\libg.a(lib_a-fseek.o)
 .data          0x0206a648        0x0 c:/ndsdev/devkitpro/devkitarm/bin/../lib/gcc/arm-eabi/4.6.0/../../../../arm-eabi/lib/thumb\libg.a(lib_a-ftell.o)
 .data          0x0206a648        0x0 c:/ndsdev/devkitpro/devkitarm/bin/../lib/gcc/arm-eabi/4.6.0/../../../../arm-eabi/lib/thumb\libg.a(lib_a-fwalk.o)
 .data          0x0206a648        0x0 c:/ndsdev/devkitpro/devkitarm/bin/../lib/gcc/arm-eabi/4.6.0/../../../../arm-eabi/lib/thumb\libg.a(lib_a-fwrite.o)
 .data          0x0206a648        0x0 c:/ndsdev/devkitpro/devkitarm/bin/../lib/gcc/arm-eabi/4.6.0/../../../../arm-eabi/lib/thumb\libg.a(lib_a-gmtime.o)
 .data          0x0206a648        0x0 c:/ndsdev/devkitpro/devkitarm/bin/../lib/gcc/arm-eabi/4.6.0/../../../../arm-eabi/lib/thumb\libg.a(lib_a-gmtime_r.o)
 .data          0x0206a648      0x430 c:/ndsdev/devkitpro/devkitarm/bin/../lib/gcc/arm-eabi/4.6.0/../../../../arm-eabi/lib/thumb\libg.a(lib_a-impure.o)
                0x0206a648                _impure_ptr
 .data          0x0206aa78        0x0 c:/ndsdev/devkitpro/devkitarm/bin/../lib/gcc/arm-eabi/4.6.0/../../../../arm-eabi/lib/thumb\libg.a(lib_a-init.o)
 .data          0x0206aa78        0x0 c:/ndsdev/devkitpro/devkitarm/bin/../lib/gcc/arm-eabi/4.6.0/../../../../arm-eabi/lib/thumb\libg.a(lib_a-iprintf.o)
 .data          0x0206aa78        0x0 c:/ndsdev/devkitpro/devkitarm/bin/../lib/gcc/arm-eabi/4.6.0/../../../../arm-eabi/lib/thumb\libg.a(lib_a-lcltime_r.o)
 .data          0x0206aa78      0x17c c:/ndsdev/devkitpro/devkitarm/bin/../lib/gcc/arm-eabi/4.6.0/../../../../arm-eabi/lib/thumb\libg.a(lib_a-locale.o)
                0x0206aa78                __default_locale
                0x0206ab98                __mb_cur_max
 .data          0x0206abf4        0x0 c:/ndsdev/devkitpro/devkitarm/bin/../lib/gcc/arm-eabi/4.6.0/../../../../arm-eabi/lib/thumb\libg.a(lib_a-makebuf.o)
 .data          0x0206abf4        0x0 c:/ndsdev/devkitpro/devkitarm/bin/../lib/gcc/arm-eabi/4.6.0/../../../../arm-eabi/lib/thumb\libg.a(lib_a-malloc.o)
 .data          0x0206abf4      0x410 c:/ndsdev/devkitpro/devkitarm/bin/../lib/gcc/arm-eabi/4.6.0/../../../../arm-eabi/lib/thumb\libg.a(lib_a-mallocr.o)
                0x0206abf4                __malloc_av_
                0x0206affc                __malloc_sbrk_base
                0x0206b000                __malloc_trim_threshold
 .data          0x0206b004        0x0 c:/ndsdev/devkitpro/devkitarm/bin/../lib/gcc/arm-eabi/4.6.0/../../../../arm-eabi/lib/thumb\libg.a(lib_a-mbrtowc.o)
 .data          0x0206b004        0x0 c:/ndsdev/devkitpro/devkitarm/bin/../lib/gcc/arm-eabi/4.6.0/../../../../arm-eabi/lib/thumb\libg.a(lib_a-mbsrtowcs.o)
 .data          0x0206b004        0x4 c:/ndsdev/devkitpro/devkitarm/bin/../lib/gcc/arm-eabi/4.6.0/../../../../arm-eabi/lib/thumb\libg.a(lib_a-mbtowc_r.o)
                0x0206b004                __mbtowc
 .data          0x0206b008        0x0 c:/ndsdev/devkitpro/devkitarm/bin/../lib/gcc/arm-eabi/4.6.0/../../../../arm-eabi/lib/thumb\libg.a(lib_a-memchr.o)
 .data          0x0206b008        0x0 c:/ndsdev/devkitpro/devkitarm/bin/../lib/gcc/arm-eabi/4.6.0/../../../../arm-eabi/lib/thumb\libg.a(lib_a-memcmp.o)
 .data          0x0206b008        0x0 c:/ndsdev/devkitpro/devkitarm/bin/../lib/gcc/arm-eabi/4.6.0/../../../../arm-eabi/lib/thumb\libg.a(lib_a-memcpy.o)
 .data          0x0206b008        0x0 c:/ndsdev/devkitpro/devkitarm/bin/../lib/gcc/arm-eabi/4.6.0/../../../../arm-eabi/lib/thumb\libg.a(lib_a-memmove.o)
 .data          0x0206b008        0x0 c:/ndsdev/devkitpro/devkitarm/bin/../lib/gcc/arm-eabi/4.6.0/../../../../arm-eabi/lib/thumb\libg.a(lib_a-memset.o)
 .data          0x0206b008        0x0 c:/ndsdev/devkitpro/devkitarm/bin/../lib/gcc/arm-eabi/4.6.0/../../../../arm-eabi/lib/thumb\libg.a(lib_a-mktime.o)
 .data          0x0206b008        0x0 c:/ndsdev/devkitpro/devkitarm/bin/../lib/gcc/arm-eabi/4.6.0/../../../../arm-eabi/lib/thumb\libg.a(lib_a-mktm_r.o)
 .data          0x0206b008        0x0 c:/ndsdev/devkitpro/devkitarm/bin/../lib/gcc/arm-eabi/4.6.0/../../../../arm-eabi/lib/thumb\libg.a(lib_a-mlock.o)
 .data          0x0206b008        0x0 c:/ndsdev/devkitpro/devkitarm/bin/../lib/gcc/arm-eabi/4.6.0/../../../../arm-eabi/lib/thumb\libg.a(lib_a-refill.o)
 .data          0x0206b008        0x0 c:/ndsdev/devkitpro/devkitarm/bin/../lib/gcc/arm-eabi/4.6.0/../../../../arm-eabi/lib/thumb\libg.a(lib_a-remove.o)
 .data          0x0206b008        0x0 c:/ndsdev/devkitpro/devkitarm/bin/../lib/gcc/arm-eabi/4.6.0/../../../../arm-eabi/lib/thumb\libg.a(lib_a-rename.o)
 .data          0x0206b008        0x0 c:/ndsdev/devkitpro/devkitarm/bin/../lib/gcc/arm-eabi/4.6.0/../../../../arm-eabi/lib/thumb\libg.a(lib_a-setvbuf.o)
 .data          0x0206b008        0x0 c:/ndsdev/devkitpro/devkitarm/bin/../lib/gcc/arm-eabi/4.6.0/../../../../arm-eabi/lib/thumb\libg.a(lib_a-siscanf.o)
 .data          0x0206b008        0x0 c:/ndsdev/devkitpro/devkitarm/bin/../lib/gcc/arm-eabi/4.6.0/../../../../arm-eabi/lib/thumb\libg.a(lib_a-sprintf.o)
 .data          0x0206b008        0x0 c:/ndsdev/devkitpro/devkitarm/bin/../lib/gcc/arm-eabi/4.6.0/../../../../arm-eabi/lib/thumb\libg.a(lib_a-sscanf.o)
 .data          0x0206b008        0x0 c:/ndsdev/devkitpro/devkitarm/bin/../lib/gcc/arm-eabi/4.6.0/../../../../arm-eabi/lib/thumb\libg.a(lib_a-stdio.o)
 .data          0x0206b008        0x0 c:/ndsdev/devkitpro/devkitarm/bin/../lib/gcc/arm-eabi/4.6.0/../../../../arm-eabi/lib/thumb\libg.a(lib_a-strcasecmp.o)
 .data          0x0206b008        0x0 c:/ndsdev/devkitpro/devkitarm/bin/../lib/gcc/arm-eabi/4.6.0/../../../../arm-eabi/lib/thumb\libg.a(lib_a-strcat.o)
 .data          0x0206b008        0x0 c:/ndsdev/devkitpro/devkitarm/bin/../lib/gcc/arm-eabi/4.6.0/../../../../arm-eabi/lib/thumb\libg.a(lib_a-strchr.o)
 .data          0x0206b008        0x0 c:/ndsdev/devkitpro/devkitarm/bin/../lib/gcc/arm-eabi/4.6.0/../../../../arm-eabi/lib/thumb\libg.a(lib_a-strcmp.o)
 .data          0x0206b008        0x0 c:/ndsdev/devkitpro/devkitarm/bin/../lib/gcc/arm-eabi/4.6.0/../../../../arm-eabi/lib/thumb\libg.a(lib_a-strcpy.o)
 .data          0x0206b008        0x0 c:/ndsdev/devkitpro/devkitarm/bin/../lib/gcc/arm-eabi/4.6.0/../../../../arm-eabi/lib/thumb\libg.a(lib_a-strlcpy.o)
 .data          0x0206b008        0x0 c:/ndsdev/devkitpro/devkitarm/bin/../lib/gcc/arm-eabi/4.6.0/../../../../arm-eabi/lib/thumb\libg.a(lib_a-strlen.o)
 .data          0x0206b008        0x0 c:/ndsdev/devkitpro/devkitarm/bin/../lib/gcc/arm-eabi/4.6.0/../../../../arm-eabi/lib/thumb\libg.a(lib_a-strncasecmp.o)
 .data          0x0206b008        0x0 c:/ndsdev/devkitpro/devkitarm/bin/../lib/gcc/arm-eabi/4.6.0/../../../../arm-eabi/lib/thumb\libg.a(lib_a-strncmp.o)
 .data          0x0206b008        0x0 c:/ndsdev/devkitpro/devkitarm/bin/../lib/gcc/arm-eabi/4.6.0/../../../../arm-eabi/lib/thumb\libg.a(lib_a-strncpy.o)
 .data          0x0206b008        0x0 c:/ndsdev/devkitpro/devkitarm/bin/../lib/gcc/arm-eabi/4.6.0/../../../../arm-eabi/lib/thumb\libg.a(lib_a-strnlen.o)
 .data          0x0206b008        0x0 c:/ndsdev/devkitpro/devkitarm/bin/../lib/gcc/arm-eabi/4.6.0/../../../../arm-eabi/lib/thumb\libg.a(lib_a-strpbrk.o)
 .data          0x0206b008        0x0 c:/ndsdev/devkitpro/devkitarm/bin/../lib/gcc/arm-eabi/4.6.0/../../../../arm-eabi/lib/thumb\libg.a(lib_a-strrchr.o)
 .data          0x0206b008        0x0 c:/ndsdev/devkitpro/devkitarm/bin/../lib/gcc/arm-eabi/4.6.0/../../../../arm-eabi/lib/thumb\libg.a(lib_a-strtol.o)
 .data          0x0206b008        0x0 c:/ndsdev/devkitpro/devkitarm/bin/../lib/gcc/arm-eabi/4.6.0/../../../../arm-eabi/lib/thumb\libg.a(lib_a-svfiscanf.o)
 .data          0x0206b008        0x0 c:/ndsdev/devkitpro/devkitarm/bin/../lib/gcc/arm-eabi/4.6.0/../../../../arm-eabi/lib/thumb\libg.a(lib_a-svfprintf.o)
 .data          0x0206b008        0x0 c:/ndsdev/devkitpro/devkitarm/bin/../lib/gcc/arm-eabi/4.6.0/../../../../arm-eabi/lib/thumb\libg.a(lib_a-svfscanf.o)
 .data          0x0206b008        0x0 c:/ndsdev/devkitpro/devkitarm/bin/../lib/gcc/arm-eabi/4.6.0/../../../../arm-eabi/lib/thumb\libg.a(lib_a-sysclose.o)
 .data          0x0206b008        0x0 c:/ndsdev/devkitpro/devkitarm/bin/../lib/gcc/arm-eabi/4.6.0/../../../../arm-eabi/lib/thumb\libg.a(lib_a-syslseek.o)
 .data          0x0206b008        0x0 c:/ndsdev/devkitpro/devkitarm/bin/../lib/gcc/arm-eabi/4.6.0/../../../../arm-eabi/lib/thumb\libg.a(lib_a-sysopen.o)
 .data          0x0206b008        0x0 c:/ndsdev/devkitpro/devkitarm/bin/../lib/gcc/arm-eabi/4.6.0/../../../../arm-eabi/lib/thumb\libg.a(lib_a-sysread.o)
 .data          0x0206b008        0x0 c:/ndsdev/devkitpro/devkitarm/bin/../lib/gcc/arm-eabi/4.6.0/../../../../arm-eabi/lib/thumb\libg.a(lib_a-sysstat.o)
 .data          0x0206b008        0x0 c:/ndsdev/devkitpro/devkitarm/bin/../lib/gcc/arm-eabi/4.6.0/../../../../arm-eabi/lib/thumb\libg.a(lib_a-sysunlink.o)
 .data          0x0206b008        0x0 c:/ndsdev/devkitpro/devkitarm/bin/../lib/gcc/arm-eabi/4.6.0/../../../../arm-eabi/lib/thumb\libg.a(lib_a-time.o)
 .data          0x0206b008        0x0 c:/ndsdev/devkitpro/devkitarm/bin/../lib/gcc/arm-eabi/4.6.0/../../../../arm-eabi/lib/thumb\libg.a(lib_a-towlower.o)
 .data          0x0206b008        0x0 c:/ndsdev/devkitpro/devkitarm/bin/../lib/gcc/arm-eabi/4.6.0/../../../../arm-eabi/lib/thumb\libg.a(lib_a-towupper.o)
 .data          0x0206b008        0x0 c:/ndsdev/devkitpro/devkitarm/bin/../lib/gcc/arm-eabi/4.6.0/../../../../arm-eabi/lib/thumb\libg.a(lib_a-tzlock.o)
 .data          0x0206b008        0x8 c:/ndsdev/devkitpro/devkitarm/bin/../lib/gcc/arm-eabi/4.6.0/../../../../arm-eabi/lib/thumb\libg.a(lib_a-tzvars.o)
                0x0206b008                _tzname
 .data          0x0206b010        0x0 c:/ndsdev/devkitpro/devkitarm/bin/../lib/gcc/arm-eabi/4.6.0/../../../../arm-eabi/lib/thumb\libg.a(lib_a-ungetc.o)
 .data          0x0206b010        0x0 c:/ndsdev/devkitpro/devkitarm/bin/../lib/gcc/arm-eabi/4.6.0/../../../../arm-eabi/lib/thumb\libg.a(lib_a-vfiprintf.o)
 .data          0x0206b010        0x0 c:/ndsdev/devkitpro/devkitarm/bin/../lib/gcc/arm-eabi/4.6.0/../../../../arm-eabi/lib/thumb\libg.a(lib_a-wcrtomb.o)
 .data          0x0206b010        0x0 c:/ndsdev/devkitpro/devkitarm/bin/../lib/gcc/arm-eabi/4.6.0/../../../../arm-eabi/lib/thumb\libg.a(lib_a-wcsrtombs.o)
 .data          0x0206b010        0x0 c:/ndsdev/devkitpro/devkitarm/bin/../lib/gcc/arm-eabi/4.6.0/../../../../arm-eabi/lib/thumb\libg.a(lib_a-wctob.o)
 .data          0x0206b010        0x4 c:/ndsdev/devkitpro/devkitarm/bin/../lib/gcc/arm-eabi/4.6.0/../../../../arm-eabi/lib/thumb\libg.a(lib_a-wctomb_r.o)
                0x0206b010                __wctomb
 .data          0x0206b014        0x0 c:/ndsdev/devkitpro/devkitarm/bin/../lib/gcc/arm-eabi/4.6.0/../../../../arm-eabi/lib/thumb\libg.a(lib_a-wsetup.o)
 .data          0x0206b014        0x0 c:/ndsdev/devkitpro/devkitarm/bin/../lib/gcc/arm-eabi/4.6.0/../../../../arm-eabi/lib/thumb\libg.a(lib_a-div.o)
 .data          0x0206b014        0x0 c:/ndsdev/devkitpro/devkitarm/bin/../lib/gcc/arm-eabi/4.6.0/../../../../arm-eabi/lib/thumb\libg.a(lib_a-dtoa.o)
 .data          0x0206b014        0x0 c:/ndsdev/devkitpro/devkitarm/bin/../lib/gcc/arm-eabi/4.6.0/../../../../arm-eabi/lib/thumb\libg.a(lib_a-flags.o)
 .data          0x0206b014        0x0 c:/ndsdev/devkitpro/devkitarm/bin/../lib/gcc/arm-eabi/4.6.0/../../../../arm-eabi/lib/thumb\libg.a(lib_a-fputwc.o)
 .data          0x0206b014        0x0 c:/ndsdev/devkitpro/devkitarm/bin/../lib/gcc/arm-eabi/4.6.0/../../../../arm-eabi/lib/thumb\libg.a(lib_a-fvwrite.o)
 .data          0x0206b014        0x0 c:/ndsdev/devkitpro/devkitarm/bin/../lib/gcc/arm-eabi/4.6.0/../../../../arm-eabi/lib/thumb\libg.a(lib_a-getenv_r.o)
 .data          0x0206b014       0x40 c:/ndsdev/devkitpro/devkitarm/bin/../lib/gcc/arm-eabi/4.6.0/../../../../arm-eabi/lib/thumb\libg.a(lib_a-gettzinfo.o)
 .data          0x0206b054        0x0 c:/ndsdev/devkitpro/devkitarm/bin/../lib/gcc/arm-eabi/4.6.0/../../../../arm-eabi/lib/thumb\libg.a(lib_a-iswspace.o)
 .data          0x0206b054        0x0 c:/ndsdev/devkitpro/devkitarm/bin/../lib/gcc/arm-eabi/4.6.0/../../../../arm-eabi/lib/thumb\libg.a(lib_a-jp2uc.o)
 .data          0x0206b054        0x0 c:/ndsdev/devkitpro/devkitarm/bin/../lib/gcc/arm-eabi/4.6.0/../../../../arm-eabi/lib/thumb\libg.a(lib_a-mbsnrtowcs.o)
 .data          0x0206b054        0x0 c:/ndsdev/devkitpro/devkitarm/bin/../lib/gcc/arm-eabi/4.6.0/../../../../arm-eabi/lib/thumb\libg.a(lib_a-mprec.o)
 .data          0x0206b054        0x0 c:/ndsdev/devkitpro/devkitarm/bin/../lib/gcc/arm-eabi/4.6.0/../../../../arm-eabi/lib/thumb\libg.a(lib_a-reallocr.o)
 .data          0x0206b054        0x0 c:/ndsdev/devkitpro/devkitarm/bin/../lib/gcc/arm-eabi/4.6.0/../../../../arm-eabi/lib/thumb\libg.a(lib_a-s_fpclassify.o)
 .data          0x0206b054        0x0 c:/ndsdev/devkitpro/devkitarm/bin/../lib/gcc/arm-eabi/4.6.0/../../../../arm-eabi/lib/thumb\libg.a(lib_a-sccl.o)
 .data          0x0206b054        0x0 c:/ndsdev/devkitpro/devkitarm/bin/../lib/gcc/arm-eabi/4.6.0/../../../../arm-eabi/lib/thumb\libg.a(lib_a-sf_nan.o)
 .data          0x0206b054       0x28 c:/ndsdev/devkitpro/devkitarm/bin/../lib/gcc/arm-eabi/4.6.0/../../../../arm-eabi/lib/thumb\libg.a(lib_a-strtod.o)
 .data          0x0206b07c        0x0 c:/ndsdev/devkitpro/devkitarm/bin/../lib/gcc/arm-eabi/4.6.0/../../../../arm-eabi/lib/thumb\libg.a(lib_a-strtoll_r.o)
 .data          0x0206b07c        0x0 c:/ndsdev/devkitpro/devkitarm/bin/../lib/gcc/arm-eabi/4.6.0/../../../../arm-eabi/lib/thumb\libg.a(lib_a-strtoul.o)
 .data          0x0206b07c        0x0 c:/ndsdev/devkitpro/devkitarm/bin/../lib/gcc/arm-eabi/4.6.0/../../../../arm-eabi/lib/thumb\libg.a(lib_a-strtoull_r.o)
 .data          0x0206b07c        0x0 c:/ndsdev/devkitpro/devkitarm/bin/../lib/gcc/arm-eabi/4.6.0/../../../../arm-eabi/lib/thumb\libg.a(lib_a-svfiprintf.o)
 .data          0x0206b07c        0x0 c:/ndsdev/devkitpro/devkitarm/bin/../lib/gcc/arm-eabi/4.6.0/../../../../arm-eabi/lib/thumb\libg.a(lib_a-wbuf.o)
 .data          0x0206b07c        0x0 c:/ndsdev/devkitpro/devkitarm/bin/../lib/gcc/arm-eabi/4.6.0/../../../../arm-eabi/lib/thumb\libg.a(lib_a-wcsnrtombs.o)
 .data          0x0206b07c        0x0 c:/ndsdev/devkitpro/devkitarm/bin/../lib/gcc/arm-eabi/4.6.0/../../../../arm-eabi/lib/thumb\libg.a(lib_a-callocr.o)
 .data          0x0206b07c        0x4 c:/ndsdev/devkitpro/devkitarm/bin/../lib/gcc/arm-eabi/4.6.0/../../../../arm-eabi/lib/thumb\libg.a(lib_a-environ.o)
                0x0206b07c                environ
 .data          0x0206b080        0x0 c:/ndsdev/devkitpro/devkitarm/bin/../lib/gcc/arm-eabi/4.6.0/../../../../arm-eabi/lib/thumb\libg.a(lib_a-envlock.o)
 .data          0x0206b080        0x0 c:/ndsdev/devkitpro/devkitarm/bin/../lib/gcc/arm-eabi/4.6.0/../../../../arm-eabi/lib/thumb\libg.a(lib_a-gdtoa-gethex.o)
 .data          0x0206b080        0x0 c:/ndsdev/devkitpro/devkitarm/bin/../lib/gcc/arm-eabi/4.6.0/../../../../arm-eabi/lib/thumb\libg.a(lib_a-gdtoa-hexnan.o)
 .data          0x0206b080       0x44 c:/ndsdev/devkitpro/devkitarm/bin/../lib/gcc/arm-eabi/4.6.0/../../../../arm-eabi/lib/thumb\libsysbase.a(iosupport.o)
                0x0206b084                devoptab_list
 .data          0x0206b0c4        0x0 c:/ndsdev/devkitpro/devkitarm/bin/../lib/gcc/arm-eabi/4.6.0/../../../../arm-eabi/lib/thumb\libsysbase.a(close.o)
 .data          0x0206b0c4        0x0 c:/ndsdev/devkitpro/devkitarm/bin/../lib/gcc/arm-eabi/4.6.0/../../../../arm-eabi/lib/thumb\libsysbase.a(fstat.o)
 .data          0x0206b0c4        0x0 c:/ndsdev/devkitpro/devkitarm/bin/../lib/gcc/arm-eabi/4.6.0/../../../../arm-eabi/lib/thumb\libsysbase.a(isatty.o)
 .data          0x0206b0c4        0x0 c:/ndsdev/devkitpro/devkitarm/bin/../lib/gcc/arm-eabi/4.6.0/../../../../arm-eabi/lib/thumb\libsysbase.a(lseek.o)
 .data          0x0206b0c4        0x0 c:/ndsdev/devkitpro/devkitarm/bin/../lib/gcc/arm-eabi/4.6.0/../../../../arm-eabi/lib/thumb\libsysbase.a(open.o)
 .data          0x0206b0c4        0x0 c:/ndsdev/devkitpro/devkitarm/bin/../lib/gcc/arm-eabi/4.6.0/../../../../arm-eabi/lib/thumb\libsysbase.a(read.o)
 .data          0x0206b0c4        0x0 c:/ndsdev/devkitpro/devkitarm/bin/../lib/gcc/arm-eabi/4.6.0/../../../../arm-eabi/lib/thumb\libsysbase.a(sbrk.o)
 .data          0x0206b0c4        0x0 c:/ndsdev/devkitpro/devkitarm/bin/../lib/gcc/arm-eabi/4.6.0/../../../../arm-eabi/lib/thumb\libsysbase.a(stat.o)
 .data          0x0206b0c4        0x0 c:/ndsdev/devkitpro/devkitarm/bin/../lib/gcc/arm-eabi/4.6.0/../../../../arm-eabi/lib/thumb\libsysbase.a(times.o)
 .data          0x0206b0c4        0x0 c:/ndsdev/devkitpro/devkitarm/bin/../lib/gcc/arm-eabi/4.6.0/../../../../arm-eabi/lib/thumb\libsysbase.a(unlink.o)
 .data          0x0206b0c4        0x0 c:/ndsdev/devkitpro/devkitarm/bin/../lib/gcc/arm-eabi/4.6.0/../../../../arm-eabi/lib/thumb\libsysbase.a(write.o)
 .data          0x0206b0c4        0x0 c:/ndsdev/devkitpro/devkitarm/bin/../lib/gcc/arm-eabi/4.6.0/../../../../arm-eabi/lib/thumb\libsysbase.a(malloc_vars.o)
 .data          0x0206b0c4      0x400 c:/ndsdev/devkitpro/devkitarm/bin/../lib/gcc/arm-eabi/4.6.0/../../../../arm-eabi/lib/thumb\libsysbase.a(chdir.o)
 .data          0x0206b4c4        0x0 c:/ndsdev/devkitpro/devkitarm/bin/../lib/gcc/arm-eabi/4.6.0/../../../../arm-eabi/lib/thumb\libsysbase.a(mkdir.o)
 .data          0x0206b4c4        0x0 c:/ndsdev/devkitpro/devkitarm/bin/../lib/gcc/arm-eabi/4.6.0/../../../../arm-eabi/lib/thumb\libsysbase.a(rename.o)
 .data          0x0206b4c4        0x0 c:/ndsdev/devkitpro/devkitarm/bin/../lib/gcc/arm-eabi/4.6.0/../../../../arm-eabi/lib/thumb\libsysbase.a(build_argv.o)
 .data          0x0206b4c4        0x0 c:/ndsdev/devkitpro/devkitarm/bin/../lib/gcc/arm-eabi/4.6.0/../../../../arm-eabi/lib/thumb\libsysbase.a(syscall_support.o)
 .data          0x0206b4c4        0x0 c:/ndsdev/devkitpro/devkitarm/bin/../lib/gcc/arm-eabi/4.6.0/../../../../arm-eabi/lib/thumb\libsysbase.a(handle_manager.o)
 .data          0x0206b4c4        0x0 c:/ndsdev/devkitpro/devkitarm/bin/../lib/gcc/arm-eabi/4.6.0/../../../../arm-eabi/lib/thumb\libsysbase.a(dirent.o)
 .data          0x0206b4c4        0x0 c:/ndsdev/devkitpro/devkitarm/bin/../lib/gcc/arm-eabi/4.6.0/thumb\libgcc.a(_arm_fixunsdfsi.o)
 .data          0x0206b4c4        0x0 c:/ndsdev/devkitpro/devkitarm/bin/../lib/gcc/arm-eabi/4.6.0/thumb\libgcc.a(_arm_truncdfsf2.o)
 .data          0x0206b4c4        0x0 c:/ndsdev/devkitpro/devkitarm/bin/../lib/gcc/arm-eabi/4.6.0/thumb\libgcc.a(_aeabi_uldivmod.o)
 .data          0x0206b4c4        0x0 c:/ndsdev/devkitpro/devkitarm/bin/../lib/gcc/arm-eabi/4.6.0/thumb\libgcc.a(bpabi.o)
 .data          0x0206b4c4        0x0 c:/ndsdev/devkitpro/devkitarm/bin/../lib/gcc/arm-eabi/4.6.0/thumb\libgcc.a(unwind-arm.o)
 .data          0x0206b4c4        0x0 c:/ndsdev/devkitpro/devkitarm/bin/../lib/gcc/arm-eabi/4.6.0/thumb\libgcc.a(libunwind.o)
 .data          0x0206b4c4        0x0 c:/ndsdev/devkitpro/devkitarm/bin/../lib/gcc/arm-eabi/4.6.0/thumb\libgcc.a(pr-support.o)
 .data          0x0206b4c4        0x0 c:/ndsdev/devkitpro/devkitarm/bin/../lib/gcc/arm-eabi/4.6.0/thumb\libgcc.a(_divdi3.o)
 .data          0x0206b4c4        0x0 c:/ndsdev/devkitpro/devkitarm/bin/../lib/gcc/arm-eabi/4.6.0/thumb\libgcc.a(_udivdi3.o)
 .data          0x0206b4c4        0x0 c:/ndsdev/devkitpro/devkitarm/bin/../lib/gcc/arm-eabi/4.6.0/thumb\libgcc.a(_clzsi2.o)
 .data          0x0206b4c4        0x0 c:/ndsdev/devkitpro/devkitarm/bin/../lib/gcc/arm-eabi/4.6.0/../../../../arm-eabi/lib/thumb\libg.a(lib_a-abort.o)
 .data          0x0206b4c4        0x0 c:/ndsdev/devkitpro/devkitarm/bin/../lib/gcc/arm-eabi/4.6.0/../../../../arm-eabi/lib/thumb\libg.a(lib_a-signal.o)
 .data          0x0206b4c4        0x0 c:/ndsdev/devkitpro/devkitarm/bin/../lib/gcc/arm-eabi/4.6.0/../../../../arm-eabi/lib/thumb\libsysbase.a(getpid.o)
 .data          0x0206b4c4        0x0 c:/ndsdev/devkitpro/devkitarm/bin/../lib/gcc/arm-eabi/4.6.0/../../../../arm-eabi/lib/thumb\libsysbase.a(kill.o)
 .data          0x0206b4c4        0x0 c:/ndsdev/devkitpro/devkitarm/bin/../lib/gcc/arm-eabi/4.6.0/../../../../arm-eabi/lib/thumb\libsysbase.a(_exit.o)
 .data          0x0206b4c4        0x0 c:/ndsdev/devkitpro/devkitarm/bin/../lib/gcc/arm-eabi/4.6.0/thumb/crtend.o
 .data          0x0206b4c4        0x0 c:/ndsdev/devkitpro/devkitarm/bin/../lib/gcc/arm-eabi/4.6.0/thumb/crtn.o
 *(.data.*)
 *(.gnu.linkonce.d*)
                0x0206b4c4                . = ALIGN (0x4)
                0x0206b4c4                __data_end = ABSOLUTE (.)
                0x0206b4c4                __dtcm_lma = .
                0x0206b4c4                __bss_vma = .

.dtcm           0x0b000000        0x0 load address 0x0206b4c4
 *(.dtcm)
 *(.dtcm.*)
                0x0b000000                . = ALIGN (0x4)
                0x0b000000                __dtcm_end = ABSOLUTE (.)
                0x0206b4c4                __itcm_lma = (__dtcm_lma + SIZEOF (.dtcm))

.itcm           0x01000100      0x194 load address 0x0206b4c4
 *(.itcm)
 .itcm          0x01000100       0xc8 c:/ndsdev/devkitPro/libnds/lib\libnds9.a(interrupts.o)
                0x01000100                irqTable
 .itcm          0x010001c8       0xcc c:/ndsdev/devkitPro/libnds/lib\libnds9.a(interruptDispatcher.o)
                0x010001c8                IntrMain
 *itcm.*(.text)
                0x01000294                . = ALIGN (0x4)
                0x01000294                __itcm_end = ABSOLUTE (.)
                0x0206b658                __vectors_lma = (__itcm_lma + SIZEOF (.itcm))

.vectors        0x01000000        0x0 load address 0x0206b658
 *(.vectors)
 *vectors.*(.text)
                0x01000000                . = ALIGN (0x4)
                0x01000000                __vectors_end = ABSOLUTE (.)

.sbss           0x0b000000        0x0
                0x0b000000                __sbss_start = ABSOLUTE (.)
                0x0b000000                __sbss_start__ = ABSOLUTE (.)
 *(.sbss)
                0x0b000000                . = ALIGN (0x4)
                0x0b000000                __sbss_end = ABSOLUTE (.)

.bss            0x0206b4c4   0x239ae8
                0x0206b4c4                __bss_start = ABSOLUTE (.)
                0x0206b4c4                __bss_start__ = ABSOLUTE (.)
 *(.dynbss)
 *(.gnu.linkonce.b*)
 *(.bss*)
 .bss           0x0206b4c4        0x0 c:/ndsdev/devkitpro/devkitarm/bin/../lib/gcc/arm-eabi/4.6.0/../../../../arm-eabi/lib/thumb/ds_arm9_crt0.o
 .bss           0x0206b4c4        0x0 c:/ndsdev/devkitpro/devkitarm/bin/../lib/gcc/arm-eabi/4.6.0/thumb/crti.o
 .bss           0x0206b4c4       0x1c c:/ndsdev/devkitpro/devkitarm/bin/../lib/gcc/arm-eabi/4.6.0/thumb/crtbegin.o
 .bss           0x0206b4e0        0x0 bg_create_Map.o
 .bss           0x0206b4e0        0x0 bg_create_Pal.o
 .bss           0x0206b4e0        0x0 bg_create_Tiles.o
 .bss           0x0206b4e0        0x0 bg_dialog_Map.o
 .bss           0x0206b4e0        0x0 bg_dialog_Pal.o
 .bss           0x0206b4e0        0x0 bg_dialog_Tiles.o
 .bss           0x0206b4e0        0x0 bg_down_Map.o
 .bss           0x0206b4e0        0x0 bg_down_Pal.o
 .bss           0x0206b4e0        0x0 bg_down_Sprite.o
 .bss           0x0206b4e0        0x0 bg_down_Tiles.o
 .bss           0x0206b4e0        0x0 bg_edit_dialog_Map.o
 .bss           0x0206b4e0        0x0 bg_edit_dialog_Pal.o
 .bss           0x0206b4e0        0x0 bg_edit_dialog_Tiles.o
 .bss           0x0206b4e0        0x0 bg_up_Map.o
 .bss           0x0206b4e0        0x0 bg_up_Pal.o
 .bss           0x0206b4e0        0x0 bg_up_Tiles.o
 .bss           0x0206b4e0        0x0 menu_del_Pal.o
 .bss           0x0206b4e0        0x0 menu_del_Sprite.o
 .bss           0x0206b4e0        0x0 menu_move_Pal.o
 .bss           0x0206b4e0        0x0 menu_move_Sprite.o
 .bss           0x0206b4e0        0x0 menu_serial_Pal.o
 .bss           0x0206b4e0        0x0 menu_serial_Sprite.o
 .bss           0x0206b4e0        0x0 menu_setting_Pal.o
 .bss           0x0206b4e0        0x0 menu_setting_Sprite.o
 .bss           0x0206b4e0        0x0 menu_usb_Pal.o
 .bss           0x0206b4e0        0x0 menu_usb_Sprite.o
 .bss           0x0206b4e0        0x0 menu_wifi_Pal.o
 .bss           0x0206b4e0        0x0 menu_wifi_Sprite.o
 .bss           0x0206b4e0        0x0 move_create_Pal.o
 .bss           0x0206b4e0        0x0 move_create_Sprite.o
 .bss           0x0206b4e0        0x0 sel_menu_serial_Pal.o
 .bss           0x0206b4e0        0x0 sel_menu_serial_Sprite.o
 .bss           0x0206b4e0        0x0 sel_menu_usb_Pal.o
 .bss           0x0206b4e0        0x0 sel_menu_usb_Sprite.o
 .bss           0x0206b4e0        0x0 sel_menu_wifi_Pal.o
 .bss           0x0206b4e0        0x0 sel_menu_wifi_Sprite.o
 .bss           0x0206b4e0        0x0 selected_Pal.o
 .bss           0x0206b4e0        0x0 selected_Sprite.o
 .bss           0x0206b4e0        0x0 down.o
 .bss           0x0206b4e0        0x0 up.o
 .bss           0x0206b4e0        0x4 FileManage.o
                0x0206b4e0                device_selector
 .bss           0x0206b4e4        0x0 Graphic.o
 .bss           0x0206b4e4        0x4 Main.o
                0x0206b4e4                device_channel
 .bss           0x0206b4e8        0x0 down_execute.o
 .bss           0x0206b4e8        0x4 download.o
 .bss           0x0206b4ec        0x4 serial.o
 .bss           0x0206b4f0        0x4 usb.o
 .bss           0x0206b4f4       0x24 wifi.o
 .bss           0x0206b518       0x80 croutine.o
                0x0206b518                pxCurrentCoRoutine
 .bss           0x0206b598        0x0 heap.o
 .bss           0x0206b598        0x0 list.o
 .bss           0x0206b598        0x0 port.o
 .bss           0x0206b598        0x0 portISR.o
 .bss           0x0206b598        0x0 queue.o
 .bss           0x0206b598      0x144 tasks.o
                0x0206b5d0                pxCurrentTCB
 .bss           0x0206b6dc        0x0 virtual_io.o
 .bss           0x0206b6dc        0x0 bg_create.o
 .bss           0x0206b6dc        0x0 bg_dialog.o
 .bss           0x0206b6dc        0x0 bg_down.o
 .bss           0x0206b6dc        0x0 bg_edit_dialog.o
 .bss           0x0206b6dc        0x0 bg_up.o
 *fill*         0x0206b6dc        0x4 00
 .bss           0x0206b6e0        0x0 jump.o
 .bss           0x0206b6e0        0x0 assemfunc.o
 .bss           0x0206b6e0        0x4 c:/ndsdev/devkitPro/PAlib/lib\libpa9.a(PA.o)
                0x0206b6e0                pa_giftotexcolor
                0x0206b6e2                PA_Screen
                0x0206b6e3                PA_MoveSpriteType
 .bss           0x0206b6e4        0x0 c:/ndsdev/devkitPro/PAlib/lib\libpa9.a(PA_BgTiles.o)
 .bss           0x0206b6e4        0x0 c:/ndsdev/devkitPro/PAlib/lib\libpa9.a(PA_Error.o)
 .bss           0x0206b6e4        0x0 c:/ndsdev/devkitPro/PAlib/lib\libpa9.a(PA_Inits.o)
 .bss           0x0206b6e4        0x0 c:/ndsdev/devkitPro/PAlib/lib\libpa9.a(PA_Interrupt.o)
 .bss           0x0206b6e4        0x1 c:/ndsdev/devkitPro/PAlib/lib\libpa9.a(PA_Keyboard.o)
                0x0206b6e4                keyb_screen
 .bss           0x0206b6e5        0x0 c:/ndsdev/devkitPro/PAlib/lib\libpa9.a(PA_Keys.o)
 .bss           0x0206b6e5        0x0 c:/ndsdev/devkitPro/PAlib/lib\libpa9.a(PA_Math.o)
 .bss           0x0206b6e5        0x0 c:/ndsdev/devkitPro/PAlib/lib\libpa9.a(PA_NewBg.o)
 .bss           0x0206b6e5        0x0 c:/ndsdev/devkitPro/PAlib/lib\libpa9.a(PA_Palette.o)
 .bss           0x0206b6e5        0x0 c:/ndsdev/devkitPro/PAlib/lib\libpa9.a(PA_RTC.o)
 .bss           0x0206b6e5        0x1 c:/ndsdev/devkitPro/PAlib/lib\libpa9.a(PA_Reco.o)
                0x0206b6e5                PA_CustomReco
 *fill*         0x0206b6e6        0x2 00
 .bss           0x0206b6e8        0xc c:/ndsdev/devkitPro/PAlib/lib\libpa9.a(PA_Sprite.o)
                0x0206b6e8                PA_SpriteExtPrio
                0x0206b6ec                FirstGfx
                0x0206b6f0                nspriteanims
 .bss           0x0206b6f4        0x0 c:/ndsdev/devkitPro/PAlib/lib\libpa9.a(PA_Stuff.o)
 .bss           0x0206b6f4        0x8 c:/ndsdev/devkitPro/PAlib/lib\libpa9.a(PA_Text.o)
                0x0206b6f4                PAtext_pal
                0x0206b6f8                PA_font
 .bss           0x0206b6fc        0x0 c:/ndsdev/devkitPro/PAlib/lib\libpa9.a(PA_Text8bit.o)
 .bss           0x0206b6fc        0x0 c:/ndsdev/devkitPro/PAlib/lib\libpa9.a(PA_TextBits.o)
 .bss           0x0206b6fc        0x0 c:/ndsdev/devkitPro/PAlib/lib\libpa9.a(PA_TextSpecial.o)
 .bss           0x0206b6fc        0x0 c:/ndsdev/devkitPro/PAlib/lib\libpa9.a(PA_Wifi.o)
 .bss           0x0206b6fc        0x0 c:/ndsdev/devkitPro/PAlib/lib\libpa9.a(keyboard.map.o)
 .bss           0x0206b6fc        0x0 c:/ndsdev/devkitPro/PAlib/lib\libpa9.a(keyboard.pal.o)
 .bss           0x0206b6fc        0x0 c:/ndsdev/devkitPro/PAlib/lib\libpa9.a(keyboard.raw.o)
 .bss           0x0206b6fc        0x0 c:/ndsdev/devkitPro/PAlib/lib\libpa9.a(PA_TiledFont.o)
 .bss           0x0206b6fc        0x0 c:/ndsdev/devkitPro/PAlib/lib\libpa9.a(PA_BmpFont0.o)
 .bss           0x0206b6fc        0x0 c:/ndsdev/devkitPro/PAlib/lib\libpa9.a(PA_BmpFont1.o)
 .bss           0x0206b6fc        0x0 c:/ndsdev/devkitPro/PAlib/lib\libpa9.a(PA_BmpFont2.o)
 .bss           0x0206b6fc        0x0 c:/ndsdev/devkitPro/PAlib/lib\libpa9.a(PA_BmpFont3.o)
 .bss           0x0206b6fc        0x0 c:/ndsdev/devkitPro/PAlib/lib\libpa9.a(PA_BmpFont4.o)
 .bss           0x0206b6fc        0x0 c:/ndsdev/devkitPro/PAlib/lib\libpa9.a(PA_TiledFont_Map.bin.o)
 .bss           0x0206b6fc        0x0 c:/ndsdev/devkitPro/PAlib/lib\libpa9.a(PA_TiledFont_Pal.bin.o)
 .bss           0x0206b6fc        0x0 c:/ndsdev/devkitPro/PAlib/lib\libpa9.a(PA_TiledFont_Tiles.bin.o)
 .bss           0x0206b6fc        0x0 c:/ndsdev/devkitPro/PAlib/lib\libpa9.a(PA_BmpFont0_Map.bin.o)
 .bss           0x0206b6fc        0x0 c:/ndsdev/devkitPro/PAlib/lib\libpa9.a(PA_BmpFont0_Sizes.bin.o)
 .bss           0x0206b6fc        0x0 c:/ndsdev/devkitPro/PAlib/lib\libpa9.a(PA_BmpFont0_Tiles.bin.o)
 .bss           0x0206b6fc        0x0 c:/ndsdev/devkitPro/PAlib/lib\libpa9.a(PA_BmpFont1_Map.bin.o)
 .bss           0x0206b6fc        0x0 c:/ndsdev/devkitPro/PAlib/lib\libpa9.a(PA_BmpFont1_Sizes.bin.o)
 .bss           0x0206b6fc        0x0 c:/ndsdev/devkitPro/PAlib/lib\libpa9.a(PA_BmpFont1_Tiles.bin.o)
 .bss           0x0206b6fc        0x0 c:/ndsdev/devkitPro/PAlib/lib\libpa9.a(PA_BmpFont2_Map.bin.o)
 .bss           0x0206b6fc        0x0 c:/ndsdev/devkitPro/PAlib/lib\libpa9.a(PA_BmpFont2_Sizes.bin.o)
 .bss           0x0206b6fc        0x0 c:/ndsdev/devkitPro/PAlib/lib\libpa9.a(PA_BmpFont2_Tiles.bin.o)
 .bss           0x0206b6fc        0x0 c:/ndsdev/devkitPro/PAlib/lib\libpa9.a(PA_BmpFont3_Map.bin.o)
 .bss           0x0206b6fc        0x0 c:/ndsdev/devkitPro/PAlib/lib\libpa9.a(PA_BmpFont3_Sizes.bin.o)
 .bss           0x0206b6fc        0x0 c:/ndsdev/devkitPro/PAlib/lib\libpa9.a(PA_BmpFont3_Tiles.bin.o)
 .bss           0x0206b6fc        0x0 c:/ndsdev/devkitPro/PAlib/lib\libpa9.a(PA_BmpFont4_Map.bin.o)
 .bss           0x0206b6fc        0x0 c:/ndsdev/devkitPro/PAlib/lib\libpa9.a(PA_BmpFont4_Sizes.bin.o)
 .bss           0x0206b6fc        0x0 c:/ndsdev/devkitPro/PAlib/lib\libpa9.a(PA_BmpFont4_Tiles.bin.o)
 .bss           0x0206b6fc        0x0 c:/ndsdev/devkitPro/PAlib/lib\libpa9.a(PA_16c.o)
 .bss           0x0206b6fc        0x0 c:/ndsdev/devkitPro/PAlib/lib\libpa9.a(PA_BgEasy.o)
 .bss           0x0206b6fc        0x0 c:/ndsdev/devkitPro/PAlib/lib\libpa9.a(PA_BgLargeMap.o)
 .bss           0x0206b6fc        0x0 c:/ndsdev/devkitPro/PAlib/lib\libpa9.a(PA_BgRot.o)
 .bss           0x0206b6fc        0x0 c:/ndsdev/devkitPro/PAlib/lib\libpa9.a(PA_Draw.o)
 .bss           0x0206b6fc        0x0 c:/ndsdev/devkitPro/PAlib/lib\libpa9.a(PA_Fifo.o)
 .bss           0x0206b6fc        0x0 c:/ndsdev/devkitPro/PAlib/lib\libpa9.a(PA_PaletteEx.o)
 .bss           0x0206b6fc        0x0 c:/ndsdev/devkitPro/libnds/lib\libfat.a(libfat.o)
 *fill*         0x0206b6fc        0x4 00
 .bss           0x0206b700      0x200 c:/ndsdev/devkitPro/libnds/lib\libfat.a(partition.o)
 .bss           0x0206b900        0x4 c:/ndsdev/devkitPro/libnds/lib\libfat.a(cache.o)
 .bss           0x0206b904        0x0 c:/ndsdev/devkitPro/libnds/lib\libfat.a(directory.o)
 .bss           0x0206b904        0x0 c:/ndsdev/devkitPro/libnds/lib\libfat.a(disc.o)
 .bss           0x0206b904        0x0 c:/ndsdev/devkitPro/libnds/lib\libfat.a(fatdir.o)
 .bss           0x0206b904        0x0 c:/ndsdev/devkitPro/libnds/lib\libfat.a(fatfile.o)
 .bss           0x0206b904        0x0 c:/ndsdev/devkitPro/libnds/lib\libfat.a(file_allocation_table.o)
 .bss           0x0206b904        0x0 c:/ndsdev/devkitPro/libnds/lib\libfat.a(filetime.o)
 .bss           0x0206b904        0x0 c:/ndsdev/devkitPro/libnds/lib\libfat.a(lock.o)
 .bss           0x0206b904        0x0 c:/ndsdev/devkitPro/libnds/lib\libnds9.a(background.o)
 .bss           0x0206b904        0x0 c:/ndsdev/devkitPro/libnds/lib\libnds9.a(console.o)
 .bss           0x0206b904        0x0 c:/ndsdev/devkitPro/libnds/lib\libnds9.a(decompress.o)
 .bss           0x0206b904        0x6 c:/ndsdev/devkitPro/libnds/lib\libnds9.a(keys.o)
 .bss           0x0206b90a        0x0 c:/ndsdev/devkitPro/libnds/lib\libnds9.a(system.o)
 .bss           0x0206b90a        0x0 c:/ndsdev/devkitPro/libnds/lib\libnds9.a(touch.o)
 .bss           0x0206b90a        0x0 c:/ndsdev/devkitPro/libnds/lib\libnds9.a(trig.o)
 .bss           0x0206b90a        0x0 c:/ndsdev/devkitPro/libnds/lib\libnds9.a(video.o)
 .bss           0x0206b90a        0x0 c:/ndsdev/devkitPro/libnds/lib\libnds9.a(dldi.o)
 .bss           0x0206b90a        0x0 c:/ndsdev/devkitPro/libnds/lib\libnds9.a(dsi_sd.o)
 .bss           0x0206b90a        0x0 c:/ndsdev/devkitPro/libnds/lib\libnds9.a(initSystem.o)
 *fill*         0x0206b90a        0x2 00
 .bss           0x0206b90c        0x8 c:/ndsdev/devkitPro/libnds/lib\libnds9.a(fifosystem.o)
                0x0206b910                processing
 .bss           0x0206b914        0x0 c:/ndsdev/devkitPro/libnds/lib\libnds9.a(interrupts.o)
 .bss           0x0206b914        0x0 c:/ndsdev/devkitPro/libnds/lib\libnds9.a(libnds_exit.o)
 .bss           0x0206b914        0x0 c:/ndsdev/devkitPro/libnds/lib\libnds9.a(syscalls.o)
 .bss           0x0206b914        0x0 c:/ndsdev/devkitPro/libnds/lib\libnds9.a(dcache.o)
 .bss           0x0206b914        0x0 c:/ndsdev/devkitPro/libnds/lib\libnds9.a(dldi_stub.o)
 .bss           0x0206b914        0x0 c:/ndsdev/devkitPro/libnds/lib\libnds9.a(mpu_setup.o)
 .bss           0x0206b914        0x0 c:/ndsdev/devkitPro/libnds/lib\libnds9.a(biosCalls.o)
 .bss           0x0206b914        0x0 c:/ndsdev/devkitPro/libnds/lib\libnds9.a(debugprint.o)
 .bss           0x0206b914        0x0 c:/ndsdev/devkitPro/libnds/lib\libnds9.a(interruptDispatcher.o)
 .bss           0x0206b914        0x0 c:/ndsdev/devkitPro/libnds/lib\libnds9.a(swiSoftReset.o)
 .bss           0x0206b914        0x0 c:/ndsdev/devkitPro/libnds/lib\libnds9.a(default_font.bin.o)
 .bss           0x0206b914        0x0 c:/ndsdev/devkitPro/libnds/lib\libdswifi9.a(sgIP_DNS.o)
 .bss           0x0206b914        0x0 c:/ndsdev/devkitPro/libnds/lib\libdswifi9.a(sgIP_Hub.o)
 .bss           0x0206b914        0x0 c:/ndsdev/devkitPro/libnds/lib\libdswifi9.a(sgIP_memblock.o)
 .bss           0x0206b914        0x0 c:/ndsdev/devkitPro/libnds/lib\libdswifi9.a(sgIP_sockets.o)
 .bss           0x0206b914       0x10 c:/ndsdev/devkitPro/libnds/lib\libdswifi9.a(wifi_arm9.o)
                0x0206b914                WifiData
                0x0206b918                synchandler
                0x0206b91c                packethandler
                0x0206b920                wifi_connect_state
 .bss           0x0206b924        0x0 c:/ndsdev/devkitPro/libnds/lib\libdswifi9.a(spinlock.o)
 .bss           0x0206b924        0x0 c:/ndsdev/devkitPro/libnds/lib\libdswifi9.a(sgIP.o)
 .bss           0x0206b924        0x0 c:/ndsdev/devkitPro/libnds/lib\libdswifi9.a(sgIP_ARP.o)
 .bss           0x0206b924        0x0 c:/ndsdev/devkitPro/libnds/lib\libdswifi9.a(sgIP_DHCP.o)
 .bss           0x0206b924        0x0 c:/ndsdev/devkitPro/libnds/lib\libdswifi9.a(sgIP_IP.o)
 .bss           0x0206b924        0x0 c:/ndsdev/devkitPro/libnds/lib\libdswifi9.a(sgIP_TCP.o)
 .bss           0x0206b924        0x0 c:/ndsdev/devkitPro/libnds/lib\libdswifi9.a(sgIP_UDP.o)
 .bss           0x0206b924        0x0 c:/ndsdev/devkitPro/libnds/lib\libdswifi9.a(sgIP_ICMP.o)
 .bss           0x0206b924        0x0 c:/ndsdev/devkitpro/devkitarm/bin/../lib/gcc/arm-eabi/4.6.0/thumb\libgcc.a(_udivsi3.o)
 .bss           0x0206b924        0x0 c:/ndsdev/devkitpro/devkitarm/bin/../lib/gcc/arm-eabi/4.6.0/thumb\libgcc.a(_divsi3.o)
 .bss           0x0206b924        0x0 c:/ndsdev/devkitpro/devkitarm/bin/../lib/gcc/arm-eabi/4.6.0/thumb\libgcc.a(_dvmd_tls.o)
 .bss           0x0206b924        0x0 c:/ndsdev/devkitpro/devkitarm/bin/../lib/gcc/arm-eabi/4.6.0/thumb\libgcc.a(_arm_addsubdf3.o)
 .bss           0x0206b924        0x0 c:/ndsdev/devkitpro/devkitarm/bin/../lib/gcc/arm-eabi/4.6.0/thumb\libgcc.a(_arm_muldivdf3.o)
 .bss           0x0206b924        0x0 c:/ndsdev/devkitpro/devkitarm/bin/../lib/gcc/arm-eabi/4.6.0/thumb\libgcc.a(_arm_cmpdf2.o)
 .bss           0x0206b924        0x0 c:/ndsdev/devkitpro/devkitarm/bin/../lib/gcc/arm-eabi/4.6.0/thumb\libgcc.a(_arm_fixdfsi.o)
 .bss           0x0206b924        0x0 c:/ndsdev/devkitpro/devkitarm/bin/../lib/gcc/arm-eabi/4.6.0/thumb\libgcc.a(_muldi3.o)
 .bss           0x0206b924        0x0 c:/ndsdev/devkitpro/devkitarm/bin/../lib/gcc/arm-eabi/4.6.0/../../../../arm-eabi/lib/thumb\libg.a(lib_a-atoi.o)
 .bss           0x0206b924        0x0 c:/ndsdev/devkitpro/devkitarm/bin/../lib/gcc/arm-eabi/4.6.0/../../../../arm-eabi/lib/thumb\libg.a(lib_a-bsearch.o)
 .bss           0x0206b924        0x0 c:/ndsdev/devkitpro/devkitarm/bin/../lib/gcc/arm-eabi/4.6.0/../../../../arm-eabi/lib/thumb\libg.a(lib_a-ctype_.o)
 .bss           0x0206b924        0x0 c:/ndsdev/devkitpro/devkitarm/bin/../lib/gcc/arm-eabi/4.6.0/../../../../arm-eabi/lib/thumb\libg.a(lib_a-errno.o)
 .bss           0x0206b924        0x0 c:/ndsdev/devkitpro/devkitarm/bin/../lib/gcc/arm-eabi/4.6.0/../../../../arm-eabi/lib/thumb\libg.a(lib_a-fclose.o)
 .bss           0x0206b924        0x0 c:/ndsdev/devkitpro/devkitarm/bin/../lib/gcc/arm-eabi/4.6.0/../../../../arm-eabi/lib/thumb\libg.a(lib_a-fflush.o)
 .bss           0x0206b924        0x0 c:/ndsdev/devkitpro/devkitarm/bin/../lib/gcc/arm-eabi/4.6.0/../../../../arm-eabi/lib/thumb\libg.a(lib_a-fgets.o)
 .bss           0x0206b924        0x0 c:/ndsdev/devkitpro/devkitarm/bin/../lib/gcc/arm-eabi/4.6.0/../../../../arm-eabi/lib/thumb\libg.a(lib_a-findfp.o)
 .bss           0x0206b924        0x0 c:/ndsdev/devkitpro/devkitarm/bin/../lib/gcc/arm-eabi/4.6.0/../../../../arm-eabi/lib/thumb\libg.a(lib_a-fopen.o)
 .bss           0x0206b924        0x0 c:/ndsdev/devkitpro/devkitarm/bin/../lib/gcc/arm-eabi/4.6.0/../../../../arm-eabi/lib/thumb\libg.a(lib_a-fread.o)
 .bss           0x0206b924        0x0 c:/ndsdev/devkitpro/devkitarm/bin/../lib/gcc/arm-eabi/4.6.0/../../../../arm-eabi/lib/thumb\libg.a(lib_a-freer.o)
 .bss           0x0206b924        0x0 c:/ndsdev/devkitpro/devkitarm/bin/../lib/gcc/arm-eabi/4.6.0/../../../../arm-eabi/lib/thumb\libg.a(lib_a-fseek.o)
 .bss           0x0206b924        0x0 c:/ndsdev/devkitpro/devkitarm/bin/../lib/gcc/arm-eabi/4.6.0/../../../../arm-eabi/lib/thumb\libg.a(lib_a-ftell.o)
 .bss           0x0206b924        0x0 c:/ndsdev/devkitpro/devkitarm/bin/../lib/gcc/arm-eabi/4.6.0/../../../../arm-eabi/lib/thumb\libg.a(lib_a-fwalk.o)
 .bss           0x0206b924        0x0 c:/ndsdev/devkitpro/devkitarm/bin/../lib/gcc/arm-eabi/4.6.0/../../../../arm-eabi/lib/thumb\libg.a(lib_a-fwrite.o)
 .bss           0x0206b924        0x0 c:/ndsdev/devkitpro/devkitarm/bin/../lib/gcc/arm-eabi/4.6.0/../../../../arm-eabi/lib/thumb\libg.a(lib_a-gmtime.o)
 .bss           0x0206b924        0x0 c:/ndsdev/devkitpro/devkitarm/bin/../lib/gcc/arm-eabi/4.6.0/../../../../arm-eabi/lib/thumb\libg.a(lib_a-gmtime_r.o)
 .bss           0x0206b924        0x0 c:/ndsdev/devkitpro/devkitarm/bin/../lib/gcc/arm-eabi/4.6.0/../../../../arm-eabi/lib/thumb\libg.a(lib_a-impure.o)
 .bss           0x0206b924        0x0 c:/ndsdev/devkitpro/devkitarm/bin/../lib/gcc/arm-eabi/4.6.0/../../../../arm-eabi/lib/thumb\libg.a(lib_a-init.o)
 .bss           0x0206b924        0x0 c:/ndsdev/devkitpro/devkitarm/bin/../lib/gcc/arm-eabi/4.6.0/../../../../arm-eabi/lib/thumb\libg.a(lib_a-iprintf.o)
 .bss           0x0206b924        0x0 c:/ndsdev/devkitpro/devkitarm/bin/../lib/gcc/arm-eabi/4.6.0/../../../../arm-eabi/lib/thumb\libg.a(lib_a-lcltime_r.o)
 .bss           0x0206b924      0x2b8 c:/ndsdev/devkitpro/devkitarm/bin/../lib/gcc/arm-eabi/4.6.0/../../../../arm-eabi/lib/thumb\libg.a(lib_a-locale.o)
                0x0206bbd0                _PathLocale
                0x0206bbd4                __mlocale_changed
                0x0206bbd8                __nlocale_changed
 .bss           0x0206bbdc        0x0 c:/ndsdev/devkitpro/devkitarm/bin/../lib/gcc/arm-eabi/4.6.0/../../../../arm-eabi/lib/thumb\libg.a(lib_a-makebuf.o)
 .bss           0x0206bbdc        0x0 c:/ndsdev/devkitpro/devkitarm/bin/../lib/gcc/arm-eabi/4.6.0/../../../../arm-eabi/lib/thumb\libg.a(lib_a-malloc.o)
 .bss           0x0206bbdc       0x34 c:/ndsdev/devkitpro/devkitarm/bin/../lib/gcc/arm-eabi/4.6.0/../../../../arm-eabi/lib/thumb\libg.a(lib_a-mallocr.o)
                0x0206bbdc                __malloc_top_pad
                0x0206bbe0                __malloc_current_mallinfo
                0x0206bc08                __malloc_max_sbrked_mem
                0x0206bc0c                __malloc_max_total_mem
 .bss           0x0206bc10        0x0 c:/ndsdev/devkitpro/devkitarm/bin/../lib/gcc/arm-eabi/4.6.0/../../../../arm-eabi/lib/thumb\libg.a(lib_a-mbrtowc.o)
 .bss           0x0206bc10        0x0 c:/ndsdev/devkitpro/devkitarm/bin/../lib/gcc/arm-eabi/4.6.0/../../../../arm-eabi/lib/thumb\libg.a(lib_a-mbsrtowcs.o)
 .bss           0x0206bc10        0x0 c:/ndsdev/devkitpro/devkitarm/bin/../lib/gcc/arm-eabi/4.6.0/../../../../arm-eabi/lib/thumb\libg.a(lib_a-mbtowc_r.o)
 .bss           0x0206bc10        0x0 c:/ndsdev/devkitpro/devkitarm/bin/../lib/gcc/arm-eabi/4.6.0/../../../../arm-eabi/lib/thumb\libg.a(lib_a-memchr.o)
 .bss           0x0206bc10        0x0 c:/ndsdev/devkitpro/devkitarm/bin/../lib/gcc/arm-eabi/4.6.0/../../../../arm-eabi/lib/thumb\libg.a(lib_a-memcmp.o)
 .bss           0x0206bc10        0x0 c:/ndsdev/devkitpro/devkitarm/bin/../lib/gcc/arm-eabi/4.6.0/../../../../arm-eabi/lib/thumb\libg.a(lib_a-memcpy.o)
 .bss           0x0206bc10        0x0 c:/ndsdev/devkitpro/devkitarm/bin/../lib/gcc/arm-eabi/4.6.0/../../../../arm-eabi/lib/thumb\libg.a(lib_a-memmove.o)
 .bss           0x0206bc10        0x0 c:/ndsdev/devkitpro/devkitarm/bin/../lib/gcc/arm-eabi/4.6.0/../../../../arm-eabi/lib/thumb\libg.a(lib_a-memset.o)
 .bss           0x0206bc10        0x0 c:/ndsdev/devkitpro/devkitarm/bin/../lib/gcc/arm-eabi/4.6.0/../../../../arm-eabi/lib/thumb\libg.a(lib_a-mktime.o)
 .bss           0x0206bc10        0x0 c:/ndsdev/devkitpro/devkitarm/bin/../lib/gcc/arm-eabi/4.6.0/../../../../arm-eabi/lib/thumb\libg.a(lib_a-mktm_r.o)
 .bss           0x0206bc10        0x0 c:/ndsdev/devkitpro/devkitarm/bin/../lib/gcc/arm-eabi/4.6.0/../../../../arm-eabi/lib/thumb\libg.a(lib_a-mlock.o)
 .bss           0x0206bc10        0x0 c:/ndsdev/devkitpro/devkitarm/bin/../lib/gcc/arm-eabi/4.6.0/../../../../arm-eabi/lib/thumb\libg.a(lib_a-refill.o)
 .bss           0x0206bc10        0x0 c:/ndsdev/devkitpro/devkitarm/bin/../lib/gcc/arm-eabi/4.6.0/../../../../arm-eabi/lib/thumb\libg.a(lib_a-remove.o)
 .bss           0x0206bc10        0x0 c:/ndsdev/devkitpro/devkitarm/bin/../lib/gcc/arm-eabi/4.6.0/../../../../arm-eabi/lib/thumb\libg.a(lib_a-rename.o)
 .bss           0x0206bc10        0x0 c:/ndsdev/devkitpro/devkitarm/bin/../lib/gcc/arm-eabi/4.6.0/../../../../arm-eabi/lib/thumb\libg.a(lib_a-setvbuf.o)
 .bss           0x0206bc10        0x0 c:/ndsdev/devkitpro/devkitarm/bin/../lib/gcc/arm-eabi/4.6.0/../../../../arm-eabi/lib/thumb\libg.a(lib_a-siscanf.o)
 .bss           0x0206bc10        0x0 c:/ndsdev/devkitpro/devkitarm/bin/../lib/gcc/arm-eabi/4.6.0/../../../../arm-eabi/lib/thumb\libg.a(lib_a-sprintf.o)
 .bss           0x0206bc10        0x0 c:/ndsdev/devkitpro/devkitarm/bin/../lib/gcc/arm-eabi/4.6.0/../../../../arm-eabi/lib/thumb\libg.a(lib_a-sscanf.o)
 .bss           0x0206bc10        0x0 c:/ndsdev/devkitpro/devkitarm/bin/../lib/gcc/arm-eabi/4.6.0/../../../../arm-eabi/lib/thumb\libg.a(lib_a-stdio.o)
 .bss           0x0206bc10        0x0 c:/ndsdev/devkitpro/devkitarm/bin/../lib/gcc/arm-eabi/4.6.0/../../../../arm-eabi/lib/thumb\libg.a(lib_a-strcasecmp.o)
 .bss           0x0206bc10        0x0 c:/ndsdev/devkitpro/devkitarm/bin/../lib/gcc/arm-eabi/4.6.0/../../../../arm-eabi/lib/thumb\libg.a(lib_a-strcat.o)
 .bss           0x0206bc10        0x0 c:/ndsdev/devkitpro/devkitarm/bin/../lib/gcc/arm-eabi/4.6.0/../../../../arm-eabi/lib/thumb\libg.a(lib_a-strchr.o)
 .bss           0x0206bc10        0x0 c:/ndsdev/devkitpro/devkitarm/bin/../lib/gcc/arm-eabi/4.6.0/../../../../arm-eabi/lib/thumb\libg.a(lib_a-strcmp.o)
 .bss           0x0206bc10        0x0 c:/ndsdev/devkitpro/devkitarm/bin/../lib/gcc/arm-eabi/4.6.0/../../../../arm-eabi/lib/thumb\libg.a(lib_a-strcpy.o)
 .bss           0x0206bc10        0x0 c:/ndsdev/devkitpro/devkitarm/bin/../lib/gcc/arm-eabi/4.6.0/../../../../arm-eabi/lib/thumb\libg.a(lib_a-strlcpy.o)
 .bss           0x0206bc10        0x0 c:/ndsdev/devkitpro/devkitarm/bin/../lib/gcc/arm-eabi/4.6.0/../../../../arm-eabi/lib/thumb\libg.a(lib_a-strlen.o)
 .bss           0x0206bc10        0x0 c:/ndsdev/devkitpro/devkitarm/bin/../lib/gcc/arm-eabi/4.6.0/../../../../arm-eabi/lib/thumb\libg.a(lib_a-strncasecmp.o)
 .bss           0x0206bc10        0x0 c:/ndsdev/devkitpro/devkitarm/bin/../lib/gcc/arm-eabi/4.6.0/../../../../arm-eabi/lib/thumb\libg.a(lib_a-strncmp.o)
 .bss           0x0206bc10        0x0 c:/ndsdev/devkitpro/devkitarm/bin/../lib/gcc/arm-eabi/4.6.0/../../../../arm-eabi/lib/thumb\libg.a(lib_a-strncpy.o)
 .bss           0x0206bc10        0x0 c:/ndsdev/devkitpro/devkitarm/bin/../lib/gcc/arm-eabi/4.6.0/../../../../arm-eabi/lib/thumb\libg.a(lib_a-strnlen.o)
 .bss           0x0206bc10        0x0 c:/ndsdev/devkitpro/devkitarm/bin/../lib/gcc/arm-eabi/4.6.0/../../../../arm-eabi/lib/thumb\libg.a(lib_a-strpbrk.o)
 .bss           0x0206bc10        0x0 c:/ndsdev/devkitpro/devkitarm/bin/../lib/gcc/arm-eabi/4.6.0/../../../../arm-eabi/lib/thumb\libg.a(lib_a-strrchr.o)
 .bss           0x0206bc10        0x0 c:/ndsdev/devkitpro/devkitarm/bin/../lib/gcc/arm-eabi/4.6.0/../../../../arm-eabi/lib/thumb\libg.a(lib_a-strtol.o)
 .bss           0x0206bc10        0x0 c:/ndsdev/devkitpro/devkitarm/bin/../lib/gcc/arm-eabi/4.6.0/../../../../arm-eabi/lib/thumb\libg.a(lib_a-svfiscanf.o)
 .bss           0x0206bc10        0x0 c:/ndsdev/devkitpro/devkitarm/bin/../lib/gcc/arm-eabi/4.6.0/../../../../arm-eabi/lib/thumb\libg.a(lib_a-svfprintf.o)
 .bss           0x0206bc10        0x0 c:/ndsdev/devkitpro/devkitarm/bin/../lib/gcc/arm-eabi/4.6.0/../../../../arm-eabi/lib/thumb\libg.a(lib_a-svfscanf.o)
 .bss           0x0206bc10        0x0 c:/ndsdev/devkitpro/devkitarm/bin/../lib/gcc/arm-eabi/4.6.0/../../../../arm-eabi/lib/thumb\libg.a(lib_a-sysclose.o)
 .bss           0x0206bc10        0x0 c:/ndsdev/devkitpro/devkitarm/bin/../lib/gcc/arm-eabi/4.6.0/../../../../arm-eabi/lib/thumb\libg.a(lib_a-syslseek.o)
 .bss           0x0206bc10        0x0 c:/ndsdev/devkitpro/devkitarm/bin/../lib/gcc/arm-eabi/4.6.0/../../../../arm-eabi/lib/thumb\libg.a(lib_a-sysopen.o)
 .bss           0x0206bc10        0x0 c:/ndsdev/devkitpro/devkitarm/bin/../lib/gcc/arm-eabi/4.6.0/../../../../arm-eabi/lib/thumb\libg.a(lib_a-sysread.o)
 .bss           0x0206bc10        0x0 c:/ndsdev/devkitpro/devkitarm/bin/../lib/gcc/arm-eabi/4.6.0/../../../../arm-eabi/lib/thumb\libg.a(lib_a-sysstat.o)
 .bss           0x0206bc10        0x0 c:/ndsdev/devkitpro/devkitarm/bin/../lib/gcc/arm-eabi/4.6.0/../../../../arm-eabi/lib/thumb\libg.a(lib_a-sysunlink.o)
 .bss           0x0206bc10        0x0 c:/ndsdev/devkitpro/devkitarm/bin/../lib/gcc/arm-eabi/4.6.0/../../../../arm-eabi/lib/thumb\libg.a(lib_a-time.o)
 .bss           0x0206bc10        0x0 c:/ndsdev/devkitpro/devkitarm/bin/../lib/gcc/arm-eabi/4.6.0/../../../../arm-eabi/lib/thumb\libg.a(lib_a-towlower.o)
 .bss           0x0206bc10        0x0 c:/ndsdev/devkitpro/devkitarm/bin/../lib/gcc/arm-eabi/4.6.0/../../../../arm-eabi/lib/thumb\libg.a(lib_a-towupper.o)
 .bss           0x0206bc10        0x0 c:/ndsdev/devkitpro/devkitarm/bin/../lib/gcc/arm-eabi/4.6.0/../../../../arm-eabi/lib/thumb\libg.a(lib_a-tzlock.o)
 .bss           0x0206bc10        0x8 c:/ndsdev/devkitpro/devkitarm/bin/../lib/gcc/arm-eabi/4.6.0/../../../../arm-eabi/lib/thumb\libg.a(lib_a-tzvars.o)
                0x0206bc10                _timezone
                0x0206bc14                _daylight
 .bss           0x0206bc18        0x0 c:/ndsdev/devkitpro/devkitarm/bin/../lib/gcc/arm-eabi/4.6.0/../../../../arm-eabi/lib/thumb\libg.a(lib_a-ungetc.o)
 .bss           0x0206bc18        0x0 c:/ndsdev/devkitpro/devkitarm/bin/../lib/gcc/arm-eabi/4.6.0/../../../../arm-eabi/lib/thumb\libg.a(lib_a-vfiprintf.o)
 .bss           0x0206bc18        0x0 c:/ndsdev/devkitpro/devkitarm/bin/../lib/gcc/arm-eabi/4.6.0/../../../../arm-eabi/lib/thumb\libg.a(lib_a-wcrtomb.o)
 .bss           0x0206bc18        0x0 c:/ndsdev/devkitpro/devkitarm/bin/../lib/gcc/arm-eabi/4.6.0/../../../../arm-eabi/lib/thumb\libg.a(lib_a-wcsrtombs.o)
 .bss           0x0206bc18        0x0 c:/ndsdev/devkitpro/devkitarm/bin/../lib/gcc/arm-eabi/4.6.0/../../../../arm-eabi/lib/thumb\libg.a(lib_a-wctob.o)
 .bss           0x0206bc18        0x0 c:/ndsdev/devkitpro/devkitarm/bin/../lib/gcc/arm-eabi/4.6.0/../../../../arm-eabi/lib/thumb\libg.a(lib_a-wctomb_r.o)
 .bss           0x0206bc18        0x0 c:/ndsdev/devkitpro/devkitarm/bin/../lib/gcc/arm-eabi/4.6.0/../../../../arm-eabi/lib/thumb\libg.a(lib_a-wsetup.o)
 .bss           0x0206bc18        0x0 c:/ndsdev/devkitpro/devkitarm/bin/../lib/gcc/arm-eabi/4.6.0/../../../../arm-eabi/lib/thumb\libg.a(lib_a-div.o)
 .bss           0x0206bc18        0x0 c:/ndsdev/devkitpro/devkitarm/bin/../lib/gcc/arm-eabi/4.6.0/../../../../arm-eabi/lib/thumb\libg.a(lib_a-dtoa.o)
 .bss           0x0206bc18        0x0 c:/ndsdev/devkitpro/devkitarm/bin/../lib/gcc/arm-eabi/4.6.0/../../../../arm-eabi/lib/thumb\libg.a(lib_a-flags.o)
 .bss           0x0206bc18        0x0 c:/ndsdev/devkitpro/devkitarm/bin/../lib/gcc/arm-eabi/4.6.0/../../../../arm-eabi/lib/thumb\libg.a(lib_a-fputwc.o)
 .bss           0x0206bc18        0x0 c:/ndsdev/devkitpro/devkitarm/bin/../lib/gcc/arm-eabi/4.6.0/../../../../arm-eabi/lib/thumb\libg.a(lib_a-fvwrite.o)
 .bss           0x0206bc18        0x0 c:/ndsdev/devkitpro/devkitarm/bin/../lib/gcc/arm-eabi/4.6.0/../../../../arm-eabi/lib/thumb\libg.a(lib_a-getenv_r.o)
 .bss           0x0206bc18        0x0 c:/ndsdev/devkitpro/devkitarm/bin/../lib/gcc/arm-eabi/4.6.0/../../../../arm-eabi/lib/thumb\libg.a(lib_a-gettzinfo.o)
 .bss           0x0206bc18        0x0 c:/ndsdev/devkitpro/devkitarm/bin/../lib/gcc/arm-eabi/4.6.0/../../../../arm-eabi/lib/thumb\libg.a(lib_a-iswspace.o)
 .bss           0x0206bc18        0x0 c:/ndsdev/devkitpro/devkitarm/bin/../lib/gcc/arm-eabi/4.6.0/../../../../arm-eabi/lib/thumb\libg.a(lib_a-jp2uc.o)
 .bss           0x0206bc18        0x0 c:/ndsdev/devkitpro/devkitarm/bin/../lib/gcc/arm-eabi/4.6.0/../../../../arm-eabi/lib/thumb\libg.a(lib_a-mbsnrtowcs.o)
 .bss           0x0206bc18        0x0 c:/ndsdev/devkitpro/devkitarm/bin/../lib/gcc/arm-eabi/4.6.0/../../../../arm-eabi/lib/thumb\libg.a(lib_a-mprec.o)
 .bss           0x0206bc18        0x0 c:/ndsdev/devkitpro/devkitarm/bin/../lib/gcc/arm-eabi/4.6.0/../../../../arm-eabi/lib/thumb\libg.a(lib_a-reallocr.o)
 .bss           0x0206bc18        0x0 c:/ndsdev/devkitpro/devkitarm/bin/../lib/gcc/arm-eabi/4.6.0/../../../../arm-eabi/lib/thumb\libg.a(lib_a-s_fpclassify.o)
 .bss           0x0206bc18        0x0 c:/ndsdev/devkitpro/devkitarm/bin/../lib/gcc/arm-eabi/4.6.0/../../../../arm-eabi/lib/thumb\libg.a(lib_a-sccl.o)
 .bss           0x0206bc18        0x0 c:/ndsdev/devkitpro/devkitarm/bin/../lib/gcc/arm-eabi/4.6.0/../../../../arm-eabi/lib/thumb\libg.a(lib_a-sf_nan.o)
 .bss           0x0206bc18        0x0 c:/ndsdev/devkitpro/devkitarm/bin/../lib/gcc/arm-eabi/4.6.0/../../../../arm-eabi/lib/thumb\libg.a(lib_a-strtod.o)
 .bss           0x0206bc18        0x0 c:/ndsdev/devkitpro/devkitarm/bin/../lib/gcc/arm-eabi/4.6.0/../../../../arm-eabi/lib/thumb\libg.a(lib_a-strtoll_r.o)
 .bss           0x0206bc18        0x0 c:/ndsdev/devkitpro/devkitarm/bin/../lib/gcc/arm-eabi/4.6.0/../../../../arm-eabi/lib/thumb\libg.a(lib_a-strtoul.o)
 .bss           0x0206bc18        0x0 c:/ndsdev/devkitpro/devkitarm/bin/../lib/gcc/arm-eabi/4.6.0/../../../../arm-eabi/lib/thumb\libg.a(lib_a-strtoull_r.o)
 .bss           0x0206bc18        0x0 c:/ndsdev/devkitpro/devkitarm/bin/../lib/gcc/arm-eabi/4.6.0/../../../../arm-eabi/lib/thumb\libg.a(lib_a-svfiprintf.o)
 .bss           0x0206bc18        0x0 c:/ndsdev/devkitpro/devkitarm/bin/../lib/gcc/arm-eabi/4.6.0/../../../../arm-eabi/lib/thumb\libg.a(lib_a-wbuf.o)
 .bss           0x0206bc18        0x0 c:/ndsdev/devkitpro/devkitarm/bin/../lib/gcc/arm-eabi/4.6.0/../../../../arm-eabi/lib/thumb\libg.a(lib_a-wcsnrtombs.o)
 .bss           0x0206bc18        0x0 c:/ndsdev/devkitpro/devkitarm/bin/../lib/gcc/arm-eabi/4.6.0/../../../../arm-eabi/lib/thumb\libg.a(lib_a-callocr.o)
 .bss           0x0206bc18        0x4 c:/ndsdev/devkitpro/devkitarm/bin/../lib/gcc/arm-eabi/4.6.0/../../../../arm-eabi/lib/thumb\libg.a(lib_a-environ.o)
 .bss           0x0206bc1c        0x0 c:/ndsdev/devkitpro/devkitarm/bin/../lib/gcc/arm-eabi/4.6.0/../../../../arm-eabi/lib/thumb\libg.a(lib_a-envlock.o)
 .bss           0x0206bc1c        0x0 c:/ndsdev/devkitpro/devkitarm/bin/../lib/gcc/arm-eabi/4.6.0/../../../../arm-eabi/lib/thumb\libg.a(lib_a-gdtoa-gethex.o)
 .bss           0x0206bc1c        0x0 c:/ndsdev/devkitpro/devkitarm/bin/../lib/gcc/arm-eabi/4.6.0/../../../../arm-eabi/lib/thumb\libg.a(lib_a-gdtoa-hexnan.o)
 .bss           0x0206bc1c        0x0 c:/ndsdev/devkitpro/devkitarm/bin/../lib/gcc/arm-eabi/4.6.0/../../../../arm-eabi/lib/thumb\libsysbase.a(iosupport.o)
 .bss           0x0206bc1c        0x0 c:/ndsdev/devkitpro/devkitarm/bin/../lib/gcc/arm-eabi/4.6.0/../../../../arm-eabi/lib/thumb\libsysbase.a(close.o)
 .bss           0x0206bc1c        0x0 c:/ndsdev/devkitpro/devkitarm/bin/../lib/gcc/arm-eabi/4.6.0/../../../../arm-eabi/lib/thumb\libsysbase.a(fstat.o)
 .bss           0x0206bc1c        0x0 c:/ndsdev/devkitpro/devkitarm/bin/../lib/gcc/arm-eabi/4.6.0/../../../../arm-eabi/lib/thumb\libsysbase.a(isatty.o)
 .bss           0x0206bc1c        0x0 c:/ndsdev/devkitpro/devkitarm/bin/../lib/gcc/arm-eabi/4.6.0/../../../../arm-eabi/lib/thumb\libsysbase.a(lseek.o)
 .bss           0x0206bc1c        0x0 c:/ndsdev/devkitpro/devkitarm/bin/../lib/gcc/arm-eabi/4.6.0/../../../../arm-eabi/lib/thumb\libsysbase.a(open.o)
 .bss           0x0206bc1c        0x0 c:/ndsdev/devkitpro/devkitarm/bin/../lib/gcc/arm-eabi/4.6.0/../../../../arm-eabi/lib/thumb\libsysbase.a(read.o)
 .bss           0x0206bc1c        0x4 c:/ndsdev/devkitpro/devkitarm/bin/../lib/gcc/arm-eabi/4.6.0/../../../../arm-eabi/lib/thumb\libsysbase.a(sbrk.o)
 .bss           0x0206bc20        0x0 c:/ndsdev/devkitpro/devkitarm/bin/../lib/gcc/arm-eabi/4.6.0/../../../../arm-eabi/lib/thumb\libsysbase.a(stat.o)
 .bss           0x0206bc20        0x0 c:/ndsdev/devkitpro/devkitarm/bin/../lib/gcc/arm-eabi/4.6.0/../../../../arm-eabi/lib/thumb\libsysbase.a(times.o)
 .bss           0x0206bc20        0x0 c:/ndsdev/devkitpro/devkitarm/bin/../lib/gcc/arm-eabi/4.6.0/../../../../arm-eabi/lib/thumb\libsysbase.a(unlink.o)
 .bss           0x0206bc20        0x0 c:/ndsdev/devkitpro/devkitarm/bin/../lib/gcc/arm-eabi/4.6.0/../../../../arm-eabi/lib/thumb\libsysbase.a(write.o)
 .bss           0x0206bc20        0x8 c:/ndsdev/devkitpro/devkitarm/bin/../lib/gcc/arm-eabi/4.6.0/../../../../arm-eabi/lib/thumb\libsysbase.a(malloc_vars.o)
                0x0206bc20                fake_heap_start
                0x0206bc24                fake_heap_end
 .bss           0x0206bc28        0x0 c:/ndsdev/devkitpro/devkitarm/bin/../lib/gcc/arm-eabi/4.6.0/../../../../arm-eabi/lib/thumb\libsysbase.a(chdir.o)
 .bss           0x0206bc28        0x0 c:/ndsdev/devkitpro/devkitarm/bin/../lib/gcc/arm-eabi/4.6.0/../../../../arm-eabi/lib/thumb\libsysbase.a(mkdir.o)
 .bss           0x0206bc28        0x0 c:/ndsdev/devkitpro/devkitarm/bin/../lib/gcc/arm-eabi/4.6.0/../../../../arm-eabi/lib/thumb\libsysbase.a(rename.o)
 .bss           0x0206bc28        0x0 c:/ndsdev/devkitpro/devkitarm/bin/../lib/gcc/arm-eabi/4.6.0/../../../../arm-eabi/lib/thumb\libsysbase.a(build_argv.o)
 .bss           0x0206bc28        0x8 c:/ndsdev/devkitpro/devkitarm/bin/../lib/gcc/arm-eabi/4.6.0/../../../../arm-eabi/lib/thumb\libsysbase.a(syscall_support.o)
                0x0206bc28                __syscalls
 .bss           0x0206bc30     0x1000 c:/ndsdev/devkitpro/devkitarm/bin/../lib/gcc/arm-eabi/4.6.0/../../../../arm-eabi/lib/thumb\libsysbase.a(handle_manager.o)
 .bss           0x0206cc30        0x0 c:/ndsdev/devkitpro/devkitarm/bin/../lib/gcc/arm-eabi/4.6.0/../../../../arm-eabi/lib/thumb\libsysbase.a(dirent.o)
 .bss           0x0206cc30        0x0 c:/ndsdev/devkitpro/devkitarm/bin/../lib/gcc/arm-eabi/4.6.0/thumb\libgcc.a(_arm_fixunsdfsi.o)
 .bss           0x0206cc30        0x0 c:/ndsdev/devkitpro/devkitarm/bin/../lib/gcc/arm-eabi/4.6.0/thumb\libgcc.a(_arm_truncdfsf2.o)
 .bss           0x0206cc30        0x0 c:/ndsdev/devkitpro/devkitarm/bin/../lib/gcc/arm-eabi/4.6.0/thumb\libgcc.a(_aeabi_uldivmod.o)
 .bss           0x0206cc30        0x0 c:/ndsdev/devkitpro/devkitarm/bin/../lib/gcc/arm-eabi/4.6.0/thumb\libgcc.a(bpabi.o)
 .bss           0x0206cc30        0x0 c:/ndsdev/devkitpro/devkitarm/bin/../lib/gcc/arm-eabi/4.6.0/thumb\libgcc.a(unwind-arm.o)
 .bss           0x0206cc30        0x0 c:/ndsdev/devkitpro/devkitarm/bin/../lib/gcc/arm-eabi/4.6.0/thumb\libgcc.a(libunwind.o)
 .bss           0x0206cc30        0x0 c:/ndsdev/devkitpro/devkitarm/bin/../lib/gcc/arm-eabi/4.6.0/thumb\libgcc.a(pr-support.o)
 .bss           0x0206cc30        0x0 c:/ndsdev/devkitpro/devkitarm/bin/../lib/gcc/arm-eabi/4.6.0/thumb\libgcc.a(_divdi3.o)
 .bss           0x0206cc30        0x0 c:/ndsdev/devkitpro/devkitarm/bin/../lib/gcc/arm-eabi/4.6.0/thumb\libgcc.a(_udivdi3.o)
 .bss           0x0206cc30        0x0 c:/ndsdev/devkitpro/devkitarm/bin/../lib/gcc/arm-eabi/4.6.0/thumb\libgcc.a(_clzsi2.o)
 .bss           0x0206cc30        0x0 c:/ndsdev/devkitpro/devkitarm/bin/../lib/gcc/arm-eabi/4.6.0/../../../../arm-eabi/lib/thumb\libg.a(lib_a-abort.o)
 .bss           0x0206cc30        0x0 c:/ndsdev/devkitpro/devkitarm/bin/../lib/gcc/arm-eabi/4.6.0/../../../../arm-eabi/lib/thumb\libg.a(lib_a-signal.o)
 .bss           0x0206cc30        0x0 c:/ndsdev/devkitpro/devkitarm/bin/../lib/gcc/arm-eabi/4.6.0/../../../../arm-eabi/lib/thumb\libsysbase.a(getpid.o)
 .bss           0x0206cc30        0x0 c:/ndsdev/devkitpro/devkitarm/bin/../lib/gcc/arm-eabi/4.6.0/../../../../arm-eabi/lib/thumb\libsysbase.a(kill.o)
 .bss           0x0206cc30        0x0 c:/ndsdev/devkitpro/devkitarm/bin/../lib/gcc/arm-eabi/4.6.0/../../../../arm-eabi/lib/thumb\libsysbase.a(_exit.o)
 .bss           0x0206cc30        0x0 c:/ndsdev/devkitpro/devkitarm/bin/../lib/gcc/arm-eabi/4.6.0/thumb/crtend.o
 .bss           0x0206cc30        0x0 c:/ndsdev/devkitpro/devkitarm/bin/../lib/gcc/arm-eabi/4.6.0/thumb/crtn.o
 *(COMMON)
 COMMON         0x0206cc30    0x106d0 FileManage.o
                0x0206cc30                file_tsize
                0x0206cc34                number_of_files
                0x0206cc38                list
                0x0207ce38                re
                0x0207ce3c                sel_created
                0x0207ce3d                alive
                0x0207ce40                position
                0x0207ce44                ap
                0x0207ce9c                pdir
                0x0207cea0                mode
                0x0207cea4                pent
                0x0207cea8                selected
                0x0207ceac                files
                0x0207ceb0                cur_dir
                0x0207d2b0                rv
                0x0207d2b4                folders
                0x0207d2b8                textheight
                0x0207d2bc                st
 COMMON         0x0207d300        0x8 Main.o
                0x0207d300                xDownloadTaskHandle
                0x0207d304                xShellTaskHandle
 COMMON         0x0207d308       0x48 down_execute.o
                0x0207d308                CHANNELS
 COMMON         0x0207d350   0x200000 download.o
                0x0207d350                XXX_BUF_
 COMMON         0x0227d350        0x8 wifi.o
                0x0227d350                tv
 COMMON         0x0227d358      0x22c c:/ndsdev/devkitPro/PAlib/lib\libpa9.a(PA.o)
                0x0227d358                PA_ScreenSpace
                0x0227d35c                PadPointer
                0x0227d360                pa_checklid
                0x0227d364                PA_IPC
                0x0227d4fc                Pad
                0x0227d524                Stylus
                0x0227d540                PA_bgmap
                0x0227d560                PA_GifInfo
                0x0227d574                PA_MovedSprite
 COMMON         0x0227d584      0x3d0 c:/ndsdev/devkitPro/PAlib/lib\libpa9.a(PA_BgTiles.o)
                0x0227d584                PA_parallaxY
                0x0227d5a4                PA_parallaxX
                0x0227d5c4                tempsize
                0x0227d5c8                charblocks
                0x0227d654                PA_BgInfo
                0x0227d874                scrollpos
 COMMON         0x0227d954       0x50 c:/ndsdev/devkitPro/PAlib/lib\libpa9.a(PA_Interrupt.o)
                0x0227d954                PA_VBLCounter
                0x0227d994                PA_VBLCounterOn
 COMMON         0x0227d9a4       0x12 c:/ndsdev/devkitPro/PAlib/lib\libpa9.a(PA_Keyboard.o)
                0x0227d9a4                PA_Keyboard_Struct
 COMMON         0x0227d9b6        0x1 c:/ndsdev/devkitPro/PAlib/lib\libpa9.a(PA_Keys.o)
                0x0227d9b6                _PA_LidDown
 *fill*         0x0227d9b7        0x1 00
 COMMON         0x0227d9b8        0x4 c:/ndsdev/devkitPro/PAlib/lib\libpa9.a(PA_Palette.o)
                0x0227d9b8                PA_ExtPal
 COMMON         0x0227d9bc       0x5a c:/ndsdev/devkitPro/PAlib/lib\libpa9.a(PA_RTC.o)
                0x0227d9bc                PA_RTC
                0x0227d9c4                PA_UserInfo
 *fill*         0x0227da16        0x2 00
 COMMON         0x0227da18     0xa9bc c:/ndsdev/devkitPro/PAlib/lib\libpa9.a(PA_Reco.o)
                0x0227da18                PA_Reco
                0x0227da24                PA_RecoInfo
                0x0227da3c                PA_StylusPos
                0x0228767c                PA_CustomShape
                0x022883c4                PA_RecoShape
 COMMON         0x022883d4     0x8204 c:/ndsdev/devkitPro/PAlib/lib\libpa9.a(PA_Sprite.o)
                0x022883d4                free_mem
                0x0228a3d4                n_free_mem
                0x0228a3d8                PA_SpritePrio
                0x0228a4d8                used_mem
                0x0228acd8                spriteanims
                0x0228d0d8                PA_SpriteAnimP
                0x0228f0d8                PA_first
                0x0228f2d8                PA_next
                0x0228f3d8                obj_per_gfx
                0x0228fbd8                PA_obj
                0x022903d8                DualSpriteX
                0x022904d8                pa_obj_created
 COMMON         0x022905d8       0x3c c:/ndsdev/devkitPro/PAlib/lib\libpa9.a(PA_Text.o)
                0x022905d8                PA_texttiles
                0x022905e0                PA_TextBox
                0x022905e8                PAbgtext
                0x022905ec                pa_printx
                0x022905f4                pa_printy
                0x022905fc                textcol
                0x02290600                pa_printscroll
                0x02290604                PA_textpal
                0x0229060c                PA_textmap
 COMMON         0x02290614     0x301a c:/ndsdev/devkitPro/PAlib/lib\libpa9.a(PA_TextBits.o)
                0x02290614                PA_LetterPos
                0x02293618                pa_bittextpoliceheight
                0x02293624                pa_bittextsizes
 *fill*         0x0229362e        0x2 00
 COMMON         0x02293630       0x10 c:/ndsdev/devkitPro/PAlib/lib\libpa9.a(PA_16c.o)
                0x02293630                PA_Draw16
                0x02293638                PA_Draw1632
 COMMON         0x02293640        0x8 c:/ndsdev/devkitPro/PAlib/lib\libpa9.a(PA_BgRot.o)
                0x02293640                rotbg_size
 COMMON         0x02293648      0x226 c:/ndsdev/devkitPro/PAlib/lib\libpa9.a(PA_Draw.o)
                0x02293648                PA_olddowntime
                0x0229364c                PA_DrawBg32
                0x02293654                PA_DrawBg
                0x0229365c                PA_oldx
                0x02293660                PA_drawsize
                0x02293664                PA_oldy
                0x02293668                tempvar
                0x0229366c                PA_temppal
                0x0229386c                PA_nBit
 *fill*         0x0229386e        0x2 00
 COMMON         0x02293870      0x148 c:/ndsdev/devkitPro/libnds/lib\libnds9.a(background.o)
                0x02293870                bgState
                0x022939b0                bgIsTextLut
 COMMON         0x022939b8       0x5c c:/ndsdev/devkitPro/libnds/lib\libnds9.a(console.o)
                0x022939b8                currentCopy
 COMMON         0x02293a14        0x1 c:/ndsdev/devkitPro/libnds/lib\libnds9.a(initSystem.o)
                0x02293a14                __dsimode
 *fill*         0x02293a15        0x3 00
 COMMON         0x02293a18      0xa40 c:/ndsdev/devkitPro/libnds/lib\libnds9.a(fifosystem.o)
                0x02293a18                fifo_datamsg_data
                0x02293a58                fifo_buffer
                0x02294258                fifo_value32_func
                0x02294298                fifo_address_func
                0x022942d8                fifo_value32_data
                0x02294318                fifo_value32_queue
                0x02294358                fifo_data_queue
                0x02294398                fifo_address_data
                0x022943d8                fifo_datamsg_func
                0x02294418                fifo_address_queue
 COMMON         0x02294458     0x5cb4 c:/ndsdev/devkitPro/libnds/lib\libdswifi9.a(sgIP_DNS.o)
                0x02294458                dnsrecord_return
                0x0229497c                time_count
                0x02294980                alias_list
                0x02294994                querydata
                0x02294b94                responsedata
                0x02294d94                dnsrecords
                0x02299fd4                ipaddr_ip
                0x02299fd8                query_time_start
                0x02299fdc                addr_list
                0x02299ff0                ipaddr_alias
                0x0229a0f0                dns_sock
                0x0229a0f4                last_id
                0x0229a0f8                dnsrecord_hostent
 COMMON         0x0229a10c       0x40 c:/ndsdev/devkitPro/libnds/lib\libdswifi9.a(sgIP_Hub.o)
                0x0229a10c                ProtocolInterfaces
                0x0229a114                NumHWInterfaces
                0x0229a118                HWInterfaces
                0x0229a148                NumProtocolInterfaces
 COMMON         0x0229a14c      0x100 c:/ndsdev/devkitPro/libnds/lib\libdswifi9.a(sgIP_sockets.o)
                0x0229a14c                socketlist
 COMMON         0x0229a24c     0x9fac c:/ndsdev/devkitPro/libnds/lib\libdswifi9.a(wifi_arm9.o)
                0x0229a24c                Wifi_Data_Struct
                0x022a4190                wifi_hw
                0x022a4194                wHeapsize
                0x022a4198                wHeapFirst
                0x022a419c                wifi_connect_point
                0x022a41f4                wHeapStart
 COMMON         0x022a41f8       0x10 c:/ndsdev/devkitPro/libnds/lib\libdswifi9.a(sgIP.o)
                0x022a41f8                count_100ms
                0x022a41fc                count_1000ms
                0x022a4200                sgIP_timems
                0x022a4204                sgIP_errno
 COMMON         0x022a4208      0x400 c:/ndsdev/devkitPro/libnds/lib\libdswifi9.a(sgIP_ARP.o)
                0x022a4208                ArpRecords
 COMMON         0x022a4608       0x84 c:/ndsdev/devkitPro/libnds/lib\libdswifi9.a(sgIP_DHCP.o)
                0x022a4608                dhcp_rcvd_dns
                0x022a4614                dhcp_rcvd_snmask
                0x022a4618                dhcp_state
                0x022a461c                dhcp_p
                0x022a4620                dhcp_optionptr
                0x022a4624                dhcp_int
                0x022a4628                dhcp_rcvd_ip
                0x022a462c                dhcp_hostname
                0x022a466c                dhcp_serverip
                0x022a4670                dhcp_tid
                0x022a4674                dhcp_requestDNS
                0x022a4678                dhcp_socket
                0x022a467c                dhcp_timestart
                0x022a4680                dhcp_status
                0x022a4684                dhcp_rcvd_gateway
                0x022a4688                dhcp_timelastaction
 COMMON         0x022a468c        0x4 c:/ndsdev/devkitPro/libnds/lib\libdswifi9.a(sgIP_IP.o)
                0x022a468c                idnum_count
 COMMON         0x022a4690      0x810 c:/ndsdev/devkitPro/libnds/lib\libdswifi9.a(sgIP_TCP.o)
                0x022a4690                tcprecords
                0x022a4694                lasttime
                0x022a4698                port_counter
                0x022a469c                numsynlist
                0x022a46a0                synlist
 COMMON         0x022a4ea0        0x8 c:/ndsdev/devkitPro/libnds/lib\libdswifi9.a(sgIP_UDP.o)
                0x022a4ea0                udpport_counter
                0x022a4ea4                udprecords
 COMMON         0x022a4ea8      0x100 c:/ndsdev/devkitpro/devkitarm/bin/../lib/gcc/arm-eabi/4.6.0/../../../../arm-eabi/lib/thumb\libg.a(lib_a-gdtoa-gethex.o)
                0x022a4ea8                __hexdig
 COMMON         0x022a4fa8        0x4 c:/ndsdev/devkitpro/devkitarm/bin/../lib/gcc/arm-eabi/4.6.0/../../../../arm-eabi/lib/thumb\libsysbase.a(times.o)
                0x022a4fa8                punixTime
                0x022a4fac                . = ALIGN (0x4)
                0x022a4fac                __bss_end__ = ABSOLUTE (.)
                0x022a4fac                __end__ = ABSOLUTE (.)

.stab
 *(.stab)

.stabstr
 *(.stabstr)

.stab.excl
 *(.stab.excl)

.stab.exclstr
 *(.stab.exclstr)

.stab.index
 *(.stab.index)

.stab.indexstr
 *(.stab.indexstr)

.ARM.attributes
                0x00000000       0x2d load address 0x0206b4c4
 .ARM.attributes
                0x00000000       0x23 c:/ndsdev/devkitpro/devkitarm/bin/../lib/gcc/arm-eabi/4.6.0/../../../../arm-eabi/lib/thumb/ds_arm9_crt0.o
 .ARM.attributes
                0x00000023       0x24 c:/ndsdev/devkitpro/devkitarm/bin/../lib/gcc/arm-eabi/4.6.0/thumb/crti.o
 .ARM.attributes
                0x00000047       0x32 c:/ndsdev/devkitpro/devkitarm/bin/../lib/gcc/arm-eabi/4.6.0/thumb/crtbegin.o
 .ARM.attributes
                0x00000079       0x16 bg_create_Map.o
 .ARM.attributes
                0x0000008f       0x16 bg_create_Pal.o
 .ARM.attributes
                0x000000a5       0x16 bg_create_Tiles.o
 .ARM.attributes
                0x000000bb       0x16 bg_dialog_Map.o
 .ARM.attributes
                0x000000d1       0x16 bg_dialog_Pal.o
 .ARM.attributes
                0x000000e7       0x16 bg_dialog_Tiles.o
 .ARM.attributes
                0x000000fd       0x16 bg_down_Map.o
 .ARM.attributes
                0x00000113       0x16 bg_down_Pal.o
 .ARM.attributes
                0x00000129       0x16 bg_down_Sprite.o
 .ARM.attributes
                0x0000013f       0x16 bg_down_Tiles.o
 .ARM.attributes
                0x00000155       0x16 bg_edit_dialog_Map.o
 .ARM.attributes
                0x0000016b       0x16 bg_edit_dialog_Pal.o
 .ARM.attributes
                0x00000181       0x16 bg_edit_dialog_Tiles.o
 .ARM.attributes
                0x00000197       0x16 bg_up_Map.o
 .ARM.attributes
                0x000001ad       0x16 bg_up_Pal.o
 .ARM.attributes
                0x000001c3       0x16 bg_up_Tiles.o
 .ARM.attributes
                0x000001d9       0x16 menu_del_Pal.o
 .ARM.attributes
                0x000001ef       0x16 menu_del_Sprite.o
 .ARM.attributes
                0x00000205       0x16 menu_move_Pal.o
 .ARM.attributes
                0x0000021b       0x16 menu_move_Sprite.o
 .ARM.attributes
                0x00000231       0x16 menu_serial_Pal.o
 .ARM.attributes
                0x00000247       0x16 menu_serial_Sprite.o
 .ARM.attributes
                0x0000025d       0x16 menu_setting_Pal.o
 .ARM.attributes
                0x00000273       0x16 menu_setting_Sprite.o
 .ARM.attributes
                0x00000289       0x16 menu_usb_Pal.o
 .ARM.attributes
                0x0000029f       0x16 menu_usb_Sprite.o
 .ARM.attributes
                0x000002b5       0x16 menu_wifi_Pal.o
 .ARM.attributes
                0x000002cb       0x16 menu_wifi_Sprite.o
 .ARM.attributes
                0x000002e1       0x16 move_create_Pal.o
 .ARM.attributes
                0x000002f7       0x16 move_create_Sprite.o
 .ARM.attributes
                0x0000030d       0x16 sel_menu_serial_Pal.o
 .ARM.attributes
                0x00000323       0x16 sel_menu_serial_Sprite.o
 .ARM.attributes
                0x00000339       0x16 sel_menu_usb_Pal.o
 .ARM.attributes
                0x0000034f       0x16 sel_menu_usb_Sprite.o
 .ARM.attributes
                0x00000365       0x16 sel_menu_wifi_Pal.o
 .ARM.attributes
                0x0000037b       0x16 sel_menu_wifi_Sprite.o
 .ARM.attributes
                0x00000391       0x16 selected_Pal.o
 .ARM.attributes
                0x000003a7       0x16 selected_Sprite.o
 .ARM.attributes
                0x000003bd       0x22 down.o
 .ARM.attributes
                0x000003df       0x22 up.o
 .ARM.attributes
                0x00000401       0x29 FileManage.o
 .ARM.attributes
                0x0000042a       0x29 Graphic.o
 .ARM.attributes
                0x00000453       0x29 Main.o
 .ARM.attributes
                0x0000047c       0x29 down_execute.o
 .ARM.attributes
                0x000004a5       0x29 download.o
 .ARM.attributes
                0x000004ce       0x29 serial.o
 .ARM.attributes
                0x000004f7       0x29 usb.o
 .ARM.attributes
                0x00000520       0x29 wifi.o
 .ARM.attributes
                0x00000549       0x29 croutine.o
 .ARM.attributes
                0x00000572       0x29 heap.o
 .ARM.attributes
                0x0000059b       0x29 list.o
 .ARM.attributes
                0x000005c4       0x29 port.o
 .ARM.attributes
                0x000005ed       0x29 portISR.o
 .ARM.attributes
                0x00000616       0x29 queue.o
 .ARM.attributes
                0x0000063f       0x29 tasks.o
 .ARM.attributes
                0x00000668       0x29 virtual_io.o
 .ARM.attributes
                0x00000691       0x29 bg_create.o
 .ARM.attributes
                0x000006ba       0x29 bg_dialog.o
 .ARM.attributes
                0x000006e3       0x29 bg_down.o
 .ARM.attributes
                0x0000070c       0x29 bg_edit_dialog.o
 .ARM.attributes
                0x00000735       0x29 bg_up.o
 .ARM.attributes
                0x0000075e       0x23 jump.o
 .ARM.attributes
                0x00000781       0x22 assemfunc.o
 .ARM.attributes
                0x000007a3       0x27 c:/ndsdev/devkitPro/PAlib/lib\libpa9.a(PA.o)
 .ARM.attributes
                0x000007ca       0x27 c:/ndsdev/devkitPro/PAlib/lib\libpa9.a(PA_BgTiles.o)
 .ARM.attributes
                0x000007f1       0x27 c:/ndsdev/devkitPro/PAlib/lib\libpa9.a(PA_Error.o)
 .ARM.attributes
                0x00000818       0x27 c:/ndsdev/devkitPro/PAlib/lib\libpa9.a(PA_Inits.o)
 .ARM.attributes
                0x0000083f       0x27 c:/ndsdev/devkitPro/PAlib/lib\libpa9.a(PA_Interrupt.o)
 .ARM.attributes
                0x00000866       0x27 c:/ndsdev/devkitPro/PAlib/lib\libpa9.a(PA_Keyboard.o)
 .ARM.attributes
                0x0000088d       0x27 c:/ndsdev/devkitPro/PAlib/lib\libpa9.a(PA_Keys.o)
 .ARM.attributes
                0x000008b4       0x27 c:/ndsdev/devkitPro/PAlib/lib\libpa9.a(PA_Math.o)
 .ARM.attributes
                0x000008db       0x27 c:/ndsdev/devkitPro/PAlib/lib\libpa9.a(PA_NewBg.o)
 .ARM.attributes
                0x00000902       0x27 c:/ndsdev/devkitPro/PAlib/lib\libpa9.a(PA_Palette.o)
 .ARM.attributes
                0x00000929       0x27 c:/ndsdev/devkitPro/PAlib/lib\libpa9.a(PA_RTC.o)
 .ARM.attributes
                0x00000950       0x27 c:/ndsdev/devkitPro/PAlib/lib\libpa9.a(PA_Reco.o)
 .ARM.attributes
                0x00000977       0x27 c:/ndsdev/devkitPro/PAlib/lib\libpa9.a(PA_Sprite.o)
 .ARM.attributes
                0x0000099e       0x27 c:/ndsdev/devkitPro/PAlib/lib\libpa9.a(PA_Stuff.o)
 .ARM.attributes
                0x000009c5       0x27 c:/ndsdev/devkitPro/PAlib/lib\libpa9.a(PA_Text.o)
 .ARM.attributes
                0x000009ec       0x27 c:/ndsdev/devkitPro/PAlib/lib\libpa9.a(PA_Text8bit.o)
 .ARM.attributes
                0x00000a13       0x27 c:/ndsdev/devkitPro/PAlib/lib\libpa9.a(PA_TextBits.o)
 .ARM.attributes
                0x00000a3a       0x27 c:/ndsdev/devkitPro/PAlib/lib\libpa9.a(PA_TextSpecial.o)
 .ARM.attributes
                0x00000a61       0x27 c:/ndsdev/devkitPro/PAlib/lib\libpa9.a(PA_Wifi.o)
 .ARM.attributes
                0x00000a88       0x27 c:/ndsdev/devkitPro/PAlib/lib\libpa9.a(keyboard.map.o)
 .ARM.attributes
                0x00000aaf       0x27 c:/ndsdev/devkitPro/PAlib/lib\libpa9.a(keyboard.pal.o)
 .ARM.attributes
                0x00000ad6       0x27 c:/ndsdev/devkitPro/PAlib/lib\libpa9.a(keyboard.raw.o)
 .ARM.attributes
                0x00000afd       0x27 c:/ndsdev/devkitPro/PAlib/lib\libpa9.a(PA_TiledFont.o)
 .ARM.attributes
                0x00000b24       0x27 c:/ndsdev/devkitPro/PAlib/lib\libpa9.a(PA_BmpFont0.o)
 .ARM.attributes
                0x00000b4b       0x27 c:/ndsdev/devkitPro/PAlib/lib\libpa9.a(PA_BmpFont1.o)
 .ARM.attributes
                0x00000b72       0x27 c:/ndsdev/devkitPro/PAlib/lib\libpa9.a(PA_BmpFont2.o)
 .ARM.attributes
                0x00000b99       0x27 c:/ndsdev/devkitPro/PAlib/lib\libpa9.a(PA_BmpFont3.o)
 .ARM.attributes
                0x00000bc0       0x27 c:/ndsdev/devkitPro/PAlib/lib\libpa9.a(PA_BmpFont4.o)
 .ARM.attributes
                0x00000be7       0x14 c:/ndsdev/devkitPro/PAlib/lib\libpa9.a(PA_TiledFont_Map.bin.o)
 .ARM.attributes
                0x00000bfb       0x14 c:/ndsdev/devkitPro/PAlib/lib\libpa9.a(PA_TiledFont_Pal.bin.o)
 .ARM.attributes
                0x00000c0f       0x14 c:/ndsdev/devkitPro/PAlib/lib\libpa9.a(PA_TiledFont_Tiles.bin.o)
 .ARM.attributes
                0x00000c23       0x14 c:/ndsdev/devkitPro/PAlib/lib\libpa9.a(PA_BmpFont0_Map.bin.o)
 .ARM.attributes
                0x00000c37       0x14 c:/ndsdev/devkitPro/PAlib/lib\libpa9.a(PA_BmpFont0_Sizes.bin.o)
 .ARM.attributes
                0x00000c4b       0x14 c:/ndsdev/devkitPro/PAlib/lib\libpa9.a(PA_BmpFont0_Tiles.bin.o)
 .ARM.attributes
                0x00000c5f       0x14 c:/ndsdev/devkitPro/PAlib/lib\libpa9.a(PA_BmpFont1_Map.bin.o)
 .ARM.attributes
                0x00000c73       0x14 c:/ndsdev/devkitPro/PAlib/lib\libpa9.a(PA_BmpFont1_Sizes.bin.o)
 .ARM.attributes
                0x00000c87       0x14 c:/ndsdev/devkitPro/PAlib/lib\libpa9.a(PA_BmpFont1_Tiles.bin.o)
 .ARM.attributes
                0x00000c9b       0x14 c:/ndsdev/devkitPro/PAlib/lib\libpa9.a(PA_BmpFont2_Map.bin.o)
 .ARM.attributes
                0x00000caf       0x14 c:/ndsdev/devkitPro/PAlib/lib\libpa9.a(PA_BmpFont2_Sizes.bin.o)
 .ARM.attributes
                0x00000cc3       0x14 c:/ndsdev/devkitPro/PAlib/lib\libpa9.a(PA_BmpFont2_Tiles.bin.o)
 .ARM.attributes
                0x00000cd7       0x14 c:/ndsdev/devkitPro/PAlib/lib\libpa9.a(PA_BmpFont3_Map.bin.o)
 .ARM.attributes
                0x00000ceb       0x14 c:/ndsdev/devkitPro/PAlib/lib\libpa9.a(PA_BmpFont3_Sizes.bin.o)
 .ARM.attributes
                0x00000cff       0x14 c:/ndsdev/devkitPro/PAlib/lib\libpa9.a(PA_BmpFont3_Tiles.bin.o)
 .ARM.attributes
                0x00000d13       0x14 c:/ndsdev/devkitPro/PAlib/lib\libpa9.a(PA_BmpFont4_Map.bin.o)
 .ARM.attributes
                0x00000d27       0x14 c:/ndsdev/devkitPro/PAlib/lib\libpa9.a(PA_BmpFont4_Sizes.bin.o)
 .ARM.attributes
                0x00000d3b       0x14 c:/ndsdev/devkitPro/PAlib/lib\libpa9.a(PA_BmpFont4_Tiles.bin.o)
 .ARM.attributes
                0x00000d4f       0x27 c:/ndsdev/devkitPro/PAlib/lib\libpa9.a(PA_16c.o)
 .ARM.attributes
                0x00000d76       0x27 c:/ndsdev/devkitPro/PAlib/lib\libpa9.a(PA_BgEasy.o)
 .ARM.attributes
                0x00000d9d       0x27 c:/ndsdev/devkitPro/PAlib/lib\libpa9.a(PA_BgLargeMap.o)
 .ARM.attributes
                0x00000dc4       0x27 c:/ndsdev/devkitPro/PAlib/lib\libpa9.a(PA_BgRot.o)
 .ARM.attributes
                0x00000deb       0x27 c:/ndsdev/devkitPro/PAlib/lib\libpa9.a(PA_Draw.o)
 .ARM.attributes
                0x00000e12       0x27 c:/ndsdev/devkitPro/PAlib/lib\libpa9.a(PA_Fifo.o)
 .ARM.attributes
                0x00000e39       0x27 c:/ndsdev/devkitPro/PAlib/lib\libpa9.a(PA_PaletteEx.o)
 .ARM.attributes
                0x00000e60       0x27 c:/ndsdev/devkitPro/libnds/lib\libfat.a(libfat.o)
 .ARM.attributes
                0x00000e87       0x27 c:/ndsdev/devkitPro/libnds/lib\libfat.a(partition.o)
 .ARM.attributes
                0x00000eae       0x27 c:/ndsdev/devkitPro/libnds/lib\libfat.a(cache.o)
 .ARM.attributes
                0x00000ed5       0x27 c:/ndsdev/devkitPro/libnds/lib\libfat.a(directory.o)
 .ARM.attributes
                0x00000efc       0x27 c:/ndsdev/devkitPro/libnds/lib\libfat.a(disc.o)
 .ARM.attributes
                0x00000f23       0x27 c:/ndsdev/devkitPro/libnds/lib\libfat.a(fatdir.o)
 .ARM.attributes
                0x00000f4a       0x27 c:/ndsdev/devkitPro/libnds/lib\libfat.a(fatfile.o)
 .ARM.attributes
                0x00000f71       0x27 c:/ndsdev/devkitPro/libnds/lib\libfat.a(file_allocation_table.o)
 .ARM.attributes
                0x00000f98       0x27 c:/ndsdev/devkitPro/libnds/lib\libfat.a(filetime.o)
 .ARM.attributes
                0x00000fbf       0x27 c:/ndsdev/devkitPro/libnds/lib\libfat.a(lock.o)
 .ARM.attributes
                0x00000fe6       0x29 c:/ndsdev/devkitPro/libnds/lib\libnds9.a(background.o)
 .ARM.attributes
                0x0000100f       0x29 c:/ndsdev/devkitPro/libnds/lib\libnds9.a(console.o)
 .ARM.attributes
                0x00001038       0x29 c:/ndsdev/devkitPro/libnds/lib\libnds9.a(decompress.o)
 .ARM.attributes
                0x00001061       0x29 c:/ndsdev/devkitPro/libnds/lib\libnds9.a(keys.o)
 .ARM.attributes
                0x0000108a       0x29 c:/ndsdev/devkitPro/libnds/lib\libnds9.a(system.o)
 .ARM.attributes
                0x000010b3       0x29 c:/ndsdev/devkitPro/libnds/lib\libnds9.a(touch.o)
 .ARM.attributes
                0x000010dc       0x29 c:/ndsdev/devkitPro/libnds/lib\libnds9.a(trig.o)
 .ARM.attributes
                0x00001105       0x29 c:/ndsdev/devkitPro/libnds/lib\libnds9.a(video.o)
 .ARM.attributes
                0x0000112e       0x29 c:/ndsdev/devkitPro/libnds/lib\libnds9.a(dldi.o)
 .ARM.attributes
                0x00001157       0x29 c:/ndsdev/devkitPro/libnds/lib\libnds9.a(dsi_sd.o)
 .ARM.attributes
                0x00001180       0x29 c:/ndsdev/devkitPro/libnds/lib\libnds9.a(initSystem.o)
 .ARM.attributes
                0x000011a9       0x29 c:/ndsdev/devkitPro/libnds/lib\libnds9.a(fifosystem.o)
 .ARM.attributes
                0x000011d2       0x29 c:/ndsdev/devkitPro/libnds/lib\libnds9.a(interrupts.o)
 .ARM.attributes
                0x000011fb       0x29 c:/ndsdev/devkitPro/libnds/lib\libnds9.a(libnds_exit.o)
 .ARM.attributes
                0x00001224       0x29 c:/ndsdev/devkitPro/libnds/lib\libnds9.a(syscalls.o)
 .ARM.attributes
                0x0000124d       0x1d c:/ndsdev/devkitPro/libnds/lib\libnds9.a(dcache.o)
 .ARM.attributes
                0x0000126a       0x1d c:/ndsdev/devkitPro/libnds/lib\libnds9.a(dldi_stub.o)
 .ARM.attributes
                0x00001287       0x23 c:/ndsdev/devkitPro/libnds/lib\libnds9.a(mpu_setup.o)
 .ARM.attributes
                0x000012aa       0x1d c:/ndsdev/devkitPro/libnds/lib\libnds9.a(biosCalls.o)
 .ARM.attributes
                0x000012c7       0x1d c:/ndsdev/devkitPro/libnds/lib\libnds9.a(debugprint.o)
 .ARM.attributes
                0x000012e4       0x1d c:/ndsdev/devkitPro/libnds/lib\libnds9.a(interruptDispatcher.o)
 .ARM.attributes
                0x00001301       0x23 c:/ndsdev/devkitPro/libnds/lib\libnds9.a(swiSoftReset.o)
 .ARM.attributes
                0x00001324       0x16 c:/ndsdev/devkitPro/libnds/lib\libnds9.a(default_font.bin.o)
 .ARM.attributes
                0x0000133a       0x27 c:/ndsdev/devkitPro/libnds/lib\libdswifi9.a(sgIP_DNS.o)
 .ARM.attributes
                0x00001361       0x27 c:/ndsdev/devkitPro/libnds/lib\libdswifi9.a(sgIP_Hub.o)
 .ARM.attributes
                0x00001388       0x27 c:/ndsdev/devkitPro/libnds/lib\libdswifi9.a(sgIP_memblock.o)
 .ARM.attributes
                0x000013af       0x27 c:/ndsdev/devkitPro/libnds/lib\libdswifi9.a(sgIP_sockets.o)
 .ARM.attributes
                0x000013d6       0x27 c:/ndsdev/devkitPro/libnds/lib\libdswifi9.a(wifi_arm9.o)
 .ARM.attributes
                0x000013fd       0x20 c:/ndsdev/devkitPro/libnds/lib\libdswifi9.a(spinlock.o)
 .ARM.attributes
                0x0000141d       0x27 c:/ndsdev/devkitPro/libnds/lib\libdswifi9.a(sgIP.o)
 .ARM.attributes
                0x00001444       0x27 c:/ndsdev/devkitPro/libnds/lib\libdswifi9.a(sgIP_ARP.o)
 .ARM.attributes
                0x0000146b       0x27 c:/ndsdev/devkitPro/libnds/lib\libdswifi9.a(sgIP_DHCP.o)
 .ARM.attributes
                0x00001492       0x27 c:/ndsdev/devkitPro/libnds/lib\libdswifi9.a(sgIP_IP.o)
 .ARM.attributes
                0x000014b9       0x27 c:/ndsdev/devkitPro/libnds/lib\libdswifi9.a(sgIP_TCP.o)
 .ARM.attributes
                0x000014e0       0x27 c:/ndsdev/devkitPro/libnds/lib\libdswifi9.a(sgIP_UDP.o)
 .ARM.attributes
                0x00001507       0x27 c:/ndsdev/devkitPro/libnds/lib\libdswifi9.a(sgIP_ICMP.o)
 .ARM.attributes
                0x0000152e       0x24 c:/ndsdev/devkitpro/devkitarm/bin/../lib/gcc/arm-eabi/4.6.0/thumb\libgcc.a(_udivsi3.o)
 .ARM.attributes
                0x00001552       0x24 c:/ndsdev/devkitpro/devkitarm/bin/../lib/gcc/arm-eabi/4.6.0/thumb\libgcc.a(_divsi3.o)
 .ARM.attributes
                0x00001576       0x24 c:/ndsdev/devkitpro/devkitarm/bin/../lib/gcc/arm-eabi/4.6.0/thumb\libgcc.a(_dvmd_tls.o)
 .ARM.attributes
                0x0000159a       0x24 c:/ndsdev/devkitpro/devkitarm/bin/../lib/gcc/arm-eabi/4.6.0/thumb\libgcc.a(_arm_addsubdf3.o)
 .ARM.attributes
                0x000015be       0x24 c:/ndsdev/devkitpro/devkitarm/bin/../lib/gcc/arm-eabi/4.6.0/thumb\libgcc.a(_arm_muldivdf3.o)
 .ARM.attributes
                0x000015e2       0x24 c:/ndsdev/devkitpro/devkitarm/bin/../lib/gcc/arm-eabi/4.6.0/thumb\libgcc.a(_arm_cmpdf2.o)
 .ARM.attributes
                0x00001606       0x24 c:/ndsdev/devkitpro/devkitarm/bin/../lib/gcc/arm-eabi/4.6.0/thumb\libgcc.a(_arm_fixdfsi.o)
 .ARM.attributes
                0x0000162a       0x32 c:/ndsdev/devkitpro/devkitarm/bin/../lib/gcc/arm-eabi/4.6.0/thumb\libgcc.a(_muldi3.o)
 .ARM.attributes
                0x0000165c       0x32 c:/ndsdev/devkitpro/devkitarm/bin/../lib/gcc/arm-eabi/4.6.0/../../../../arm-eabi/lib/thumb\libg.a(lib_a-atoi.o)
 .ARM.attributes
                0x0000168e       0x32 c:/ndsdev/devkitpro/devkitarm/bin/../lib/gcc/arm-eabi/4.6.0/../../../../arm-eabi/lib/thumb\libg.a(lib_a-bsearch.o)
 .ARM.attributes
                0x000016c0       0x32 c:/ndsdev/devkitpro/devkitarm/bin/../lib/gcc/arm-eabi/4.6.0/../../../../arm-eabi/lib/thumb\libg.a(lib_a-ctype_.o)
 .ARM.attributes
                0x000016f2       0x32 c:/ndsdev/devkitpro/devkitarm/bin/../lib/gcc/arm-eabi/4.6.0/../../../../arm-eabi/lib/thumb\libg.a(lib_a-errno.o)
 .ARM.attributes
                0x00001724       0x32 c:/ndsdev/devkitpro/devkitarm/bin/../lib/gcc/arm-eabi/4.6.0/../../../../arm-eabi/lib/thumb\libg.a(lib_a-fclose.o)
 .ARM.attributes
                0x00001756       0x32 c:/ndsdev/devkitpro/devkitarm/bin/../lib/gcc/arm-eabi/4.6.0/../../../../arm-eabi/lib/thumb\libg.a(lib_a-fflush.o)
 .ARM.attributes
                0x00001788       0x32 c:/ndsdev/devkitpro/devkitarm/bin/../lib/gcc/arm-eabi/4.6.0/../../../../arm-eabi/lib/thumb\libg.a(lib_a-fgets.o)
 .ARM.attributes
                0x000017ba       0x32 c:/ndsdev/devkitpro/devkitarm/bin/../lib/gcc/arm-eabi/4.6.0/../../../../arm-eabi/lib/thumb\libg.a(lib_a-findfp.o)
 .ARM.attributes
                0x000017ec       0x32 c:/ndsdev/devkitpro/devkitarm/bin/../lib/gcc/arm-eabi/4.6.0/../../../../arm-eabi/lib/thumb\libg.a(lib_a-fopen.o)
 .ARM.attributes
                0x0000181e       0x32 c:/ndsdev/devkitpro/devkitarm/bin/../lib/gcc/arm-eabi/4.6.0/../../../../arm-eabi/lib/thumb\libg.a(lib_a-fread.o)
 .ARM.attributes
                0x00001850       0x32 c:/ndsdev/devkitpro/devkitarm/bin/../lib/gcc/arm-eabi/4.6.0/../../../../arm-eabi/lib/thumb\libg.a(lib_a-freer.o)
 .ARM.attributes
                0x00001882       0x32 c:/ndsdev/devkitpro/devkitarm/bin/../lib/gcc/arm-eabi/4.6.0/../../../../arm-eabi/lib/thumb\libg.a(lib_a-fseek.o)
 .ARM.attributes
                0x000018b4       0x32 c:/ndsdev/devkitpro/devkitarm/bin/../lib/gcc/arm-eabi/4.6.0/../../../../arm-eabi/lib/thumb\libg.a(lib_a-ftell.o)
 .ARM.attributes
                0x000018e6       0x32 c:/ndsdev/devkitpro/devkitarm/bin/../lib/gcc/arm-eabi/4.6.0/../../../../arm-eabi/lib/thumb\libg.a(lib_a-fwalk.o)
 .ARM.attributes
                0x00001918       0x32 c:/ndsdev/devkitpro/devkitarm/bin/../lib/gcc/arm-eabi/4.6.0/../../../../arm-eabi/lib/thumb\libg.a(lib_a-fwrite.o)
 .ARM.attributes
                0x0000194a       0x32 c:/ndsdev/devkitpro/devkitarm/bin/../lib/gcc/arm-eabi/4.6.0/../../../../arm-eabi/lib/thumb\libg.a(lib_a-gmtime.o)
 .ARM.attributes
                0x0000197c       0x32 c:/ndsdev/devkitpro/devkitarm/bin/../lib/gcc/arm-eabi/4.6.0/../../../../arm-eabi/lib/thumb\libg.a(lib_a-gmtime_r.o)
 .ARM.attributes
                0x000019ae       0x32 c:/ndsdev/devkitpro/devkitarm/bin/../lib/gcc/arm-eabi/4.6.0/../../../../arm-eabi/lib/thumb\libg.a(lib_a-impure.o)
 .ARM.attributes
                0x000019e0       0x32 c:/ndsdev/devkitpro/devkitarm/bin/../lib/gcc/arm-eabi/4.6.0/../../../../arm-eabi/lib/thumb\libg.a(lib_a-init.o)
 .ARM.attributes
                0x00001a12       0x32 c:/ndsdev/devkitpro/devkitarm/bin/../lib/gcc/arm-eabi/4.6.0/../../../../arm-eabi/lib/thumb\libg.a(lib_a-iprintf.o)
 .ARM.attributes
                0x00001a44       0x32 c:/ndsdev/devkitpro/devkitarm/bin/../lib/gcc/arm-eabi/4.6.0/../../../../arm-eabi/lib/thumb\libg.a(lib_a-lcltime_r.o)
 .ARM.attributes
                0x00001a76       0x32 c:/ndsdev/devkitpro/devkitarm/bin/../lib/gcc/arm-eabi/4.6.0/../../../../arm-eabi/lib/thumb\libg.a(lib_a-locale.o)
 .ARM.attributes
                0x00001aa8       0x32 c:/ndsdev/devkitpro/devkitarm/bin/../lib/gcc/arm-eabi/4.6.0/../../../../arm-eabi/lib/thumb\libg.a(lib_a-makebuf.o)
 .ARM.attributes
                0x00001ada       0x32 c:/ndsdev/devkitpro/devkitarm/bin/../lib/gcc/arm-eabi/4.6.0/../../../../arm-eabi/lib/thumb\libg.a(lib_a-malloc.o)
 .ARM.attributes
                0x00001b0c       0x32 c:/ndsdev/devkitpro/devkitarm/bin/../lib/gcc/arm-eabi/4.6.0/../../../../arm-eabi/lib/thumb\libg.a(lib_a-mallocr.o)
 .ARM.attributes
                0x00001b3e       0x32 c:/ndsdev/devkitpro/devkitarm/bin/../lib/gcc/arm-eabi/4.6.0/../../../../arm-eabi/lib/thumb\libg.a(lib_a-mbrtowc.o)
 .ARM.attributes
                0x00001b70       0x32 c:/ndsdev/devkitpro/devkitarm/bin/../lib/gcc/arm-eabi/4.6.0/../../../../arm-eabi/lib/thumb\libg.a(lib_a-mbsrtowcs.o)
 .ARM.attributes
                0x00001ba2       0x32 c:/ndsdev/devkitpro/devkitarm/bin/../lib/gcc/arm-eabi/4.6.0/../../../../arm-eabi/lib/thumb\libg.a(lib_a-mbtowc_r.o)
 .ARM.attributes
                0x00001bd4       0x32 c:/ndsdev/devkitpro/devkitarm/bin/../lib/gcc/arm-eabi/4.6.0/../../../../arm-eabi/lib/thumb\libg.a(lib_a-memchr.o)
 .ARM.attributes
                0x00001c06       0x32 c:/ndsdev/devkitpro/devkitarm/bin/../lib/gcc/arm-eabi/4.6.0/../../../../arm-eabi/lib/thumb\libg.a(lib_a-memcmp.o)
 .ARM.attributes
                0x00001c38       0x32 c:/ndsdev/devkitpro/devkitarm/bin/../lib/gcc/arm-eabi/4.6.0/../../../../arm-eabi/lib/thumb\libg.a(lib_a-memcpy.o)
 .ARM.attributes
                0x00001c6a       0x32 c:/ndsdev/devkitpro/devkitarm/bin/../lib/gcc/arm-eabi/4.6.0/../../../../arm-eabi/lib/thumb\libg.a(lib_a-memmove.o)
 .ARM.attributes
                0x00001c9c       0x32 c:/ndsdev/devkitpro/devkitarm/bin/../lib/gcc/arm-eabi/4.6.0/../../../../arm-eabi/lib/thumb\libg.a(lib_a-memset.o)
 .ARM.attributes
                0x00001cce       0x32 c:/ndsdev/devkitpro/devkitarm/bin/../lib/gcc/arm-eabi/4.6.0/../../../../arm-eabi/lib/thumb\libg.a(lib_a-mktime.o)
 .ARM.attributes
                0x00001d00       0x32 c:/ndsdev/devkitpro/devkitarm/bin/../lib/gcc/arm-eabi/4.6.0/../../../../arm-eabi/lib/thumb\libg.a(lib_a-mktm_r.o)
 .ARM.attributes
                0x00001d32       0x32 c:/ndsdev/devkitpro/devkitarm/bin/../lib/gcc/arm-eabi/4.6.0/../../../../arm-eabi/lib/thumb\libg.a(lib_a-mlock.o)
 .ARM.attributes
                0x00001d64       0x32 c:/ndsdev/devkitpro/devkitarm/bin/../lib/gcc/arm-eabi/4.6.0/../../../../arm-eabi/lib/thumb\libg.a(lib_a-refill.o)
 .ARM.attributes
                0x00001d96       0x32 c:/ndsdev/devkitpro/devkitarm/bin/../lib/gcc/arm-eabi/4.6.0/../../../../arm-eabi/lib/thumb\libg.a(lib_a-remove.o)
 .ARM.attributes
                0x00001dc8       0x32 c:/ndsdev/devkitpro/devkitarm/bin/../lib/gcc/arm-eabi/4.6.0/../../../../arm-eabi/lib/thumb\libg.a(lib_a-rename.o)
 .ARM.attributes
                0x00001dfa       0x32 c:/ndsdev/devkitpro/devkitarm/bin/../lib/gcc/arm-eabi/4.6.0/../../../../arm-eabi/lib/thumb\libg.a(lib_a-setvbuf.o)
 .ARM.attributes
                0x00001e2c       0x32 c:/ndsdev/devkitpro/devkitarm/bin/../lib/gcc/arm-eabi/4.6.0/../../../../arm-eabi/lib/thumb\libg.a(lib_a-siscanf.o)
 .ARM.attributes
                0x00001e5e       0x32 c:/ndsdev/devkitpro/devkitarm/bin/../lib/gcc/arm-eabi/4.6.0/../../../../arm-eabi/lib/thumb\libg.a(lib_a-sprintf.o)
 .ARM.attributes
                0x00001e90       0x32 c:/ndsdev/devkitpro/devkitarm/bin/../lib/gcc/arm-eabi/4.6.0/../../../../arm-eabi/lib/thumb\libg.a(lib_a-sscanf.o)
 .ARM.attributes
                0x00001ec2       0x32 c:/ndsdev/devkitpro/devkitarm/bin/../lib/gcc/arm-eabi/4.6.0/../../../../arm-eabi/lib/thumb\libg.a(lib_a-stdio.o)
 .ARM.attributes
                0x00001ef4       0x32 c:/ndsdev/devkitpro/devkitarm/bin/../lib/gcc/arm-eabi/4.6.0/../../../../arm-eabi/lib/thumb\libg.a(lib_a-strcasecmp.o)
 .ARM.attributes
                0x00001f26       0x32 c:/ndsdev/devkitpro/devkitarm/bin/../lib/gcc/arm-eabi/4.6.0/../../../../arm-eabi/lib/thumb\libg.a(lib_a-strcat.o)
 .ARM.attributes
                0x00001f58       0x32 c:/ndsdev/devkitpro/devkitarm/bin/../lib/gcc/arm-eabi/4.6.0/../../../../arm-eabi/lib/thumb\libg.a(lib_a-strchr.o)
 .ARM.attributes
                0x00001f8a       0x32 c:/ndsdev/devkitpro/devkitarm/bin/../lib/gcc/arm-eabi/4.6.0/../../../../arm-eabi/lib/thumb\libg.a(lib_a-strcmp.o)
 .ARM.attributes
                0x00001fbc       0x32 c:/ndsdev/devkitpro/devkitarm/bin/../lib/gcc/arm-eabi/4.6.0/../../../../arm-eabi/lib/thumb\libg.a(lib_a-strcpy.o)
 .ARM.attributes
                0x00001fee       0x32 c:/ndsdev/devkitpro/devkitarm/bin/../lib/gcc/arm-eabi/4.6.0/../../../../arm-eabi/lib/thumb\libg.a(lib_a-strlcpy.o)
 .ARM.attributes
                0x00002020       0x32 c:/ndsdev/devkitpro/devkitarm/bin/../lib/gcc/arm-eabi/4.6.0/../../../../arm-eabi/lib/thumb\libg.a(lib_a-strlen.o)
 .ARM.attributes
                0x00002052       0x32 c:/ndsdev/devkitpro/devkitarm/bin/../lib/gcc/arm-eabi/4.6.0/../../../../arm-eabi/lib/thumb\libg.a(lib_a-strncasecmp.o)
 .ARM.attributes
                0x00002084       0x32 c:/ndsdev/devkitpro/devkitarm/bin/../lib/gcc/arm-eabi/4.6.0/../../../../arm-eabi/lib/thumb\libg.a(lib_a-strncmp.o)
 .ARM.attributes
                0x000020b6       0x32 c:/ndsdev/devkitpro/devkitarm/bin/../lib/gcc/arm-eabi/4.6.0/../../../../arm-eabi/lib/thumb\libg.a(lib_a-strncpy.o)
 .ARM.attributes
                0x000020e8       0x32 c:/ndsdev/devkitpro/devkitarm/bin/../lib/gcc/arm-eabi/4.6.0/../../../../arm-eabi/lib/thumb\libg.a(lib_a-strnlen.o)
 .ARM.attributes
                0x0000211a       0x32 c:/ndsdev/devkitpro/devkitarm/bin/../lib/gcc/arm-eabi/4.6.0/../../../../arm-eabi/lib/thumb\libg.a(lib_a-strpbrk.o)
 .ARM.attributes
                0x0000214c       0x32 c:/ndsdev/devkitpro/devkitarm/bin/../lib/gcc/arm-eabi/4.6.0/../../../../arm-eabi/lib/thumb\libg.a(lib_a-strrchr.o)
 .ARM.attributes
                0x0000217e       0x32 c:/ndsdev/devkitpro/devkitarm/bin/../lib/gcc/arm-eabi/4.6.0/../../../../arm-eabi/lib/thumb\libg.a(lib_a-strtol.o)
 .ARM.attributes
                0x000021b0       0x32 c:/ndsdev/devkitpro/devkitarm/bin/../lib/gcc/arm-eabi/4.6.0/../../../../arm-eabi/lib/thumb\libg.a(lib_a-svfiscanf.o)
 .ARM.attributes
                0x000021e2       0x32 c:/ndsdev/devkitpro/devkitarm/bin/../lib/gcc/arm-eabi/4.6.0/../../../../arm-eabi/lib/thumb\libg.a(lib_a-svfprintf.o)
 .ARM.attributes
                0x00002214       0x32 c:/ndsdev/devkitpro/devkitarm/bin/../lib/gcc/arm-eabi/4.6.0/../../../../arm-eabi/lib/thumb\libg.a(lib_a-svfscanf.o)
 .ARM.attributes
                0x00002246       0x32 c:/ndsdev/devkitpro/devkitarm/bin/../lib/gcc/arm-eabi/4.6.0/../../../../arm-eabi/lib/thumb\libg.a(lib_a-sysclose.o)
 .ARM.attributes
                0x00002278       0x32 c:/ndsdev/devkitpro/devkitarm/bin/../lib/gcc/arm-eabi/4.6.0/../../../../arm-eabi/lib/thumb\libg.a(lib_a-syslseek.o)
 .ARM.attributes
                0x000022aa       0x32 c:/ndsdev/devkitpro/devkitarm/bin/../lib/gcc/arm-eabi/4.6.0/../../../../arm-eabi/lib/thumb\libg.a(lib_a-sysopen.o)
 .ARM.attributes
                0x000022dc       0x32 c:/ndsdev/devkitpro/devkitarm/bin/../lib/gcc/arm-eabi/4.6.0/../../../../arm-eabi/lib/thumb\libg.a(lib_a-sysread.o)
 .ARM.attributes
                0x0000230e       0x32 c:/ndsdev/devkitpro/devkitarm/bin/../lib/gcc/arm-eabi/4.6.0/../../../../arm-eabi/lib/thumb\libg.a(lib_a-sysstat.o)
 .ARM.attributes
                0x00002340       0x32 c:/ndsdev/devkitpro/devkitarm/bin/../lib/gcc/arm-eabi/4.6.0/../../../../arm-eabi/lib/thumb\libg.a(lib_a-sysunlink.o)
 .ARM.attributes
                0x00002372       0x32 c:/ndsdev/devkitpro/devkitarm/bin/../lib/gcc/arm-eabi/4.6.0/../../../../arm-eabi/lib/thumb\libg.a(lib_a-time.o)
 .ARM.attributes
                0x000023a4       0x32 c:/ndsdev/devkitpro/devkitarm/bin/../lib/gcc/arm-eabi/4.6.0/../../../../arm-eabi/lib/thumb\libg.a(lib_a-towlower.o)
 .ARM.attributes
                0x000023d6       0x32 c:/ndsdev/devkitpro/devkitarm/bin/../lib/gcc/arm-eabi/4.6.0/../../../../arm-eabi/lib/thumb\libg.a(lib_a-towupper.o)
 .ARM.attributes
                0x00002408       0x32 c:/ndsdev/devkitpro/devkitarm/bin/../lib/gcc/arm-eabi/4.6.0/../../../../arm-eabi/lib/thumb\libg.a(lib_a-tzlock.o)
 .ARM.attributes
                0x0000243a       0x32 c:/ndsdev/devkitpro/devkitarm/bin/../lib/gcc/arm-eabi/4.6.0/../../../../arm-eabi/lib/thumb\libg.a(lib_a-tzvars.o)
 .ARM.attributes
                0x0000246c       0x32 c:/ndsdev/devkitpro/devkitarm/bin/../lib/gcc/arm-eabi/4.6.0/../../../../arm-eabi/lib/thumb\libg.a(lib_a-ungetc.o)
 .ARM.attributes
                0x0000249e       0x32 c:/ndsdev/devkitpro/devkitarm/bin/../lib/gcc/arm-eabi/4.6.0/../../../../arm-eabi/lib/thumb\libg.a(lib_a-vfiprintf.o)
 .ARM.attributes
                0x000024d0       0x32 c:/ndsdev/devkitpro/devkitarm/bin/../lib/gcc/arm-eabi/4.6.0/../../../../arm-eabi/lib/thumb\libg.a(lib_a-wcrtomb.o)
 .ARM.attributes
                0x00002502       0x32 c:/ndsdev/devkitpro/devkitarm/bin/../lib/gcc/arm-eabi/4.6.0/../../../../arm-eabi/lib/thumb\libg.a(lib_a-wcsrtombs.o)
 .ARM.attributes
                0x00002534       0x32 c:/ndsdev/devkitpro/devkitarm/bin/../lib/gcc/arm-eabi/4.6.0/../../../../arm-eabi/lib/thumb\libg.a(lib_a-wctob.o)
 .ARM.attributes
                0x00002566       0x32 c:/ndsdev/devkitpro/devkitarm/bin/../lib/gcc/arm-eabi/4.6.0/../../../../arm-eabi/lib/thumb\libg.a(lib_a-wctomb_r.o)
 .ARM.attributes
                0x00002598       0x32 c:/ndsdev/devkitpro/devkitarm/bin/../lib/gcc/arm-eabi/4.6.0/../../../../arm-eabi/lib/thumb\libg.a(lib_a-wsetup.o)
 .ARM.attributes
                0x000025ca       0x32 c:/ndsdev/devkitpro/devkitarm/bin/../lib/gcc/arm-eabi/4.6.0/../../../../arm-eabi/lib/thumb\libg.a(lib_a-div.o)
 .ARM.attributes
                0x000025fc       0x32 c:/ndsdev/devkitpro/devkitarm/bin/../lib/gcc/arm-eabi/4.6.0/../../../../arm-eabi/lib/thumb\libg.a(lib_a-dtoa.o)
 .ARM.attributes
                0x0000262e       0x32 c:/ndsdev/devkitpro/devkitarm/bin/../lib/gcc/arm-eabi/4.6.0/../../../../arm-eabi/lib/thumb\libg.a(lib_a-flags.o)
 .ARM.attributes
                0x00002660       0x32 c:/ndsdev/devkitpro/devkitarm/bin/../lib/gcc/arm-eabi/4.6.0/../../../../arm-eabi/lib/thumb\libg.a(lib_a-fputwc.o)
 .ARM.attributes
                0x00002692       0x32 c:/ndsdev/devkitpro/devkitarm/bin/../lib/gcc/arm-eabi/4.6.0/../../../../arm-eabi/lib/thumb\libg.a(lib_a-fvwrite.o)
 .ARM.attributes
                0x000026c4       0x32 c:/ndsdev/devkitpro/devkitarm/bin/../lib/gcc/arm-eabi/4.6.0/../../../../arm-eabi/lib/thumb\libg.a(lib_a-getenv_r.o)
 .ARM.attributes
                0x000026f6       0x32 c:/ndsdev/devkitpro/devkitarm/bin/../lib/gcc/arm-eabi/4.6.0/../../../../arm-eabi/lib/thumb\libg.a(lib_a-gettzinfo.o)
 .ARM.attributes
                0x00002728       0x32 c:/ndsdev/devkitpro/devkitarm/bin/../lib/gcc/arm-eabi/4.6.0/../../../../arm-eabi/lib/thumb\libg.a(lib_a-iswspace.o)
 .ARM.attributes
                0x0000275a       0x32 c:/ndsdev/devkitpro/devkitarm/bin/../lib/gcc/arm-eabi/4.6.0/../../../../arm-eabi/lib/thumb\libg.a(lib_a-jp2uc.o)
 .ARM.attributes
                0x0000278c       0x32 c:/ndsdev/devkitpro/devkitarm/bin/../lib/gcc/arm-eabi/4.6.0/../../../../arm-eabi/lib/thumb\libg.a(lib_a-mbsnrtowcs.o)
 .ARM.attributes
                0x000027be       0x32 c:/ndsdev/devkitpro/devkitarm/bin/../lib/gcc/arm-eabi/4.6.0/../../../../arm-eabi/lib/thumb\libg.a(lib_a-mprec.o)
 .ARM.attributes
                0x000027f0       0x32 c:/ndsdev/devkitpro/devkitarm/bin/../lib/gcc/arm-eabi/4.6.0/../../../../arm-eabi/lib/thumb\libg.a(lib_a-reallocr.o)
 .ARM.attributes
                0x00002822       0x32 c:/ndsdev/devkitpro/devkitarm/bin/../lib/gcc/arm-eabi/4.6.0/../../../../arm-eabi/lib/thumb\libg.a(lib_a-s_fpclassify.o)
 .ARM.attributes
                0x00002854       0x32 c:/ndsdev/devkitpro/devkitarm/bin/../lib/gcc/arm-eabi/4.6.0/../../../../arm-eabi/lib/thumb\libg.a(lib_a-sccl.o)
 .ARM.attributes
                0x00002886       0x32 c:/ndsdev/devkitpro/devkitarm/bin/../lib/gcc/arm-eabi/4.6.0/../../../../arm-eabi/lib/thumb\libg.a(lib_a-sf_nan.o)
 .ARM.attributes
                0x000028b8       0x32 c:/ndsdev/devkitpro/devkitarm/bin/../lib/gcc/arm-eabi/4.6.0/../../../../arm-eabi/lib/thumb\libg.a(lib_a-strtod.o)
 .ARM.attributes
                0x000028ea       0x32 c:/ndsdev/devkitpro/devkitarm/bin/../lib/gcc/arm-eabi/4.6.0/../../../../arm-eabi/lib/thumb\libg.a(lib_a-strtoll_r.o)
 .ARM.attributes
                0x0000291c       0x32 c:/ndsdev/devkitpro/devkitarm/bin/../lib/gcc/arm-eabi/4.6.0/../../../../arm-eabi/lib/thumb\libg.a(lib_a-strtoul.o)
 .ARM.attributes
                0x0000294e       0x32 c:/ndsdev/devkitpro/devkitarm/bin/../lib/gcc/arm-eabi/4.6.0/../../../../arm-eabi/lib/thumb\libg.a(lib_a-strtoull_r.o)
 .ARM.attributes
                0x00002980       0x32 c:/ndsdev/devkitpro/devkitarm/bin/../lib/gcc/arm-eabi/4.6.0/../../../../arm-eabi/lib/thumb\libg.a(lib_a-svfiprintf.o)
 .ARM.attributes
                0x000029b2       0x32 c:/ndsdev/devkitpro/devkitarm/bin/../lib/gcc/arm-eabi/4.6.0/../../../../arm-eabi/lib/thumb\libg.a(lib_a-wbuf.o)
 .ARM.attributes
                0x000029e4       0x32 c:/ndsdev/devkitpro/devkitarm/bin/../lib/gcc/arm-eabi/4.6.0/../../../../arm-eabi/lib/thumb\libg.a(lib_a-wcsnrtombs.o)
 .ARM.attributes
                0x00002a16       0x32 c:/ndsdev/devkitpro/devkitarm/bin/../lib/gcc/arm-eabi/4.6.0/../../../../arm-eabi/lib/thumb\libg.a(lib_a-callocr.o)
 .ARM.attributes
                0x00002a48       0x32 c:/ndsdev/devkitpro/devkitarm/bin/../lib/gcc/arm-eabi/4.6.0/../../../../arm-eabi/lib/thumb\libg.a(lib_a-environ.o)
 .ARM.attributes
                0x00002a7a       0x32 c:/ndsdev/devkitpro/devkitarm/bin/../lib/gcc/arm-eabi/4.6.0/../../../../arm-eabi/lib/thumb\libg.a(lib_a-envlock.o)
 .ARM.attributes
                0x00002aac       0x32 c:/ndsdev/devkitpro/devkitarm/bin/../lib/gcc/arm-eabi/4.6.0/../../../../arm-eabi/lib/thumb\libg.a(lib_a-gdtoa-gethex.o)
 .ARM.attributes
                0x00002ade       0x32 c:/ndsdev/devkitpro/devkitarm/bin/../lib/gcc/arm-eabi/4.6.0/../../../../arm-eabi/lib/thumb\libg.a(lib_a-gdtoa-hexnan.o)
 .ARM.attributes
                0x00002b10       0x32 c:/ndsdev/devkitpro/devkitarm/bin/../lib/gcc/arm-eabi/4.6.0/../../../../arm-eabi/lib/thumb\libsysbase.a(iosupport.o)
 .ARM.attributes
                0x00002b42       0x32 c:/ndsdev/devkitpro/devkitarm/bin/../lib/gcc/arm-eabi/4.6.0/../../../../arm-eabi/lib/thumb\libsysbase.a(close.o)
 .ARM.attributes
                0x00002b74       0x32 c:/ndsdev/devkitpro/devkitarm/bin/../lib/gcc/arm-eabi/4.6.0/../../../../arm-eabi/lib/thumb\libsysbase.a(fstat.o)
 .ARM.attributes
                0x00002ba6       0x32 c:/ndsdev/devkitpro/devkitarm/bin/../lib/gcc/arm-eabi/4.6.0/../../../../arm-eabi/lib/thumb\libsysbase.a(isatty.o)
 .ARM.attributes
                0x00002bd8       0x32 c:/ndsdev/devkitpro/devkitarm/bin/../lib/gcc/arm-eabi/4.6.0/../../../../arm-eabi/lib/thumb\libsysbase.a(lseek.o)
 .ARM.attributes
                0x00002c0a       0x32 c:/ndsdev/devkitpro/devkitarm/bin/../lib/gcc/arm-eabi/4.6.0/../../../../arm-eabi/lib/thumb\libsysbase.a(open.o)
 .ARM.attributes
                0x00002c3c       0x32 c:/ndsdev/devkitpro/devkitarm/bin/../lib/gcc/arm-eabi/4.6.0/../../../../arm-eabi/lib/thumb\libsysbase.a(read.o)
 .ARM.attributes
                0x00002c6e       0x32 c:/ndsdev/devkitpro/devkitarm/bin/../lib/gcc/arm-eabi/4.6.0/../../../../arm-eabi/lib/thumb\libsysbase.a(sbrk.o)
 .ARM.attributes
                0x00002ca0       0x32 c:/ndsdev/devkitpro/devkitarm/bin/../lib/gcc/arm-eabi/4.6.0/../../../../arm-eabi/lib/thumb\libsysbase.a(stat.o)
 .ARM.attributes
                0x00002cd2       0x32 c:/ndsdev/devkitpro/devkitarm/bin/../lib/gcc/arm-eabi/4.6.0/../../../../arm-eabi/lib/thumb\libsysbase.a(times.o)
 .ARM.attributes
                0x00002d04       0x32 c:/ndsdev/devkitpro/devkitarm/bin/../lib/gcc/arm-eabi/4.6.0/../../../../arm-eabi/lib/thumb\libsysbase.a(unlink.o)
 .ARM.attributes
                0x00002d36       0x32 c:/ndsdev/devkitpro/devkitarm/bin/../lib/gcc/arm-eabi/4.6.0/../../../../arm-eabi/lib/thumb\libsysbase.a(write.o)
 .ARM.attributes
                0x00002d68       0x32 c:/ndsdev/devkitpro/devkitarm/bin/../lib/gcc/arm-eabi/4.6.0/../../../../arm-eabi/lib/thumb\libsysbase.a(malloc_vars.o)
 .ARM.attributes
                0x00002d9a       0x32 c:/ndsdev/devkitpro/devkitarm/bin/../lib/gcc/arm-eabi/4.6.0/../../../../arm-eabi/lib/thumb\libsysbase.a(chdir.o)
 .ARM.attributes
                0x00002dcc       0x32 c:/ndsdev/devkitpro/devkitarm/bin/../lib/gcc/arm-eabi/4.6.0/../../../../arm-eabi/lib/thumb\libsysbase.a(mkdir.o)
 .ARM.attributes
                0x00002dfe       0x32 c:/ndsdev/devkitpro/devkitarm/bin/../lib/gcc/arm-eabi/4.6.0/../../../../arm-eabi/lib/thumb\libsysbase.a(rename.o)
 .ARM.attributes
                0x00002e30       0x32 c:/ndsdev/devkitpro/devkitarm/bin/../lib/gcc/arm-eabi/4.6.0/../../../../arm-eabi/lib/thumb\libsysbase.a(build_argv.o)
 .ARM.attributes
                0x00002e62       0x32 c:/ndsdev/devkitpro/devkitarm/bin/../lib/gcc/arm-eabi/4.6.0/../../../../arm-eabi/lib/thumb\libsysbase.a(syscall_support.o)
 .ARM.attributes
                0x00002e94       0x32 c:/ndsdev/devkitpro/devkitarm/bin/../lib/gcc/arm-eabi/4.6.0/../../../../arm-eabi/lib/thumb\libsysbase.a(handle_manager.o)
 .ARM.attributes
                0x00002ec6       0x32 c:/ndsdev/devkitpro/devkitarm/bin/../lib/gcc/arm-eabi/4.6.0/../../../../arm-eabi/lib/thumb\libsysbase.a(dirent.o)
 .ARM.attributes
                0x00002ef8       0x24 c:/ndsdev/devkitpro/devkitarm/bin/../lib/gcc/arm-eabi/4.6.0/thumb\libgcc.a(_arm_fixunsdfsi.o)
 .ARM.attributes
                0x00002f1c       0x24 c:/ndsdev/devkitpro/devkitarm/bin/../lib/gcc/arm-eabi/4.6.0/thumb\libgcc.a(_arm_truncdfsf2.o)
 .ARM.attributes
                0x00002f40       0x24 c:/ndsdev/devkitpro/devkitarm/bin/../lib/gcc/arm-eabi/4.6.0/thumb\libgcc.a(_aeabi_uldivmod.o)
 .ARM.attributes
                0x00002f64       0x32 c:/ndsdev/devkitpro/devkitarm/bin/../lib/gcc/arm-eabi/4.6.0/thumb\libgcc.a(bpabi.o)
 .ARM.attributes
                0x00002f96       0x32 c:/ndsdev/devkitpro/devkitarm/bin/../lib/gcc/arm-eabi/4.6.0/thumb\libgcc.a(unwind-arm.o)
 .ARM.attributes
                0x00002fc8       0x1e c:/ndsdev/devkitpro/devkitarm/bin/../lib/gcc/arm-eabi/4.6.0/thumb\libgcc.a(libunwind.o)
 .ARM.attributes
                0x00002fe6       0x32 c:/ndsdev/devkitpro/devkitarm/bin/../lib/gcc/arm-eabi/4.6.0/thumb\libgcc.a(pr-support.o)
 .ARM.attributes
                0x00003018       0x32 c:/ndsdev/devkitpro/devkitarm/bin/../lib/gcc/arm-eabi/4.6.0/thumb\libgcc.a(_divdi3.o)
 .ARM.attributes
                0x0000304a       0x32 c:/ndsdev/devkitpro/devkitarm/bin/../lib/gcc/arm-eabi/4.6.0/thumb\libgcc.a(_udivdi3.o)
 .ARM.attributes
                0x0000307c       0x24 c:/ndsdev/devkitpro/devkitarm/bin/../lib/gcc/arm-eabi/4.6.0/thumb\libgcc.a(_clzsi2.o)
 .ARM.attributes
                0x000030a0       0x32 c:/ndsdev/devkitpro/devkitarm/bin/../lib/gcc/arm-eabi/4.6.0/../../../../arm-eabi/lib/thumb\libg.a(lib_a-abort.o)
 .ARM.attributes
                0x000030d2       0x32 c:/ndsdev/devkitpro/devkitarm/bin/../lib/gcc/arm-eabi/4.6.0/../../../../arm-eabi/lib/thumb\libg.a(lib_a-signal.o)
 .ARM.attributes
                0x00003104       0x32 c:/ndsdev/devkitpro/devkitarm/bin/../lib/gcc/arm-eabi/4.6.0/../../../../arm-eabi/lib/thumb\libsysbase.a(getpid.o)
 .ARM.attributes
                0x00003136       0x32 c:/ndsdev/devkitpro/devkitarm/bin/../lib/gcc/arm-eabi/4.6.0/../../../../arm-eabi/lib/thumb\libsysbase.a(kill.o)
 .ARM.attributes
                0x00003168       0x32 c:/ndsdev/devkitpro/devkitarm/bin/../lib/gcc/arm-eabi/4.6.0/../../../../arm-eabi/lib/thumb\libsysbase.a(_exit.o)
 .ARM.attributes
                0x0000319a       0x32 c:/ndsdev/devkitpro/devkitarm/bin/../lib/gcc/arm-eabi/4.6.0/thumb/crtend.o
 .ARM.attributes
                0x000031cc       0x24 c:/ndsdev/devkitpro/devkitarm/bin/../lib/gcc/arm-eabi/4.6.0/thumb/crtn.o

.comment        0x00000000       0x88 load address 0x0206b4c4
 *(.comment)
 .comment       0x00000000       0x22 c:/ndsdev/devkitpro/devkitarm/bin/../lib/gcc/arm-eabi/4.6.0/thumb/crtbegin.o
                                 0x23 (size before relaxing)
 .comment       0x00000000       0x23 FileManage.o
 .comment       0x00000000       0x23 Graphic.o
 .comment       0x00000000       0x23 Main.o
 .comment       0x00000000       0x23 down_execute.o
 .comment       0x00000000       0x23 download.o
 .comment       0x00000000       0x23 serial.o
 .comment       0x00000000       0x23 usb.o
 .comment       0x00000000       0x23 wifi.o
 .comment       0x00000000       0x23 croutine.o
 .comment       0x00000000       0x23 heap.o
 .comment       0x00000000       0x23 list.o
 .comment       0x00000000       0x23 port.o
 .comment       0x00000000       0x23 portISR.o
 .comment       0x00000000       0x23 queue.o
 .comment       0x00000000       0x23 tasks.o
 .comment       0x00000000       0x23 virtual_io.o
 .comment       0x00000000       0x23 bg_create.o
 .comment       0x00000000       0x23 bg_dialog.o
 .comment       0x00000000       0x23 bg_down.o
 .comment       0x00000000       0x23 bg_edit_dialog.o
 .comment       0x00000000       0x23 bg_up.o
 .comment       0x00000022       0x22 c:/ndsdev/devkitPro/PAlib/lib\libpa9.a(PA.o)
                                 0x23 (size before relaxing)
 .comment       0x00000000       0x23 c:/ndsdev/devkitPro/PAlib/lib\libpa9.a(PA_BgTiles.o)
 .comment       0x00000000       0x23 c:/ndsdev/devkitPro/PAlib/lib\libpa9.a(PA_Error.o)
 .comment       0x00000000       0x23 c:/ndsdev/devkitPro/PAlib/lib\libpa9.a(PA_Inits.o)
 .comment       0x00000000       0x23 c:/ndsdev/devkitPro/PAlib/lib\libpa9.a(PA_Interrupt.o)
 .comment       0x00000000       0x23 c:/ndsdev/devkitPro/PAlib/lib\libpa9.a(PA_Keyboard.o)
 .comment       0x00000000       0x23 c:/ndsdev/devkitPro/PAlib/lib\libpa9.a(PA_Keys.o)
 .comment       0x00000000       0x23 c:/ndsdev/devkitPro/PAlib/lib\libpa9.a(PA_Math.o)
 .comment       0x00000000       0x23 c:/ndsdev/devkitPro/PAlib/lib\libpa9.a(PA_NewBg.o)
 .comment       0x00000000       0x23 c:/ndsdev/devkitPro/PAlib/lib\libpa9.a(PA_Palette.o)
 .comment       0x00000000       0x23 c:/ndsdev/devkitPro/PAlib/lib\libpa9.a(PA_RTC.o)
 .comment       0x00000000       0x23 c:/ndsdev/devkitPro/PAlib/lib\libpa9.a(PA_Reco.o)
 .comment       0x00000000       0x23 c:/ndsdev/devkitPro/PAlib/lib\libpa9.a(PA_Sprite.o)
 .comment       0x00000000       0x23 c:/ndsdev/devkitPro/PAlib/lib\libpa9.a(PA_Stuff.o)
 .comment       0x00000000       0x23 c:/ndsdev/devkitPro/PAlib/lib\libpa9.a(PA_Text.o)
 .comment       0x00000000       0x23 c:/ndsdev/devkitPro/PAlib/lib\libpa9.a(PA_Text8bit.o)
 .comment       0x00000000       0x23 c:/ndsdev/devkitPro/PAlib/lib\libpa9.a(PA_TextBits.o)
 .comment       0x00000000       0x23 c:/ndsdev/devkitPro/PAlib/lib\libpa9.a(PA_TextSpecial.o)
 .comment       0x00000000       0x23 c:/ndsdev/devkitPro/PAlib/lib\libpa9.a(PA_Wifi.o)
 .comment       0x00000000       0x23 c:/ndsdev/devkitPro/PAlib/lib\libpa9.a(keyboard.map.o)
 .comment       0x00000000       0x23 c:/ndsdev/devkitPro/PAlib/lib\libpa9.a(keyboard.pal.o)
 .comment       0x00000000       0x23 c:/ndsdev/devkitPro/PAlib/lib\libpa9.a(keyboard.raw.o)
 .comment       0x00000000       0x23 c:/ndsdev/devkitPro/PAlib/lib\libpa9.a(PA_TiledFont.o)
 .comment       0x00000000       0x23 c:/ndsdev/devkitPro/PAlib/lib\libpa9.a(PA_BmpFont0.o)
 .comment       0x00000000       0x23 c:/ndsdev/devkitPro/PAlib/lib\libpa9.a(PA_BmpFont1.o)
 .comment       0x00000000       0x23 c:/ndsdev/devkitPro/PAlib/lib\libpa9.a(PA_BmpFont2.o)
 .comment       0x00000000       0x23 c:/ndsdev/devkitPro/PAlib/lib\libpa9.a(PA_BmpFont3.o)
 .comment       0x00000000       0x23 c:/ndsdev/devkitPro/PAlib/lib\libpa9.a(PA_BmpFont4.o)
 .comment       0x00000000       0x23 c:/ndsdev/devkitPro/PAlib/lib\libpa9.a(PA_16c.o)
 .comment       0x00000000       0x23 c:/ndsdev/devkitPro/PAlib/lib\libpa9.a(PA_BgEasy.o)
 .comment       0x00000000       0x23 c:/ndsdev/devkitPro/PAlib/lib\libpa9.a(PA_BgLargeMap.o)
 .comment       0x00000000       0x23 c:/ndsdev/devkitPro/PAlib/lib\libpa9.a(PA_BgRot.o)
 .comment       0x00000000       0x23 c:/ndsdev/devkitPro/PAlib/lib\libpa9.a(PA_Draw.o)
 .comment       0x00000000       0x23 c:/ndsdev/devkitPro/PAlib/lib\libpa9.a(PA_Fifo.o)
 .comment       0x00000000       0x23 c:/ndsdev/devkitPro/PAlib/lib\libpa9.a(PA_PaletteEx.o)
 .comment       0x00000044       0x22 c:/ndsdev/devkitPro/libnds/lib\libfat.a(libfat.o)
                                 0x23 (size before relaxing)
 .comment       0x00000000       0x23 c:/ndsdev/devkitPro/libnds/lib\libfat.a(partition.o)
 .comment       0x00000000       0x23 c:/ndsdev/devkitPro/libnds/lib\libfat.a(cache.o)
 .comment       0x00000000       0x23 c:/ndsdev/devkitPro/libnds/lib\libfat.a(directory.o)
 .comment       0x00000000       0x23 c:/ndsdev/devkitPro/libnds/lib\libfat.a(disc.o)
 .comment       0x00000000       0x23 c:/ndsdev/devkitPro/libnds/lib\libfat.a(fatdir.o)
 .comment       0x00000000       0x23 c:/ndsdev/devkitPro/libnds/lib\libfat.a(fatfile.o)
 .comment       0x00000000       0x23 c:/ndsdev/devkitPro/libnds/lib\libfat.a(file_allocation_table.o)
 .comment       0x00000000       0x23 c:/ndsdev/devkitPro/libnds/lib\libfat.a(filetime.o)
 .comment       0x00000000       0x23 c:/ndsdev/devkitPro/libnds/lib\libfat.a(lock.o)
 .comment       0x00000066       0x22 c:/ndsdev/devkitPro/libnds/lib\libnds9.a(background.o)
                                 0x23 (size before relaxing)
 .comment       0x00000000       0x23 c:/ndsdev/devkitPro/libnds/lib\libnds9.a(console.o)
 .comment       0x00000000       0x23 c:/ndsdev/devkitPro/libnds/lib\libnds9.a(decompress.o)
 .comment       0x00000000       0x23 c:/ndsdev/devkitPro/libnds/lib\libnds9.a(keys.o)
 .comment       0x00000000       0x23 c:/ndsdev/devkitPro/libnds/lib\libnds9.a(system.o)
 .comment       0x00000000       0x23 c:/ndsdev/devkitPro/libnds/lib\libnds9.a(touch.o)
 .comment       0x00000000       0x23 c:/ndsdev/devkitPro/libnds/lib\libnds9.a(trig.o)
 .comment       0x00000000       0x23 c:/ndsdev/devkitPro/libnds/lib\libnds9.a(video.o)
 .comment       0x00000000       0x23 c:/ndsdev/devkitPro/libnds/lib\libnds9.a(dldi.o)
 .comment       0x00000000       0x23 c:/ndsdev/devkitPro/libnds/lib\libnds9.a(dsi_sd.o)
 .comment       0x00000000       0x23 c:/ndsdev/devkitPro/libnds/lib\libnds9.a(initSystem.o)
 .comment       0x00000000       0x23 c:/ndsdev/devkitPro/libnds/lib\libnds9.a(fifosystem.o)
 .comment       0x00000000       0x23 c:/ndsdev/devkitPro/libnds/lib\libnds9.a(interrupts.o)
 .comment       0x00000000       0x23 c:/ndsdev/devkitPro/libnds/lib\libnds9.a(libnds_exit.o)
 .comment       0x00000000       0x23 c:/ndsdev/devkitPro/libnds/lib\libnds9.a(syscalls.o)
 .comment       0x00000000       0x23 c:/ndsdev/devkitPro/libnds/lib\libdswifi9.a(sgIP_DNS.o)
 .comment       0x00000000       0x23 c:/ndsdev/devkitPro/libnds/lib\libdswifi9.a(sgIP_Hub.o)
 .comment       0x00000000       0x23 c:/ndsdev/devkitPro/libnds/lib\libdswifi9.a(sgIP_memblock.o)
 .comment       0x00000000       0x23 c:/ndsdev/devkitPro/libnds/lib\libdswifi9.a(sgIP_sockets.o)
 .comment       0x00000000       0x23 c:/ndsdev/devkitPro/libnds/lib\libdswifi9.a(wifi_arm9.o)
 .comment       0x00000000       0x23 c:/ndsdev/devkitPro/libnds/lib\libdswifi9.a(sgIP.o)
 .comment       0x00000000       0x23 c:/ndsdev/devkitPro/libnds/lib\libdswifi9.a(sgIP_ARP.o)
 .comment       0x00000000       0x23 c:/ndsdev/devkitPro/libnds/lib\libdswifi9.a(sgIP_DHCP.o)
 .comment       0x00000000       0x23 c:/ndsdev/devkitPro/libnds/lib\libdswifi9.a(sgIP_IP.o)
 .comment       0x00000000       0x23 c:/ndsdev/devkitPro/libnds/lib\libdswifi9.a(sgIP_TCP.o)
 .comment       0x00000000       0x23 c:/ndsdev/devkitPro/libnds/lib\libdswifi9.a(sgIP_UDP.o)
 .comment       0x00000000       0x23 c:/ndsdev/devkitPro/libnds/lib\libdswifi9.a(sgIP_ICMP.o)
 .comment       0x00000000       0x23 c:/ndsdev/devkitpro/devkitarm/bin/../lib/gcc/arm-eabi/4.6.0/thumb\libgcc.a(_muldi3.o)
 .comment       0x00000000       0x23 c:/ndsdev/devkitpro/devkitarm/bin/../lib/gcc/arm-eabi/4.6.0/../../../../arm-eabi/lib/thumb\libg.a(lib_a-atoi.o)
 .comment       0x00000000       0x23 c:/ndsdev/devkitpro/devkitarm/bin/../lib/gcc/arm-eabi/4.6.0/../../../../arm-eabi/lib/thumb\libg.a(lib_a-bsearch.o)
 .comment       0x00000000       0x23 c:/ndsdev/devkitpro/devkitarm/bin/../lib/gcc/arm-eabi/4.6.0/../../../../arm-eabi/lib/thumb\libg.a(lib_a-ctype_.o)
 .comment       0x00000000       0x23 c:/ndsdev/devkitpro/devkitarm/bin/../lib/gcc/arm-eabi/4.6.0/../../../../arm-eabi/lib/thumb\libg.a(lib_a-errno.o)
 .comment       0x00000000       0x23 c:/ndsdev/devkitpro/devkitarm/bin/../lib/gcc/arm-eabi/4.6.0/../../../../arm-eabi/lib/thumb\libg.a(lib_a-fclose.o)
 .comment       0x00000000       0x23 c:/ndsdev/devkitpro/devkitarm/bin/../lib/gcc/arm-eabi/4.6.0/../../../../arm-eabi/lib/thumb\libg.a(lib_a-fflush.o)
 .comment       0x00000000       0x23 c:/ndsdev/devkitpro/devkitarm/bin/../lib/gcc/arm-eabi/4.6.0/../../../../arm-eabi/lib/thumb\libg.a(lib_a-fgets.o)
 .comment       0x00000000       0x23 c:/ndsdev/devkitpro/devkitarm/bin/../lib/gcc/arm-eabi/4.6.0/../../../../arm-eabi/lib/thumb\libg.a(lib_a-findfp.o)
 .comment       0x00000000       0x23 c:/ndsdev/devkitpro/devkitarm/bin/../lib/gcc/arm-eabi/4.6.0/../../../../arm-eabi/lib/thumb\libg.a(lib_a-fopen.o)
 .comment       0x00000000       0x23 c:/ndsdev/devkitpro/devkitarm/bin/../lib/gcc/arm-eabi/4.6.0/../../../../arm-eabi/lib/thumb\libg.a(lib_a-fread.o)
 .comment       0x00000000       0x23 c:/ndsdev/devkitpro/devkitarm/bin/../lib/gcc/arm-eabi/4.6.0/../../../../arm-eabi/lib/thumb\libg.a(lib_a-freer.o)
 .comment       0x00000000       0x23 c:/ndsdev/devkitpro/devkitarm/bin/../lib/gcc/arm-eabi/4.6.0/../../../../arm-eabi/lib/thumb\libg.a(lib_a-fseek.o)
 .comment       0x00000000       0x23 c:/ndsdev/devkitpro/devkitarm/bin/../lib/gcc/arm-eabi/4.6.0/../../../../arm-eabi/lib/thumb\libg.a(lib_a-ftell.o)
 .comment       0x00000000       0x23 c:/ndsdev/devkitpro/devkitarm/bin/../lib/gcc/arm-eabi/4.6.0/../../../../arm-eabi/lib/thumb\libg.a(lib_a-fwalk.o)
 .comment       0x00000000       0x23 c:/ndsdev/devkitpro/devkitarm/bin/../lib/gcc/arm-eabi/4.6.0/../../../../arm-eabi/lib/thumb\libg.a(lib_a-fwrite.o)
 .comment       0x00000000       0x23 c:/ndsdev/devkitpro/devkitarm/bin/../lib/gcc/arm-eabi/4.6.0/../../../../arm-eabi/lib/thumb\libg.a(lib_a-gmtime.o)
 .comment       0x00000000       0x23 c:/ndsdev/devkitpro/devkitarm/bin/../lib/gcc/arm-eabi/4.6.0/../../../../arm-eabi/lib/thumb\libg.a(lib_a-gmtime_r.o)
 .comment       0x00000000       0x23 c:/ndsdev/devkitpro/devkitarm/bin/../lib/gcc/arm-eabi/4.6.0/../../../../arm-eabi/lib/thumb\libg.a(lib_a-impure.o)
 .comment       0x00000000       0x23 c:/ndsdev/devkitpro/devkitarm/bin/../lib/gcc/arm-eabi/4.6.0/../../../../arm-eabi/lib/thumb\libg.a(lib_a-init.o)
 .comment       0x00000000       0x23 c:/ndsdev/devkitpro/devkitarm/bin/../lib/gcc/arm-eabi/4.6.0/../../../../arm-eabi/lib/thumb\libg.a(lib_a-iprintf.o)
 .comment       0x00000000       0x23 c:/ndsdev/devkitpro/devkitarm/bin/../lib/gcc/arm-eabi/4.6.0/../../../../arm-eabi/lib/thumb\libg.a(lib_a-lcltime_r.o)
 .comment       0x00000000       0x23 c:/ndsdev/devkitpro/devkitarm/bin/../lib/gcc/arm-eabi/4.6.0/../../../../arm-eabi/lib/thumb\libg.a(lib_a-locale.o)
 .comment       0x00000000       0x23 c:/ndsdev/devkitpro/devkitarm/bin/../lib/gcc/arm-eabi/4.6.0/../../../../arm-eabi/lib/thumb\libg.a(lib_a-makebuf.o)
 .comment       0x00000000       0x23 c:/ndsdev/devkitpro/devkitarm/bin/../lib/gcc/arm-eabi/4.6.0/../../../../arm-eabi/lib/thumb\libg.a(lib_a-malloc.o)
 .comment       0x00000000       0x23 c:/ndsdev/devkitpro/devkitarm/bin/../lib/gcc/arm-eabi/4.6.0/../../../../arm-eabi/lib/thumb\libg.a(lib_a-mallocr.o)
 .comment       0x00000000       0x23 c:/ndsdev/devkitpro/devkitarm/bin/../lib/gcc/arm-eabi/4.6.0/../../../../arm-eabi/lib/thumb\libg.a(lib_a-mbrtowc.o)
 .comment       0x00000000       0x23 c:/ndsdev/devkitpro/devkitarm/bin/../lib/gcc/arm-eabi/4.6.0/../../../../arm-eabi/lib/thumb\libg.a(lib_a-mbsrtowcs.o)
 .comment       0x00000000       0x23 c:/ndsdev/devkitpro/devkitarm/bin/../lib/gcc/arm-eabi/4.6.0/../../../../arm-eabi/lib/thumb\libg.a(lib_a-mbtowc_r.o)
 .comment       0x00000000       0x23 c:/ndsdev/devkitpro/devkitarm/bin/../lib/gcc/arm-eabi/4.6.0/../../../../arm-eabi/lib/thumb\libg.a(lib_a-memchr.o)
 .comment       0x00000000       0x23 c:/ndsdev/devkitpro/devkitarm/bin/../lib/gcc/arm-eabi/4.6.0/../../../../arm-eabi/lib/thumb\libg.a(lib_a-memcmp.o)
 .comment       0x00000000       0x23 c:/ndsdev/devkitpro/devkitarm/bin/../lib/gcc/arm-eabi/4.6.0/../../../../arm-eabi/lib/thumb\libg.a(lib_a-memcpy.o)
 .comment       0x00000000       0x23 c:/ndsdev/devkitpro/devkitarm/bin/../lib/gcc/arm-eabi/4.6.0/../../../../arm-eabi/lib/thumb\libg.a(lib_a-memmove.o)
 .comment       0x00000000       0x23 c:/ndsdev/devkitpro/devkitarm/bin/../lib/gcc/arm-eabi/4.6.0/../../../../arm-eabi/lib/thumb\libg.a(lib_a-memset.o)
 .comment       0x00000000       0x23 c:/ndsdev/devkitpro/devkitarm/bin/../lib/gcc/arm-eabi/4.6.0/../../../../arm-eabi/lib/thumb\libg.a(lib_a-mktime.o)
 .comment       0x00000000       0x23 c:/ndsdev/devkitpro/devkitarm/bin/../lib/gcc/arm-eabi/4.6.0/../../../../arm-eabi/lib/thumb\libg.a(lib_a-mktm_r.o)
 .comment       0x00000000       0x23 c:/ndsdev/devkitpro/devkitarm/bin/../lib/gcc/arm-eabi/4.6.0/../../../../arm-eabi/lib/thumb\libg.a(lib_a-mlock.o)
 .comment       0x00000000       0x23 c:/ndsdev/devkitpro/devkitarm/bin/../lib/gcc/arm-eabi/4.6.0/../../../../arm-eabi/lib/thumb\libg.a(lib_a-refill.o)
 .comment       0x00000000       0x23 c:/ndsdev/devkitpro/devkitarm/bin/../lib/gcc/arm-eabi/4.6.0/../../../../arm-eabi/lib/thumb\libg.a(lib_a-remove.o)
 .comment       0x00000000       0x23 c:/ndsdev/devkitpro/devkitarm/bin/../lib/gcc/arm-eabi/4.6.0/../../../../arm-eabi/lib/thumb\libg.a(lib_a-rename.o)
 .comment       0x00000000       0x23 c:/ndsdev/devkitpro/devkitarm/bin/../lib/gcc/arm-eabi/4.6.0/../../../../arm-eabi/lib/thumb\libg.a(lib_a-setvbuf.o)
 .comment       0x00000000       0x23 c:/ndsdev/devkitpro/devkitarm/bin/../lib/gcc/arm-eabi/4.6.0/../../../../arm-eabi/lib/thumb\libg.a(lib_a-siscanf.o)
 .comment       0x00000000       0x23 c:/ndsdev/devkitpro/devkitarm/bin/../lib/gcc/arm-eabi/4.6.0/../../../../arm-eabi/lib/thumb\libg.a(lib_a-sprintf.o)
 .comment       0x00000000       0x23 c:/ndsdev/devkitpro/devkitarm/bin/../lib/gcc/arm-eabi/4.6.0/../../../../arm-eabi/lib/thumb\libg.a(lib_a-sscanf.o)
 .comment       0x00000000       0x23 c:/ndsdev/devkitpro/devkitarm/bin/../lib/gcc/arm-eabi/4.6.0/../../../../arm-eabi/lib/thumb\libg.a(lib_a-stdio.o)
 .comment       0x00000000       0x23 c:/ndsdev/devkitpro/devkitarm/bin/../lib/gcc/arm-eabi/4.6.0/../../../../arm-eabi/lib/thumb\libg.a(lib_a-strcasecmp.o)
 .comment       0x00000000       0x23 c:/ndsdev/devkitpro/devkitarm/bin/../lib/gcc/arm-eabi/4.6.0/../../../../arm-eabi/lib/thumb\libg.a(lib_a-strcat.o)
 .comment       0x00000000       0x23 c:/ndsdev/devkitpro/devkitarm/bin/../lib/gcc/arm-eabi/4.6.0/../../../../arm-eabi/lib/thumb\libg.a(lib_a-strchr.o)
 .comment       0x00000000       0x23 c:/ndsdev/devkitpro/devkitarm/bin/../lib/gcc/arm-eabi/4.6.0/../../../../arm-eabi/lib/thumb\libg.a(lib_a-strcmp.o)
 .comment       0x00000000       0x23 c:/ndsdev/devkitpro/devkitarm/bin/../lib/gcc/arm-eabi/4.6.0/../../../../arm-eabi/lib/thumb\libg.a(lib_a-strcpy.o)
 .comment       0x00000000       0x23 c:/ndsdev/devkitpro/devkitarm/bin/../lib/gcc/arm-eabi/4.6.0/../../../../arm-eabi/lib/thumb\libg.a(lib_a-strlcpy.o)
 .comment       0x00000000       0x23 c:/ndsdev/devkitpro/devkitarm/bin/../lib/gcc/arm-eabi/4.6.0/../../../../arm-eabi/lib/thumb\libg.a(lib_a-strlen.o)
 .comment       0x00000000       0x23 c:/ndsdev/devkitpro/devkitarm/bin/../lib/gcc/arm-eabi/4.6.0/../../../../arm-eabi/lib/thumb\libg.a(lib_a-strncasecmp.o)
 .comment       0x00000000       0x23 c:/ndsdev/devkitpro/devkitarm/bin/../lib/gcc/arm-eabi/4.6.0/../../../../arm-eabi/lib/thumb\libg.a(lib_a-strncmp.o)
 .comment       0x00000000       0x23 c:/ndsdev/devkitpro/devkitarm/bin/../lib/gcc/arm-eabi/4.6.0/../../../../arm-eabi/lib/thumb\libg.a(lib_a-strncpy.o)
 .comment       0x00000000       0x23 c:/ndsdev/devkitpro/devkitarm/bin/../lib/gcc/arm-eabi/4.6.0/../../../../arm-eabi/lib/thumb\libg.a(lib_a-strnlen.o)
 .comment       0x00000000       0x23 c:/ndsdev/devkitpro/devkitarm/bin/../lib/gcc/arm-eabi/4.6.0/../../../../arm-eabi/lib/thumb\libg.a(lib_a-strpbrk.o)
 .comment       0x00000000       0x23 c:/ndsdev/devkitpro/devkitarm/bin/../lib/gcc/arm-eabi/4.6.0/../../../../arm-eabi/lib/thumb\libg.a(lib_a-strrchr.o)
 .comment       0x00000000       0x23 c:/ndsdev/devkitpro/devkitarm/bin/../lib/gcc/arm-eabi/4.6.0/../../../../arm-eabi/lib/thumb\libg.a(lib_a-strtol.o)
 .comment       0x00000000       0x23 c:/ndsdev/devkitpro/devkitarm/bin/../lib/gcc/arm-eabi/4.6.0/../../../../arm-eabi/lib/thumb\libg.a(lib_a-svfiscanf.o)
 .comment       0x00000000       0x23 c:/ndsdev/devkitpro/devkitarm/bin/../lib/gcc/arm-eabi/4.6.0/../../../../arm-eabi/lib/thumb\libg.a(lib_a-svfprintf.o)
 .comment       0x00000000       0x23 c:/ndsdev/devkitpro/devkitarm/bin/../lib/gcc/arm-eabi/4.6.0/../../../../arm-eabi/lib/thumb\libg.a(lib_a-svfscanf.o)
 .comment       0x00000000       0x23 c:/ndsdev/devkitpro/devkitarm/bin/../lib/gcc/arm-eabi/4.6.0/../../../../arm-eabi/lib/thumb\libg.a(lib_a-sysclose.o)
 .comment       0x00000000       0x23 c:/ndsdev/devkitpro/devkitarm/bin/../lib/gcc/arm-eabi/4.6.0/../../../../arm-eabi/lib/thumb\libg.a(lib_a-syslseek.o)
 .comment       0x00000000       0x23 c:/ndsdev/devkitpro/devkitarm/bin/../lib/gcc/arm-eabi/4.6.0/../../../../arm-eabi/lib/thumb\libg.a(lib_a-sysopen.o)
 .comment       0x00000000       0x23 c:/ndsdev/devkitpro/devkitarm/bin/../lib/gcc/arm-eabi/4.6.0/../../../../arm-eabi/lib/thumb\libg.a(lib_a-sysread.o)
 .comment       0x00000000       0x23 c:/ndsdev/devkitpro/devkitarm/bin/../lib/gcc/arm-eabi/4.6.0/../../../../arm-eabi/lib/thumb\libg.a(lib_a-sysstat.o)
 .comment       0x00000000       0x23 c:/ndsdev/devkitpro/devkitarm/bin/../lib/gcc/arm-eabi/4.6.0/../../../../arm-eabi/lib/thumb\libg.a(lib_a-sysunlink.o)
 .comment       0x00000000       0x23 c:/ndsdev/devkitpro/devkitarm/bin/../lib/gcc/arm-eabi/4.6.0/../../../../arm-eabi/lib/thumb\libg.a(lib_a-time.o)
 .comment       0x00000000       0x23 c:/ndsdev/devkitpro/devkitarm/bin/../lib/gcc/arm-eabi/4.6.0/../../../../arm-eabi/lib/thumb\libg.a(lib_a-towlower.o)
 .comment       0x00000000       0x23 c:/ndsdev/devkitpro/devkitarm/bin/../lib/gcc/arm-eabi/4.6.0/../../../../arm-eabi/lib/thumb\libg.a(lib_a-towupper.o)
 .comment       0x00000000       0x23 c:/ndsdev/devkitpro/devkitarm/bin/../lib/gcc/arm-eabi/4.6.0/../../../../arm-eabi/lib/thumb\libg.a(lib_a-tzlock.o)
 .comment       0x00000000       0x23 c:/ndsdev/devkitpro/devkitarm/bin/../lib/gcc/arm-eabi/4.6.0/../../../../arm-eabi/lib/thumb\libg.a(lib_a-tzvars.o)
 .comment       0x00000000       0x23 c:/ndsdev/devkitpro/devkitarm/bin/../lib/gcc/arm-eabi/4.6.0/../../../../arm-eabi/lib/thumb\libg.a(lib_a-ungetc.o)
 .comment       0x00000000       0x23 c:/ndsdev/devkitpro/devkitarm/bin/../lib/gcc/arm-eabi/4.6.0/../../../../arm-eabi/lib/thumb\libg.a(lib_a-vfiprintf.o)
 .comment       0x00000000       0x23 c:/ndsdev/devkitpro/devkitarm/bin/../lib/gcc/arm-eabi/4.6.0/../../../../arm-eabi/lib/thumb\libg.a(lib_a-wcrtomb.o)
 .comment       0x00000000       0x23 c:/ndsdev/devkitpro/devkitarm/bin/../lib/gcc/arm-eabi/4.6.0/../../../../arm-eabi/lib/thumb\libg.a(lib_a-wcsrtombs.o)
 .comment       0x00000000       0x23 c:/ndsdev/devkitpro/devkitarm/bin/../lib/gcc/arm-eabi/4.6.0/../../../../arm-eabi/lib/thumb\libg.a(lib_a-wctob.o)
 .comment       0x00000000       0x23 c:/ndsdev/devkitpro/devkitarm/bin/../lib/gcc/arm-eabi/4.6.0/../../../../arm-eabi/lib/thumb\libg.a(lib_a-wctomb_r.o)
 .comment       0x00000000       0x23 c:/ndsdev/devkitpro/devkitarm/bin/../lib/gcc/arm-eabi/4.6.0/../../../../arm-eabi/lib/thumb\libg.a(lib_a-wsetup.o)
 .comment       0x00000000       0x23 c:/ndsdev/devkitpro/devkitarm/bin/../lib/gcc/arm-eabi/4.6.0/../../../../arm-eabi/lib/thumb\libg.a(lib_a-div.o)
 .comment       0x00000000       0x23 c:/ndsdev/devkitpro/devkitarm/bin/../lib/gcc/arm-eabi/4.6.0/../../../../arm-eabi/lib/thumb\libg.a(lib_a-dtoa.o)
 .comment       0x00000000       0x23 c:/ndsdev/devkitpro/devkitarm/bin/../lib/gcc/arm-eabi/4.6.0/../../../../arm-eabi/lib/thumb\libg.a(lib_a-flags.o)
 .comment       0x00000000       0x23 c:/ndsdev/devkitpro/devkitarm/bin/../lib/gcc/arm-eabi/4.6.0/../../../../arm-eabi/lib/thumb\libg.a(lib_a-fputwc.o)
 .comment       0x00000000       0x23 c:/ndsdev/devkitpro/devkitarm/bin/../lib/gcc/arm-eabi/4.6.0/../../../../arm-eabi/lib/thumb\libg.a(lib_a-fvwrite.o)
 .comment       0x00000000       0x23 c:/ndsdev/devkitpro/devkitarm/bin/../lib/gcc/arm-eabi/4.6.0/../../../../arm-eabi/lib/thumb\libg.a(lib_a-getenv_r.o)
 .comment       0x00000000       0x23 c:/ndsdev/devkitpro/devkitarm/bin/../lib/gcc/arm-eabi/4.6.0/../../../../arm-eabi/lib/thumb\libg.a(lib_a-gettzinfo.o)
 .comment       0x00000000       0x23 c:/ndsdev/devkitpro/devkitarm/bin/../lib/gcc/arm-eabi/4.6.0/../../../../arm-eabi/lib/thumb\libg.a(lib_a-iswspace.o)
 .comment       0x00000000       0x23 c:/ndsdev/devkitpro/devkitarm/bin/../lib/gcc/arm-eabi/4.6.0/../../../../arm-eabi/lib/thumb\libg.a(lib_a-jp2uc.o)
 .comment       0x00000000       0x23 c:/ndsdev/devkitpro/devkitarm/bin/../lib/gcc/arm-eabi/4.6.0/../../../../arm-eabi/lib/thumb\libg.a(lib_a-mbsnrtowcs.o)
 .comment       0x00000000       0x23 c:/ndsdev/devkitpro/devkitarm/bin/../lib/gcc/arm-eabi/4.6.0/../../../../arm-eabi/lib/thumb\libg.a(lib_a-mprec.o)
 .comment       0x00000000       0x23 c:/ndsdev/devkitpro/devkitarm/bin/../lib/gcc/arm-eabi/4.6.0/../../../../arm-eabi/lib/thumb\libg.a(lib_a-reallocr.o)
 .comment       0x00000000       0x23 c:/ndsdev/devkitpro/devkitarm/bin/../lib/gcc/arm-eabi/4.6.0/../../../../arm-eabi/lib/thumb\libg.a(lib_a-s_fpclassify.o)
 .comment       0x00000000       0x23 c:/ndsdev/devkitpro/devkitarm/bin/../lib/gcc/arm-eabi/4.6.0/../../../../arm-eabi/lib/thumb\libg.a(lib_a-sccl.o)
 .comment       0x00000000       0x23 c:/ndsdev/devkitpro/devkitarm/bin/../lib/gcc/arm-eabi/4.6.0/../../../../arm-eabi/lib/thumb\libg.a(lib_a-sf_nan.o)
 .comment       0x00000000       0x23 c:/ndsdev/devkitpro/devkitarm/bin/../lib/gcc/arm-eabi/4.6.0/../../../../arm-eabi/lib/thumb\libg.a(lib_a-strtod.o)
 .comment       0x00000000       0x23 c:/ndsdev/devkitpro/devkitarm/bin/../lib/gcc/arm-eabi/4.6.0/../../../../arm-eabi/lib/thumb\libg.a(lib_a-strtoll_r.o)
 .comment       0x00000000       0x23 c:/ndsdev/devkitpro/devkitarm/bin/../lib/gcc/arm-eabi/4.6.0/../../../../arm-eabi/lib/thumb\libg.a(lib_a-strtoul.o)
 .comment       0x00000000       0x23 c:/ndsdev/devkitpro/devkitarm/bin/../lib/gcc/arm-eabi/4.6.0/../../../../arm-eabi/lib/thumb\libg.a(lib_a-strtoull_r.o)
 .comment       0x00000000       0x23 c:/ndsdev/devkitpro/devkitarm/bin/../lib/gcc/arm-eabi/4.6.0/../../../../arm-eabi/lib/thumb\libg.a(lib_a-svfiprintf.o)
 .comment       0x00000000       0x23 c:/ndsdev/devkitpro/devkitarm/bin/../lib/gcc/arm-eabi/4.6.0/../../../../arm-eabi/lib/thumb\libg.a(lib_a-wbuf.o)
 .comment       0x00000000       0x23 c:/ndsdev/devkitpro/devkitarm/bin/../lib/gcc/arm-eabi/4.6.0/../../../../arm-eabi/lib/thumb\libg.a(lib_a-wcsnrtombs.o)
 .comment       0x00000000       0x23 c:/ndsdev/devkitpro/devkitarm/bin/../lib/gcc/arm-eabi/4.6.0/../../../../arm-eabi/lib/thumb\libg.a(lib_a-callocr.o)
 .comment       0x00000000       0x23 c:/ndsdev/devkitpro/devkitarm/bin/../lib/gcc/arm-eabi/4.6.0/../../../../arm-eabi/lib/thumb\libg.a(lib_a-environ.o)
 .comment       0x00000000       0x23 c:/ndsdev/devkitpro/devkitarm/bin/../lib/gcc/arm-eabi/4.6.0/../../../../arm-eabi/lib/thumb\libg.a(lib_a-envlock.o)
 .comment       0x00000000       0x23 c:/ndsdev/devkitpro/devkitarm/bin/../lib/gcc/arm-eabi/4.6.0/../../../../arm-eabi/lib/thumb\libg.a(lib_a-gdtoa-gethex.o)
 .comment       0x00000000       0x23 c:/ndsdev/devkitpro/devkitarm/bin/../lib/gcc/arm-eabi/4.6.0/../../../../arm-eabi/lib/thumb\libg.a(lib_a-gdtoa-hexnan.o)
 .comment       0x00000000       0x23 c:/ndsdev/devkitpro/devkitarm/bin/../lib/gcc/arm-eabi/4.6.0/../../../../arm-eabi/lib/thumb\libsysbase.a(iosupport.o)
 .comment       0x00000000       0x23 c:/ndsdev/devkitpro/devkitarm/bin/../lib/gcc/arm-eabi/4.6.0/../../../../arm-eabi/lib/thumb\libsysbase.a(close.o)
 .comment       0x00000000       0x23 c:/ndsdev/devkitpro/devkitarm/bin/../lib/gcc/arm-eabi/4.6.0/../../../../arm-eabi/lib/thumb\libsysbase.a(fstat.o)
 .comment       0x00000000       0x23 c:/ndsdev/devkitpro/devkitarm/bin/../lib/gcc/arm-eabi/4.6.0/../../../../arm-eabi/lib/thumb\libsysbase.a(isatty.o)
 .comment       0x00000000       0x23 c:/ndsdev/devkitpro/devkitarm/bin/../lib/gcc/arm-eabi/4.6.0/../../../../arm-eabi/lib/thumb\libsysbase.a(lseek.o)
 .comment       0x00000000       0x23 c:/ndsdev/devkitpro/devkitarm/bin/../lib/gcc/arm-eabi/4.6.0/../../../../arm-eabi/lib/thumb\libsysbase.a(open.o)
 .comment       0x00000000       0x23 c:/ndsdev/devkitpro/devkitarm/bin/../lib/gcc/arm-eabi/4.6.0/../../../../arm-eabi/lib/thumb\libsysbase.a(read.o)
 .comment       0x00000000       0x23 c:/ndsdev/devkitpro/devkitarm/bin/../lib/gcc/arm-eabi/4.6.0/../../../../arm-eabi/lib/thumb\libsysbase.a(sbrk.o)
 .comment       0x00000000       0x23 c:/ndsdev/devkitpro/devkitarm/bin/../lib/gcc/arm-eabi/4.6.0/../../../../arm-eabi/lib/thumb\libsysbase.a(stat.o)
 .comment       0x00000000       0x23 c:/ndsdev/devkitpro/devkitarm/bin/../lib/gcc/arm-eabi/4.6.0/../../../../arm-eabi/lib/thumb\libsysbase.a(times.o)
 .comment       0x00000000       0x23 c:/ndsdev/devkitpro/devkitarm/bin/../lib/gcc/arm-eabi/4.6.0/../../../../arm-eabi/lib/thumb\libsysbase.a(unlink.o)
 .comment       0x00000000       0x23 c:/ndsdev/devkitpro/devkitarm/bin/../lib/gcc/arm-eabi/4.6.0/../../../../arm-eabi/lib/thumb\libsysbase.a(write.o)
 .comment       0x00000000       0x23 c:/ndsdev/devkitpro/devkitarm/bin/../lib/gcc/arm-eabi/4.6.0/../../../../arm-eabi/lib/thumb\libsysbase.a(malloc_vars.o)
 .comment       0x00000000       0x23 c:/ndsdev/devkitpro/devkitarm/bin/../lib/gcc/arm-eabi/4.6.0/../../../../arm-eabi/lib/thumb\libsysbase.a(chdir.o)
 .comment       0x00000000       0x23 c:/ndsdev/devkitpro/devkitarm/bin/../lib/gcc/arm-eabi/4.6.0/../../../../arm-eabi/lib/thumb\libsysbase.a(mkdir.o)
 .comment       0x00000000       0x23 c:/ndsdev/devkitpro/devkitarm/bin/../lib/gcc/arm-eabi/4.6.0/../../../../arm-eabi/lib/thumb\libsysbase.a(rename.o)
 .comment       0x00000000       0x23 c:/ndsdev/devkitpro/devkitarm/bin/../lib/gcc/arm-eabi/4.6.0/../../../../arm-eabi/lib/thumb\libsysbase.a(build_argv.o)
 .comment       0x00000000       0x23 c:/ndsdev/devkitpro/devkitarm/bin/../lib/gcc/arm-eabi/4.6.0/../../../../arm-eabi/lib/thumb\libsysbase.a(syscall_support.o)
 .comment       0x00000000       0x23 c:/ndsdev/devkitpro/devkitarm/bin/../lib/gcc/arm-eabi/4.6.0/../../../../arm-eabi/lib/thumb\libsysbase.a(handle_manager.o)
 .comment       0x00000000       0x23 c:/ndsdev/devkitpro/devkitarm/bin/../lib/gcc/arm-eabi/4.6.0/../../../../arm-eabi/lib/thumb\libsysbase.a(dirent.o)
 .comment       0x00000000       0x23 c:/ndsdev/devkitpro/devkitarm/bin/../lib/gcc/arm-eabi/4.6.0/thumb\libgcc.a(bpabi.o)
 .comment       0x00000000       0x23 c:/ndsdev/devkitpro/devkitarm/bin/../lib/gcc/arm-eabi/4.6.0/thumb\libgcc.a(unwind-arm.o)
 .comment       0x00000000       0x23 c:/ndsdev/devkitpro/devkitarm/bin/../lib/gcc/arm-eabi/4.6.0/thumb\libgcc.a(pr-support.o)
 .comment       0x00000000       0x23 c:/ndsdev/devkitpro/devkitarm/bin/../lib/gcc/arm-eabi/4.6.0/thumb\libgcc.a(_divdi3.o)
 .comment       0x00000000       0x23 c:/ndsdev/devkitpro/devkitarm/bin/../lib/gcc/arm-eabi/4.6.0/thumb\libgcc.a(_udivdi3.o)
 .comment       0x00000000       0x23 c:/ndsdev/devkitpro/devkitarm/bin/../lib/gcc/arm-eabi/4.6.0/../../../../arm-eabi/lib/thumb\libg.a(lib_a-abort.o)
 .comment       0x00000000       0x23 c:/ndsdev/devkitpro/devkitarm/bin/../lib/gcc/arm-eabi/4.6.0/../../../../arm-eabi/lib/thumb\libg.a(lib_a-signal.o)
 .comment       0x00000000       0x23 c:/ndsdev/devkitpro/devkitarm/bin/../lib/gcc/arm-eabi/4.6.0/../../../../arm-eabi/lib/thumb\libsysbase.a(getpid.o)
 .comment       0x00000000       0x23 c:/ndsdev/devkitpro/devkitarm/bin/../lib/gcc/arm-eabi/4.6.0/../../../../arm-eabi/lib/thumb\libsysbase.a(kill.o)
 .comment       0x00000000       0x23 c:/ndsdev/devkitpro/devkitarm/bin/../lib/gcc/arm-eabi/4.6.0/../../../../arm-eabi/lib/thumb\libsysbase.a(_exit.o)
 .comment       0x00000000       0x23 c:/ndsdev/devkitpro/devkitarm/bin/../lib/gcc/arm-eabi/4.6.0/thumb/crtend.o

.debug
 *(.debug)

.line
 *(.line)

.debug_srcinfo
 *(.debug_srcinfo)

.debug_sfnames
 *(.debug_sfnames)

.debug_aranges  0x00000000      0xb20 load address 0x0206b4c4
 *(.debug_aranges)
 .debug_aranges
                0x00000000       0x20 FileManage.o
 .debug_aranges
                0x00000020       0x20 Graphic.o
 .debug_aranges
                0x00000040       0x20 Main.o
 .debug_aranges
                0x00000060       0x20 down_execute.o
 .debug_aranges
                0x00000080       0x20 download.o
 .debug_aranges
                0x000000a0       0x20 serial.o
 .debug_aranges
                0x000000c0       0x20 usb.o
 .debug_aranges
                0x000000e0       0x20 wifi.o
 .debug_aranges
                0x00000100       0x20 croutine.o
 .debug_aranges
                0x00000120       0x20 heap.o
 .debug_aranges
                0x00000140       0x20 list.o
 .debug_aranges
                0x00000160       0x20 port.o
 .debug_aranges
                0x00000180       0x20 portISR.o
 .debug_aranges
                0x000001a0       0x20 queue.o
 .debug_aranges
                0x000001c0       0x20 tasks.o
 .debug_aranges
                0x000001e0       0x20 virtual_io.o
 .debug_aranges
                0x00000200       0x20 jump.o
 .debug_aranges
                0x00000220       0x20 assemfunc.o
 .debug_aranges
                0x00000240       0x20 c:/ndsdev/devkitPro/PAlib/lib\libpa9.a(PA.o)
 .debug_aranges
                0x00000260       0x20 c:/ndsdev/devkitPro/PAlib/lib\libpa9.a(PA_BgTiles.o)
 .debug_aranges
                0x00000280       0x20 c:/ndsdev/devkitPro/PAlib/lib\libpa9.a(PA_Error.o)
 .debug_aranges
                0x000002a0       0x20 c:/ndsdev/devkitPro/PAlib/lib\libpa9.a(PA_Inits.o)
 .debug_aranges
                0x000002c0       0x20 c:/ndsdev/devkitPro/PAlib/lib\libpa9.a(PA_Interrupt.o)
 .debug_aranges
                0x000002e0       0x20 c:/ndsdev/devkitPro/PAlib/lib\libpa9.a(PA_Keyboard.o)
 .debug_aranges
                0x00000300       0x20 c:/ndsdev/devkitPro/PAlib/lib\libpa9.a(PA_Keys.o)
 .debug_aranges
                0x00000320       0x20 c:/ndsdev/devkitPro/PAlib/lib\libpa9.a(PA_Math.o)
 .debug_aranges
                0x00000340       0x20 c:/ndsdev/devkitPro/PAlib/lib\libpa9.a(PA_NewBg.o)
 .debug_aranges
                0x00000360       0x20 c:/ndsdev/devkitPro/PAlib/lib\libpa9.a(PA_Palette.o)
 .debug_aranges
                0x00000380       0x20 c:/ndsdev/devkitPro/PAlib/lib\libpa9.a(PA_RTC.o)
 .debug_aranges
                0x000003a0       0x20 c:/ndsdev/devkitPro/PAlib/lib\libpa9.a(PA_Reco.o)
 .debug_aranges
                0x000003c0       0x20 c:/ndsdev/devkitPro/PAlib/lib\libpa9.a(PA_Sprite.o)
 .debug_aranges
                0x000003e0       0x20 c:/ndsdev/devkitPro/PAlib/lib\libpa9.a(PA_Stuff.o)
 .debug_aranges
                0x00000400       0x20 c:/ndsdev/devkitPro/PAlib/lib\libpa9.a(PA_Text.o)
 .debug_aranges
                0x00000420       0x20 c:/ndsdev/devkitPro/PAlib/lib\libpa9.a(PA_Text8bit.o)
 .debug_aranges
                0x00000440       0x20 c:/ndsdev/devkitPro/PAlib/lib\libpa9.a(PA_TextBits.o)
 .debug_aranges
                0x00000460       0x20 c:/ndsdev/devkitPro/PAlib/lib\libpa9.a(PA_TextSpecial.o)
 .debug_aranges
                0x00000480       0x20 c:/ndsdev/devkitPro/PAlib/lib\libpa9.a(PA_Wifi.o)
 .debug_aranges
                0x000004a0       0x20 c:/ndsdev/devkitPro/PAlib/lib\libpa9.a(PA_16c.o)
 .debug_aranges
                0x000004c0       0x20 c:/ndsdev/devkitPro/PAlib/lib\libpa9.a(PA_BgEasy.o)
 .debug_aranges
                0x000004e0       0x20 c:/ndsdev/devkitPro/PAlib/lib\libpa9.a(PA_BgLargeMap.o)
 .debug_aranges
                0x00000500       0x20 c:/ndsdev/devkitPro/PAlib/lib\libpa9.a(PA_BgRot.o)
 .debug_aranges
                0x00000520       0x20 c:/ndsdev/devkitPro/PAlib/lib\libpa9.a(PA_Draw.o)
 .debug_aranges
                0x00000540       0x20 c:/ndsdev/devkitPro/PAlib/lib\libpa9.a(PA_Fifo.o)
 .debug_aranges
                0x00000560       0x20 c:/ndsdev/devkitPro/PAlib/lib\libpa9.a(PA_PaletteEx.o)
 .debug_aranges
                0x00000580       0x20 c:/ndsdev/devkitPro/libnds/lib\libfat.a(libfat.o)
 .debug_aranges
                0x000005a0       0x20 c:/ndsdev/devkitPro/libnds/lib\libfat.a(partition.o)
 .debug_aranges
                0x000005c0       0x20 c:/ndsdev/devkitPro/libnds/lib\libfat.a(cache.o)
 .debug_aranges
                0x000005e0       0x20 c:/ndsdev/devkitPro/libnds/lib\libfat.a(directory.o)
 .debug_aranges
                0x00000600       0x20 c:/ndsdev/devkitPro/libnds/lib\libfat.a(disc.o)
 .debug_aranges
                0x00000620       0x20 c:/ndsdev/devkitPro/libnds/lib\libfat.a(fatdir.o)
 .debug_aranges
                0x00000640       0x20 c:/ndsdev/devkitPro/libnds/lib\libfat.a(fatfile.o)
 .debug_aranges
                0x00000660       0x20 c:/ndsdev/devkitPro/libnds/lib\libfat.a(file_allocation_table.o)
 .debug_aranges
                0x00000680       0x20 c:/ndsdev/devkitPro/libnds/lib\libfat.a(filetime.o)
 .debug_aranges
                0x000006a0       0x20 c:/ndsdev/devkitPro/libnds/lib\libfat.a(lock.o)
 .debug_aranges
                0x000006c0       0x20 c:/ndsdev/devkitPro/libnds/lib\libnds9.a(background.o)
 .debug_aranges
                0x000006e0       0x20 c:/ndsdev/devkitPro/libnds/lib\libnds9.a(console.o)
 .debug_aranges
                0x00000700       0x20 c:/ndsdev/devkitPro/libnds/lib\libnds9.a(decompress.o)
 .debug_aranges
                0x00000720       0x20 c:/ndsdev/devkitPro/libnds/lib\libnds9.a(keys.o)
 .debug_aranges
                0x00000740       0x20 c:/ndsdev/devkitPro/libnds/lib\libnds9.a(system.o)
 .debug_aranges
                0x00000760       0x20 c:/ndsdev/devkitPro/libnds/lib\libnds9.a(touch.o)
 .debug_aranges
                0x00000780       0x20 c:/ndsdev/devkitPro/libnds/lib\libnds9.a(trig.o)
 .debug_aranges
                0x000007a0       0x20 c:/ndsdev/devkitPro/libnds/lib\libnds9.a(video.o)
 .debug_aranges
                0x000007c0       0x20 c:/ndsdev/devkitPro/libnds/lib\libnds9.a(dldi.o)
 .debug_aranges
                0x000007e0       0x20 c:/ndsdev/devkitPro/libnds/lib\libnds9.a(dsi_sd.o)
 .debug_aranges
                0x00000800       0x20 c:/ndsdev/devkitPro/libnds/lib\libnds9.a(initSystem.o)
 .debug_aranges
                0x00000820       0x20 c:/ndsdev/devkitPro/libnds/lib\libnds9.a(fifosystem.o)
 .debug_aranges
                0x00000840       0x20 c:/ndsdev/devkitPro/libnds/lib\libnds9.a(interrupts.o)
 .debug_aranges
                0x00000860       0x20 c:/ndsdev/devkitPro/libnds/lib\libnds9.a(libnds_exit.o)
 .debug_aranges
                0x00000880       0x20 c:/ndsdev/devkitPro/libnds/lib\libnds9.a(syscalls.o)
 .debug_aranges
                0x000008a0       0x20 c:/ndsdev/devkitPro/libnds/lib\libnds9.a(dcache.o)
 .debug_aranges
                0x000008c0       0x20 c:/ndsdev/devkitPro/libnds/lib\libnds9.a(dldi_stub.o)
 .debug_aranges
                0x000008e0       0x20 c:/ndsdev/devkitPro/libnds/lib\libnds9.a(mpu_setup.o)
 .debug_aranges
                0x00000900       0x20 c:/ndsdev/devkitPro/libnds/lib\libnds9.a(biosCalls.o)
 .debug_aranges
                0x00000920       0x20 c:/ndsdev/devkitPro/libnds/lib\libnds9.a(debugprint.o)
 .debug_aranges
                0x00000940       0x20 c:/ndsdev/devkitPro/libnds/lib\libnds9.a(interruptDispatcher.o)
 .debug_aranges
                0x00000960       0x20 c:/ndsdev/devkitPro/libnds/lib\libnds9.a(swiSoftReset.o)
 .debug_aranges
                0x00000980       0x20 c:/ndsdev/devkitPro/libnds/lib\libdswifi9.a(sgIP_DNS.o)
 .debug_aranges
                0x000009a0       0x20 c:/ndsdev/devkitPro/libnds/lib\libdswifi9.a(sgIP_Hub.o)
 .debug_aranges
                0x000009c0       0x20 c:/ndsdev/devkitPro/libnds/lib\libdswifi9.a(sgIP_memblock.o)
 .debug_aranges
                0x000009e0       0x20 c:/ndsdev/devkitPro/libnds/lib\libdswifi9.a(sgIP_sockets.o)
 .debug_aranges
                0x00000a00       0x20 c:/ndsdev/devkitPro/libnds/lib\libdswifi9.a(wifi_arm9.o)
 .debug_aranges
                0x00000a20       0x20 c:/ndsdev/devkitPro/libnds/lib\libdswifi9.a(spinlock.o)
 .debug_aranges
                0x00000a40       0x20 c:/ndsdev/devkitPro/libnds/lib\libdswifi9.a(sgIP.o)
 .debug_aranges
                0x00000a60       0x20 c:/ndsdev/devkitPro/libnds/lib\libdswifi9.a(sgIP_ARP.o)
 .debug_aranges
                0x00000a80       0x20 c:/ndsdev/devkitPro/libnds/lib\libdswifi9.a(sgIP_DHCP.o)
 .debug_aranges
                0x00000aa0       0x20 c:/ndsdev/devkitPro/libnds/lib\libdswifi9.a(sgIP_IP.o)
 .debug_aranges
                0x00000ac0       0x20 c:/ndsdev/devkitPro/libnds/lib\libdswifi9.a(sgIP_TCP.o)
 .debug_aranges
                0x00000ae0       0x20 c:/ndsdev/devkitPro/libnds/lib\libdswifi9.a(sgIP_UDP.o)
 .debug_aranges
                0x00000b00       0x20 c:/ndsdev/devkitPro/libnds/lib\libdswifi9.a(sgIP_ICMP.o)

.debug_pubnames
                0x00000000     0x2c49 load address 0x0206b4c4
 *(.debug_pubnames)
 .debug_pubnames
                0x00000000       0xfe c:/ndsdev/devkitPro/PAlib/lib\libpa9.a(PA.o)
 .debug_pubnames
                0x000000fe      0x12e c:/ndsdev/devkitPro/PAlib/lib\libpa9.a(PA_BgTiles.o)
 .debug_pubnames
                0x0000022c       0x2e c:/ndsdev/devkitPro/PAlib/lib\libpa9.a(PA_Error.o)
 .debug_pubnames
                0x0000025a       0x39 c:/ndsdev/devkitPro/PAlib/lib\libpa9.a(PA_Inits.o)
 .debug_pubnames
                0x00000293       0xa4 c:/ndsdev/devkitPro/PAlib/lib\libpa9.a(PA_Interrupt.o)
 .debug_pubnames
                0x00000337       0xc0 c:/ndsdev/devkitPro/PAlib/lib\libpa9.a(PA_Keyboard.o)
 .debug_pubnames
                0x000003f7       0x47 c:/ndsdev/devkitPro/PAlib/lib\libpa9.a(PA_Keys.o)
 .debug_pubnames
                0x0000043e       0x40 c:/ndsdev/devkitPro/PAlib/lib\libpa9.a(PA_Math.o)
 .debug_pubnames
                0x0000047e       0x73 c:/ndsdev/devkitPro/PAlib/lib\libpa9.a(PA_NewBg.o)
 .debug_pubnames
                0x000004f1       0x76 c:/ndsdev/devkitPro/PAlib/lib\libpa9.a(PA_Palette.o)
 .debug_pubnames
                0x00000567       0x54 c:/ndsdev/devkitPro/PAlib/lib\libpa9.a(PA_RTC.o)
 .debug_pubnames
                0x000005bb       0xd1 c:/ndsdev/devkitPro/PAlib/lib\libpa9.a(PA_Reco.o)
 .debug_pubnames
                0x0000068c      0x1e9 c:/ndsdev/devkitPro/PAlib/lib\libpa9.a(PA_Sprite.o)
 .debug_pubnames
                0x00000875       0x34 c:/ndsdev/devkitPro/PAlib/lib\libpa9.a(PA_Stuff.o)
 .debug_pubnames
                0x000008a9      0x11c c:/ndsdev/devkitPro/PAlib/lib\libpa9.a(PA_Text.o)
 .debug_pubnames
                0x000009c5       0xb4 c:/ndsdev/devkitPro/PAlib/lib\libpa9.a(PA_Text8bit.o)
 .debug_pubnames
                0x00000a79       0xc4 c:/ndsdev/devkitPro/PAlib/lib\libpa9.a(PA_TextBits.o)
 .debug_pubnames
                0x00000b3d      0x10c c:/ndsdev/devkitPro/PAlib/lib\libpa9.a(PA_TextSpecial.o)
 .debug_pubnames
                0x00000c49       0xda c:/ndsdev/devkitPro/PAlib/lib\libpa9.a(PA_Wifi.o)
 .debug_pubnames
                0x00000d23       0x23 c:/ndsdev/devkitPro/PAlib/lib\libpa9.a(keyboard.map.o)
 .debug_pubnames
                0x00000d46       0x27 c:/ndsdev/devkitPro/PAlib/lib\libpa9.a(keyboard.pal.o)
 .debug_pubnames
                0x00000d6d       0x25 c:/ndsdev/devkitPro/PAlib/lib\libpa9.a(keyboard.raw.o)
 .debug_pubnames
                0x00000d92       0x23 c:/ndsdev/devkitPro/PAlib/lib\libpa9.a(PA_TiledFont.o)
 .debug_pubnames
                0x00000db5       0x22 c:/ndsdev/devkitPro/PAlib/lib\libpa9.a(PA_BmpFont0.o)
 .debug_pubnames
                0x00000dd7       0x22 c:/ndsdev/devkitPro/PAlib/lib\libpa9.a(PA_BmpFont1.o)
 .debug_pubnames
                0x00000df9       0x22 c:/ndsdev/devkitPro/PAlib/lib\libpa9.a(PA_BmpFont2.o)
 .debug_pubnames
                0x00000e1b       0x22 c:/ndsdev/devkitPro/PAlib/lib\libpa9.a(PA_BmpFont3.o)
 .debug_pubnames
                0x00000e3d       0x22 c:/ndsdev/devkitPro/PAlib/lib\libpa9.a(PA_BmpFont4.o)
 .debug_pubnames
                0x00000e5f       0xb0 c:/ndsdev/devkitPro/PAlib/lib\libpa9.a(PA_16c.o)
 .debug_pubnames
                0x00000f0f       0x68 c:/ndsdev/devkitPro/PAlib/lib\libpa9.a(PA_BgEasy.o)
 .debug_pubnames
                0x00000f77       0xdf c:/ndsdev/devkitPro/PAlib/lib\libpa9.a(PA_BgLargeMap.o)
 .debug_pubnames
                0x00001056       0x55 c:/ndsdev/devkitPro/PAlib/lib\libpa9.a(PA_BgRot.o)
 .debug_pubnames
                0x000010ab       0xa9 c:/ndsdev/devkitPro/PAlib/lib\libpa9.a(PA_Draw.o)
 .debug_pubnames
                0x00001154       0x38 c:/ndsdev/devkitPro/PAlib/lib\libpa9.a(PA_Fifo.o)
 .debug_pubnames
                0x0000118c       0x88 c:/ndsdev/devkitPro/PAlib/lib\libpa9.a(PA_PaletteEx.o)
 .debug_pubnames
                0x00001214       0x76 c:/ndsdev/devkitPro/libnds/lib\libfat.a(libfat.o)
 .debug_pubnames
                0x0000128a       0xf0 c:/ndsdev/devkitPro/libnds/lib\libfat.a(partition.o)
 .debug_pubnames
                0x0000137a      0x162 c:/ndsdev/devkitPro/libnds/lib\libfat.a(cache.o)
 .debug_pubnames
                0x000014dc      0x16f c:/ndsdev/devkitPro/libnds/lib\libfat.a(directory.o)
 .debug_pubnames
                0x0000164b       0x2b c:/ndsdev/devkitPro/libnds/lib\libfat.a(disc.o)
 .debug_pubnames
                0x00001676       0xd9 c:/ndsdev/devkitPro/libnds/lib\libfat.a(fatdir.o)
 .debug_pubnames
                0x0000174f       0xaf c:/ndsdev/devkitPro/libnds/lib\libfat.a(fatfile.o)
 .debug_pubnames
                0x000017fe       0xd2 c:/ndsdev/devkitPro/libnds/lib\libfat.a(file_allocation_table.o)
 .debug_pubnames
                0x000018d0       0x70 c:/ndsdev/devkitPro/libnds/lib\libfat.a(filetime.o)
 .debug_pubnames
                0x00001940       0x58 c:/ndsdev/devkitPro/libnds/lib\libfat.a(lock.o)
 .debug_pubnames
                0x00001998      0x1db c:/ndsdev/devkitPro/libnds/lib\libdswifi9.a(sgIP_DNS.o)
 .debug_pubnames
                0x00001b73      0x1d6 c:/ndsdev/devkitPro/libnds/lib\libdswifi9.a(sgIP_Hub.o)
 .debug_pubnames
                0x00001d49      0x125 c:/ndsdev/devkitPro/libnds/lib\libdswifi9.a(sgIP_memblock.o)
 .debug_pubnames
                0x00001e6e      0x16c c:/ndsdev/devkitPro/libnds/lib\libdswifi9.a(sgIP_sockets.o)
 .debug_pubnames
                0x00001fda      0x45e c:/ndsdev/devkitPro/libnds/lib\libdswifi9.a(wifi_arm9.o)
 .debug_pubnames
                0x00002438       0x6f c:/ndsdev/devkitPro/libnds/lib\libdswifi9.a(sgIP.o)
 .debug_pubnames
                0x000024a7      0x170 c:/ndsdev/devkitPro/libnds/lib\libdswifi9.a(sgIP_ARP.o)
 .debug_pubnames
                0x00002617      0x216 c:/ndsdev/devkitPro/libnds/lib\libdswifi9.a(sgIP_DHCP.o)
 .debug_pubnames
                0x0000282d       0xaa c:/ndsdev/devkitPro/libnds/lib\libdswifi9.a(sgIP_IP.o)
 .debug_pubnames
                0x000028d7      0x20d c:/ndsdev/devkitPro/libnds/lib\libdswifi9.a(sgIP_TCP.o)
 .debug_pubnames
                0x00002ae4      0x124 c:/ndsdev/devkitPro/libnds/lib\libdswifi9.a(sgIP_UDP.o)
 .debug_pubnames
                0x00002c08       0x41 c:/ndsdev/devkitPro/libnds/lib\libdswifi9.a(sgIP_ICMP.o)

.debug_info     0x00000000    0x6ef2e load address 0x0206b4c4
 *(.debug_info)
 .debug_info    0x00000000     0x4e01 FileManage.o
 .debug_info    0x00004e01     0x2da2 Graphic.o
 .debug_info    0x00007ba3     0x2833 Main.o
 .debug_info    0x0000a3d6     0x25c6 down_execute.o
 .debug_info    0x0000c99c     0x27d9 download.o
 .debug_info    0x0000f175      0x9d4 serial.o
 .debug_info    0x0000fb49      0x9d4 usb.o
 .debug_info    0x0001051d     0x2952 wifi.o
 .debug_info    0x00012e6f      0x4f2 croutine.o
 .debug_info    0x00013361       0xdc heap.o
 .debug_info    0x0001343d      0x29b list.o
 .debug_info    0x000136d8      0x761 port.o
 .debug_info    0x00013e39       0xc3 portISR.o
 .debug_info    0x00013efc      0x79c queue.o
 .debug_info    0x00014698     0x1068 tasks.o
 .debug_info    0x00015700     0x1216 virtual_io.o
 .debug_info    0x00016916      0x1c6 bg_create.o
 .debug_info    0x00016adc      0x1c6 bg_dialog.o
 .debug_info    0x00016ca2      0x1c6 bg_down.o
 .debug_info    0x00016e68      0x1c6 bg_edit_dialog.o
 .debug_info    0x0001702e      0x1c6 bg_up.o
 .debug_info    0x000171f4       0x8a jump.o
 .debug_info    0x0001727e       0x91 assemfunc.o
 .debug_info    0x0001730f     0x2481 c:/ndsdev/devkitPro/PAlib/lib\libpa9.a(PA.o)
 .debug_info    0x00019790     0x25f9 c:/ndsdev/devkitPro/PAlib/lib\libpa9.a(PA_BgTiles.o)
 .debug_info    0x0001bd89     0x1ec0 c:/ndsdev/devkitPro/PAlib/lib\libpa9.a(PA_Error.o)
 .debug_info    0x0001dc49     0x27ab c:/ndsdev/devkitPro/PAlib/lib\libpa9.a(PA_Inits.o)
 .debug_info    0x000203f4     0x20b0 c:/ndsdev/devkitPro/PAlib/lib\libpa9.a(PA_Interrupt.o)
 .debug_info    0x000224a4     0x24f4 c:/ndsdev/devkitPro/PAlib/lib\libpa9.a(PA_Keyboard.o)
 .debug_info    0x00024998     0x2131 c:/ndsdev/devkitPro/PAlib/lib\libpa9.a(PA_Keys.o)
 .debug_info    0x00026ac9     0x20be c:/ndsdev/devkitPro/PAlib/lib\libpa9.a(PA_Math.o)
 .debug_info    0x00028b87     0x28a8 c:/ndsdev/devkitPro/PAlib/lib\libpa9.a(PA_NewBg.o)
 .debug_info    0x0002b42f     0x2476 c:/ndsdev/devkitPro/PAlib/lib\libpa9.a(PA_Palette.o)
 .debug_info    0x0002d8a5     0x22dd c:/ndsdev/devkitPro/PAlib/lib\libpa9.a(PA_RTC.o)
 .debug_info    0x0002fb82     0x2417 c:/ndsdev/devkitPro/PAlib/lib\libpa9.a(PA_Reco.o)
 .debug_info    0x00031f99     0x275a c:/ndsdev/devkitPro/PAlib/lib\libpa9.a(PA_Sprite.o)
 .debug_info    0x000346f3     0x2186 c:/ndsdev/devkitPro/PAlib/lib\libpa9.a(PA_Stuff.o)
 .debug_info    0x00036879     0x24a8 c:/ndsdev/devkitPro/PAlib/lib\libpa9.a(PA_Text.o)
 .debug_info    0x00038d21     0x349e c:/ndsdev/devkitPro/PAlib/lib\libpa9.a(PA_Text8bit.o)
 .debug_info    0x0003c1bf     0x2430 c:/ndsdev/devkitPro/PAlib/lib\libpa9.a(PA_TextBits.o)
 .debug_info    0x0003e5ef     0x280a c:/ndsdev/devkitPro/PAlib/lib\libpa9.a(PA_TextSpecial.o)
 .debug_info    0x00040df9     0x25ba c:/ndsdev/devkitPro/PAlib/lib\libpa9.a(PA_Wifi.o)
 .debug_info    0x000433b3       0x54 c:/ndsdev/devkitPro/PAlib/lib\libpa9.a(keyboard.map.o)
 .debug_info    0x00043407       0x53 c:/ndsdev/devkitPro/PAlib/lib\libpa9.a(keyboard.pal.o)
 .debug_info    0x0004345a       0x54 c:/ndsdev/devkitPro/PAlib/lib\libpa9.a(keyboard.raw.o)
 .debug_info    0x000434ae      0x1c6 c:/ndsdev/devkitPro/PAlib/lib\libpa9.a(PA_TiledFont.o)
 .debug_info    0x00043674      0x1c6 c:/ndsdev/devkitPro/PAlib/lib\libpa9.a(PA_BmpFont0.o)
 .debug_info    0x0004383a      0x1c6 c:/ndsdev/devkitPro/PAlib/lib\libpa9.a(PA_BmpFont1.o)
 .debug_info    0x00043a00      0x1c6 c:/ndsdev/devkitPro/PAlib/lib\libpa9.a(PA_BmpFont2.o)
 .debug_info    0x00043bc6      0x1c6 c:/ndsdev/devkitPro/PAlib/lib\libpa9.a(PA_BmpFont3.o)
 .debug_info    0x00043d8c      0x1c6 c:/ndsdev/devkitPro/PAlib/lib\libpa9.a(PA_BmpFont4.o)
 .debug_info    0x00043f52     0x2770 c:/ndsdev/devkitPro/PAlib/lib\libpa9.a(PA_16c.o)
 .debug_info    0x000466c2     0x240e c:/ndsdev/devkitPro/PAlib/lib\libpa9.a(PA_BgEasy.o)
 .debug_info    0x00048ad0     0x2d35 c:/ndsdev/devkitPro/PAlib/lib\libpa9.a(PA_BgLargeMap.o)
 .debug_info    0x0004b805     0x2051 c:/ndsdev/devkitPro/PAlib/lib\libpa9.a(PA_BgRot.o)
 .debug_info    0x0004d856     0x21fe c:/ndsdev/devkitPro/PAlib/lib\libpa9.a(PA_Draw.o)
 .debug_info    0x0004fa54     0x20fa c:/ndsdev/devkitPro/PAlib/lib\libpa9.a(PA_Fifo.o)
 .debug_info    0x00051b4e     0x2370 c:/ndsdev/devkitPro/PAlib/lib\libpa9.a(PA_PaletteEx.o)
 .debug_info    0x00053ebe     0x196a c:/ndsdev/devkitPro/libnds/lib\libfat.a(libfat.o)
 .debug_info    0x00055828     0x1efd c:/ndsdev/devkitPro/libnds/lib\libfat.a(partition.o)
 .debug_info    0x00057725      0xc06 c:/ndsdev/devkitPro/libnds/lib\libfat.a(cache.o)
 .debug_info    0x0005832b     0x1abd c:/ndsdev/devkitPro/libnds/lib\libfat.a(directory.o)
 .debug_info    0x00059de8      0x275 c:/ndsdev/devkitPro/libnds/lib\libfat.a(disc.o)
 .debug_info    0x0005a05d     0x19c9 c:/ndsdev/devkitPro/libnds/lib\libfat.a(fatdir.o)
 .debug_info    0x0005ba26     0x1f54 c:/ndsdev/devkitPro/libnds/lib\libfat.a(fatfile.o)
 .debug_info    0x0005d97a      0x811 c:/ndsdev/devkitPro/libnds/lib\libfat.a(file_allocation_table.o)
 .debug_info    0x0005e18b      0x1d3 c:/ndsdev/devkitPro/libnds/lib\libfat.a(filetime.o)
 .debug_info    0x0005e35e      0x11b c:/ndsdev/devkitPro/libnds/lib\libfat.a(lock.o)
 .debug_info    0x0005e479      0x909 c:/ndsdev/devkitPro/libnds/lib\libnds9.a(background.o)
 .debug_info    0x0005ed82     0x20f5 c:/ndsdev/devkitPro/libnds/lib\libnds9.a(console.o)
 .debug_info    0x00060e77      0x316 c:/ndsdev/devkitPro/libnds/lib\libnds9.a(decompress.o)
 .debug_info    0x0006118d      0x3d0 c:/ndsdev/devkitPro/libnds/lib\libnds9.a(keys.o)
 .debug_info    0x0006155d      0x6f4 c:/ndsdev/devkitPro/libnds/lib\libnds9.a(system.o)
 .debug_info    0x00061c51      0x2cd c:/ndsdev/devkitPro/libnds/lib\libnds9.a(touch.o)
 .debug_info    0x00061f1e      0x4dd c:/ndsdev/devkitPro/libnds/lib\libnds9.a(trig.o)
 .debug_info    0x000623fb      0x64d c:/ndsdev/devkitPro/libnds/lib\libnds9.a(video.o)
 .debug_info    0x00062a48      0x5fb c:/ndsdev/devkitPro/libnds/lib\libnds9.a(dldi.o)
 .debug_info    0x00063043      0x7b2 c:/ndsdev/devkitPro/libnds/lib\libnds9.a(dsi_sd.o)
 .debug_info    0x000637f5      0xed0 c:/ndsdev/devkitPro/libnds/lib\libnds9.a(initSystem.o)
 .debug_info    0x000646c5     0x11e6 c:/ndsdev/devkitPro/libnds/lib\libnds9.a(fifosystem.o)
 .debug_info    0x000658ab      0x468 c:/ndsdev/devkitPro/libnds/lib\libnds9.a(interrupts.o)
 .debug_info    0x00065d13      0x2a6 c:/ndsdev/devkitPro/libnds/lib\libnds9.a(libnds_exit.o)
 .debug_info    0x00065fb9      0x20b c:/ndsdev/devkitPro/libnds/lib\libnds9.a(syscalls.o)
 .debug_info    0x000661c4       0xba c:/ndsdev/devkitPro/libnds/lib\libnds9.a(dcache.o)
 .debug_info    0x0006627e       0xc2 c:/ndsdev/devkitPro/libnds/lib\libnds9.a(dldi_stub.o)
 .debug_info    0x00066340       0xc4 c:/ndsdev/devkitPro/libnds/lib\libnds9.a(mpu_setup.o)
 .debug_info    0x00066404       0xbf c:/ndsdev/devkitPro/libnds/lib\libnds9.a(biosCalls.o)
 .debug_info    0x000664c3       0xc0 c:/ndsdev/devkitPro/libnds/lib\libnds9.a(debugprint.o)
 .debug_info    0x00066583       0xc9 c:/ndsdev/devkitPro/libnds/lib\libnds9.a(interruptDispatcher.o)
 .debug_info    0x0006664c       0xc2 c:/ndsdev/devkitPro/libnds/lib\libnds9.a(swiSoftReset.o)
 .debug_info    0x0006670e      0xdf5 c:/ndsdev/devkitPro/libnds/lib\libdswifi9.a(sgIP_DNS.o)
 .debug_info    0x00067503      0x62a c:/ndsdev/devkitPro/libnds/lib\libdswifi9.a(sgIP_Hub.o)
 .debug_info    0x00067b2d      0x4b1 c:/ndsdev/devkitPro/libnds/lib\libdswifi9.a(sgIP_memblock.o)
 .debug_info    0x00067fde     0x18aa c:/ndsdev/devkitPro/libnds/lib\libdswifi9.a(sgIP_sockets.o)
 .debug_info    0x00069888     0x247f c:/ndsdev/devkitPro/libnds/lib\libdswifi9.a(wifi_arm9.o)
 .debug_info    0x0006bd07       0xc0 c:/ndsdev/devkitPro/libnds/lib\libdswifi9.a(spinlock.o)
 .debug_info    0x0006bdc7      0x12e c:/ndsdev/devkitPro/libnds/lib\libdswifi9.a(sgIP.o)
 .debug_info    0x0006bef5      0x7fc c:/ndsdev/devkitPro/libnds/lib\libdswifi9.a(sgIP_ARP.o)
 .debug_info    0x0006c6f1      0x93f c:/ndsdev/devkitPro/libnds/lib\libdswifi9.a(sgIP_DHCP.o)
 .debug_info    0x0006d030      0x369 c:/ndsdev/devkitPro/libnds/lib\libdswifi9.a(sgIP_IP.o)
 .debug_info    0x0006d399     0x112e c:/ndsdev/devkitPro/libnds/lib\libdswifi9.a(sgIP_TCP.o)
 .debug_info    0x0006e4c7      0x8a6 c:/ndsdev/devkitPro/libnds/lib\libdswifi9.a(sgIP_UDP.o)
 .debug_info    0x0006ed6d      0x1c1 c:/ndsdev/devkitPro/libnds/lib\libdswifi9.a(sgIP_ICMP.o)

.debug_abbrev   0x00000000     0xc866 load address 0x0206b4c4
 *(.debug_abbrev)
 .debug_abbrev  0x00000000      0x52b FileManage.o
 .debug_abbrev  0x0000052b      0x2a9 Graphic.o
 .debug_abbrev  0x000007d4      0x26e Main.o
 .debug_abbrev  0x00000a42      0x274 down_execute.o
 .debug_abbrev  0x00000cb6      0x2f9 download.o
 .debug_abbrev  0x00000faf      0x20f serial.o
 .debug_abbrev  0x000011be      0x20f usb.o
 .debug_abbrev  0x000013cd      0x2f7 wifi.o
 .debug_abbrev  0x000016c4      0x1eb croutine.o
 .debug_abbrev  0x000018af       0x97 heap.o
 .debug_abbrev  0x00001946       0xe9 list.o
 .debug_abbrev  0x00001a2f      0x1aa port.o
 .debug_abbrev  0x00001bd9       0x7b portISR.o
 .debug_abbrev  0x00001c54      0x1c4 queue.o
 .debug_abbrev  0x00001e18      0x2d9 tasks.o
 .debug_abbrev  0x000020f1      0x39f virtual_io.o
 .debug_abbrev  0x00002490       0xcf bg_create.o
 .debug_abbrev  0x0000255f       0xcf bg_dialog.o
 .debug_abbrev  0x0000262e       0xcf bg_down.o
 .debug_abbrev  0x000026fd       0xcf bg_edit_dialog.o
 .debug_abbrev  0x000027cc       0xcf bg_up.o
 .debug_abbrev  0x0000289b       0x14 jump.o
 .debug_abbrev  0x000028af       0x14 assemfunc.o
 .debug_abbrev  0x000028c3      0x27d c:/ndsdev/devkitPro/PAlib/lib\libpa9.a(PA.o)
 .debug_abbrev  0x00002b40      0x314 c:/ndsdev/devkitPro/PAlib/lib\libpa9.a(PA_BgTiles.o)
 .debug_abbrev  0x00002e54      0x1e6 c:/ndsdev/devkitPro/PAlib/lib\libpa9.a(PA_Error.o)
 .debug_abbrev  0x0000303a      0x316 c:/ndsdev/devkitPro/PAlib/lib\libpa9.a(PA_Inits.o)
 .debug_abbrev  0x00003350      0x23f c:/ndsdev/devkitPro/PAlib/lib\libpa9.a(PA_Interrupt.o)
 .debug_abbrev  0x0000358f      0x33d c:/ndsdev/devkitPro/PAlib/lib\libpa9.a(PA_Keyboard.o)
 .debug_abbrev  0x000038cc      0x224 c:/ndsdev/devkitPro/PAlib/lib\libpa9.a(PA_Keys.o)
 .debug_abbrev  0x00003af0      0x292 c:/ndsdev/devkitPro/PAlib/lib\libpa9.a(PA_Math.o)
 .debug_abbrev  0x00003d82      0x350 c:/ndsdev/devkitPro/PAlib/lib\libpa9.a(PA_NewBg.o)
 .debug_abbrev  0x000040d2      0x2ba c:/ndsdev/devkitPro/PAlib/lib\libpa9.a(PA_Palette.o)
 .debug_abbrev  0x0000438c      0x239 c:/ndsdev/devkitPro/PAlib/lib\libpa9.a(PA_RTC.o)
 .debug_abbrev  0x000045c5      0x30a c:/ndsdev/devkitPro/PAlib/lib\libpa9.a(PA_Reco.o)
 .debug_abbrev  0x000048cf      0x3b1 c:/ndsdev/devkitPro/PAlib/lib\libpa9.a(PA_Sprite.o)
 .debug_abbrev  0x00004c80      0x248 c:/ndsdev/devkitPro/PAlib/lib\libpa9.a(PA_Stuff.o)
 .debug_abbrev  0x00004ec8      0x363 c:/ndsdev/devkitPro/PAlib/lib\libpa9.a(PA_Text.o)
 .debug_abbrev  0x0000522b      0x34b c:/ndsdev/devkitPro/PAlib/lib\libpa9.a(PA_Text8bit.o)
 .debug_abbrev  0x00005576      0x2b0 c:/ndsdev/devkitPro/PAlib/lib\libpa9.a(PA_TextBits.o)
 .debug_abbrev  0x00005826      0x343 c:/ndsdev/devkitPro/PAlib/lib\libpa9.a(PA_TextSpecial.o)
 .debug_abbrev  0x00005b69      0x2ee c:/ndsdev/devkitPro/PAlib/lib\libpa9.a(PA_Wifi.o)
 .debug_abbrev  0x00005e57       0x50 c:/ndsdev/devkitPro/PAlib/lib\libpa9.a(keyboard.map.o)
 .debug_abbrev  0x00005ea7       0x50 c:/ndsdev/devkitPro/PAlib/lib\libpa9.a(keyboard.pal.o)
 .debug_abbrev  0x00005ef7       0x50 c:/ndsdev/devkitPro/PAlib/lib\libpa9.a(keyboard.raw.o)
 .debug_abbrev  0x00005f47       0xcf c:/ndsdev/devkitPro/PAlib/lib\libpa9.a(PA_TiledFont.o)
 .debug_abbrev  0x00006016       0xcf c:/ndsdev/devkitPro/PAlib/lib\libpa9.a(PA_BmpFont0.o)
 .debug_abbrev  0x000060e5       0xcf c:/ndsdev/devkitPro/PAlib/lib\libpa9.a(PA_BmpFont1.o)
 .debug_abbrev  0x000061b4       0xcf c:/ndsdev/devkitPro/PAlib/lib\libpa9.a(PA_BmpFont2.o)
 .debug_abbrev  0x00006283       0xcf c:/ndsdev/devkitPro/PAlib/lib\libpa9.a(PA_BmpFont3.o)
 .debug_abbrev  0x00006352       0xcf c:/ndsdev/devkitPro/PAlib/lib\libpa9.a(PA_BmpFont4.o)
 .debug_abbrev  0x00006421      0x374 c:/ndsdev/devkitPro/PAlib/lib\libpa9.a(PA_16c.o)
 .debug_abbrev  0x00006795      0x325 c:/ndsdev/devkitPro/PAlib/lib\libpa9.a(PA_BgEasy.o)
 .debug_abbrev  0x00006aba      0x340 c:/ndsdev/devkitPro/PAlib/lib\libpa9.a(PA_BgLargeMap.o)
 .debug_abbrev  0x00006dfa      0x252 c:/ndsdev/devkitPro/PAlib/lib\libpa9.a(PA_BgRot.o)
 .debug_abbrev  0x0000704c      0x270 c:/ndsdev/devkitPro/PAlib/lib\libpa9.a(PA_Draw.o)
 .debug_abbrev  0x000072bc      0x211 c:/ndsdev/devkitPro/PAlib/lib\libpa9.a(PA_Fifo.o)
 .debug_abbrev  0x000074cd      0x29b c:/ndsdev/devkitPro/PAlib/lib\libpa9.a(PA_PaletteEx.o)
 .debug_abbrev  0x00007768      0x2b7 c:/ndsdev/devkitPro/libnds/lib\libfat.a(libfat.o)
 .debug_abbrev  0x00007a1f      0x358 c:/ndsdev/devkitPro/libnds/lib\libfat.a(partition.o)
 .debug_abbrev  0x00007d77      0x2a4 c:/ndsdev/devkitPro/libnds/lib\libfat.a(cache.o)
 .debug_abbrev  0x0000801b      0x408 c:/ndsdev/devkitPro/libnds/lib\libfat.a(directory.o)
 .debug_abbrev  0x00008423       0xf6 c:/ndsdev/devkitPro/libnds/lib\libfat.a(disc.o)
 .debug_abbrev  0x00008519      0x35a c:/ndsdev/devkitPro/libnds/lib\libfat.a(fatdir.o)
 .debug_abbrev  0x00008873      0x3c8 c:/ndsdev/devkitPro/libnds/lib\libfat.a(fatfile.o)
 .debug_abbrev  0x00008c3b      0x1e6 c:/ndsdev/devkitPro/libnds/lib\libfat.a(file_allocation_table.o)
 .debug_abbrev  0x00008e21       0xa1 c:/ndsdev/devkitPro/libnds/lib\libfat.a(filetime.o)
 .debug_abbrev  0x00008ec2       0x79 c:/ndsdev/devkitPro/libnds/lib\libfat.a(lock.o)
 .debug_abbrev  0x00008f3b      0x278 c:/ndsdev/devkitPro/libnds/lib\libnds9.a(background.o)
 .debug_abbrev  0x000091b3      0x478 c:/ndsdev/devkitPro/libnds/lib\libnds9.a(console.o)
 .debug_abbrev  0x0000962b      0x143 c:/ndsdev/devkitPro/libnds/lib\libnds9.a(decompress.o)
 .debug_abbrev  0x0000976e      0x176 c:/ndsdev/devkitPro/libnds/lib\libnds9.a(keys.o)
 .debug_abbrev  0x000098e4      0x19a c:/ndsdev/devkitPro/libnds/lib\libnds9.a(system.o)
 .debug_abbrev  0x00009a7e      0x11e c:/ndsdev/devkitPro/libnds/lib\libnds9.a(touch.o)
 .debug_abbrev  0x00009b9c      0x1c2 c:/ndsdev/devkitPro/libnds/lib\libnds9.a(trig.o)
 .debug_abbrev  0x00009d5e      0x1a1 c:/ndsdev/devkitPro/libnds/lib\libnds9.a(video.o)
 .debug_abbrev  0x00009eff      0x1f8 c:/ndsdev/devkitPro/libnds/lib\libnds9.a(dldi.o)
 .debug_abbrev  0x0000a0f7      0x1ba c:/ndsdev/devkitPro/libnds/lib\libnds9.a(dsi_sd.o)
 .debug_abbrev  0x0000a2b1      0x242 c:/ndsdev/devkitPro/libnds/lib\libnds9.a(initSystem.o)
 .debug_abbrev  0x0000a4f3      0x3e0 c:/ndsdev/devkitPro/libnds/lib\libnds9.a(fifosystem.o)
 .debug_abbrev  0x0000a8d3      0x1d5 c:/ndsdev/devkitPro/libnds/lib\libnds9.a(interrupts.o)
 .debug_abbrev  0x0000aaa8      0x131 c:/ndsdev/devkitPro/libnds/lib\libnds9.a(libnds_exit.o)
 .debug_abbrev  0x0000abd9       0xd1 c:/ndsdev/devkitPro/libnds/lib\libnds9.a(syscalls.o)
 .debug_abbrev  0x0000acaa       0x14 c:/ndsdev/devkitPro/libnds/lib\libnds9.a(dcache.o)
 .debug_abbrev  0x0000acbe       0x14 c:/ndsdev/devkitPro/libnds/lib\libnds9.a(dldi_stub.o)
 .debug_abbrev  0x0000acd2       0x14 c:/ndsdev/devkitPro/libnds/lib\libnds9.a(mpu_setup.o)
 .debug_abbrev  0x0000ace6       0x14 c:/ndsdev/devkitPro/libnds/lib\libnds9.a(biosCalls.o)
 .debug_abbrev  0x0000acfa       0x14 c:/ndsdev/devkitPro/libnds/lib\libnds9.a(debugprint.o)
 .debug_abbrev  0x0000ad0e       0x14 c:/ndsdev/devkitPro/libnds/lib\libnds9.a(interruptDispatcher.o)
 .debug_abbrev  0x0000ad22       0x14 c:/ndsdev/devkitPro/libnds/lib\libnds9.a(swiSoftReset.o)
 .debug_abbrev  0x0000ad36      0x319 c:/ndsdev/devkitPro/libnds/lib\libdswifi9.a(sgIP_DNS.o)
 .debug_abbrev  0x0000b04f      0x1b3 c:/ndsdev/devkitPro/libnds/lib\libdswifi9.a(sgIP_Hub.o)
 .debug_abbrev  0x0000b202      0x1eb c:/ndsdev/devkitPro/libnds/lib\libdswifi9.a(sgIP_memblock.o)
 .debug_abbrev  0x0000b3ed      0x2e3 c:/ndsdev/devkitPro/libnds/lib\libdswifi9.a(sgIP_sockets.o)
 .debug_abbrev  0x0000b6d0      0x525 c:/ndsdev/devkitPro/libnds/lib\libdswifi9.a(wifi_arm9.o)
 .debug_abbrev  0x0000bbf5       0x14 c:/ndsdev/devkitPro/libnds/lib\libdswifi9.a(spinlock.o)
 .debug_abbrev  0x0000bc09       0x8a c:/ndsdev/devkitPro/libnds/lib\libdswifi9.a(sgIP.o)
 .debug_abbrev  0x0000bc93      0x285 c:/ndsdev/devkitPro/libnds/lib\libdswifi9.a(sgIP_ARP.o)
 .debug_abbrev  0x0000bf18      0x234 c:/ndsdev/devkitPro/libnds/lib\libdswifi9.a(sgIP_DHCP.o)
 .debug_abbrev  0x0000c14c      0x137 c:/ndsdev/devkitPro/libnds/lib\libdswifi9.a(sgIP_IP.o)
 .debug_abbrev  0x0000c283      0x2de c:/ndsdev/devkitPro/libnds/lib\libdswifi9.a(sgIP_TCP.o)
 .debug_abbrev  0x0000c561      0x22f c:/ndsdev/devkitPro/libnds/lib\libdswifi9.a(sgIP_UDP.o)
 .debug_abbrev  0x0000c790       0xd6 c:/ndsdev/devkitPro/libnds/lib\libdswifi9.a(sgIP_ICMP.o)

.debug_line     0x00000000    0x17c1d load address 0x0206b4c4
 *(.debug_line)
 .debug_line    0x00000000     0x1525 FileManage.o
 .debug_line    0x00001525      0x506 Graphic.o
 .debug_line    0x00001a2b      0x4c3 Main.o
 .debug_line    0x00001eee      0x453 down_execute.o
 .debug_line    0x00002341      0x734 download.o
 .debug_line    0x00002a75      0x1d7 serial.o
 .debug_line    0x00002c4c      0x1d4 usb.o
 .debug_line    0x00002e20      0x58c wifi.o
 .debug_line    0x000033ac      0x1aa croutine.o
 .debug_line    0x00003556       0xca heap.o
 .debug_line    0x00003620       0xf7 list.o
 .debug_line    0x00003717      0x1df port.o
 .debug_line    0x000038f6       0x81 portISR.o
 .debug_line    0x00003977      0x337 queue.o
 .debug_line    0x00003cae      0x5cd tasks.o
 .debug_line    0x0000427b      0x38e virtual_io.o
 .debug_line    0x00004609       0xe3 bg_create.o
 .debug_line    0x000046ec       0xe3 bg_dialog.o
 .debug_line    0x000047cf       0xe1 bg_down.o
 .debug_line    0x000048b0       0xe8 bg_edit_dialog.o
 .debug_line    0x00004998       0xdf bg_up.o
 .debug_line    0x00004a77       0x75 jump.o
 .debug_line    0x00004aec       0xa2 assemfunc.o
 .debug_line    0x00004b8e      0x41c c:/ndsdev/devkitPro/PAlib/lib\libpa9.a(PA.o)
 .debug_line    0x00004faa      0x6df c:/ndsdev/devkitPro/PAlib/lib\libpa9.a(PA_BgTiles.o)
 .debug_line    0x00005689      0x390 c:/ndsdev/devkitPro/PAlib/lib\libpa9.a(PA_Error.o)
 .debug_line    0x00005a19      0x4e5 c:/ndsdev/devkitPro/PAlib/lib\libpa9.a(PA_Inits.o)
 .debug_line    0x00005efe      0x3f2 c:/ndsdev/devkitPro/PAlib/lib\libpa9.a(PA_Interrupt.o)
 .debug_line    0x000062f0      0x64d c:/ndsdev/devkitPro/PAlib/lib\libpa9.a(PA_Keyboard.o)
 .debug_line    0x0000693d      0x40f c:/ndsdev/devkitPro/PAlib/lib\libpa9.a(PA_Keys.o)
 .debug_line    0x00006d4c      0x45d c:/ndsdev/devkitPro/PAlib/lib\libpa9.a(PA_Math.o)
 .debug_line    0x000071a9      0x6b1 c:/ndsdev/devkitPro/PAlib/lib\libpa9.a(PA_NewBg.o)
 .debug_line    0x0000785a      0x5ca c:/ndsdev/devkitPro/PAlib/lib\libpa9.a(PA_Palette.o)
 .debug_line    0x00007e24      0x40d c:/ndsdev/devkitPro/PAlib/lib\libpa9.a(PA_RTC.o)
 .debug_line    0x00008231      0x567 c:/ndsdev/devkitPro/PAlib/lib\libpa9.a(PA_Reco.o)
 .debug_line    0x00008798      0x74e c:/ndsdev/devkitPro/PAlib/lib\libpa9.a(PA_Sprite.o)
 .debug_line    0x00008ee6      0x401 c:/ndsdev/devkitPro/PAlib/lib\libpa9.a(PA_Stuff.o)
 .debug_line    0x000092e7      0x73b c:/ndsdev/devkitPro/PAlib/lib\libpa9.a(PA_Text.o)
 .debug_line    0x00009a22      0xa84 c:/ndsdev/devkitPro/PAlib/lib\libpa9.a(PA_Text8bit.o)
 .debug_line    0x0000a4a6      0x532 c:/ndsdev/devkitPro/PAlib/lib\libpa9.a(PA_TextBits.o)
 .debug_line    0x0000a9d8      0x6de c:/ndsdev/devkitPro/PAlib/lib\libpa9.a(PA_TextSpecial.o)
 .debug_line    0x0000b0b6      0x5c2 c:/ndsdev/devkitPro/PAlib/lib\libpa9.a(PA_Wifi.o)
 .debug_line    0x0000b678       0x55 c:/ndsdev/devkitPro/PAlib/lib\libpa9.a(keyboard.map.o)
 .debug_line    0x0000b6cd       0x55 c:/ndsdev/devkitPro/PAlib/lib\libpa9.a(keyboard.pal.o)
 .debug_line    0x0000b722       0x55 c:/ndsdev/devkitPro/PAlib/lib\libpa9.a(keyboard.raw.o)
 .debug_line    0x0000b777       0xee c:/ndsdev/devkitPro/PAlib/lib\libpa9.a(PA_TiledFont.o)
 .debug_line    0x0000b865       0xee c:/ndsdev/devkitPro/PAlib/lib\libpa9.a(PA_BmpFont0.o)
 .debug_line    0x0000b953       0xee c:/ndsdev/devkitPro/PAlib/lib\libpa9.a(PA_BmpFont1.o)
 .debug_line    0x0000ba41       0xee c:/ndsdev/devkitPro/PAlib/lib\libpa9.a(PA_BmpFont2.o)
 .debug_line    0x0000bb2f       0xee c:/ndsdev/devkitPro/PAlib/lib\libpa9.a(PA_BmpFont3.o)
 .debug_line    0x0000bc1d       0xee c:/ndsdev/devkitPro/PAlib/lib\libpa9.a(PA_BmpFont4.o)
 .debug_line    0x0000bd0b      0x5d8 c:/ndsdev/devkitPro/PAlib/lib\libpa9.a(PA_16c.o)
 .debug_line    0x0000c2e3      0x4eb c:/ndsdev/devkitPro/PAlib/lib\libpa9.a(PA_BgEasy.o)
 .debug_line    0x0000c7ce      0xcaf c:/ndsdev/devkitPro/PAlib/lib\libpa9.a(PA_BgLargeMap.o)
 .debug_line    0x0000d47d      0x422 c:/ndsdev/devkitPro/PAlib/lib\libpa9.a(PA_BgRot.o)
 .debug_line    0x0000d89f      0x50e c:/ndsdev/devkitPro/PAlib/lib\libpa9.a(PA_Draw.o)
 .debug_line    0x0000ddad      0x42d c:/ndsdev/devkitPro/PAlib/lib\libpa9.a(PA_Fifo.o)
 .debug_line    0x0000e1da      0x4b2 c:/ndsdev/devkitPro/PAlib/lib\libpa9.a(PA_PaletteEx.o)
 .debug_line    0x0000e68c      0x412 c:/ndsdev/devkitPro/libnds/lib\libfat.a(libfat.o)
 .debug_line    0x0000ea9e      0x669 c:/ndsdev/devkitPro/libnds/lib\libfat.a(partition.o)
 .debug_line    0x0000f107      0x3ef c:/ndsdev/devkitPro/libnds/lib\libfat.a(cache.o)
 .debug_line    0x0000f4f6      0xb41 c:/ndsdev/devkitPro/libnds/lib\libfat.a(directory.o)
 .debug_line    0x00010037      0x120 c:/ndsdev/devkitPro/libnds/lib\libfat.a(disc.o)
 .debug_line    0x00010157      0x61f c:/ndsdev/devkitPro/libnds/lib\libfat.a(fatdir.o)
 .debug_line    0x00010776      0x986 c:/ndsdev/devkitPro/libnds/lib\libfat.a(fatfile.o)
 .debug_line    0x000110fc      0x2ee c:/ndsdev/devkitPro/libnds/lib\libfat.a(file_allocation_table.o)
 .debug_line    0x000113ea      0x178 c:/ndsdev/devkitPro/libnds/lib\libfat.a(filetime.o)
 .debug_line    0x00011562       0x82 c:/ndsdev/devkitPro/libnds/lib\libfat.a(lock.o)
 .debug_line    0x000115e4      0x2af c:/ndsdev/devkitPro/libnds/lib\libnds9.a(background.o)
 .debug_line    0x00011893      0x71c c:/ndsdev/devkitPro/libnds/lib\libnds9.a(console.o)
 .debug_line    0x00011faf      0x1c6 c:/ndsdev/devkitPro/libnds/lib\libnds9.a(decompress.o)
 .debug_line    0x00012175      0x242 c:/ndsdev/devkitPro/libnds/lib\libnds9.a(keys.o)
 .debug_line    0x000123b7      0x25c c:/ndsdev/devkitPro/libnds/lib\libnds9.a(system.o)
 .debug_line    0x00012613      0x21e c:/ndsdev/devkitPro/libnds/lib\libnds9.a(touch.o)
 .debug_line    0x00012831      0x23d c:/ndsdev/devkitPro/libnds/lib\libnds9.a(trig.o)
 .debug_line    0x00012a6e      0x201 c:/ndsdev/devkitPro/libnds/lib\libnds9.a(video.o)
 .debug_line    0x00012c6f      0x2ff c:/ndsdev/devkitPro/libnds/lib\libnds9.a(dldi.o)
 .debug_line    0x00012f6e      0x1bb c:/ndsdev/devkitPro/libnds/lib\libnds9.a(dsi_sd.o)
 .debug_line    0x00013129      0x355 c:/ndsdev/devkitPro/libnds/lib\libnds9.a(initSystem.o)
 .debug_line    0x0001347e      0x715 c:/ndsdev/devkitPro/libnds/lib\libnds9.a(fifosystem.o)
 .debug_line    0x00013b93      0x1c7 c:/ndsdev/devkitPro/libnds/lib\libnds9.a(interrupts.o)
 .debug_line    0x00013d5a      0x1ca c:/ndsdev/devkitPro/libnds/lib\libnds9.a(libnds_exit.o)
 .debug_line    0x00013f24      0x141 c:/ndsdev/devkitPro/libnds/lib\libnds9.a(syscalls.o)
 .debug_line    0x00014065       0xa2 c:/ndsdev/devkitPro/libnds/lib\libnds9.a(dcache.o)
 .debug_line    0x00014107       0x8b c:/ndsdev/devkitPro/libnds/lib\libnds9.a(dldi_stub.o)
 .debug_line    0x00014192       0xe1 c:/ndsdev/devkitPro/libnds/lib\libnds9.a(mpu_setup.o)
 .debug_line    0x00014273       0xc3 c:/ndsdev/devkitPro/libnds/lib\libnds9.a(biosCalls.o)
 .debug_line    0x00014336       0x9c c:/ndsdev/devkitPro/libnds/lib\libnds9.a(debugprint.o)
 .debug_line    0x000143d2       0xc2 c:/ndsdev/devkitPro/libnds/lib\libnds9.a(interruptDispatcher.o)
 .debug_line    0x00014494       0x91 c:/ndsdev/devkitPro/libnds/lib\libnds9.a(swiSoftReset.o)
 .debug_line    0x00014525      0x668 c:/ndsdev/devkitPro/libnds/lib\libdswifi9.a(sgIP_DNS.o)
 .debug_line    0x00014b8d      0x134 c:/ndsdev/devkitPro/libnds/lib\libdswifi9.a(sgIP_Hub.o)
 .debug_line    0x00014cc1      0x283 c:/ndsdev/devkitPro/libnds/lib\libdswifi9.a(sgIP_memblock.o)
 .debug_line    0x00014f44      0xb1f c:/ndsdev/devkitPro/libnds/lib\libdswifi9.a(sgIP_sockets.o)
 .debug_line    0x00015a63      0xa55 c:/ndsdev/devkitPro/libnds/lib\libdswifi9.a(wifi_arm9.o)
 .debug_line    0x000164b8       0x9b c:/ndsdev/devkitPro/libnds/lib\libdswifi9.a(spinlock.o)
 .debug_line    0x00016553       0xab c:/ndsdev/devkitPro/libnds/lib\libdswifi9.a(sgIP.o)
 .debug_line    0x000165fe      0x418 c:/ndsdev/devkitPro/libnds/lib\libdswifi9.a(sgIP_ARP.o)
 .debug_line    0x00016a16      0x48f c:/ndsdev/devkitPro/libnds/lib\libdswifi9.a(sgIP_DHCP.o)
 .debug_line    0x00016ea5       0xf3 c:/ndsdev/devkitPro/libnds/lib\libdswifi9.a(sgIP_IP.o)
 .debug_line    0x00016f98      0x83f c:/ndsdev/devkitPro/libnds/lib\libdswifi9.a(sgIP_TCP.o)
 .debug_line    0x000177d7      0x38d c:/ndsdev/devkitPro/libnds/lib\libdswifi9.a(sgIP_UDP.o)
 .debug_line    0x00017b64       0xb9 c:/ndsdev/devkitPro/libnds/lib\libdswifi9.a(sgIP_ICMP.o)

.debug_frame    0x00000000     0x4a18 load address 0x0206b4c4
 *(.debug_frame)
 .debug_frame   0x00000000      0x2cc FileManage.o
 .debug_frame   0x000002cc       0xa8 Graphic.o
 .debug_frame   0x00000374       0x6c Main.o
 .debug_frame   0x000003e0       0x6c down_execute.o
 .debug_frame   0x0000044c       0x78 download.o
 .debug_frame   0x000004c4       0x88 serial.o
 .debug_frame   0x0000054c       0x88 usb.o
 .debug_frame   0x000005d4       0xd4 wifi.o
 .debug_frame   0x000006a8       0x90 croutine.o
 .debug_frame   0x00000738       0x40 heap.o
 .debug_frame   0x00000778       0x70 list.o
 .debug_frame   0x000007e8       0x48 port.o
 .debug_frame   0x00000830       0x68 portISR.o
 .debug_frame   0x00000898      0x188 queue.o
 .debug_frame   0x00000a20      0x364 tasks.o
 .debug_frame   0x00000d84      0x128 virtual_io.o
 .debug_frame   0x00000eac       0x54 c:/ndsdev/devkitPro/PAlib/lib\libpa9.a(PA.o)
 .debug_frame   0x00000f00      0x124 c:/ndsdev/devkitPro/PAlib/lib\libpa9.a(PA_BgTiles.o)
 .debug_frame   0x00001024       0x48 c:/ndsdev/devkitPro/PAlib/lib\libpa9.a(PA_Error.o)
 .debug_frame   0x0000106c       0x54 c:/ndsdev/devkitPro/PAlib/lib\libpa9.a(PA_Inits.o)
 .debug_frame   0x000010c0       0x44 c:/ndsdev/devkitPro/PAlib/lib\libpa9.a(PA_Interrupt.o)
 .debug_frame   0x00001104       0xe0 c:/ndsdev/devkitPro/PAlib/lib\libpa9.a(PA_Keyboard.o)
 .debug_frame   0x000011e4       0x5c c:/ndsdev/devkitPro/PAlib/lib\libpa9.a(PA_Keys.o)
 .debug_frame   0x00001240       0x3c c:/ndsdev/devkitPro/PAlib/lib\libpa9.a(PA_Math.o)
 .debug_frame   0x0000127c       0xc8 c:/ndsdev/devkitPro/PAlib/lib\libpa9.a(PA_NewBg.o)
 .debug_frame   0x00001344       0x70 c:/ndsdev/devkitPro/PAlib/lib\libpa9.a(PA_Palette.o)
 .debug_frame   0x000013b4       0x44 c:/ndsdev/devkitPro/PAlib/lib\libpa9.a(PA_RTC.o)
 .debug_frame   0x000013f8       0x84 c:/ndsdev/devkitPro/PAlib/lib\libpa9.a(PA_Reco.o)
 .debug_frame   0x0000147c      0x144 c:/ndsdev/devkitPro/PAlib/lib\libpa9.a(PA_Sprite.o)
 .debug_frame   0x000015c0       0x54 c:/ndsdev/devkitPro/PAlib/lib\libpa9.a(PA_Stuff.o)
 .debug_frame   0x00001614       0xe0 c:/ndsdev/devkitPro/PAlib/lib\libpa9.a(PA_Text.o)
 .debug_frame   0x000016f4      0x150 c:/ndsdev/devkitPro/PAlib/lib\libpa9.a(PA_Text8bit.o)
 .debug_frame   0x00001844       0x64 c:/ndsdev/devkitPro/PAlib/lib\libpa9.a(PA_TextBits.o)
 .debug_frame   0x000018a8      0x1e0 c:/ndsdev/devkitPro/PAlib/lib\libpa9.a(PA_TextSpecial.o)
 .debug_frame   0x00001a88      0x188 c:/ndsdev/devkitPro/PAlib/lib\libpa9.a(PA_Wifi.o)
 .debug_frame   0x00001c10       0xe8 c:/ndsdev/devkitPro/PAlib/lib\libpa9.a(PA_16c.o)
 .debug_frame   0x00001cf8       0xa4 c:/ndsdev/devkitPro/PAlib/lib\libpa9.a(PA_BgEasy.o)
 .debug_frame   0x00001d9c      0x18c c:/ndsdev/devkitPro/PAlib/lib\libpa9.a(PA_BgLargeMap.o)
 .debug_frame   0x00001f28       0x3c c:/ndsdev/devkitPro/PAlib/lib\libpa9.a(PA_BgRot.o)
 .debug_frame   0x00001f64       0x3c c:/ndsdev/devkitPro/PAlib/lib\libpa9.a(PA_Draw.o)
 .debug_frame   0x00001fa0       0x44 c:/ndsdev/devkitPro/PAlib/lib\libpa9.a(PA_Fifo.o)
 .debug_frame   0x00001fe4       0xa8 c:/ndsdev/devkitPro/PAlib/lib\libpa9.a(PA_PaletteEx.o)
 .debug_frame   0x0000208c       0xd4 c:/ndsdev/devkitPro/libnds/lib\libfat.a(libfat.o)
 .debug_frame   0x00002160      0x114 c:/ndsdev/devkitPro/libnds/lib\libfat.a(partition.o)
 .debug_frame   0x00002274      0x1c8 c:/ndsdev/devkitPro/libnds/lib\libfat.a(cache.o)
 .debug_frame   0x0000243c      0x268 c:/ndsdev/devkitPro/libnds/lib\libfat.a(directory.o)
 .debug_frame   0x000026a4       0x20 c:/ndsdev/devkitPro/libnds/lib\libfat.a(disc.o)
 .debug_frame   0x000026c4      0x180 c:/ndsdev/devkitPro/libnds/lib\libfat.a(fatdir.o)
 .debug_frame   0x00002844      0x1bc c:/ndsdev/devkitPro/libnds/lib\libfat.a(fatfile.o)
 .debug_frame   0x00002a00      0x118 c:/ndsdev/devkitPro/libnds/lib\libfat.a(file_allocation_table.o)
 .debug_frame   0x00002b18       0x68 c:/ndsdev/devkitPro/libnds/lib\libfat.a(filetime.o)
 .debug_frame   0x00002b80       0x50 c:/ndsdev/devkitPro/libnds/lib\libfat.a(lock.o)
 .debug_frame   0x00002bd0       0xa4 c:/ndsdev/devkitPro/libnds/lib\libnds9.a(background.o)
 .debug_frame   0x00002c74      0x1a8 c:/ndsdev/devkitPro/libnds/lib\libnds9.a(console.o)
 .debug_frame   0x00002e1c       0x64 c:/ndsdev/devkitPro/libnds/lib\libnds9.a(decompress.o)
 .debug_frame   0x00002e80       0x8c c:/ndsdev/devkitPro/libnds/lib\libnds9.a(keys.o)
 .debug_frame   0x00002f0c       0xb8 c:/ndsdev/devkitPro/libnds/lib\libnds9.a(system.o)
 .debug_frame   0x00002fc4       0x44 c:/ndsdev/devkitPro/libnds/lib\libnds9.a(touch.o)
 .debug_frame   0x00003008       0xf4 c:/ndsdev/devkitPro/libnds/lib\libnds9.a(trig.o)
 .debug_frame   0x000030fc       0xbc c:/ndsdev/devkitPro/libnds/lib\libnds9.a(video.o)
 .debug_frame   0x000031b8       0x94 c:/ndsdev/devkitPro/libnds/lib\libnds9.a(dldi.o)
 .debug_frame   0x0000324c       0x98 c:/ndsdev/devkitPro/libnds/lib\libnds9.a(dsi_sd.o)
 .debug_frame   0x000032e4       0x28 c:/ndsdev/devkitPro/libnds/lib\libnds9.a(initSystem.o)
 .debug_frame   0x0000330c      0x2a4 c:/ndsdev/devkitPro/libnds/lib\libnds9.a(fifosystem.o)
 .debug_frame   0x000035b0       0xb4 c:/ndsdev/devkitPro/libnds/lib\libnds9.a(interrupts.o)
 .debug_frame   0x00003664       0x38 c:/ndsdev/devkitPro/libnds/lib\libnds9.a(libnds_exit.o)
 .debug_frame   0x0000369c       0x28 c:/ndsdev/devkitPro/libnds/lib\libnds9.a(syscalls.o)
 .debug_frame   0x000036c4      0x1a0 c:/ndsdev/devkitPro/libnds/lib\libdswifi9.a(sgIP_DNS.o)
 .debug_frame   0x00003864      0x134 c:/ndsdev/devkitPro/libnds/lib\libdswifi9.a(sgIP_Hub.o)
 .debug_frame   0x00003998      0x11c c:/ndsdev/devkitPro/libnds/lib\libdswifi9.a(sgIP_memblock.o)
 .debug_frame   0x00003ab4      0x314 c:/ndsdev/devkitPro/libnds/lib\libdswifi9.a(sgIP_sockets.o)
 .debug_frame   0x00003dc8      0x4ac c:/ndsdev/devkitPro/libnds/lib\libdswifi9.a(wifi_arm9.o)
 .debug_frame   0x00004274       0x40 c:/ndsdev/devkitPro/libnds/lib\libdswifi9.a(sgIP.o)
 .debug_frame   0x000042b4      0x17c c:/ndsdev/devkitPro/libnds/lib\libdswifi9.a(sgIP_ARP.o)
 .debug_frame   0x00004430      0x154 c:/ndsdev/devkitPro/libnds/lib\libdswifi9.a(sgIP_DHCP.o)
 .debug_frame   0x00004584       0x94 c:/ndsdev/devkitPro/libnds/lib\libdswifi9.a(sgIP_IP.o)
 .debug_frame   0x00004618      0x280 c:/ndsdev/devkitPro/libnds/lib\libdswifi9.a(sgIP_TCP.o)
 .debug_frame   0x00004898      0x13c c:/ndsdev/devkitPro/libnds/lib\libdswifi9.a(sgIP_UDP.o)
 .debug_frame   0x000049d4       0x44 c:/ndsdev/devkitPro/libnds/lib\libdswifi9.a(sgIP_ICMP.o)

.debug_str      0x00000000     0xba86 load address 0x0206b4c4
 *(.debug_str)
 .debug_str     0x00000000     0x138a FileManage.o
                               0x15d0 (size before relaxing)
 .debug_str     0x0000138a      0x23f Graphic.o
                               0x10cf (size before relaxing)
 .debug_str     0x000015c9       0xa2 Main.o
                               0x11dd (size before relaxing)
 .debug_str     0x0000166b      0x1bc down_execute.o
                               0x114c (size before relaxing)
 .debug_str     0x00001827      0x213 download.o
                               0x12c1 (size before relaxing)
 .debug_str     0x00001a3a       0xc5 serial.o
                                0x6e8 (size before relaxing)
 .debug_str     0x00001aff       0x99 usb.o
                                0x6ca (size before relaxing)
 .debug_str     0x00001b98      0x270 wifi.o
                               0x13e0 (size before relaxing)
 .debug_str     0x00001e08      0x36c croutine.o
                                0x3cd (size before relaxing)
 .debug_str     0x00002174       0x64 heap.o
                                0x100 (size before relaxing)
 .debug_str     0x000021d8       0xcb list.o
                                0x1fe (size before relaxing)
 .debug_str     0x000022a3      0x1dd port.o
                                0x563 (size before relaxing)
 .debug_str     0x00002480       0x9d portISR.o
                                 0xf0 (size before relaxing)
 .debug_str     0x0000251d      0x330 queue.o
                                0x488 (size before relaxing)
 .debug_str     0x0000284d      0x6f6 tasks.o
                                0x965 (size before relaxing)
 .debug_str     0x00002f43      0x8f8 virtual_io.o
                                0xd7d (size before relaxing)
 .debug_str     0x0000383b       0xd2 bg_create.o
                                0x15c (size before relaxing)
 .debug_str     0x0000390d       0x68 bg_dialog.o
                                0x15c (size before relaxing)
 .debug_str     0x00003975       0x60 bg_down.o
                                0x152 (size before relaxing)
 .debug_str     0x000039d5       0x7c bg_edit_dialog.o
                                0x175 (size before relaxing)
 .debug_str     0x00003a51       0x58 bg_up.o
                                0x148 (size before relaxing)
 .debug_str     0x00003aa9      0x300 c:/ndsdev/devkitPro/PAlib/lib\libpa9.a(PA.o)
                               0x1156 (size before relaxing)
 .debug_str     0x00003da9      0x151 c:/ndsdev/devkitPro/PAlib/lib\libpa9.a(PA_BgTiles.o)
                                0xfe6 (size before relaxing)
 .debug_str     0x00003efa       0x5d c:/ndsdev/devkitPro/PAlib/lib\libpa9.a(PA_Error.o)
                                0xcb5 (size before relaxing)
 .debug_str     0x00003f57      0x447 c:/ndsdev/devkitPro/PAlib/lib\libpa9.a(PA_Inits.o)
                               0x1707 (size before relaxing)
 .debug_str     0x0000439e       0x63 c:/ndsdev/devkitPro/PAlib/lib\libpa9.a(PA_Interrupt.o)
                                0xdf9 (size before relaxing)
 .debug_str     0x00004401      0x115 c:/ndsdev/devkitPro/PAlib/lib\libpa9.a(PA_Keyboard.o)
                                0xeba (size before relaxing)
 .debug_str     0x00004516       0x60 c:/ndsdev/devkitPro/PAlib/lib\libpa9.a(PA_Keys.o)
                                0xe45 (size before relaxing)
 .debug_str     0x00004576       0x8f c:/ndsdev/devkitPro/PAlib/lib\libpa9.a(PA_Math.o)
                                0xda7 (size before relaxing)
 .debug_str     0x00004605      0x136 c:/ndsdev/devkitPro/PAlib/lib\libpa9.a(PA_NewBg.o)
                                0xeee (size before relaxing)
 .debug_str     0x0000473b      0x359 c:/ndsdev/devkitPro/PAlib/lib\libpa9.a(PA_Palette.o)
                               0x10d0 (size before relaxing)
 .debug_str     0x00004a94      0x1bb c:/ndsdev/devkitPro/PAlib/lib\libpa9.a(PA_RTC.o)
                                0xf4f (size before relaxing)
 .debug_str     0x00004c4f      0x14b c:/ndsdev/devkitPro/PAlib/lib\libpa9.a(PA_Reco.o)
                                0xea8 (size before relaxing)
 .debug_str     0x00004d9a      0x1f6 c:/ndsdev/devkitPro/PAlib/lib\libpa9.a(PA_Sprite.o)
                                0xfdb (size before relaxing)
 .debug_str     0x00004f90       0x59 c:/ndsdev/devkitPro/PAlib/lib\libpa9.a(PA_Stuff.o)
                                0xe11 (size before relaxing)
 .debug_str     0x00004fe9      0x137 c:/ndsdev/devkitPro/PAlib/lib\libpa9.a(PA_Text.o)
                                0xf3f (size before relaxing)
 .debug_str     0x00005120      0x1ae c:/ndsdev/devkitPro/PAlib/lib\libpa9.a(PA_Text8bit.o)
                                0xf2f (size before relaxing)
 .debug_str     0x000052ce      0x12c c:/ndsdev/devkitPro/PAlib/lib\libpa9.a(PA_TextBits.o)
                                0xf39 (size before relaxing)
 .debug_str     0x000053fa      0x156 c:/ndsdev/devkitPro/PAlib/lib\libpa9.a(PA_TextSpecial.o)
                                0xe33 (size before relaxing)
 .debug_str     0x00005550      0x171 c:/ndsdev/devkitPro/PAlib/lib\libpa9.a(PA_Wifi.o)
                                0xf5f (size before relaxing)
 .debug_str     0x000056c1       0x35 c:/ndsdev/devkitPro/PAlib/lib\libpa9.a(keyboard.map.o)
                                 0x61 (size before relaxing)
 .debug_str     0x000056f6       0x35 c:/ndsdev/devkitPro/PAlib/lib\libpa9.a(keyboard.pal.o)
                                 0x65 (size before relaxing)
 .debug_str     0x0000572b       0x35 c:/ndsdev/devkitPro/PAlib/lib\libpa9.a(keyboard.raw.o)
                                 0x5e (size before relaxing)
 .debug_str     0x00005760       0x43 c:/ndsdev/devkitPro/PAlib/lib\libpa9.a(PA_TiledFont.o)
                                0x16f (size before relaxing)
 .debug_str     0x000057a3       0x43 c:/ndsdev/devkitPro/PAlib/lib\libpa9.a(PA_BmpFont0.o)
                                0x16d (size before relaxing)
 .debug_str     0x000057e6       0x43 c:/ndsdev/devkitPro/PAlib/lib\libpa9.a(PA_BmpFont1.o)
                                0x16d (size before relaxing)
 .debug_str     0x00005829       0x43 c:/ndsdev/devkitPro/PAlib/lib\libpa9.a(PA_BmpFont2.o)
                                0x16d (size before relaxing)
 .debug_str     0x0000586c       0x43 c:/ndsdev/devkitPro/PAlib/lib\libpa9.a(PA_BmpFont3.o)
                                0x16d (size before relaxing)
 .debug_str     0x000058af       0x43 c:/ndsdev/devkitPro/PAlib/lib\libpa9.a(PA_BmpFont4.o)
                                0x16d (size before relaxing)
 .debug_str     0x000058f2      0x107 c:/ndsdev/devkitPro/PAlib/lib\libpa9.a(PA_16c.o)
                                0xf67 (size before relaxing)
 .debug_str     0x000059f9       0x9e c:/ndsdev/devkitPro/PAlib/lib\libpa9.a(PA_BgEasy.o)
                                0xd74 (size before relaxing)
 .debug_str     0x00005a97      0x155 c:/ndsdev/devkitPro/PAlib/lib\libpa9.a(PA_BgLargeMap.o)
                                0xe09 (size before relaxing)
 .debug_str     0x00005bec       0x59 c:/ndsdev/devkitPro/PAlib/lib\libpa9.a(PA_BgRot.o)
                                0xdd6 (size before relaxing)
 .debug_str     0x00005c45      0x15f c:/ndsdev/devkitPro/PAlib/lib\libpa9.a(PA_Draw.o)
                                0xe94 (size before relaxing)
 .debug_str     0x00005da4      0x112 c:/ndsdev/devkitPro/PAlib/lib\libpa9.a(PA_Fifo.o)
                                0xe45 (size before relaxing)
 .debug_str     0x00005eb6      0x269 c:/ndsdev/devkitPro/PAlib/lib\libpa9.a(PA_PaletteEx.o)
                               0x11b1 (size before relaxing)
 .debug_str     0x0000611f      0x555 c:/ndsdev/devkitPro/libnds/lib\libfat.a(libfat.o)
                                0xc6e (size before relaxing)
 .debug_str     0x00006674      0x4f8 c:/ndsdev/devkitPro/libnds/lib\libfat.a(partition.o)
                               0x102b (size before relaxing)
 .debug_str     0x00006b6c      0x21a c:/ndsdev/devkitPro/libnds/lib\libfat.a(cache.o)
                                0x503 (size before relaxing)
 .debug_str     0x00006d86      0x77e c:/ndsdev/devkitPro/libnds/lib\libfat.a(directory.o)
                                0xd00 (size before relaxing)
 .debug_str     0x00007504       0x64 c:/ndsdev/devkitPro/libnds/lib\libfat.a(disc.o)
                                0x243 (size before relaxing)
 .debug_str     0x00007568      0x1c4 c:/ndsdev/devkitPro/libnds/lib\libfat.a(fatdir.o)
                                0xcc3 (size before relaxing)
 .debug_str     0x0000772c      0x1e7 c:/ndsdev/devkitPro/libnds/lib\libfat.a(fatfile.o)
                                0xd42 (size before relaxing)
 .debug_str     0x00007913      0x169 c:/ndsdev/devkitPro/libnds/lib\libfat.a(file_allocation_table.o)
                                0x568 (size before relaxing)
 .debug_str     0x00007a7c       0xb6 c:/ndsdev/devkitPro/libnds/lib\libfat.a(filetime.o)
                                0x1ae (size before relaxing)
 .debug_str     0x00007b32       0x88 c:/ndsdev/devkitPro/libnds/lib\libfat.a(lock.o)
                                0x129 (size before relaxing)
 .debug_str     0x00007bba      0x2d1 c:/ndsdev/devkitPro/libnds/lib\libnds9.a(background.o)
                                0x678 (size before relaxing)
 .debug_str     0x00007e8b      0x43b c:/ndsdev/devkitPro/libnds/lib\libnds9.a(console.o)
                               0x107c (size before relaxing)
 .debug_str     0x000082c6      0x11e c:/ndsdev/devkitPro/libnds/lib\libnds9.a(decompress.o)
                                0x213 (size before relaxing)
 .debug_str     0x000083e4      0x16a c:/ndsdev/devkitPro/libnds/lib\libnds9.a(keys.o)
                                0x2da (size before relaxing)
 .debug_str     0x0000854e      0x21b c:/ndsdev/devkitPro/libnds/lib\libnds9.a(system.o)
                                0x50e (size before relaxing)
 .debug_str     0x00008769       0x70 c:/ndsdev/devkitPro/libnds/lib\libnds9.a(touch.o)
                                0x1f6 (size before relaxing)
 .debug_str     0x000087d9       0xe9 c:/ndsdev/devkitPro/libnds/lib\libnds9.a(trig.o)
                                0x1db (size before relaxing)
 .debug_str     0x000088c2      0x1cc c:/ndsdev/devkitPro/libnds/lib\libnds9.a(video.o)
                                0xb10 (size before relaxing)
 .debug_str     0x00008a8e      0x1f4 c:/ndsdev/devkitPro/libnds/lib\libnds9.a(dldi.o)
                                0x3e0 (size before relaxing)
 .debug_str     0x00008c82      0x123 c:/ndsdev/devkitPro/libnds/lib\libnds9.a(dsi_sd.o)
                                0x555 (size before relaxing)
 .debug_str     0x00008da5       0xb3 c:/ndsdev/devkitPro/libnds/lib\libnds9.a(initSystem.o)
                                0x95b (size before relaxing)
 .debug_str     0x00008e58      0x50b c:/ndsdev/devkitPro/libnds/lib\libnds9.a(fifosystem.o)
                                0x74a (size before relaxing)
 .debug_str     0x00009363      0x126 c:/ndsdev/devkitPro/libnds/lib\libnds9.a(interrupts.o)
                                0x348 (size before relaxing)
 .debug_str     0x00009489       0x86 c:/ndsdev/devkitPro/libnds/lib\libnds9.a(libnds_exit.o)
                                0x296 (size before relaxing)
 .debug_str     0x0000950f       0x89 c:/ndsdev/devkitPro/libnds/lib\libnds9.a(syscalls.o)
                                0x1c5 (size before relaxing)
 .debug_str     0x00009598      0x397 c:/ndsdev/devkitPro/libnds/lib\libdswifi9.a(sgIP_DNS.o)
                                0x543 (size before relaxing)
 .debug_str     0x0000992f      0x209 c:/ndsdev/devkitPro/libnds/lib\libdswifi9.a(sgIP_Hub.o)
                                0x3a5 (size before relaxing)
 .debug_str     0x00009b38      0x1df c:/ndsdev/devkitPro/libnds/lib\libdswifi9.a(sgIP_memblock.o)
                                0x321 (size before relaxing)
 .debug_str     0x00009d17      0x4cc c:/ndsdev/devkitPro/libnds/lib\libdswifi9.a(sgIP_sockets.o)
                                0x788 (size before relaxing)
 .debug_str     0x0000a1e3      0xc99 c:/ndsdev/devkitPro/libnds/lib\libdswifi9.a(wifi_arm9.o)
                               0x1522 (size before relaxing)
 .debug_str     0x0000ae7c       0x81 c:/ndsdev/devkitPro/libnds/lib\libdswifi9.a(sgIP.o)
                                0x136 (size before relaxing)
 .debug_str     0x0000aefd      0x29b c:/ndsdev/devkitPro/libnds/lib\libdswifi9.a(sgIP_ARP.o)
                                0x414 (size before relaxing)
 .debug_str     0x0000b198      0x25b c:/ndsdev/devkitPro/libnds/lib\libdswifi9.a(sgIP_DHCP.o)
                                0x51c (size before relaxing)
 .debug_str     0x0000b3f3      0x151 c:/ndsdev/devkitPro/libnds/lib\libdswifi9.a(sgIP_IP.o)
                                0x288 (size before relaxing)
 .debug_str     0x0000b544      0x30e c:/ndsdev/devkitPro/libnds/lib\libdswifi9.a(sgIP_TCP.o)
                                0x710 (size before relaxing)
 .debug_str     0x0000b852      0x199 c:/ndsdev/devkitPro/libnds/lib\libdswifi9.a(sgIP_UDP.o)
                                0x3d0 (size before relaxing)
 .debug_str     0x0000b9eb       0x9b c:/ndsdev/devkitPro/libnds/lib\libdswifi9.a(sgIP_ICMP.o)
                                0x1ad (size before relaxing)

.debug_loc      0x00000000    0x23e07 load address 0x0206b4c4
 *(.debug_loc)
 .debug_loc     0x00000000     0x1f24 FileManage.o
 .debug_loc     0x00001f24      0x407 Graphic.o
 .debug_loc     0x0000232b       0x9e Main.o
 .debug_loc     0x000023c9       0xf1 down_execute.o
 .debug_loc     0x000024ba      0x8a2 download.o
 .debug_loc     0x00002d5c       0xd8 serial.o
 .debug_loc     0x00002e34       0xd8 usb.o
 .debug_loc     0x00002f0c      0x338 wifi.o
 .debug_loc     0x00003244      0x2aa croutine.o
 .debug_loc     0x000034ee       0xa5 heap.o
 .debug_loc     0x00003593       0x88 list.o
 .debug_loc     0x0000361b      0x19b port.o
 .debug_loc     0x000037b6       0x60 portISR.o
 .debug_loc     0x00003816      0x80e queue.o
 .debug_loc     0x00004024      0xea4 tasks.o
 .debug_loc     0x00004ec8      0x4fb virtual_io.o
 .debug_loc     0x000053c3       0xa0 c:/ndsdev/devkitPro/PAlib/lib\libpa9.a(PA.o)
 .debug_loc     0x00005463      0x88e c:/ndsdev/devkitPro/PAlib/lib\libpa9.a(PA_BgTiles.o)
 .debug_loc     0x00005cf1       0xe2 c:/ndsdev/devkitPro/PAlib/lib\libpa9.a(PA_Error.o)
 .debug_loc     0x00005dd3      0x17d c:/ndsdev/devkitPro/PAlib/lib\libpa9.a(PA_Inits.o)
 .debug_loc     0x00005f50       0x68 c:/ndsdev/devkitPro/PAlib/lib\libpa9.a(PA_Interrupt.o)
 .debug_loc     0x00005fb8      0x5f3 c:/ndsdev/devkitPro/PAlib/lib\libpa9.a(PA_Keyboard.o)
 .debug_loc     0x000065ab       0xb3 c:/ndsdev/devkitPro/PAlib/lib\libpa9.a(PA_Keys.o)
 .debug_loc     0x0000665e      0x2f0 c:/ndsdev/devkitPro/PAlib/lib\libpa9.a(PA_Math.o)
 .debug_loc     0x0000694e      0x922 c:/ndsdev/devkitPro/PAlib/lib\libpa9.a(PA_NewBg.o)
 .debug_loc     0x00007270      0x3cd c:/ndsdev/devkitPro/PAlib/lib\libpa9.a(PA_Palette.o)
 .debug_loc     0x0000763d       0xa1 c:/ndsdev/devkitPro/PAlib/lib\libpa9.a(PA_RTC.o)
 .debug_loc     0x000076de      0x896 c:/ndsdev/devkitPro/PAlib/lib\libpa9.a(PA_Reco.o)
 .debug_loc     0x00007f74      0x87a c:/ndsdev/devkitPro/PAlib/lib\libpa9.a(PA_Sprite.o)
 .debug_loc     0x000087ee      0x150 c:/ndsdev/devkitPro/PAlib/lib\libpa9.a(PA_Stuff.o)
 .debug_loc     0x0000893e      0xaea c:/ndsdev/devkitPro/PAlib/lib\libpa9.a(PA_Text.o)
 .debug_loc     0x00009428     0x1c67 c:/ndsdev/devkitPro/PAlib/lib\libpa9.a(PA_Text8bit.o)
 .debug_loc     0x0000b08f      0x739 c:/ndsdev/devkitPro/PAlib/lib\libpa9.a(PA_TextBits.o)
 .debug_loc     0x0000b7c8      0xf73 c:/ndsdev/devkitPro/PAlib/lib\libpa9.a(PA_TextSpecial.o)
 .debug_loc     0x0000c73b      0x9a4 c:/ndsdev/devkitPro/PAlib/lib\libpa9.a(PA_Wifi.o)
 .debug_loc     0x0000d0df      0x7c6 c:/ndsdev/devkitPro/PAlib/lib\libpa9.a(PA_16c.o)
 .debug_loc     0x0000d8a5      0x57d c:/ndsdev/devkitPro/PAlib/lib\libpa9.a(PA_BgEasy.o)
 .debug_loc     0x0000de22     0x1617 c:/ndsdev/devkitPro/PAlib/lib\libpa9.a(PA_BgLargeMap.o)
 .debug_loc     0x0000f439      0x223 c:/ndsdev/devkitPro/PAlib/lib\libpa9.a(PA_BgRot.o)
 .debug_loc     0x0000f65c      0x3e6 c:/ndsdev/devkitPro/PAlib/lib\libpa9.a(PA_Draw.o)
 .debug_loc     0x0000fa42       0x7d c:/ndsdev/devkitPro/PAlib/lib\libpa9.a(PA_Fifo.o)
 .debug_loc     0x0000fabf      0x2fe c:/ndsdev/devkitPro/PAlib/lib\libpa9.a(PA_PaletteEx.o)
 .debug_loc     0x0000fdbd      0x51c c:/ndsdev/devkitPro/libnds/lib\libfat.a(libfat.o)
 .debug_loc     0x000102d9      0xa52 c:/ndsdev/devkitPro/libnds/lib\libfat.a(partition.o)
 .debug_loc     0x00010d2b      0xe16 c:/ndsdev/devkitPro/libnds/lib\libfat.a(cache.o)
 .debug_loc     0x00011b41     0x24a9 c:/ndsdev/devkitPro/libnds/lib\libfat.a(directory.o)
 .debug_loc     0x00013fea      0xe76 c:/ndsdev/devkitPro/libnds/lib\libfat.a(fatdir.o)
 .debug_loc     0x00014e60     0x1fad c:/ndsdev/devkitPro/libnds/lib\libfat.a(fatfile.o)
 .debug_loc     0x00016e0d      0x92d c:/ndsdev/devkitPro/libnds/lib\libfat.a(file_allocation_table.o)
 .debug_loc     0x0001773a       0xaa c:/ndsdev/devkitPro/libnds/lib\libfat.a(filetime.o)
 .debug_loc     0x000177e4      0x384 c:/ndsdev/devkitPro/libnds/lib\libnds9.a(background.o)
 .debug_loc     0x00017b68      0xe70 c:/ndsdev/devkitPro/libnds/lib\libnds9.a(console.o)
 .debug_loc     0x000189d8      0x1f7 c:/ndsdev/devkitPro/libnds/lib\libnds9.a(decompress.o)
 .debug_loc     0x00018bcf       0x20 c:/ndsdev/devkitPro/libnds/lib\libnds9.a(keys.o)
 .debug_loc     0x00018bef      0x1ba c:/ndsdev/devkitPro/libnds/lib\libnds9.a(system.o)
 .debug_loc     0x00018da9      0x115 c:/ndsdev/devkitPro/libnds/lib\libnds9.a(touch.o)
 .debug_loc     0x00018ebe      0x6d3 c:/ndsdev/devkitPro/libnds/lib\libnds9.a(trig.o)
 .debug_loc     0x00019591      0x1cd c:/ndsdev/devkitPro/libnds/lib\libnds9.a(video.o)
 .debug_loc     0x0001975e      0x28e c:/ndsdev/devkitPro/libnds/lib\libnds9.a(dldi.o)
 .debug_loc     0x000199ec      0x24b c:/ndsdev/devkitPro/libnds/lib\libnds9.a(dsi_sd.o)
 .debug_loc     0x00019c37       0x64 c:/ndsdev/devkitPro/libnds/lib\libnds9.a(initSystem.o)
 .debug_loc     0x00019c9b     0x11b6 c:/ndsdev/devkitPro/libnds/lib\libnds9.a(fifosystem.o)
 .debug_loc     0x0001ae51      0x168 c:/ndsdev/devkitPro/libnds/lib\libnds9.a(interrupts.o)
 .debug_loc     0x0001afb9       0x5c c:/ndsdev/devkitPro/libnds/lib\libnds9.a(libnds_exit.o)
 .debug_loc     0x0001b015       0x98 c:/ndsdev/devkitPro/libnds/lib\libnds9.a(syscalls.o)
 .debug_loc     0x0001b0ad      0xfa3 c:/ndsdev/devkitPro/libnds/lib\libdswifi9.a(sgIP_DNS.o)
 .debug_loc     0x0001c050      0x3ab c:/ndsdev/devkitPro/libnds/lib\libdswifi9.a(sgIP_Hub.o)
 .debug_loc     0x0001c3fb      0x803 c:/ndsdev/devkitPro/libnds/lib\libdswifi9.a(sgIP_memblock.o)
 .debug_loc     0x0001cbfe     0x1cb6 c:/ndsdev/devkitPro/libnds/lib\libdswifi9.a(sgIP_sockets.o)
 .debug_loc     0x0001e8b4     0x1ae6 c:/ndsdev/devkitPro/libnds/lib\libdswifi9.a(wifi_arm9.o)
 .debug_loc     0x0002039a       0x69 c:/ndsdev/devkitPro/libnds/lib\libdswifi9.a(sgIP.o)
 .debug_loc     0x00020403      0x85d c:/ndsdev/devkitPro/libnds/lib\libdswifi9.a(sgIP_ARP.o)
 .debug_loc     0x00020c60      0x7be c:/ndsdev/devkitPro/libnds/lib\libdswifi9.a(sgIP_DHCP.o)
 .debug_loc     0x0002141e      0x2c4 c:/ndsdev/devkitPro/libnds/lib\libdswifi9.a(sgIP_IP.o)
 .debug_loc     0x000216e2     0x1d66 c:/ndsdev/devkitPro/libnds/lib\libdswifi9.a(sgIP_TCP.o)
 .debug_loc     0x00023448      0x8ee c:/ndsdev/devkitPro/libnds/lib\libdswifi9.a(sgIP_UDP.o)
 .debug_loc     0x00023d36       0xd1 c:/ndsdev/devkitPro/libnds/lib\libdswifi9.a(sgIP_ICMP.o)

.debug_macinfo
 *(.debug_macinfo)

.debug_weaknames
 *(.debug_weaknames)

.debug_funcnames
 *(.debug_funcnames)

.debug_typenames
 *(.debug_typenames)

.debug_varnames
 *(.debug_varnames)

.stack          0x00080000        0x0 load address 0x0206b4c4
                0x00080000                _stack = .
 *(.stack)
LOAD c:/ndsdev/devkitpro/devkitarm/bin/../lib/gcc/arm-eabi/4.6.0/../../../../arm-eabi/lib/thumb/ds_arm9_crt0.o
LOAD c:/ndsdev/devkitpro/devkitarm/bin/../lib/gcc/arm-eabi/4.6.0/thumb/crti.o
LOAD c:/ndsdev/devkitpro/devkitarm/bin/../lib/gcc/arm-eabi/4.6.0/thumb/crtbegin.o
LOAD bg_create_Map.o
LOAD bg_create_Pal.o
LOAD bg_create_Tiles.o
LOAD bg_dialog_Map.o
LOAD bg_dialog_Pal.o
LOAD bg_dialog_Tiles.o
LOAD bg_down_Map.o
LOAD bg_down_Pal.o
LOAD bg_down_Sprite.o
LOAD bg_down_Tiles.o
LOAD bg_edit_dialog_Map.o
LOAD bg_edit_dialog_Pal.o
LOAD bg_edit_dialog_Tiles.o
LOAD bg_up_Map.o
LOAD bg_up_Pal.o
LOAD bg_up_Tiles.o
LOAD menu_del_Pal.o
LOAD menu_del_Sprite.o
LOAD menu_move_Pal.o
LOAD menu_move_Sprite.o
LOAD menu_serial_Pal.o
LOAD menu_serial_Sprite.o
LOAD menu_setting_Pal.o
LOAD menu_setting_Sprite.o
LOAD menu_usb_Pal.o
LOAD menu_usb_Sprite.o
LOAD menu_wifi_Pal.o
LOAD menu_wifi_Sprite.o
LOAD move_create_Pal.o
LOAD move_create_Sprite.o
LOAD sel_menu_serial_Pal.o
LOAD sel_menu_serial_Sprite.o
LOAD sel_menu_usb_Pal.o
LOAD sel_menu_usb_Sprite.o
LOAD sel_menu_wifi_Pal.o
LOAD sel_menu_wifi_Sprite.o
LOAD selected_Pal.o
LOAD selected_Sprite.o
LOAD down.o
LOAD up.o
LOAD FileManage.o
LOAD Graphic.o
LOAD Main.o
LOAD down_execute.o
LOAD download.o
LOAD serial.o
LOAD usb.o
LOAD wifi.o
LOAD croutine.o
LOAD heap.o
LOAD list.o
LOAD port.o
LOAD portISR.o
LOAD queue.o
LOAD tasks.o
LOAD virtual_io.o
LOAD bg_create.o
LOAD bg_dialog.o
LOAD bg_down.o
LOAD bg_edit_dialog.o
LOAD bg_up.o
LOAD jump.o
LOAD assemfunc.o
LOAD c:/ndsdev/devkitPro/PAlib/lib\libpa9.a
LOAD c:/ndsdev/devkitPro/libnds/lib\libfilesystem.a
LOAD c:/ndsdev/devkitPro/libnds/lib\libfat.a
LOAD c:/ndsdev/devkitPro/libnds/lib\libnds9.a
LOAD c:/ndsdev/devkitPro/libnds/lib\libdswifi9.a
START GROUP
LOAD c:/ndsdev/devkitpro/devkitarm/bin/../lib/gcc/arm-eabi/4.6.0/thumb\libgcc.a
LOAD c:/ndsdev/devkitpro/devkitarm/bin/../lib/gcc/arm-eabi/4.6.0/../../../../arm-eabi/lib/thumb\libg.a
LOAD c:/ndsdev/devkitpro/devkitarm/bin/../lib/gcc/arm-eabi/4.6.0/../../../../arm-eabi/lib/thumb\libc.a
LOAD c:/ndsdev/devkitpro/devkitarm/bin/../lib/gcc/arm-eabi/4.6.0/../../../../arm-eabi/lib/thumb\libsysbase.a
END GROUP
LOAD c:/ndsdev/devkitpro/devkitarm/bin/../lib/gcc/arm-eabi/4.6.0/thumb/crtend.o
LOAD c:/ndsdev/devkitpro/devkitarm/bin/../lib/gcc/arm-eabi/4.6.0/thumb/crtn.o
OUTPUT(c:/ndsdev/workspace/DallShell4DS_110724/DallShell4DS_110724.elf elf32-littlearm)

.debug_ranges   0x00000000     0x5f50 load address 0x0206b4c4
 .debug_ranges  0x00000000     0x15d0 FileManage.o
 .debug_ranges  0x000015d0      0x3c0 Graphic.o
 .debug_ranges  0x00001990       0x38 Main.o
 .debug_ranges  0x000019c8       0x88 croutine.o
 .debug_ranges  0x00001a50      0x210 tasks.o
 .debug_ranges  0x00001c60      0x100 virtual_io.o
 .debug_ranges  0x00001d60      0x100 c:/ndsdev/devkitPro/PAlib/lib\libpa9.a(PA_BgTiles.o)
 .debug_ranges  0x00001e60       0xd8 c:/ndsdev/devkitPro/PAlib/lib\libpa9.a(PA_Inits.o)
 .debug_ranges  0x00001f38      0x168 c:/ndsdev/devkitPro/PAlib/lib\libpa9.a(PA_Keyboard.o)
 .debug_ranges  0x000020a0      0x120 c:/ndsdev/devkitPro/PAlib/lib\libpa9.a(PA_Math.o)
 .debug_ranges  0x000021c0      0x250 c:/ndsdev/devkitPro/PAlib/lib\libpa9.a(PA_NewBg.o)
 .debug_ranges  0x00002410       0xd0 c:/ndsdev/devkitPro/PAlib/lib\libpa9.a(PA_Palette.o)
 .debug_ranges  0x000024e0       0xc0 c:/ndsdev/devkitPro/PAlib/lib\libpa9.a(PA_Reco.o)
 .debug_ranges  0x000025a0      0x148 c:/ndsdev/devkitPro/PAlib/lib\libpa9.a(PA_Sprite.o)
 .debug_ranges  0x000026e8       0x48 c:/ndsdev/devkitPro/PAlib/lib\libpa9.a(PA_Text.o)
 .debug_ranges  0x00002730      0xce0 c:/ndsdev/devkitPro/PAlib/lib\libpa9.a(PA_Text8bit.o)
 .debug_ranges  0x00003410       0x28 c:/ndsdev/devkitPro/PAlib/lib\libpa9.a(PA_TextBits.o)
 .debug_ranges  0x00003438      0x118 c:/ndsdev/devkitPro/PAlib/lib\libpa9.a(PA_TextSpecial.o)
 .debug_ranges  0x00003550       0x48 c:/ndsdev/devkitPro/PAlib/lib\libpa9.a(PA_Wifi.o)
 .debug_ranges  0x00003598       0x58 c:/ndsdev/devkitPro/PAlib/lib\libpa9.a(PA_16c.o)
 .debug_ranges  0x000035f0      0x108 c:/ndsdev/devkitPro/PAlib/lib\libpa9.a(PA_BgEasy.o)
 .debug_ranges  0x000036f8      0x750 c:/ndsdev/devkitPro/PAlib/lib\libpa9.a(PA_BgLargeMap.o)
 .debug_ranges  0x00003e48       0x20 c:/ndsdev/devkitPro/PAlib/lib\libpa9.a(PA_BgRot.o)
 .debug_ranges  0x00003e68       0x28 c:/ndsdev/devkitPro/PAlib/lib\libpa9.a(PA_Draw.o)
 .debug_ranges  0x00003e90       0x78 c:/ndsdev/devkitPro/PAlib/lib\libpa9.a(PA_PaletteEx.o)
 .debug_ranges  0x00003f08       0x48 c:/ndsdev/devkitPro/libnds/lib\libfat.a(libfat.o)
 .debug_ranges  0x00003f50      0x1f0 c:/ndsdev/devkitPro/libnds/lib\libfat.a(partition.o)
 .debug_ranges  0x00004140       0x48 c:/ndsdev/devkitPro/libnds/lib\libfat.a(cache.o)
 .debug_ranges  0x00004188      0x3a8 c:/ndsdev/devkitPro/libnds/lib\libfat.a(directory.o)
 .debug_ranges  0x00004530       0xd8 c:/ndsdev/devkitPro/libnds/lib\libfat.a(fatdir.o)
 .debug_ranges  0x00004608      0x2c8 c:/ndsdev/devkitPro/libnds/lib\libfat.a(fatfile.o)
 .debug_ranges  0x000048d0       0x38 c:/ndsdev/devkitPro/libnds/lib\libfat.a(file_allocation_table.o)
 .debug_ranges  0x00004908       0x88 c:/ndsdev/devkitPro/libnds/lib\libnds9.a(background.o)
 .debug_ranges  0x00004990      0x2f8 c:/ndsdev/devkitPro/libnds/lib\libnds9.a(console.o)
 .debug_ranges  0x00004c88       0x18 c:/ndsdev/devkitPro/libnds/lib\libnds9.a(touch.o)
 .debug_ranges  0x00004ca0       0x80 c:/ndsdev/devkitPro/libnds/lib\libnds9.a(trig.o)
 .debug_ranges  0x00004d20       0x60 c:/ndsdev/devkitPro/libnds/lib\libnds9.a(video.o)
 .debug_ranges  0x00004d80       0x30 c:/ndsdev/devkitPro/libnds/lib\libnds9.a(dldi.o)
 .debug_ranges  0x00004db0      0x498 c:/ndsdev/devkitPro/libnds/lib\libnds9.a(fifosystem.o)
 .debug_ranges  0x00005248       0x30 c:/ndsdev/devkitPro/libnds/lib\libnds9.a(interrupts.o)
 .debug_ranges  0x00005278      0x1c0 c:/ndsdev/devkitPro/libnds/lib\libdswifi9.a(sgIP_DNS.o)
 .debug_ranges  0x00005438       0x18 c:/ndsdev/devkitPro/libnds/lib\libdswifi9.a(sgIP_Hub.o)
 .debug_ranges  0x00005450       0x48 c:/ndsdev/devkitPro/libnds/lib\libdswifi9.a(sgIP_memblock.o)
 .debug_ranges  0x00005498      0x4f0 c:/ndsdev/devkitPro/libnds/lib\libdswifi9.a(sgIP_sockets.o)
 .debug_ranges  0x00005988      0x310 c:/ndsdev/devkitPro/libnds/lib\libdswifi9.a(wifi_arm9.o)
 .debug_ranges  0x00005c98       0x18 c:/ndsdev/devkitPro/libnds/lib\libdswifi9.a(sgIP_ARP.o)
 .debug_ranges  0x00005cb0      0x188 c:/ndsdev/devkitPro/libnds/lib\libdswifi9.a(sgIP_TCP.o)
 .debug_ranges  0x00005e38      0x118 c:/ndsdev/devkitPro/libnds/lib\libdswifi9.a(sgIP_UDP.o)

.debug_pubtypes
                0x00000000     0x7466 load address 0x0206b4c4
 .debug_pubtypes
                0x00000000      0x382 c:/ndsdev/devkitPro/PAlib/lib\libpa9.a(PA.o)
 .debug_pubtypes
                0x00000382      0x33f c:/ndsdev/devkitPro/PAlib/lib\libpa9.a(PA_BgTiles.o)
 .debug_pubtypes
                0x000006c1      0x308 c:/ndsdev/devkitPro/PAlib/lib\libpa9.a(PA_Error.o)
 .debug_pubtypes
                0x000009c9      0x343 c:/ndsdev/devkitPro/PAlib/lib\libpa9.a(PA_Inits.o)
 .debug_pubtypes
                0x00000d0c      0x327 c:/ndsdev/devkitPro/PAlib/lib\libpa9.a(PA_Interrupt.o)
 .debug_pubtypes
                0x00001033      0x31d c:/ndsdev/devkitPro/PAlib/lib\libpa9.a(PA_Keyboard.o)
 .debug_pubtypes
                0x00001350      0x350 c:/ndsdev/devkitPro/PAlib/lib\libpa9.a(PA_Keys.o)
 .debug_pubtypes
                0x000016a0      0x331 c:/ndsdev/devkitPro/PAlib/lib\libpa9.a(PA_Math.o)
 .debug_pubtypes
                0x000019d1      0x341 c:/ndsdev/devkitPro/PAlib/lib\libpa9.a(PA_NewBg.o)
 .debug_pubtypes
                0x00001d12      0x365 c:/ndsdev/devkitPro/PAlib/lib\libpa9.a(PA_Palette.o)
 .debug_pubtypes
                0x00002077      0x349 c:/ndsdev/devkitPro/PAlib/lib\libpa9.a(PA_RTC.o)
 .debug_pubtypes
                0x000023c0      0x341 c:/ndsdev/devkitPro/PAlib/lib\libpa9.a(PA_Reco.o)
 .debug_pubtypes
                0x00002701      0x33d c:/ndsdev/devkitPro/PAlib/lib\libpa9.a(PA_Sprite.o)
 .debug_pubtypes
                0x00002a3e      0x3bd c:/ndsdev/devkitPro/PAlib/lib\libpa9.a(PA_Stuff.o)
 .debug_pubtypes
                0x00002dfb      0x359 c:/ndsdev/devkitPro/PAlib/lib\libpa9.a(PA_Text.o)
 .debug_pubtypes
                0x00003154      0x323 c:/ndsdev/devkitPro/PAlib/lib\libpa9.a(PA_Text8bit.o)
 .debug_pubtypes
                0x00003477      0x316 c:/ndsdev/devkitPro/PAlib/lib\libpa9.a(PA_TextBits.o)
 .debug_pubtypes
                0x0000378d      0x308 c:/ndsdev/devkitPro/PAlib/lib\libpa9.a(PA_TextSpecial.o)
 .debug_pubtypes
                0x00003a95      0x35a c:/ndsdev/devkitPro/PAlib/lib\libpa9.a(PA_Wifi.o)
 .debug_pubtypes
                0x00003def       0x2d c:/ndsdev/devkitPro/PAlib/lib\libpa9.a(PA_TiledFont.o)
 .debug_pubtypes
                0x00003e1c       0x2d c:/ndsdev/devkitPro/PAlib/lib\libpa9.a(PA_BmpFont0.o)
 .debug_pubtypes
                0x00003e49       0x2d c:/ndsdev/devkitPro/PAlib/lib\libpa9.a(PA_BmpFont1.o)
 .debug_pubtypes
                0x00003e76       0x2d c:/ndsdev/devkitPro/PAlib/lib\libpa9.a(PA_BmpFont2.o)
 .debug_pubtypes
                0x00003ea3       0x2d c:/ndsdev/devkitPro/PAlib/lib\libpa9.a(PA_BmpFont3.o)
 .debug_pubtypes
                0x00003ed0       0x2d c:/ndsdev/devkitPro/PAlib/lib\libpa9.a(PA_BmpFont4.o)
 .debug_pubtypes
                0x00003efd      0x32b c:/ndsdev/devkitPro/PAlib/lib\libpa9.a(PA_16c.o)
 .debug_pubtypes
                0x00004228      0x311 c:/ndsdev/devkitPro/PAlib/lib\libpa9.a(PA_BgEasy.o)
 .debug_pubtypes
                0x00004539      0x311 c:/ndsdev/devkitPro/PAlib/lib\libpa9.a(PA_BgLargeMap.o)
 .debug_pubtypes
                0x0000484a      0x314 c:/ndsdev/devkitPro/PAlib/lib\libpa9.a(PA_BgRot.o)
 .debug_pubtypes
                0x00004b5e      0x327 c:/ndsdev/devkitPro/PAlib/lib\libpa9.a(PA_Draw.o)
 .debug_pubtypes
                0x00004e85      0x32d c:/ndsdev/devkitPro/PAlib/lib\libpa9.a(PA_Fifo.o)
 .debug_pubtypes
                0x000051b2      0x360 c:/ndsdev/devkitPro/PAlib/lib\libpa9.a(PA_PaletteEx.o)
 .debug_pubtypes
                0x00005512      0x397 c:/ndsdev/devkitPro/libnds/lib\libfat.a(libfat.o)
 .debug_pubtypes
                0x000058a9      0x3a9 c:/ndsdev/devkitPro/libnds/lib\libfat.a(partition.o)
 .debug_pubtypes
                0x00005c52      0x13a c:/ndsdev/devkitPro/libnds/lib\libfat.a(cache.o)
 .debug_pubtypes
                0x00005d8c      0x294 c:/ndsdev/devkitPro/libnds/lib\libfat.a(directory.o)
 .debug_pubtypes
                0x00006020      0x105 c:/ndsdev/devkitPro/libnds/lib\libfat.a(disc.o)
 .debug_pubtypes
                0x00006125      0x35a c:/ndsdev/devkitPro/libnds/lib\libfat.a(fatdir.o)
 .debug_pubtypes
                0x0000647f      0x366 c:/ndsdev/devkitPro/libnds/lib\libfat.a(fatfile.o)
 .debug_pubtypes
                0x000067e5      0x15d c:/ndsdev/devkitPro/libnds/lib\libfat.a(file_allocation_table.o)
 .debug_pubtypes
                0x00006942       0x31 c:/ndsdev/devkitPro/libnds/lib\libfat.a(filetime.o)
 .debug_pubtypes
                0x00006973       0x1e c:/ndsdev/devkitPro/libnds/lib\libfat.a(lock.o)
 .debug_pubtypes
                0x00006991       0xfc c:/ndsdev/devkitPro/libnds/lib\libdswifi9.a(sgIP_DNS.o)
 .debug_pubtypes
                0x00006a8d       0x94 c:/ndsdev/devkitPro/libnds/lib\libdswifi9.a(sgIP_Hub.o)
 .debug_pubtypes
                0x00006b21       0x4f c:/ndsdev/devkitPro/libnds/lib\libdswifi9.a(sgIP_memblock.o)
 .debug_pubtypes
                0x00006b70      0x186 c:/ndsdev/devkitPro/libnds/lib\libdswifi9.a(sgIP_sockets.o)
 .debug_pubtypes
                0x00006cf6      0x323 c:/ndsdev/devkitPro/libnds/lib\libdswifi9.a(wifi_arm9.o)
 .debug_pubtypes
                0x00007019       0x12 c:/ndsdev/devkitPro/libnds/lib\libdswifi9.a(sgIP.o)
 .debug_pubtypes
                0x0000702b       0xea c:/ndsdev/devkitPro/libnds/lib\libdswifi9.a(sgIP_ARP.o)
 .debug_pubtypes
                0x00007115      0x103 c:/ndsdev/devkitPro/libnds/lib\libdswifi9.a(sgIP_DHCP.o)
 .debug_pubtypes
                0x00007218       0x5c c:/ndsdev/devkitPro/libnds/lib\libdswifi9.a(sgIP_IP.o)
 .debug_pubtypes
                0x00007274       0xe0 c:/ndsdev/devkitPro/libnds/lib\libdswifi9.a(sgIP_TCP.o)
 .debug_pubtypes
                0x00007354       0xb2 c:/ndsdev/devkitPro/libnds/lib\libdswifi9.a(sgIP_UDP.o)
 .debug_pubtypes
                0x00007406       0x60 c:/ndsdev/devkitPro/libnds/lib\libdswifi9.a(sgIP_ICMP.o)
